ARM GAS  C:\Users\ASUS\AppData\Local\Temp\ccAE7Y5b.s 			page 1


   1              		.syntax unified
   2              		.cpu cortex-m0plus
   3              		.fpu softvfp
   4              		.eabi_attribute 20, 1
   5              		.eabi_attribute 21, 1
   6              		.eabi_attribute 23, 3
   7              		.eabi_attribute 24, 1
   8              		.eabi_attribute 25, 1
   9              		.eabi_attribute 26, 1
  10              		.eabi_attribute 30, 1
  11              		.eabi_attribute 34, 0
  12              		.eabi_attribute 18, 4
  13              		.thumb
  14              		.syntax unified
  15              		.file	"RTC.c"
  16              		.text
  17              	.Ltext0:
  18              		.cfi_sections	.debug_frame
  19              		.section	.text.RTC_Interrupt,"ax",%progbits
  20              		.align	2
  21              		.code	16
  22              		.thumb_func
  23              		.type	RTC_Interrupt, %function
  24              	RTC_Interrupt:
  25              	.LFB103:
  26              		.file 1 "Generated_Source\\PSoC6\\RTC.h"
   1:Generated_Source\PSoC6/RTC.h **** /*******************************************************************************
   2:Generated_Source\PSoC6/RTC.h **** * \file RTC.h
   3:Generated_Source\PSoC6/RTC.h **** * \version 2.0
   4:Generated_Source\PSoC6/RTC.h **** *
   5:Generated_Source\PSoC6/RTC.h **** * This file provides the constants and parameter values for the RTC Component.
   6:Generated_Source\PSoC6/RTC.h **** *
   7:Generated_Source\PSoC6/RTC.h **** ********************************************************************************
   8:Generated_Source\PSoC6/RTC.h **** * Copyright 2016-2017, Cypress Semiconductor Corporation.  All rights reserved.
   9:Generated_Source\PSoC6/RTC.h **** * You may use this file only in accordance with the license, terms, conditions,
  10:Generated_Source\PSoC6/RTC.h **** * disclaimers, and limitations in the end user license agreement accompanying
  11:Generated_Source\PSoC6/RTC.h **** * the software package with which this file was provided.
  12:Generated_Source\PSoC6/RTC.h **** *******************************************************************************/
  13:Generated_Source\PSoC6/RTC.h **** 
  14:Generated_Source\PSoC6/RTC.h **** #if !defined(RTC_RTC_PDL_H)
  15:Generated_Source\PSoC6/RTC.h **** #define RTC_RTC_PDL_H
  16:Generated_Source\PSoC6/RTC.h **** 
  17:Generated_Source\PSoC6/RTC.h **** #include "cyfitter.h"
  18:Generated_Source\PSoC6/RTC.h **** #include "rtc/cy_rtc.h"
  19:Generated_Source\PSoC6/RTC.h **** 
  20:Generated_Source\PSoC6/RTC.h **** /* Initial interrupt state definition */
  21:Generated_Source\PSoC6/RTC.h **** #define RTC_INITIAL_IRQ_STATUS        (1u)
  22:Generated_Source\PSoC6/RTC.h **** 
  23:Generated_Source\PSoC6/RTC.h **** 
  24:Generated_Source\PSoC6/RTC.h **** /*******************************************************************************
  25:Generated_Source\PSoC6/RTC.h **** *       Additional includes
  26:Generated_Source\PSoC6/RTC.h **** *******************************************************************************/
  27:Generated_Source\PSoC6/RTC.h **** #if (0u != RTC_INITIAL_IRQ_STATUS)
  28:Generated_Source\PSoC6/RTC.h ****     #include "sysint/cy_sysint.h"
  29:Generated_Source\PSoC6/RTC.h ****     #include "cyfitter_sysint.h"
  30:Generated_Source\PSoC6/RTC.h ****     #include "cyfitter_sysint_cfg.h"
  31:Generated_Source\PSoC6/RTC.h **** #endif /* (0u != RTC_INITIAL_IRQ_STATUS) */
ARM GAS  C:\Users\ASUS\AppData\Local\Temp\ccAE7Y5b.s 			page 2


  32:Generated_Source\PSoC6/RTC.h **** 
  33:Generated_Source\PSoC6/RTC.h **** 
  34:Generated_Source\PSoC6/RTC.h **** /*******************************************************************************
  35:Generated_Source\PSoC6/RTC.h **** *    Parameters definitions
  36:Generated_Source\PSoC6/RTC.h **** *******************************************************************************/
  37:Generated_Source\PSoC6/RTC.h **** /* Date Format setting constants */
  38:Generated_Source\PSoC6/RTC.h **** #define RTC_MM_DD_YYYY                (0u)
  39:Generated_Source\PSoC6/RTC.h **** #define RTC_DD_MM_YYYY                (1u)
  40:Generated_Source\PSoC6/RTC.h **** #define RTC_YYYY_MM_DD                (2u)
  41:Generated_Source\PSoC6/RTC.h **** 
  42:Generated_Source\PSoC6/RTC.h **** /* Initial Date format definition */
  43:Generated_Source\PSoC6/RTC.h **** #define RTC_INITIAL_DATA_FORMAT       (0u)
  44:Generated_Source\PSoC6/RTC.h **** 
  45:Generated_Source\PSoC6/RTC.h **** /* Time reset on start constant */
  46:Generated_Source\PSoC6/RTC.h **** #define RTC_TIME_RESET_ON_START       (0u)
  47:Generated_Source\PSoC6/RTC.h **** 
  48:Generated_Source\PSoC6/RTC.h **** /* Initial Time and Date definitions */
  49:Generated_Source\PSoC6/RTC.h **** #define RTC_INITIAL_DATE_SEC          (0u)
  50:Generated_Source\PSoC6/RTC.h **** #define RTC_INITIAL_DATE_MIN          (0u)
  51:Generated_Source\PSoC6/RTC.h **** #define RTC_INITIAL_DATE_HOUR         (9u)
  52:Generated_Source\PSoC6/RTC.h **** #define RTC_INITIAL_DATE_HOUR_FORMAT  (CY_RTC_24_HOURS)
  53:Generated_Source\PSoC6/RTC.h **** #define RTC_INITIAL_DATE_DOW          (2u)
  54:Generated_Source\PSoC6/RTC.h **** #define RTC_INITIAL_DATE_DOM          (23u)
  55:Generated_Source\PSoC6/RTC.h **** #define RTC_INITIAL_DATE_MONTH        (3u)
  56:Generated_Source\PSoC6/RTC.h **** #define RTC_INITIAL_DATE_YEAR         (20u)
  57:Generated_Source\PSoC6/RTC.h **** 
  58:Generated_Source\PSoC6/RTC.h **** /* Initial DST definitions */
  59:Generated_Source\PSoC6/RTC.h **** #define RTC_INITIAL_DST_STATUS        (0u)
  60:Generated_Source\PSoC6/RTC.h **** 
  61:Generated_Source\PSoC6/RTC.h **** #if(0u != RTC_INITIAL_DST_STATUS)
  62:Generated_Source\PSoC6/RTC.h ****     
  63:Generated_Source\PSoC6/RTC.h ****     #if(0u != RTC_TIME_RESET_ON_START)
  64:Generated_Source\PSoC6/RTC.h **** 
  65:Generated_Source\PSoC6/RTC.h ****         /* Definition of delay time which is required in Start function */
  66:Generated_Source\PSoC6/RTC.h ****         #define RTC_DELAY_BEFORE_DST          (500u)
  67:Generated_Source\PSoC6/RTC.h ****     #endif /* (0u != RTC_TIME_RESET_ON_START) */
  68:Generated_Source\PSoC6/RTC.h ****     
  69:Generated_Source\PSoC6/RTC.h ****     #define RTC_INITIAL_DST_DATE_TYPE     (0u)
  70:Generated_Source\PSoC6/RTC.h ****     #define RTC_INITIAL_DST_START_MONTH   (3u)
  71:Generated_Source\PSoC6/RTC.h ****     #define RTC_INITIAL_DST_START_WOM     (6u)
  72:Generated_Source\PSoC6/RTC.h ****     #define RTC_INITIAL_DST_START_DOM     (22u)
  73:Generated_Source\PSoC6/RTC.h ****     #define RTC_INITIAL_DST_START_DOW     (1u)
  74:Generated_Source\PSoC6/RTC.h ****     #define RTC_INITIAL_DST_START_HRS     (0u)
  75:Generated_Source\PSoC6/RTC.h ****     #define RTC_INITIAL_DST_STOP_MONTH    (10u)
  76:Generated_Source\PSoC6/RTC.h ****     #define RTC_INITIAL_DST_STOP_DOM      (22u)
  77:Generated_Source\PSoC6/RTC.h ****     #define RTC_INITIAL_DST_STOP_DOW      (1u)
  78:Generated_Source\PSoC6/RTC.h ****     #define RTC_INITIAL_DST_STOP_WOM      (6u)
  79:Generated_Source\PSoC6/RTC.h ****     #define RTC_INITIAL_DST_STOP_HRS      (0u)
  80:Generated_Source\PSoC6/RTC.h **** #endif /* (0u != RTC_INITIAL_DST_STATUS) */
  81:Generated_Source\PSoC6/RTC.h **** 
  82:Generated_Source\PSoC6/RTC.h **** /*
  83:Generated_Source\PSoC6/RTC.h **** * Definition of the date register fields. These macros are for creating a date
  84:Generated_Source\PSoC6/RTC.h **** * value in a single word with the required date elements sequence.
  85:Generated_Source\PSoC6/RTC.h **** */
  86:Generated_Source\PSoC6/RTC.h **** #if(RTC_INITIAL_DATA_FORMAT == RTC_MM_DD_YYYY)
  87:Generated_Source\PSoC6/RTC.h ****     #define RTC_10_MONTH_OFFSET   (28u)
  88:Generated_Source\PSoC6/RTC.h ****     #define RTC_MONTH_OFFSET      (24u)
ARM GAS  C:\Users\ASUS\AppData\Local\Temp\ccAE7Y5b.s 			page 3


  89:Generated_Source\PSoC6/RTC.h ****     #define RTC_10_DAY_OFFSET     (20u)
  90:Generated_Source\PSoC6/RTC.h ****     #define RTC_DAY_OFFSET        (16u)
  91:Generated_Source\PSoC6/RTC.h ****     #define RTC_1000_YEAR_OFFSET  (12u)
  92:Generated_Source\PSoC6/RTC.h ****     #define RTC_100_YEAR_OFFSET   (8u)
  93:Generated_Source\PSoC6/RTC.h ****     #define RTC_10_YEAR_OFFSET    (4u)
  94:Generated_Source\PSoC6/RTC.h ****     #define RTC_YEAR_OFFSET       (0u)
  95:Generated_Source\PSoC6/RTC.h **** #elif(RTC_INITIAL_DATA_FORMAT == RTC_DD_MM_YYYY)
  96:Generated_Source\PSoC6/RTC.h ****     #define RTC_10_MONTH_OFFSET   (20u)
  97:Generated_Source\PSoC6/RTC.h ****     #define RTC_MONTH_OFFSET      (16u)
  98:Generated_Source\PSoC6/RTC.h ****     #define RTC_10_DAY_OFFSET     (28u)
  99:Generated_Source\PSoC6/RTC.h ****     #define RTC_DAY_OFFSET        (24u)
 100:Generated_Source\PSoC6/RTC.h ****     #define RTC_1000_YEAR_OFFSET  (12u)
 101:Generated_Source\PSoC6/RTC.h ****     #define RTC_100_YEAR_OFFSET   (8u)
 102:Generated_Source\PSoC6/RTC.h ****     #define RTC_10_YEAR_OFFSET    (4u)
 103:Generated_Source\PSoC6/RTC.h ****     #define RTC_YEAR_OFFSET       (0u)
 104:Generated_Source\PSoC6/RTC.h **** #else
 105:Generated_Source\PSoC6/RTC.h ****     #define RTC_10_MONTH_OFFSET   (12u)
 106:Generated_Source\PSoC6/RTC.h ****     #define RTC_MONTH_OFFSET      (8u)
 107:Generated_Source\PSoC6/RTC.h ****     #define RTC_10_DAY_OFFSET     (4u)
 108:Generated_Source\PSoC6/RTC.h ****     #define RTC_DAY_OFFSET        (0u)
 109:Generated_Source\PSoC6/RTC.h ****     #define RTC_1000_YEAR_OFFSET  (28u)
 110:Generated_Source\PSoC6/RTC.h ****     #define RTC_100_YEAR_OFFSET   (24u)
 111:Generated_Source\PSoC6/RTC.h ****     #define RTC_10_YEAR_OFFSET    (20u)
 112:Generated_Source\PSoC6/RTC.h ****     #define RTC_YEAR_OFFSET       (16u)
 113:Generated_Source\PSoC6/RTC.h **** #endif /* (RTC_INITIAL_DATA_FORMAT == RTC_MM_DD_YYYY) */
 114:Generated_Source\PSoC6/RTC.h **** 
 115:Generated_Source\PSoC6/RTC.h **** 
 116:Generated_Source\PSoC6/RTC.h **** /*******************************************************************************
 117:Generated_Source\PSoC6/RTC.h **** *    Global Variables
 118:Generated_Source\PSoC6/RTC.h **** *******************************************************************************/
 119:Generated_Source\PSoC6/RTC.h **** extern uint8_t RTC_initVar;
 120:Generated_Source\PSoC6/RTC.h **** /**
 121:Generated_Source\PSoC6/RTC.h **** * \addtogroup group_globals
 122:Generated_Source\PSoC6/RTC.h **** * \{
 123:Generated_Source\PSoC6/RTC.h **** */
 124:Generated_Source\PSoC6/RTC.h **** extern bool RTC_rtcDstStatus;
 125:Generated_Source\PSoC6/RTC.h **** extern cy_stc_rtc_dst_t const RTC_dstConfig;
 126:Generated_Source\PSoC6/RTC.h **** extern cy_stc_rtc_config_t const RTC_config;
 127:Generated_Source\PSoC6/RTC.h **** /** \} group_globals */
 128:Generated_Source\PSoC6/RTC.h **** 
 129:Generated_Source\PSoC6/RTC.h **** 
 130:Generated_Source\PSoC6/RTC.h **** /*******************************************************************************
 131:Generated_Source\PSoC6/RTC.h **** *    Function Prototypes
 132:Generated_Source\PSoC6/RTC.h **** *******************************************************************************/
 133:Generated_Source\PSoC6/RTC.h **** void RTC_Start(void);
 134:Generated_Source\PSoC6/RTC.h **** 
 135:Generated_Source\PSoC6/RTC.h **** __STATIC_INLINE cy_en_rtc_status_t RTC_Init(cy_stc_rtc_config_t const *config);
 136:Generated_Source\PSoC6/RTC.h **** __STATIC_INLINE cy_en_rtc_status_t RTC_SetDateAndTime(cy_stc_rtc_config_t const *dateTime);
 137:Generated_Source\PSoC6/RTC.h **** __STATIC_INLINE cy_en_rtc_status_t RTC_SetDateAndTimeDirect(uint32_t sec, uint32_t min, uint32_t ho
 138:Generated_Source\PSoC6/RTC.h ****                                                                   uint32_t date, uint32_t month, ui
 139:Generated_Source\PSoC6/RTC.h **** __STATIC_INLINE void RTC_GetDateAndTime(cy_stc_rtc_config_t *dateTime);
 140:Generated_Source\PSoC6/RTC.h **** 
 141:Generated_Source\PSoC6/RTC.h **** __STATIC_INLINE cy_en_rtc_status_t RTC_SetAlarmDateAndTime(cy_stc_rtc_alarm_t const *alarmDateTime,
 142:Generated_Source\PSoC6/RTC.h ****                                                                         cy_en_rtc_alarm_t alarmInde
 143:Generated_Source\PSoC6/RTC.h **** __STATIC_INLINE void RTC_GetAlarmDateAndTime(cy_stc_rtc_alarm_t *alarmDateTime,
 144:Generated_Source\PSoC6/RTC.h ****                                                                cy_en_rtc_alarm_t alarmIndex);
 145:Generated_Source\PSoC6/RTC.h **** __STATIC_INLINE cy_en_rtc_status_t RTC_SetAlarmDateAndTimeDirect(uint32_t sec, uint32_t min, 
ARM GAS  C:\Users\ASUS\AppData\Local\Temp\ccAE7Y5b.s 			page 4


 146:Generated_Source\PSoC6/RTC.h ****                                                                               uint32_t hour, uint32
 147:Generated_Source\PSoC6/RTC.h ****                                                                               uint32_t month, cy_en
 148:Generated_Source\PSoC6/RTC.h **** 
 149:Generated_Source\PSoC6/RTC.h **** __STATIC_INLINE cy_en_rtc_hours_format_t RTC_GetHoursFormat(void);
 150:Generated_Source\PSoC6/RTC.h **** __STATIC_INLINE cy_en_rtc_status_t RTC_SetHoursFormat(cy_en_rtc_hours_format_t hourMode);
 151:Generated_Source\PSoC6/RTC.h **** __STATIC_INLINE void RTC_SelectFrequencyPrescaler(cy_en_rtc_clock_freq_t clkSel);
 152:Generated_Source\PSoC6/RTC.h **** 
 153:Generated_Source\PSoC6/RTC.h **** __STATIC_INLINE uint32_t RTC_GetInterruptStatus(void);
 154:Generated_Source\PSoC6/RTC.h **** __STATIC_INLINE void RTC_ClearInterrupt(uint32_t interruptMask);
 155:Generated_Source\PSoC6/RTC.h **** __STATIC_INLINE void RTC_SetInterrupt(uint32_t interruptMask);
 156:Generated_Source\PSoC6/RTC.h **** __STATIC_INLINE uint32_t RTC_GetInterruptMask(void);
 157:Generated_Source\PSoC6/RTC.h **** __STATIC_INLINE void RTC_SetInterruptMask(uint32_t interruptMask);
 158:Generated_Source\PSoC6/RTC.h **** 
 159:Generated_Source\PSoC6/RTC.h **** #if(0u != RTC_INITIAL_IRQ_STATUS)
 160:Generated_Source\PSoC6/RTC.h **** 
 161:Generated_Source\PSoC6/RTC.h ****     __STATIC_INLINE void RTC_Interrupt(void);
 162:Generated_Source\PSoC6/RTC.h ****     __STATIC_INLINE void RTC_DstInterrupt(cy_stc_rtc_dst_t const *dstTime);
 163:Generated_Source\PSoC6/RTC.h **** 
 164:Generated_Source\PSoC6/RTC.h ****     #if(0u != RTC_INITIAL_DST_STATUS)
 165:Generated_Source\PSoC6/RTC.h **** 
 166:Generated_Source\PSoC6/RTC.h ****         __STATIC_INLINE cy_en_rtc_status_t RTC_EnableDstTime(cy_stc_rtc_dst_t const *dstTime, 
 167:Generated_Source\PSoC6/RTC.h ****                                                                           cy_stc_rtc_config_t const
 168:Generated_Source\PSoC6/RTC.h ****         __STATIC_INLINE cy_en_rtc_status_t RTC_SetNextDstTime(cy_stc_rtc_dst_format_t const *nextDs
 169:Generated_Source\PSoC6/RTC.h ****         __STATIC_INLINE bool RTC_GetDstStatus(cy_stc_rtc_dst_t const *dstTime, 
 170:Generated_Source\PSoC6/RTC.h ****                                                            cy_stc_rtc_config_t const *timeDate);
 171:Generated_Source\PSoC6/RTC.h ****     #endif /* (0u != RTC_INITIAL_DST_STATUS) */
 172:Generated_Source\PSoC6/RTC.h **** #endif /* (0u != RTC_INITIAL_IRQ_STATUS) */
 173:Generated_Source\PSoC6/RTC.h **** 
 174:Generated_Source\PSoC6/RTC.h **** 
 175:Generated_Source\PSoC6/RTC.h **** /*******************************************************************************
 176:Generated_Source\PSoC6/RTC.h **** * Function Name: RTC_Init
 177:Generated_Source\PSoC6/RTC.h **** ****************************************************************************//**
 178:Generated_Source\PSoC6/RTC.h **** *
 179:Generated_Source\PSoC6/RTC.h **** * Invokes the Cy_RTC_Init() PDL driver function.
 180:Generated_Source\PSoC6/RTC.h **** *
 181:Generated_Source\PSoC6/RTC.h **** *******************************************************************************/
 182:Generated_Source\PSoC6/RTC.h **** __STATIC_INLINE cy_en_rtc_status_t RTC_Init(cy_stc_rtc_config_t const *config)
 183:Generated_Source\PSoC6/RTC.h **** {
 184:Generated_Source\PSoC6/RTC.h ****     return(Cy_RTC_Init(config));
 185:Generated_Source\PSoC6/RTC.h **** }
 186:Generated_Source\PSoC6/RTC.h **** 
 187:Generated_Source\PSoC6/RTC.h **** 
 188:Generated_Source\PSoC6/RTC.h **** /*******************************************************************************
 189:Generated_Source\PSoC6/RTC.h **** * Function Name: RTC_GetHoursFormat
 190:Generated_Source\PSoC6/RTC.h **** ****************************************************************************//**
 191:Generated_Source\PSoC6/RTC.h **** *
 192:Generated_Source\PSoC6/RTC.h **** * Invokes the Cy_RTC_GetHoursFormat() PDL driver function.
 193:Generated_Source\PSoC6/RTC.h **** *
 194:Generated_Source\PSoC6/RTC.h **** *******************************************************************************/
 195:Generated_Source\PSoC6/RTC.h **** __STATIC_INLINE cy_en_rtc_hours_format_t RTC_GetHoursFormat(void)
 196:Generated_Source\PSoC6/RTC.h **** {
 197:Generated_Source\PSoC6/RTC.h ****     return(Cy_RTC_GetHoursFormat());
 198:Generated_Source\PSoC6/RTC.h **** }
 199:Generated_Source\PSoC6/RTC.h **** 
 200:Generated_Source\PSoC6/RTC.h **** 
 201:Generated_Source\PSoC6/RTC.h **** /*******************************************************************************
 202:Generated_Source\PSoC6/RTC.h **** * Function Name: RTC_SetHoursFormat
ARM GAS  C:\Users\ASUS\AppData\Local\Temp\ccAE7Y5b.s 			page 5


 203:Generated_Source\PSoC6/RTC.h **** ****************************************************************************//**
 204:Generated_Source\PSoC6/RTC.h **** *
 205:Generated_Source\PSoC6/RTC.h **** * Invokes the Cy_RTC_SetHoursFormat() PDL driver function.
 206:Generated_Source\PSoC6/RTC.h **** *
 207:Generated_Source\PSoC6/RTC.h **** *******************************************************************************/
 208:Generated_Source\PSoC6/RTC.h **** __STATIC_INLINE cy_en_rtc_status_t RTC_SetHoursFormat(cy_en_rtc_hours_format_t hourMode)
 209:Generated_Source\PSoC6/RTC.h **** {
 210:Generated_Source\PSoC6/RTC.h ****     return(Cy_RTC_SetHoursFormat(hourMode));
 211:Generated_Source\PSoC6/RTC.h **** }
 212:Generated_Source\PSoC6/RTC.h **** 
 213:Generated_Source\PSoC6/RTC.h **** 
 214:Generated_Source\PSoC6/RTC.h **** /*******************************************************************************
 215:Generated_Source\PSoC6/RTC.h **** * Function Name: RTC_SelectFrequencyPrescaler()
 216:Generated_Source\PSoC6/RTC.h **** ****************************************************************************//**
 217:Generated_Source\PSoC6/RTC.h **** *
 218:Generated_Source\PSoC6/RTC.h **** * Invokes the Cy_RTC_SelectFrequencyPrescaler() PDL driver function.
 219:Generated_Source\PSoC6/RTC.h **** *
 220:Generated_Source\PSoC6/RTC.h **** *******************************************************************************/
 221:Generated_Source\PSoC6/RTC.h **** __STATIC_INLINE void RTC_SelectFrequencyPrescaler(cy_en_rtc_clock_freq_t clkSel)
 222:Generated_Source\PSoC6/RTC.h **** {
 223:Generated_Source\PSoC6/RTC.h ****     Cy_RTC_SelectFrequencyPrescaler(clkSel);
 224:Generated_Source\PSoC6/RTC.h **** }
 225:Generated_Source\PSoC6/RTC.h **** 
 226:Generated_Source\PSoC6/RTC.h **** 
 227:Generated_Source\PSoC6/RTC.h **** /*******************************************************************************
 228:Generated_Source\PSoC6/RTC.h **** * Function Name: RTC_SetDateAndTime
 229:Generated_Source\PSoC6/RTC.h **** ****************************************************************************//**
 230:Generated_Source\PSoC6/RTC.h **** *
 231:Generated_Source\PSoC6/RTC.h **** * Invokes the Cy_RTC_SetDateAndTime() PDL driver function.
 232:Generated_Source\PSoC6/RTC.h **** *
 233:Generated_Source\PSoC6/RTC.h **** *******************************************************************************/
 234:Generated_Source\PSoC6/RTC.h **** __STATIC_INLINE cy_en_rtc_status_t RTC_SetDateAndTime(cy_stc_rtc_config_t const *dateTime)
 235:Generated_Source\PSoC6/RTC.h **** {
 236:Generated_Source\PSoC6/RTC.h ****     return(Cy_RTC_SetDateAndTime(dateTime));
 237:Generated_Source\PSoC6/RTC.h **** }
 238:Generated_Source\PSoC6/RTC.h **** 
 239:Generated_Source\PSoC6/RTC.h **** 
 240:Generated_Source\PSoC6/RTC.h **** /*******************************************************************************
 241:Generated_Source\PSoC6/RTC.h **** * Function Name: RTC_GetDateAndTime
 242:Generated_Source\PSoC6/RTC.h **** ****************************************************************************//**
 243:Generated_Source\PSoC6/RTC.h **** *
 244:Generated_Source\PSoC6/RTC.h **** * Invokes the Cy_RTC_GetDateAndTime() PDL driver function.
 245:Generated_Source\PSoC6/RTC.h **** *
 246:Generated_Source\PSoC6/RTC.h **** *******************************************************************************/
 247:Generated_Source\PSoC6/RTC.h **** __STATIC_INLINE void RTC_GetDateAndTime(cy_stc_rtc_config_t *dateTime)
 248:Generated_Source\PSoC6/RTC.h **** {
 249:Generated_Source\PSoC6/RTC.h ****     Cy_RTC_GetDateAndTime(dateTime);
 250:Generated_Source\PSoC6/RTC.h **** }
 251:Generated_Source\PSoC6/RTC.h **** 
 252:Generated_Source\PSoC6/RTC.h **** /*******************************************************************************
 253:Generated_Source\PSoC6/RTC.h **** * Function Name: RTC_SetAlarmDateAndTime
 254:Generated_Source\PSoC6/RTC.h **** ****************************************************************************//**
 255:Generated_Source\PSoC6/RTC.h **** *
 256:Generated_Source\PSoC6/RTC.h **** * Invokes the Cy_RTC_SetAlarmDateAndTime() PDL driver function.
 257:Generated_Source\PSoC6/RTC.h **** *
 258:Generated_Source\PSoC6/RTC.h **** *******************************************************************************/
 259:Generated_Source\PSoC6/RTC.h **** __STATIC_INLINE cy_en_rtc_status_t RTC_SetAlarmDateAndTime(cy_stc_rtc_alarm_t const *alarmDateTime,
ARM GAS  C:\Users\ASUS\AppData\Local\Temp\ccAE7Y5b.s 			page 6


 260:Generated_Source\PSoC6/RTC.h ****                                                                         cy_en_rtc_alarm_t alarmInde
 261:Generated_Source\PSoC6/RTC.h **** {
 262:Generated_Source\PSoC6/RTC.h ****     return(Cy_RTC_SetAlarmDateAndTime(alarmDateTime, alarmIndex));
 263:Generated_Source\PSoC6/RTC.h **** }
 264:Generated_Source\PSoC6/RTC.h **** 
 265:Generated_Source\PSoC6/RTC.h **** 
 266:Generated_Source\PSoC6/RTC.h **** /*******************************************************************************
 267:Generated_Source\PSoC6/RTC.h **** * Function Name: RTC_GetAlarmDateAndTime
 268:Generated_Source\PSoC6/RTC.h **** ****************************************************************************//**
 269:Generated_Source\PSoC6/RTC.h **** *
 270:Generated_Source\PSoC6/RTC.h **** * Invokes the Cy_RTC_GetAlarmDateAndTime() PDL driver function.
 271:Generated_Source\PSoC6/RTC.h **** *
 272:Generated_Source\PSoC6/RTC.h **** *******************************************************************************/
 273:Generated_Source\PSoC6/RTC.h **** __STATIC_INLINE void RTC_GetAlarmDateAndTime(cy_stc_rtc_alarm_t *alarmDateTime, 
 274:Generated_Source\PSoC6/RTC.h ****                                                           cy_en_rtc_alarm_t alarmIndex)
 275:Generated_Source\PSoC6/RTC.h **** {
 276:Generated_Source\PSoC6/RTC.h ****     Cy_RTC_GetAlarmDateAndTime(alarmDateTime, alarmIndex);
 277:Generated_Source\PSoC6/RTC.h **** }
 278:Generated_Source\PSoC6/RTC.h **** 
 279:Generated_Source\PSoC6/RTC.h **** 
 280:Generated_Source\PSoC6/RTC.h **** /*******************************************************************************
 281:Generated_Source\PSoC6/RTC.h **** * Function Name: RTC_SetDateAndTimeDirect
 282:Generated_Source\PSoC6/RTC.h **** ****************************************************************************//**
 283:Generated_Source\PSoC6/RTC.h **** *
 284:Generated_Source\PSoC6/RTC.h **** * Invokes the Cy_RTC_SetDateAndTimeDirect() PDL driver function.
 285:Generated_Source\PSoC6/RTC.h **** *
 286:Generated_Source\PSoC6/RTC.h **** *******************************************************************************/
 287:Generated_Source\PSoC6/RTC.h **** __STATIC_INLINE cy_en_rtc_status_t RTC_SetDateAndTimeDirect(uint32_t sec, uint32_t min, uint32_t ho
 288:Generated_Source\PSoC6/RTC.h ****                                                                          uint32_t date, uint32_t mo
 289:Generated_Source\PSoC6/RTC.h **** {
 290:Generated_Source\PSoC6/RTC.h ****     return(Cy_RTC_SetDateAndTimeDirect(sec, min, hour, date, month, year));
 291:Generated_Source\PSoC6/RTC.h **** }
 292:Generated_Source\PSoC6/RTC.h **** 
 293:Generated_Source\PSoC6/RTC.h **** 
 294:Generated_Source\PSoC6/RTC.h **** /*******************************************************************************
 295:Generated_Source\PSoC6/RTC.h **** * Function Name: RTC_SetAlarmDateAndTimeDirect
 296:Generated_Source\PSoC6/RTC.h **** ****************************************************************************//**
 297:Generated_Source\PSoC6/RTC.h **** *
 298:Generated_Source\PSoC6/RTC.h **** * Invokes the Cy_RTC_SetAlarmDateAndTimeDirect() PDL driver function.
 299:Generated_Source\PSoC6/RTC.h **** *
 300:Generated_Source\PSoC6/RTC.h **** *******************************************************************************/
 301:Generated_Source\PSoC6/RTC.h **** 
 302:Generated_Source\PSoC6/RTC.h **** __STATIC_INLINE cy_en_rtc_status_t RTC_SetAlarmDateAndTimeDirect(uint32_t sec, uint32_t min, 
 303:Generated_Source\PSoC6/RTC.h ****                                                                               uint32_t hour, uint32
 304:Generated_Source\PSoC6/RTC.h ****                                                                               uint32_t month, 
 305:Generated_Source\PSoC6/RTC.h ****                                                                               cy_en_rtc_alarm_t ala
 306:Generated_Source\PSoC6/RTC.h **** {
 307:Generated_Source\PSoC6/RTC.h ****     return(Cy_RTC_SetAlarmDateAndTimeDirect(sec, min, hour, date, month, alarmIndex));
 308:Generated_Source\PSoC6/RTC.h **** }
 309:Generated_Source\PSoC6/RTC.h **** 
 310:Generated_Source\PSoC6/RTC.h **** #if(0u != RTC_INITIAL_IRQ_STATUS)
 311:Generated_Source\PSoC6/RTC.h ****     /*******************************************************************************
 312:Generated_Source\PSoC6/RTC.h ****     * Function Name: RTC_Interrupt
 313:Generated_Source\PSoC6/RTC.h ****     ****************************************************************************//**
 314:Generated_Source\PSoC6/RTC.h ****     *
 315:Generated_Source\PSoC6/RTC.h ****     * RTC interrupt handler function. 
 316:Generated_Source\PSoC6/RTC.h ****     * Invokes the Cy_RTC_Interrupt() PDL driver function.
ARM GAS  C:\Users\ASUS\AppData\Local\Temp\ccAE7Y5b.s 			page 7


 317:Generated_Source\PSoC6/RTC.h ****     *
 318:Generated_Source\PSoC6/RTC.h ****     *******************************************************************************/
 319:Generated_Source\PSoC6/RTC.h ****     __STATIC_INLINE void RTC_Interrupt(void)
 320:Generated_Source\PSoC6/RTC.h ****     {
  27              		.loc 1 320 0
  28              		.cfi_startproc
  29              		@ args = 0, pretend = 0, frame = 0
  30              		@ frame_needed = 0, uses_anonymous_args = 0
  31 0000 10B5     		push	{r4, lr}
  32              		.cfi_def_cfa_offset 8
  33              		.cfi_offset 4, -8
  34              		.cfi_offset 14, -4
 321:Generated_Source\PSoC6/RTC.h ****         Cy_RTC_Interrupt(&RTC_dstConfig, RTC_rtcDstStatus);
  35              		.loc 1 321 0
  36 0002 034B     		ldr	r3, .L2
  37 0004 1978     		ldrb	r1, [r3]
  38 0006 0348     		ldr	r0, .L2+4
  39 0008 FFF7FEFF 		bl	Cy_RTC_Interrupt
  40              	.LVL0:
 322:Generated_Source\PSoC6/RTC.h ****     }
  41              		.loc 1 322 0
  42              		@ sp needed
  43 000c 10BD     		pop	{r4, pc}
  44              	.L3:
  45 000e C046     		.align	2
  46              	.L2:
  47 0010 00000000 		.word	.LANCHOR0
  48 0014 00000000 		.word	RTC_dstConfig
  49              		.cfi_endproc
  50              	.LFE103:
  51              		.size	RTC_Interrupt, .-RTC_Interrupt
  52              		.section	.text.RTC_Start,"ax",%progbits
  53              		.align	2
  54              		.global	RTC_Start
  55              		.code	16
  56              		.thumb_func
  57              		.type	RTC_Start, %function
  58              	RTC_Start:
  59              	.LFB111:
  60              		.file 2 "Generated_Source\\PSoC6\\RTC.c"
   1:Generated_Source\PSoC6/RTC.c **** /*******************************************************************************
   2:Generated_Source\PSoC6/RTC.c **** * \file RTC.c
   3:Generated_Source\PSoC6/RTC.c **** * \version 2.0
   4:Generated_Source\PSoC6/RTC.c **** *
   5:Generated_Source\PSoC6/RTC.c **** * This file provides the source code to the API for the RTC Component.
   6:Generated_Source\PSoC6/RTC.c **** *
   7:Generated_Source\PSoC6/RTC.c **** ********************************************************************************
   8:Generated_Source\PSoC6/RTC.c **** * Copyright 2016-2017, Cypress Semiconductor Corporation. All rights reserved.
   9:Generated_Source\PSoC6/RTC.c **** * You may use this file only in accordance with the license, terms, conditions,
  10:Generated_Source\PSoC6/RTC.c **** * disclaimers, and limitations in the end user license agreement accompanying
  11:Generated_Source\PSoC6/RTC.c **** * the software package with which this file was provided.
  12:Generated_Source\PSoC6/RTC.c **** *******************************************************************************/
  13:Generated_Source\PSoC6/RTC.c **** 
  14:Generated_Source\PSoC6/RTC.c **** #include "RTC.h"
  15:Generated_Source\PSoC6/RTC.c **** 
  16:Generated_Source\PSoC6/RTC.c **** /** Indicates whether or not the RTC has been initialized. 
  17:Generated_Source\PSoC6/RTC.c **** *  The variable is initialized to 0 and set to 1 the first time 
ARM GAS  C:\Users\ASUS\AppData\Local\Temp\ccAE7Y5b.s 			page 8


  18:Generated_Source\PSoC6/RTC.c **** *  RTC_Start() is called. This allows the Component to 
  19:Generated_Source\PSoC6/RTC.c **** *  restart without reinitialization after the first call to 
  20:Generated_Source\PSoC6/RTC.c **** *  the RTC_Start() routine.
  21:Generated_Source\PSoC6/RTC.c **** */
  22:Generated_Source\PSoC6/RTC.c **** uint8_t RTC_initVar = 0u;
  23:Generated_Source\PSoC6/RTC.c **** 
  24:Generated_Source\PSoC6/RTC.c **** /** The instance-specific configuration structure. This should be used in the 
  25:Generated_Source\PSoC6/RTC.c **** *  associated RTC_Init() function.
  26:Generated_Source\PSoC6/RTC.c **** */
  27:Generated_Source\PSoC6/RTC.c **** cy_stc_rtc_config_t const RTC_config =
  28:Generated_Source\PSoC6/RTC.c **** {
  29:Generated_Source\PSoC6/RTC.c ****     /* Initiate time and date */
  30:Generated_Source\PSoC6/RTC.c ****     .sec       = RTC_INITIAL_DATE_SEC,
  31:Generated_Source\PSoC6/RTC.c ****     .min       = RTC_INITIAL_DATE_MIN,
  32:Generated_Source\PSoC6/RTC.c ****     .hour      = RTC_INITIAL_DATE_HOUR,
  33:Generated_Source\PSoC6/RTC.c ****     .hrFormat  = RTC_INITIAL_DATE_HOUR_FORMAT,
  34:Generated_Source\PSoC6/RTC.c ****     .dayOfWeek = RTC_INITIAL_DATE_DOW,
  35:Generated_Source\PSoC6/RTC.c ****     .date      = RTC_INITIAL_DATE_DOM,
  36:Generated_Source\PSoC6/RTC.c ****     .month     = RTC_INITIAL_DATE_MONTH,
  37:Generated_Source\PSoC6/RTC.c ****     .year      = RTC_INITIAL_DATE_YEAR,
  38:Generated_Source\PSoC6/RTC.c **** };
  39:Generated_Source\PSoC6/RTC.c **** 
  40:Generated_Source\PSoC6/RTC.c ****     /** RTC_rtcDstStatus variable which is for DST feature and is 
  41:Generated_Source\PSoC6/RTC.c ****     *  called in Cy_RTC_Interrupt() PDL driver function. This variable is 
  42:Generated_Source\PSoC6/RTC.c ****     *  defined as true if DST is enabled and as false if DST is disabled
  43:Generated_Source\PSoC6/RTC.c ****     */
  44:Generated_Source\PSoC6/RTC.c ****     bool RTC_rtcDstStatus = false;
  45:Generated_Source\PSoC6/RTC.c **** 
  46:Generated_Source\PSoC6/RTC.c **** #if(0u != RTC_INITIAL_DST_STATUS)
  47:Generated_Source\PSoC6/RTC.c **** 
  48:Generated_Source\PSoC6/RTC.c ****     /** The instance-specific daylight saving time structure. This should be 
  49:Generated_Source\PSoC6/RTC.c ****     * used in the associated DTS functions.
  50:Generated_Source\PSoC6/RTC.c ****     */
  51:Generated_Source\PSoC6/RTC.c ****     cy_stc_rtc_dst_t const RTC_dstConfig =
  52:Generated_Source\PSoC6/RTC.c ****     {
  53:Generated_Source\PSoC6/RTC.c ****         /* DST Start time */
  54:Generated_Source\PSoC6/RTC.c ****         .startDst.format      = (cy_en_rtc_dst_format_t) RTC_INITIAL_DST_DATE_TYPE,
  55:Generated_Source\PSoC6/RTC.c ****         .startDst.hour        = RTC_INITIAL_DST_START_HRS,
  56:Generated_Source\PSoC6/RTC.c ****         .startDst.dayOfMonth  = RTC_INITIAL_DST_START_DOM,
  57:Generated_Source\PSoC6/RTC.c ****         .startDst.weekOfMonth = RTC_INITIAL_DST_START_WOM,
  58:Generated_Source\PSoC6/RTC.c ****         .startDst.dayOfWeek   = RTC_INITIAL_DST_START_DOW,
  59:Generated_Source\PSoC6/RTC.c ****         .startDst.month       = RTC_INITIAL_DST_START_MONTH,
  60:Generated_Source\PSoC6/RTC.c **** 
  61:Generated_Source\PSoC6/RTC.c ****         /* DST Stop time */
  62:Generated_Source\PSoC6/RTC.c ****         .stopDst.format      = (cy_en_rtc_dst_format_t) RTC_INITIAL_DST_DATE_TYPE,
  63:Generated_Source\PSoC6/RTC.c ****         .stopDst.hour        = RTC_INITIAL_DST_STOP_HRS,
  64:Generated_Source\PSoC6/RTC.c ****         .stopDst.dayOfMonth  = RTC_INITIAL_DST_STOP_DOM,
  65:Generated_Source\PSoC6/RTC.c ****         .stopDst.weekOfMonth = RTC_INITIAL_DST_STOP_WOM,
  66:Generated_Source\PSoC6/RTC.c ****         .stopDst.dayOfWeek   = RTC_INITIAL_DST_STOP_DOW,
  67:Generated_Source\PSoC6/RTC.c ****         .stopDst.month       = RTC_INITIAL_DST_STOP_MONTH,
  68:Generated_Source\PSoC6/RTC.c ****     };
  69:Generated_Source\PSoC6/RTC.c **** #else
  70:Generated_Source\PSoC6/RTC.c **** 
  71:Generated_Source\PSoC6/RTC.c ****     /* Default DST structure in condition that DST is disabled */
  72:Generated_Source\PSoC6/RTC.c ****     cy_stc_rtc_dst_t const RTC_dstConfig;
  73:Generated_Source\PSoC6/RTC.c **** #endif /* (0u != RTC_INITIAL_DST_STATUS) */
  74:Generated_Source\PSoC6/RTC.c **** 
ARM GAS  C:\Users\ASUS\AppData\Local\Temp\ccAE7Y5b.s 			page 9


  75:Generated_Source\PSoC6/RTC.c **** 
  76:Generated_Source\PSoC6/RTC.c **** /*******************************************************************************
  77:Generated_Source\PSoC6/RTC.c **** * Function Name: RTC_Start
  78:Generated_Source\PSoC6/RTC.c **** ****************************************************************************//**
  79:Generated_Source\PSoC6/RTC.c **** *
  80:Generated_Source\PSoC6/RTC.c **** * Optionally calls the RTC_Init() when called the first time and 
  81:Generated_Source\PSoC6/RTC.c **** * configure the RTC as it is set in the customizer. For subsequent 
  82:Generated_Source\PSoC6/RTC.c **** * calls the configuration is left unchanged and the component is just 
  83:Generated_Source\PSoC6/RTC.c **** * configured. Invokes RTC_EnableDstTime() if the DST is enabled.
  84:Generated_Source\PSoC6/RTC.c **** *
  85:Generated_Source\PSoC6/RTC.c **** * \globalvars
  86:Generated_Source\PSoC6/RTC.c **** * \ref RTC_initVar
  87:Generated_Source\PSoC6/RTC.c **** *
  88:Generated_Source\PSoC6/RTC.c **** *******************************************************************************/
  89:Generated_Source\PSoC6/RTC.c **** void RTC_Start(void)
  90:Generated_Source\PSoC6/RTC.c **** {
  61              		.loc 2 90 0
  62              		.cfi_startproc
  63              		@ args = 0, pretend = 0, frame = 0
  64              		@ frame_needed = 0, uses_anonymous_args = 0
  65 0000 10B5     		push	{r4, lr}
  66              		.cfi_def_cfa_offset 8
  67              		.cfi_offset 4, -8
  68              		.cfi_offset 14, -4
  91:Generated_Source\PSoC6/RTC.c ****     #if(0u != RTC_INITIAL_DST_STATUS)
  92:Generated_Source\PSoC6/RTC.c ****         cy_stc_rtc_config_t curTimeAndDate;
  93:Generated_Source\PSoC6/RTC.c ****     #endif /* (0u != RTC_INITIAL_DST_STATUS) */
  94:Generated_Source\PSoC6/RTC.c ****     
  95:Generated_Source\PSoC6/RTC.c ****     if(0u == RTC_initVar)
  69              		.loc 2 95 0
  70 0002 0B4B     		ldr	r3, .L7
  71 0004 5B78     		ldrb	r3, [r3, #1]
  72 0006 002B     		cmp	r3, #0
  73 0008 06D1     		bne	.L5
  96:Generated_Source\PSoC6/RTC.c ****     {
  97:Generated_Source\PSoC6/RTC.c ****         #if(0u != RTC_TIME_RESET_ON_START)
  98:Generated_Source\PSoC6/RTC.c **** 
  99:Generated_Source\PSoC6/RTC.c ****             /* Configure the component if power cycle and the external 
 100:Generated_Source\PSoC6/RTC.c ****             *  reset occurred
 101:Generated_Source\PSoC6/RTC.c ****             */
 102:Generated_Source\PSoC6/RTC.c ****             if(Cy_RTC_IsExternalResetOccurred())
 103:Generated_Source\PSoC6/RTC.c ****             {
 104:Generated_Source\PSoC6/RTC.c ****                 (void) Cy_RTC_Init(&RTC_config);
 105:Generated_Source\PSoC6/RTC.c ****             }
 106:Generated_Source\PSoC6/RTC.c ****         #endif /* (0u != RTC_TIME_RESET_ON_START) */
 107:Generated_Source\PSoC6/RTC.c **** 
 108:Generated_Source\PSoC6/RTC.c ****         #if(0u != RTC_INITIAL_IRQ_STATUS)
 109:Generated_Source\PSoC6/RTC.c **** 
 110:Generated_Source\PSoC6/RTC.c ****             /* Hook the interrupt service routine */
 111:Generated_Source\PSoC6/RTC.c ****             #if defined(RTC_RTC_IRQ__INTC_ASSIGNED)
 112:Generated_Source\PSoC6/RTC.c ****                 (void) Cy_SysInt_Init(&RTC_RTC_IRQ_cfg, &RTC_Interrupt);
  74              		.loc 2 112 0
  75 000a 0A49     		ldr	r1, .L7+4
  76 000c 0A48     		ldr	r0, .L7+8
  77 000e FFF7FEFF 		bl	Cy_SysInt_Init
  78              	.LVL1:
 113:Generated_Source\PSoC6/RTC.c ****             #endif /* defined(RTC_RTC_IRQ__INTC_ASSIGNED) */
ARM GAS  C:\Users\ASUS\AppData\Local\Temp\ccAE7Y5b.s 			page 10


 114:Generated_Source\PSoC6/RTC.c ****         #endif /* (0u != RTC_INITIAL_IRQ_STATUS) */
 115:Generated_Source\PSoC6/RTC.c **** 
 116:Generated_Source\PSoC6/RTC.c ****         /* The component is configured */
 117:Generated_Source\PSoC6/RTC.c ****         RTC_initVar = 1u;
  79              		.loc 2 117 0
  80 0012 0122     		movs	r2, #1
  81 0014 064B     		ldr	r3, .L7
  82 0016 5A70     		strb	r2, [r3, #1]
  83              	.L5:
 118:Generated_Source\PSoC6/RTC.c ****     }
 119:Generated_Source\PSoC6/RTC.c **** 
 120:Generated_Source\PSoC6/RTC.c ****     #if(0u != RTC_INITIAL_IRQ_STATUS)
 121:Generated_Source\PSoC6/RTC.c ****         #if defined(RTC_RTC_IRQ__INTC_ASSIGNED)
 122:Generated_Source\PSoC6/RTC.c ****             NVIC_EnableIRQ(RTC_RTC_IRQ_cfg.intrSrc);
  84              		.loc 2 122 0
  85 0018 074B     		ldr	r3, .L7+8
  86 001a 0022     		movs	r2, #0
  87 001c 9A5E     		ldrsh	r2, [r3, r2]
  88              	.LVL2:
  89              	.LBB4:
  90              	.LBB5:
  91              		.file 3 "Generated_Source\\PSoC6\\pdl\\cmsis/include/core_cm0plus.h"
   1:Generated_Source\PSoC6\pdl\cmsis/include/core_cm0plus.h **** /**************************************************************************//**
   2:Generated_Source\PSoC6\pdl\cmsis/include/core_cm0plus.h ****  * @file     core_cm0plus.h
   3:Generated_Source\PSoC6\pdl\cmsis/include/core_cm0plus.h ****  * @brief    CMSIS Cortex-M0+ Core Peripheral Access Layer Header File
   4:Generated_Source\PSoC6\pdl\cmsis/include/core_cm0plus.h ****  * @version  V5.0.4
   5:Generated_Source\PSoC6\pdl\cmsis/include/core_cm0plus.h ****  * @date     10. January 2018
   6:Generated_Source\PSoC6\pdl\cmsis/include/core_cm0plus.h ****  ******************************************************************************/
   7:Generated_Source\PSoC6\pdl\cmsis/include/core_cm0plus.h **** /*
   8:Generated_Source\PSoC6\pdl\cmsis/include/core_cm0plus.h ****  * Copyright (c) 2009-2018 Arm Limited. All rights reserved.
   9:Generated_Source\PSoC6\pdl\cmsis/include/core_cm0plus.h ****  *
  10:Generated_Source\PSoC6\pdl\cmsis/include/core_cm0plus.h ****  * SPDX-License-Identifier: Apache-2.0
  11:Generated_Source\PSoC6\pdl\cmsis/include/core_cm0plus.h ****  *
  12:Generated_Source\PSoC6\pdl\cmsis/include/core_cm0plus.h ****  * Licensed under the Apache License, Version 2.0 (the License); you may
  13:Generated_Source\PSoC6\pdl\cmsis/include/core_cm0plus.h ****  * not use this file except in compliance with the License.
  14:Generated_Source\PSoC6\pdl\cmsis/include/core_cm0plus.h ****  * You may obtain a copy of the License at
  15:Generated_Source\PSoC6\pdl\cmsis/include/core_cm0plus.h ****  *
  16:Generated_Source\PSoC6\pdl\cmsis/include/core_cm0plus.h ****  * www.apache.org/licenses/LICENSE-2.0
  17:Generated_Source\PSoC6\pdl\cmsis/include/core_cm0plus.h ****  *
  18:Generated_Source\PSoC6\pdl\cmsis/include/core_cm0plus.h ****  * Unless required by applicable law or agreed to in writing, software
  19:Generated_Source\PSoC6\pdl\cmsis/include/core_cm0plus.h ****  * distributed under the License is distributed on an AS IS BASIS, WITHOUT
  20:Generated_Source\PSoC6\pdl\cmsis/include/core_cm0plus.h ****  * WARRANTIES OR CONDITIONS OF ANY KIND, either express or implied.
  21:Generated_Source\PSoC6\pdl\cmsis/include/core_cm0plus.h ****  * See the License for the specific language governing permissions and
  22:Generated_Source\PSoC6\pdl\cmsis/include/core_cm0plus.h ****  * limitations under the License.
  23:Generated_Source\PSoC6\pdl\cmsis/include/core_cm0plus.h ****  */
  24:Generated_Source\PSoC6\pdl\cmsis/include/core_cm0plus.h **** 
  25:Generated_Source\PSoC6\pdl\cmsis/include/core_cm0plus.h **** #if   defined ( __ICCARM__ )
  26:Generated_Source\PSoC6\pdl\cmsis/include/core_cm0plus.h ****   #pragma system_include         /* treat file as system include file for MISRA check */
  27:Generated_Source\PSoC6\pdl\cmsis/include/core_cm0plus.h **** #elif defined (__clang__)
  28:Generated_Source\PSoC6\pdl\cmsis/include/core_cm0plus.h ****   #pragma clang system_header   /* treat file as system include file */
  29:Generated_Source\PSoC6\pdl\cmsis/include/core_cm0plus.h **** #endif
  30:Generated_Source\PSoC6\pdl\cmsis/include/core_cm0plus.h **** 
  31:Generated_Source\PSoC6\pdl\cmsis/include/core_cm0plus.h **** #ifndef __CORE_CM0PLUS_H_GENERIC
  32:Generated_Source\PSoC6\pdl\cmsis/include/core_cm0plus.h **** #define __CORE_CM0PLUS_H_GENERIC
  33:Generated_Source\PSoC6\pdl\cmsis/include/core_cm0plus.h **** 
  34:Generated_Source\PSoC6\pdl\cmsis/include/core_cm0plus.h **** #include <stdint.h>
  35:Generated_Source\PSoC6\pdl\cmsis/include/core_cm0plus.h **** 
ARM GAS  C:\Users\ASUS\AppData\Local\Temp\ccAE7Y5b.s 			page 11


  36:Generated_Source\PSoC6\pdl\cmsis/include/core_cm0plus.h **** #ifdef __cplusplus
  37:Generated_Source\PSoC6\pdl\cmsis/include/core_cm0plus.h ****  extern "C" {
  38:Generated_Source\PSoC6\pdl\cmsis/include/core_cm0plus.h **** #endif
  39:Generated_Source\PSoC6\pdl\cmsis/include/core_cm0plus.h **** 
  40:Generated_Source\PSoC6\pdl\cmsis/include/core_cm0plus.h **** /**
  41:Generated_Source\PSoC6\pdl\cmsis/include/core_cm0plus.h ****   \page CMSIS_MISRA_Exceptions  MISRA-C:2004 Compliance Exceptions
  42:Generated_Source\PSoC6\pdl\cmsis/include/core_cm0plus.h ****   CMSIS violates the following MISRA-C:2004 rules:
  43:Generated_Source\PSoC6\pdl\cmsis/include/core_cm0plus.h **** 
  44:Generated_Source\PSoC6\pdl\cmsis/include/core_cm0plus.h ****    \li Required Rule 8.5, object/function definition in header file.<br>
  45:Generated_Source\PSoC6\pdl\cmsis/include/core_cm0plus.h ****      Function definitions in header files are used to allow 'inlining'.
  46:Generated_Source\PSoC6\pdl\cmsis/include/core_cm0plus.h **** 
  47:Generated_Source\PSoC6\pdl\cmsis/include/core_cm0plus.h ****    \li Required Rule 18.4, declaration of union type or object of union type: '{...}'.<br>
  48:Generated_Source\PSoC6\pdl\cmsis/include/core_cm0plus.h ****      Unions are used for effective representation of core registers.
  49:Generated_Source\PSoC6\pdl\cmsis/include/core_cm0plus.h **** 
  50:Generated_Source\PSoC6\pdl\cmsis/include/core_cm0plus.h ****    \li Advisory Rule 19.7, Function-like macro defined.<br>
  51:Generated_Source\PSoC6\pdl\cmsis/include/core_cm0plus.h ****      Function-like macros are used to allow more efficient code.
  52:Generated_Source\PSoC6\pdl\cmsis/include/core_cm0plus.h ****  */
  53:Generated_Source\PSoC6\pdl\cmsis/include/core_cm0plus.h **** 
  54:Generated_Source\PSoC6\pdl\cmsis/include/core_cm0plus.h **** 
  55:Generated_Source\PSoC6\pdl\cmsis/include/core_cm0plus.h **** /*******************************************************************************
  56:Generated_Source\PSoC6\pdl\cmsis/include/core_cm0plus.h ****  *                 CMSIS definitions
  57:Generated_Source\PSoC6\pdl\cmsis/include/core_cm0plus.h ****  ******************************************************************************/
  58:Generated_Source\PSoC6\pdl\cmsis/include/core_cm0plus.h **** /**
  59:Generated_Source\PSoC6\pdl\cmsis/include/core_cm0plus.h ****   \ingroup Cortex-M0+
  60:Generated_Source\PSoC6\pdl\cmsis/include/core_cm0plus.h ****   @{
  61:Generated_Source\PSoC6\pdl\cmsis/include/core_cm0plus.h ****  */
  62:Generated_Source\PSoC6\pdl\cmsis/include/core_cm0plus.h **** 
  63:Generated_Source\PSoC6\pdl\cmsis/include/core_cm0plus.h **** #include "cmsis_version.h"
  64:Generated_Source\PSoC6\pdl\cmsis/include/core_cm0plus.h ****  
  65:Generated_Source\PSoC6\pdl\cmsis/include/core_cm0plus.h **** /*  CMSIS CM0+ definitions */
  66:Generated_Source\PSoC6\pdl\cmsis/include/core_cm0plus.h **** #define __CM0PLUS_CMSIS_VERSION_MAIN (__CM_CMSIS_VERSION_MAIN)                  /*!< \deprecated [3
  67:Generated_Source\PSoC6\pdl\cmsis/include/core_cm0plus.h **** #define __CM0PLUS_CMSIS_VERSION_SUB  (__CM_CMSIS_VERSION_SUB)                   /*!< \deprecated [1
  68:Generated_Source\PSoC6\pdl\cmsis/include/core_cm0plus.h **** #define __CM0PLUS_CMSIS_VERSION      ((__CM0PLUS_CMSIS_VERSION_MAIN << 16U) | \
  69:Generated_Source\PSoC6\pdl\cmsis/include/core_cm0plus.h ****                                        __CM0PLUS_CMSIS_VERSION_SUB           )  /*!< \deprecated CM
  70:Generated_Source\PSoC6\pdl\cmsis/include/core_cm0plus.h **** 
  71:Generated_Source\PSoC6\pdl\cmsis/include/core_cm0plus.h **** #define __CORTEX_M                   (0U)                                       /*!< Cortex-M Core 
  72:Generated_Source\PSoC6\pdl\cmsis/include/core_cm0plus.h **** 
  73:Generated_Source\PSoC6\pdl\cmsis/include/core_cm0plus.h **** /** __FPU_USED indicates whether an FPU is used or not.
  74:Generated_Source\PSoC6\pdl\cmsis/include/core_cm0plus.h ****     This core does not support an FPU at all
  75:Generated_Source\PSoC6\pdl\cmsis/include/core_cm0plus.h **** */
  76:Generated_Source\PSoC6\pdl\cmsis/include/core_cm0plus.h **** #define __FPU_USED       0U
  77:Generated_Source\PSoC6\pdl\cmsis/include/core_cm0plus.h **** 
  78:Generated_Source\PSoC6\pdl\cmsis/include/core_cm0plus.h **** #if defined ( __CC_ARM )
  79:Generated_Source\PSoC6\pdl\cmsis/include/core_cm0plus.h ****   #if defined __TARGET_FPU_VFP
  80:Generated_Source\PSoC6\pdl\cmsis/include/core_cm0plus.h ****     #error "Compiler generates FPU instructions for a device without an FPU (check __FPU_PRESENT)"
  81:Generated_Source\PSoC6\pdl\cmsis/include/core_cm0plus.h ****   #endif
  82:Generated_Source\PSoC6\pdl\cmsis/include/core_cm0plus.h **** 
  83:Generated_Source\PSoC6\pdl\cmsis/include/core_cm0plus.h **** #elif defined (__ARMCC_VERSION) && (__ARMCC_VERSION >= 6010050)
  84:Generated_Source\PSoC6\pdl\cmsis/include/core_cm0plus.h ****   #if defined __ARM_PCS_VFP
  85:Generated_Source\PSoC6\pdl\cmsis/include/core_cm0plus.h ****     #error "Compiler generates FPU instructions for a device without an FPU (check __FPU_PRESENT)"
  86:Generated_Source\PSoC6\pdl\cmsis/include/core_cm0plus.h ****   #endif
  87:Generated_Source\PSoC6\pdl\cmsis/include/core_cm0plus.h **** 
  88:Generated_Source\PSoC6\pdl\cmsis/include/core_cm0plus.h **** #elif defined ( __GNUC__ )
  89:Generated_Source\PSoC6\pdl\cmsis/include/core_cm0plus.h ****   #if defined (__VFP_FP__) && !defined(__SOFTFP__)
  90:Generated_Source\PSoC6\pdl\cmsis/include/core_cm0plus.h ****     #error "Compiler generates FPU instructions for a device without an FPU (check __FPU_PRESENT)"
  91:Generated_Source\PSoC6\pdl\cmsis/include/core_cm0plus.h ****   #endif
  92:Generated_Source\PSoC6\pdl\cmsis/include/core_cm0plus.h **** 
ARM GAS  C:\Users\ASUS\AppData\Local\Temp\ccAE7Y5b.s 			page 12


  93:Generated_Source\PSoC6\pdl\cmsis/include/core_cm0plus.h **** #elif defined ( __ICCARM__ )
  94:Generated_Source\PSoC6\pdl\cmsis/include/core_cm0plus.h ****   #if defined __ARMVFP__
  95:Generated_Source\PSoC6\pdl\cmsis/include/core_cm0plus.h ****     #error "Compiler generates FPU instructions for a device without an FPU (check __FPU_PRESENT)"
  96:Generated_Source\PSoC6\pdl\cmsis/include/core_cm0plus.h ****   #endif
  97:Generated_Source\PSoC6\pdl\cmsis/include/core_cm0plus.h **** 
  98:Generated_Source\PSoC6\pdl\cmsis/include/core_cm0plus.h **** #elif defined ( __TI_ARM__ )
  99:Generated_Source\PSoC6\pdl\cmsis/include/core_cm0plus.h ****   #if defined __TI_VFP_SUPPORT__
 100:Generated_Source\PSoC6\pdl\cmsis/include/core_cm0plus.h ****     #error "Compiler generates FPU instructions for a device without an FPU (check __FPU_PRESENT)"
 101:Generated_Source\PSoC6\pdl\cmsis/include/core_cm0plus.h ****   #endif
 102:Generated_Source\PSoC6\pdl\cmsis/include/core_cm0plus.h **** 
 103:Generated_Source\PSoC6\pdl\cmsis/include/core_cm0plus.h **** #elif defined ( __TASKING__ )
 104:Generated_Source\PSoC6\pdl\cmsis/include/core_cm0plus.h ****   #if defined __FPU_VFP__
 105:Generated_Source\PSoC6\pdl\cmsis/include/core_cm0plus.h ****     #error "Compiler generates FPU instructions for a device without an FPU (check __FPU_PRESENT)"
 106:Generated_Source\PSoC6\pdl\cmsis/include/core_cm0plus.h ****   #endif
 107:Generated_Source\PSoC6\pdl\cmsis/include/core_cm0plus.h **** 
 108:Generated_Source\PSoC6\pdl\cmsis/include/core_cm0plus.h **** #elif defined ( __CSMC__ )
 109:Generated_Source\PSoC6\pdl\cmsis/include/core_cm0plus.h ****   #if ( __CSMC__ & 0x400U)
 110:Generated_Source\PSoC6\pdl\cmsis/include/core_cm0plus.h ****     #error "Compiler generates FPU instructions for a device without an FPU (check __FPU_PRESENT)"
 111:Generated_Source\PSoC6\pdl\cmsis/include/core_cm0plus.h ****   #endif
 112:Generated_Source\PSoC6\pdl\cmsis/include/core_cm0plus.h **** 
 113:Generated_Source\PSoC6\pdl\cmsis/include/core_cm0plus.h **** #endif
 114:Generated_Source\PSoC6\pdl\cmsis/include/core_cm0plus.h **** 
 115:Generated_Source\PSoC6\pdl\cmsis/include/core_cm0plus.h **** #include "cmsis_compiler.h"               /* CMSIS compiler specific defines */
 116:Generated_Source\PSoC6\pdl\cmsis/include/core_cm0plus.h **** 
 117:Generated_Source\PSoC6\pdl\cmsis/include/core_cm0plus.h **** 
 118:Generated_Source\PSoC6\pdl\cmsis/include/core_cm0plus.h **** #ifdef __cplusplus
 119:Generated_Source\PSoC6\pdl\cmsis/include/core_cm0plus.h **** }
 120:Generated_Source\PSoC6\pdl\cmsis/include/core_cm0plus.h **** #endif
 121:Generated_Source\PSoC6\pdl\cmsis/include/core_cm0plus.h **** 
 122:Generated_Source\PSoC6\pdl\cmsis/include/core_cm0plus.h **** #endif /* __CORE_CM0PLUS_H_GENERIC */
 123:Generated_Source\PSoC6\pdl\cmsis/include/core_cm0plus.h **** 
 124:Generated_Source\PSoC6\pdl\cmsis/include/core_cm0plus.h **** #ifndef __CMSIS_GENERIC
 125:Generated_Source\PSoC6\pdl\cmsis/include/core_cm0plus.h **** 
 126:Generated_Source\PSoC6\pdl\cmsis/include/core_cm0plus.h **** #ifndef __CORE_CM0PLUS_H_DEPENDANT
 127:Generated_Source\PSoC6\pdl\cmsis/include/core_cm0plus.h **** #define __CORE_CM0PLUS_H_DEPENDANT
 128:Generated_Source\PSoC6\pdl\cmsis/include/core_cm0plus.h **** 
 129:Generated_Source\PSoC6\pdl\cmsis/include/core_cm0plus.h **** #ifdef __cplusplus
 130:Generated_Source\PSoC6\pdl\cmsis/include/core_cm0plus.h ****  extern "C" {
 131:Generated_Source\PSoC6\pdl\cmsis/include/core_cm0plus.h **** #endif
 132:Generated_Source\PSoC6\pdl\cmsis/include/core_cm0plus.h **** 
 133:Generated_Source\PSoC6\pdl\cmsis/include/core_cm0plus.h **** /* check device defines and use defaults */
 134:Generated_Source\PSoC6\pdl\cmsis/include/core_cm0plus.h **** #if defined __CHECK_DEVICE_DEFINES
 135:Generated_Source\PSoC6\pdl\cmsis/include/core_cm0plus.h ****   #ifndef __CM0PLUS_REV
 136:Generated_Source\PSoC6\pdl\cmsis/include/core_cm0plus.h ****     #define __CM0PLUS_REV             0x0000U
 137:Generated_Source\PSoC6\pdl\cmsis/include/core_cm0plus.h ****     #warning "__CM0PLUS_REV not defined in device header file; using default!"
 138:Generated_Source\PSoC6\pdl\cmsis/include/core_cm0plus.h ****   #endif
 139:Generated_Source\PSoC6\pdl\cmsis/include/core_cm0plus.h **** 
 140:Generated_Source\PSoC6\pdl\cmsis/include/core_cm0plus.h ****   #ifndef __MPU_PRESENT
 141:Generated_Source\PSoC6\pdl\cmsis/include/core_cm0plus.h ****     #define __MPU_PRESENT             0U
 142:Generated_Source\PSoC6\pdl\cmsis/include/core_cm0plus.h ****     #warning "__MPU_PRESENT not defined in device header file; using default!"
 143:Generated_Source\PSoC6\pdl\cmsis/include/core_cm0plus.h ****   #endif
 144:Generated_Source\PSoC6\pdl\cmsis/include/core_cm0plus.h **** 
 145:Generated_Source\PSoC6\pdl\cmsis/include/core_cm0plus.h ****   #ifndef __VTOR_PRESENT
 146:Generated_Source\PSoC6\pdl\cmsis/include/core_cm0plus.h ****     #define __VTOR_PRESENT            0U
 147:Generated_Source\PSoC6\pdl\cmsis/include/core_cm0plus.h ****     #warning "__VTOR_PRESENT not defined in device header file; using default!"
 148:Generated_Source\PSoC6\pdl\cmsis/include/core_cm0plus.h ****   #endif
 149:Generated_Source\PSoC6\pdl\cmsis/include/core_cm0plus.h **** 
ARM GAS  C:\Users\ASUS\AppData\Local\Temp\ccAE7Y5b.s 			page 13


 150:Generated_Source\PSoC6\pdl\cmsis/include/core_cm0plus.h ****   #ifndef __NVIC_PRIO_BITS
 151:Generated_Source\PSoC6\pdl\cmsis/include/core_cm0plus.h ****     #define __NVIC_PRIO_BITS          2U
 152:Generated_Source\PSoC6\pdl\cmsis/include/core_cm0plus.h ****     #warning "__NVIC_PRIO_BITS not defined in device header file; using default!"
 153:Generated_Source\PSoC6\pdl\cmsis/include/core_cm0plus.h ****   #endif
 154:Generated_Source\PSoC6\pdl\cmsis/include/core_cm0plus.h **** 
 155:Generated_Source\PSoC6\pdl\cmsis/include/core_cm0plus.h ****   #ifndef __Vendor_SysTickConfig
 156:Generated_Source\PSoC6\pdl\cmsis/include/core_cm0plus.h ****     #define __Vendor_SysTickConfig    0U
 157:Generated_Source\PSoC6\pdl\cmsis/include/core_cm0plus.h ****     #warning "__Vendor_SysTickConfig not defined in device header file; using default!"
 158:Generated_Source\PSoC6\pdl\cmsis/include/core_cm0plus.h ****   #endif
 159:Generated_Source\PSoC6\pdl\cmsis/include/core_cm0plus.h **** #endif
 160:Generated_Source\PSoC6\pdl\cmsis/include/core_cm0plus.h **** 
 161:Generated_Source\PSoC6\pdl\cmsis/include/core_cm0plus.h **** /* IO definitions (access restrictions to peripheral registers) */
 162:Generated_Source\PSoC6\pdl\cmsis/include/core_cm0plus.h **** /**
 163:Generated_Source\PSoC6\pdl\cmsis/include/core_cm0plus.h ****     \defgroup CMSIS_glob_defs CMSIS Global Defines
 164:Generated_Source\PSoC6\pdl\cmsis/include/core_cm0plus.h **** 
 165:Generated_Source\PSoC6\pdl\cmsis/include/core_cm0plus.h ****     <strong>IO Type Qualifiers</strong> are used
 166:Generated_Source\PSoC6\pdl\cmsis/include/core_cm0plus.h ****     \li to specify the access to peripheral variables.
 167:Generated_Source\PSoC6\pdl\cmsis/include/core_cm0plus.h ****     \li for automatic generation of peripheral register debug information.
 168:Generated_Source\PSoC6\pdl\cmsis/include/core_cm0plus.h **** */
 169:Generated_Source\PSoC6\pdl\cmsis/include/core_cm0plus.h **** #ifdef __cplusplus
 170:Generated_Source\PSoC6\pdl\cmsis/include/core_cm0plus.h ****   #define   __I     volatile             /*!< Defines 'read only' permissions */
 171:Generated_Source\PSoC6\pdl\cmsis/include/core_cm0plus.h **** #else
 172:Generated_Source\PSoC6\pdl\cmsis/include/core_cm0plus.h ****   #define   __I     volatile const       /*!< Defines 'read only' permissions */
 173:Generated_Source\PSoC6\pdl\cmsis/include/core_cm0plus.h **** #endif
 174:Generated_Source\PSoC6\pdl\cmsis/include/core_cm0plus.h **** #define     __O     volatile             /*!< Defines 'write only' permissions */
 175:Generated_Source\PSoC6\pdl\cmsis/include/core_cm0plus.h **** #define     __IO    volatile             /*!< Defines 'read / write' permissions */
 176:Generated_Source\PSoC6\pdl\cmsis/include/core_cm0plus.h **** 
 177:Generated_Source\PSoC6\pdl\cmsis/include/core_cm0plus.h **** /* following defines should be used for structure members */
 178:Generated_Source\PSoC6\pdl\cmsis/include/core_cm0plus.h **** #define     __IM     volatile const      /*! Defines 'read only' structure member permissions */
 179:Generated_Source\PSoC6\pdl\cmsis/include/core_cm0plus.h **** #define     __OM     volatile            /*! Defines 'write only' structure member permissions */
 180:Generated_Source\PSoC6\pdl\cmsis/include/core_cm0plus.h **** #define     __IOM    volatile            /*! Defines 'read / write' structure member permissions */
 181:Generated_Source\PSoC6\pdl\cmsis/include/core_cm0plus.h **** 
 182:Generated_Source\PSoC6\pdl\cmsis/include/core_cm0plus.h **** /*@} end of group Cortex-M0+ */
 183:Generated_Source\PSoC6\pdl\cmsis/include/core_cm0plus.h **** 
 184:Generated_Source\PSoC6\pdl\cmsis/include/core_cm0plus.h **** 
 185:Generated_Source\PSoC6\pdl\cmsis/include/core_cm0plus.h **** 
 186:Generated_Source\PSoC6\pdl\cmsis/include/core_cm0plus.h **** /*******************************************************************************
 187:Generated_Source\PSoC6\pdl\cmsis/include/core_cm0plus.h ****  *                 Register Abstraction
 188:Generated_Source\PSoC6\pdl\cmsis/include/core_cm0plus.h ****   Core Register contain:
 189:Generated_Source\PSoC6\pdl\cmsis/include/core_cm0plus.h ****   - Core Register
 190:Generated_Source\PSoC6\pdl\cmsis/include/core_cm0plus.h ****   - Core NVIC Register
 191:Generated_Source\PSoC6\pdl\cmsis/include/core_cm0plus.h ****   - Core SCB Register
 192:Generated_Source\PSoC6\pdl\cmsis/include/core_cm0plus.h ****   - Core SysTick Register
 193:Generated_Source\PSoC6\pdl\cmsis/include/core_cm0plus.h ****   - Core MPU Register
 194:Generated_Source\PSoC6\pdl\cmsis/include/core_cm0plus.h ****  ******************************************************************************/
 195:Generated_Source\PSoC6\pdl\cmsis/include/core_cm0plus.h **** /**
 196:Generated_Source\PSoC6\pdl\cmsis/include/core_cm0plus.h ****   \defgroup CMSIS_core_register Defines and Type Definitions
 197:Generated_Source\PSoC6\pdl\cmsis/include/core_cm0plus.h ****   \brief Type definitions and defines for Cortex-M processor based devices.
 198:Generated_Source\PSoC6\pdl\cmsis/include/core_cm0plus.h **** */
 199:Generated_Source\PSoC6\pdl\cmsis/include/core_cm0plus.h **** 
 200:Generated_Source\PSoC6\pdl\cmsis/include/core_cm0plus.h **** /**
 201:Generated_Source\PSoC6\pdl\cmsis/include/core_cm0plus.h ****   \ingroup    CMSIS_core_register
 202:Generated_Source\PSoC6\pdl\cmsis/include/core_cm0plus.h ****   \defgroup   CMSIS_CORE  Status and Control Registers
 203:Generated_Source\PSoC6\pdl\cmsis/include/core_cm0plus.h ****   \brief      Core Register type definitions.
 204:Generated_Source\PSoC6\pdl\cmsis/include/core_cm0plus.h ****   @{
 205:Generated_Source\PSoC6\pdl\cmsis/include/core_cm0plus.h ****  */
 206:Generated_Source\PSoC6\pdl\cmsis/include/core_cm0plus.h **** 
ARM GAS  C:\Users\ASUS\AppData\Local\Temp\ccAE7Y5b.s 			page 14


 207:Generated_Source\PSoC6\pdl\cmsis/include/core_cm0plus.h **** /**
 208:Generated_Source\PSoC6\pdl\cmsis/include/core_cm0plus.h ****   \brief  Union type to access the Application Program Status Register (APSR).
 209:Generated_Source\PSoC6\pdl\cmsis/include/core_cm0plus.h ****  */
 210:Generated_Source\PSoC6\pdl\cmsis/include/core_cm0plus.h **** typedef union
 211:Generated_Source\PSoC6\pdl\cmsis/include/core_cm0plus.h **** {
 212:Generated_Source\PSoC6\pdl\cmsis/include/core_cm0plus.h ****   struct
 213:Generated_Source\PSoC6\pdl\cmsis/include/core_cm0plus.h ****   {
 214:Generated_Source\PSoC6\pdl\cmsis/include/core_cm0plus.h ****     uint32_t _reserved0:28;              /*!< bit:  0..27  Reserved */
 215:Generated_Source\PSoC6\pdl\cmsis/include/core_cm0plus.h ****     uint32_t V:1;                        /*!< bit:     28  Overflow condition code flag */
 216:Generated_Source\PSoC6\pdl\cmsis/include/core_cm0plus.h ****     uint32_t C:1;                        /*!< bit:     29  Carry condition code flag */
 217:Generated_Source\PSoC6\pdl\cmsis/include/core_cm0plus.h ****     uint32_t Z:1;                        /*!< bit:     30  Zero condition code flag */
 218:Generated_Source\PSoC6\pdl\cmsis/include/core_cm0plus.h ****     uint32_t N:1;                        /*!< bit:     31  Negative condition code flag */
 219:Generated_Source\PSoC6\pdl\cmsis/include/core_cm0plus.h ****   } b;                                   /*!< Structure used for bit  access */
 220:Generated_Source\PSoC6\pdl\cmsis/include/core_cm0plus.h ****   uint32_t w;                            /*!< Type      used for word access */
 221:Generated_Source\PSoC6\pdl\cmsis/include/core_cm0plus.h **** } APSR_Type;
 222:Generated_Source\PSoC6\pdl\cmsis/include/core_cm0plus.h **** 
 223:Generated_Source\PSoC6\pdl\cmsis/include/core_cm0plus.h **** /* APSR Register Definitions */
 224:Generated_Source\PSoC6\pdl\cmsis/include/core_cm0plus.h **** #define APSR_N_Pos                         31U                                            /*!< APSR
 225:Generated_Source\PSoC6\pdl\cmsis/include/core_cm0plus.h **** #define APSR_N_Msk                         (1UL << APSR_N_Pos)                            /*!< APSR
 226:Generated_Source\PSoC6\pdl\cmsis/include/core_cm0plus.h **** 
 227:Generated_Source\PSoC6\pdl\cmsis/include/core_cm0plus.h **** #define APSR_Z_Pos                         30U                                            /*!< APSR
 228:Generated_Source\PSoC6\pdl\cmsis/include/core_cm0plus.h **** #define APSR_Z_Msk                         (1UL << APSR_Z_Pos)                            /*!< APSR
 229:Generated_Source\PSoC6\pdl\cmsis/include/core_cm0plus.h **** 
 230:Generated_Source\PSoC6\pdl\cmsis/include/core_cm0plus.h **** #define APSR_C_Pos                         29U                                            /*!< APSR
 231:Generated_Source\PSoC6\pdl\cmsis/include/core_cm0plus.h **** #define APSR_C_Msk                         (1UL << APSR_C_Pos)                            /*!< APSR
 232:Generated_Source\PSoC6\pdl\cmsis/include/core_cm0plus.h **** 
 233:Generated_Source\PSoC6\pdl\cmsis/include/core_cm0plus.h **** #define APSR_V_Pos                         28U                                            /*!< APSR
 234:Generated_Source\PSoC6\pdl\cmsis/include/core_cm0plus.h **** #define APSR_V_Msk                         (1UL << APSR_V_Pos)                            /*!< APSR
 235:Generated_Source\PSoC6\pdl\cmsis/include/core_cm0plus.h **** 
 236:Generated_Source\PSoC6\pdl\cmsis/include/core_cm0plus.h **** 
 237:Generated_Source\PSoC6\pdl\cmsis/include/core_cm0plus.h **** /**
 238:Generated_Source\PSoC6\pdl\cmsis/include/core_cm0plus.h ****   \brief  Union type to access the Interrupt Program Status Register (IPSR).
 239:Generated_Source\PSoC6\pdl\cmsis/include/core_cm0plus.h ****  */
 240:Generated_Source\PSoC6\pdl\cmsis/include/core_cm0plus.h **** typedef union
 241:Generated_Source\PSoC6\pdl\cmsis/include/core_cm0plus.h **** {
 242:Generated_Source\PSoC6\pdl\cmsis/include/core_cm0plus.h ****   struct
 243:Generated_Source\PSoC6\pdl\cmsis/include/core_cm0plus.h ****   {
 244:Generated_Source\PSoC6\pdl\cmsis/include/core_cm0plus.h ****     uint32_t ISR:9;                      /*!< bit:  0.. 8  Exception number */
 245:Generated_Source\PSoC6\pdl\cmsis/include/core_cm0plus.h ****     uint32_t _reserved0:23;              /*!< bit:  9..31  Reserved */
 246:Generated_Source\PSoC6\pdl\cmsis/include/core_cm0plus.h ****   } b;                                   /*!< Structure used for bit  access */
 247:Generated_Source\PSoC6\pdl\cmsis/include/core_cm0plus.h ****   uint32_t w;                            /*!< Type      used for word access */
 248:Generated_Source\PSoC6\pdl\cmsis/include/core_cm0plus.h **** } IPSR_Type;
 249:Generated_Source\PSoC6\pdl\cmsis/include/core_cm0plus.h **** 
 250:Generated_Source\PSoC6\pdl\cmsis/include/core_cm0plus.h **** /* IPSR Register Definitions */
 251:Generated_Source\PSoC6\pdl\cmsis/include/core_cm0plus.h **** #define IPSR_ISR_Pos                        0U                                            /*!< IPSR
 252:Generated_Source\PSoC6\pdl\cmsis/include/core_cm0plus.h **** #define IPSR_ISR_Msk                       (0x1FFUL /*<< IPSR_ISR_Pos*/)                  /*!< IPSR
 253:Generated_Source\PSoC6\pdl\cmsis/include/core_cm0plus.h **** 
 254:Generated_Source\PSoC6\pdl\cmsis/include/core_cm0plus.h **** 
 255:Generated_Source\PSoC6\pdl\cmsis/include/core_cm0plus.h **** /**
 256:Generated_Source\PSoC6\pdl\cmsis/include/core_cm0plus.h ****   \brief  Union type to access the Special-Purpose Program Status Registers (xPSR).
 257:Generated_Source\PSoC6\pdl\cmsis/include/core_cm0plus.h ****  */
 258:Generated_Source\PSoC6\pdl\cmsis/include/core_cm0plus.h **** typedef union
 259:Generated_Source\PSoC6\pdl\cmsis/include/core_cm0plus.h **** {
 260:Generated_Source\PSoC6\pdl\cmsis/include/core_cm0plus.h ****   struct
 261:Generated_Source\PSoC6\pdl\cmsis/include/core_cm0plus.h ****   {
 262:Generated_Source\PSoC6\pdl\cmsis/include/core_cm0plus.h ****     uint32_t ISR:9;                      /*!< bit:  0.. 8  Exception number */
 263:Generated_Source\PSoC6\pdl\cmsis/include/core_cm0plus.h ****     uint32_t _reserved0:15;              /*!< bit:  9..23  Reserved */
ARM GAS  C:\Users\ASUS\AppData\Local\Temp\ccAE7Y5b.s 			page 15


 264:Generated_Source\PSoC6\pdl\cmsis/include/core_cm0plus.h ****     uint32_t T:1;                        /*!< bit:     24  Thumb bit        (read 0) */
 265:Generated_Source\PSoC6\pdl\cmsis/include/core_cm0plus.h ****     uint32_t _reserved1:3;               /*!< bit: 25..27  Reserved */
 266:Generated_Source\PSoC6\pdl\cmsis/include/core_cm0plus.h ****     uint32_t V:1;                        /*!< bit:     28  Overflow condition code flag */
 267:Generated_Source\PSoC6\pdl\cmsis/include/core_cm0plus.h ****     uint32_t C:1;                        /*!< bit:     29  Carry condition code flag */
 268:Generated_Source\PSoC6\pdl\cmsis/include/core_cm0plus.h ****     uint32_t Z:1;                        /*!< bit:     30  Zero condition code flag */
 269:Generated_Source\PSoC6\pdl\cmsis/include/core_cm0plus.h ****     uint32_t N:1;                        /*!< bit:     31  Negative condition code flag */
 270:Generated_Source\PSoC6\pdl\cmsis/include/core_cm0plus.h ****   } b;                                   /*!< Structure used for bit  access */
 271:Generated_Source\PSoC6\pdl\cmsis/include/core_cm0plus.h ****   uint32_t w;                            /*!< Type      used for word access */
 272:Generated_Source\PSoC6\pdl\cmsis/include/core_cm0plus.h **** } xPSR_Type;
 273:Generated_Source\PSoC6\pdl\cmsis/include/core_cm0plus.h **** 
 274:Generated_Source\PSoC6\pdl\cmsis/include/core_cm0plus.h **** /* xPSR Register Definitions */
 275:Generated_Source\PSoC6\pdl\cmsis/include/core_cm0plus.h **** #define xPSR_N_Pos                         31U                                            /*!< xPSR
 276:Generated_Source\PSoC6\pdl\cmsis/include/core_cm0plus.h **** #define xPSR_N_Msk                         (1UL << xPSR_N_Pos)                            /*!< xPSR
 277:Generated_Source\PSoC6\pdl\cmsis/include/core_cm0plus.h **** 
 278:Generated_Source\PSoC6\pdl\cmsis/include/core_cm0plus.h **** #define xPSR_Z_Pos                         30U                                            /*!< xPSR
 279:Generated_Source\PSoC6\pdl\cmsis/include/core_cm0plus.h **** #define xPSR_Z_Msk                         (1UL << xPSR_Z_Pos)                            /*!< xPSR
 280:Generated_Source\PSoC6\pdl\cmsis/include/core_cm0plus.h **** 
 281:Generated_Source\PSoC6\pdl\cmsis/include/core_cm0plus.h **** #define xPSR_C_Pos                         29U                                            /*!< xPSR
 282:Generated_Source\PSoC6\pdl\cmsis/include/core_cm0plus.h **** #define xPSR_C_Msk                         (1UL << xPSR_C_Pos)                            /*!< xPSR
 283:Generated_Source\PSoC6\pdl\cmsis/include/core_cm0plus.h **** 
 284:Generated_Source\PSoC6\pdl\cmsis/include/core_cm0plus.h **** #define xPSR_V_Pos                         28U                                            /*!< xPSR
 285:Generated_Source\PSoC6\pdl\cmsis/include/core_cm0plus.h **** #define xPSR_V_Msk                         (1UL << xPSR_V_Pos)                            /*!< xPSR
 286:Generated_Source\PSoC6\pdl\cmsis/include/core_cm0plus.h **** 
 287:Generated_Source\PSoC6\pdl\cmsis/include/core_cm0plus.h **** #define xPSR_T_Pos                         24U                                            /*!< xPSR
 288:Generated_Source\PSoC6\pdl\cmsis/include/core_cm0plus.h **** #define xPSR_T_Msk                         (1UL << xPSR_T_Pos)                            /*!< xPSR
 289:Generated_Source\PSoC6\pdl\cmsis/include/core_cm0plus.h **** 
 290:Generated_Source\PSoC6\pdl\cmsis/include/core_cm0plus.h **** #define xPSR_ISR_Pos                        0U                                            /*!< xPSR
 291:Generated_Source\PSoC6\pdl\cmsis/include/core_cm0plus.h **** #define xPSR_ISR_Msk                       (0x1FFUL /*<< xPSR_ISR_Pos*/)                  /*!< xPSR
 292:Generated_Source\PSoC6\pdl\cmsis/include/core_cm0plus.h **** 
 293:Generated_Source\PSoC6\pdl\cmsis/include/core_cm0plus.h **** 
 294:Generated_Source\PSoC6\pdl\cmsis/include/core_cm0plus.h **** /**
 295:Generated_Source\PSoC6\pdl\cmsis/include/core_cm0plus.h ****   \brief  Union type to access the Control Registers (CONTROL).
 296:Generated_Source\PSoC6\pdl\cmsis/include/core_cm0plus.h ****  */
 297:Generated_Source\PSoC6\pdl\cmsis/include/core_cm0plus.h **** typedef union
 298:Generated_Source\PSoC6\pdl\cmsis/include/core_cm0plus.h **** {
 299:Generated_Source\PSoC6\pdl\cmsis/include/core_cm0plus.h ****   struct
 300:Generated_Source\PSoC6\pdl\cmsis/include/core_cm0plus.h ****   {
 301:Generated_Source\PSoC6\pdl\cmsis/include/core_cm0plus.h ****     uint32_t nPRIV:1;                    /*!< bit:      0  Execution privilege in Thread mode */
 302:Generated_Source\PSoC6\pdl\cmsis/include/core_cm0plus.h ****     uint32_t SPSEL:1;                    /*!< bit:      1  Stack to be used */
 303:Generated_Source\PSoC6\pdl\cmsis/include/core_cm0plus.h ****     uint32_t _reserved1:30;              /*!< bit:  2..31  Reserved */
 304:Generated_Source\PSoC6\pdl\cmsis/include/core_cm0plus.h ****   } b;                                   /*!< Structure used for bit  access */
 305:Generated_Source\PSoC6\pdl\cmsis/include/core_cm0plus.h ****   uint32_t w;                            /*!< Type      used for word access */
 306:Generated_Source\PSoC6\pdl\cmsis/include/core_cm0plus.h **** } CONTROL_Type;
 307:Generated_Source\PSoC6\pdl\cmsis/include/core_cm0plus.h **** 
 308:Generated_Source\PSoC6\pdl\cmsis/include/core_cm0plus.h **** /* CONTROL Register Definitions */
 309:Generated_Source\PSoC6\pdl\cmsis/include/core_cm0plus.h **** #define CONTROL_SPSEL_Pos                   1U                                            /*!< CONT
 310:Generated_Source\PSoC6\pdl\cmsis/include/core_cm0plus.h **** #define CONTROL_SPSEL_Msk                  (1UL << CONTROL_SPSEL_Pos)                     /*!< CONT
 311:Generated_Source\PSoC6\pdl\cmsis/include/core_cm0plus.h **** 
 312:Generated_Source\PSoC6\pdl\cmsis/include/core_cm0plus.h **** #define CONTROL_nPRIV_Pos                   0U                                            /*!< CONT
 313:Generated_Source\PSoC6\pdl\cmsis/include/core_cm0plus.h **** #define CONTROL_nPRIV_Msk                  (1UL /*<< CONTROL_nPRIV_Pos*/)                 /*!< CONT
 314:Generated_Source\PSoC6\pdl\cmsis/include/core_cm0plus.h **** 
 315:Generated_Source\PSoC6\pdl\cmsis/include/core_cm0plus.h **** /*@} end of group CMSIS_CORE */
 316:Generated_Source\PSoC6\pdl\cmsis/include/core_cm0plus.h **** 
 317:Generated_Source\PSoC6\pdl\cmsis/include/core_cm0plus.h **** 
 318:Generated_Source\PSoC6\pdl\cmsis/include/core_cm0plus.h **** /**
 319:Generated_Source\PSoC6\pdl\cmsis/include/core_cm0plus.h ****   \ingroup    CMSIS_core_register
 320:Generated_Source\PSoC6\pdl\cmsis/include/core_cm0plus.h ****   \defgroup   CMSIS_NVIC  Nested Vectored Interrupt Controller (NVIC)
ARM GAS  C:\Users\ASUS\AppData\Local\Temp\ccAE7Y5b.s 			page 16


 321:Generated_Source\PSoC6\pdl\cmsis/include/core_cm0plus.h ****   \brief      Type definitions for the NVIC Registers
 322:Generated_Source\PSoC6\pdl\cmsis/include/core_cm0plus.h ****   @{
 323:Generated_Source\PSoC6\pdl\cmsis/include/core_cm0plus.h ****  */
 324:Generated_Source\PSoC6\pdl\cmsis/include/core_cm0plus.h **** 
 325:Generated_Source\PSoC6\pdl\cmsis/include/core_cm0plus.h **** /**
 326:Generated_Source\PSoC6\pdl\cmsis/include/core_cm0plus.h ****   \brief  Structure type to access the Nested Vectored Interrupt Controller (NVIC).
 327:Generated_Source\PSoC6\pdl\cmsis/include/core_cm0plus.h ****  */
 328:Generated_Source\PSoC6\pdl\cmsis/include/core_cm0plus.h **** typedef struct
 329:Generated_Source\PSoC6\pdl\cmsis/include/core_cm0plus.h **** {
 330:Generated_Source\PSoC6\pdl\cmsis/include/core_cm0plus.h ****   __IOM uint32_t ISER[1U];               /*!< Offset: 0x000 (R/W)  Interrupt Set Enable Register */
 331:Generated_Source\PSoC6\pdl\cmsis/include/core_cm0plus.h ****         uint32_t RESERVED0[31U];
 332:Generated_Source\PSoC6\pdl\cmsis/include/core_cm0plus.h ****   __IOM uint32_t ICER[1U];               /*!< Offset: 0x080 (R/W)  Interrupt Clear Enable Register 
 333:Generated_Source\PSoC6\pdl\cmsis/include/core_cm0plus.h ****         uint32_t RSERVED1[31U];
 334:Generated_Source\PSoC6\pdl\cmsis/include/core_cm0plus.h ****   __IOM uint32_t ISPR[1U];               /*!< Offset: 0x100 (R/W)  Interrupt Set Pending Register *
 335:Generated_Source\PSoC6\pdl\cmsis/include/core_cm0plus.h ****         uint32_t RESERVED2[31U];
 336:Generated_Source\PSoC6\pdl\cmsis/include/core_cm0plus.h ****   __IOM uint32_t ICPR[1U];               /*!< Offset: 0x180 (R/W)  Interrupt Clear Pending Register
 337:Generated_Source\PSoC6\pdl\cmsis/include/core_cm0plus.h ****         uint32_t RESERVED3[31U];
 338:Generated_Source\PSoC6\pdl\cmsis/include/core_cm0plus.h ****         uint32_t RESERVED4[64U];
 339:Generated_Source\PSoC6\pdl\cmsis/include/core_cm0plus.h ****   __IOM uint32_t IP[8U];                 /*!< Offset: 0x300 (R/W)  Interrupt Priority Register */
 340:Generated_Source\PSoC6\pdl\cmsis/include/core_cm0plus.h **** }  NVIC_Type;
 341:Generated_Source\PSoC6\pdl\cmsis/include/core_cm0plus.h **** 
 342:Generated_Source\PSoC6\pdl\cmsis/include/core_cm0plus.h **** /*@} end of group CMSIS_NVIC */
 343:Generated_Source\PSoC6\pdl\cmsis/include/core_cm0plus.h **** 
 344:Generated_Source\PSoC6\pdl\cmsis/include/core_cm0plus.h **** 
 345:Generated_Source\PSoC6\pdl\cmsis/include/core_cm0plus.h **** /**
 346:Generated_Source\PSoC6\pdl\cmsis/include/core_cm0plus.h ****   \ingroup  CMSIS_core_register
 347:Generated_Source\PSoC6\pdl\cmsis/include/core_cm0plus.h ****   \defgroup CMSIS_SCB     System Control Block (SCB)
 348:Generated_Source\PSoC6\pdl\cmsis/include/core_cm0plus.h ****   \brief    Type definitions for the System Control Block Registers
 349:Generated_Source\PSoC6\pdl\cmsis/include/core_cm0plus.h ****   @{
 350:Generated_Source\PSoC6\pdl\cmsis/include/core_cm0plus.h ****  */
 351:Generated_Source\PSoC6\pdl\cmsis/include/core_cm0plus.h **** 
 352:Generated_Source\PSoC6\pdl\cmsis/include/core_cm0plus.h **** /**
 353:Generated_Source\PSoC6\pdl\cmsis/include/core_cm0plus.h ****   \brief  Structure type to access the System Control Block (SCB).
 354:Generated_Source\PSoC6\pdl\cmsis/include/core_cm0plus.h ****  */
 355:Generated_Source\PSoC6\pdl\cmsis/include/core_cm0plus.h **** typedef struct
 356:Generated_Source\PSoC6\pdl\cmsis/include/core_cm0plus.h **** {
 357:Generated_Source\PSoC6\pdl\cmsis/include/core_cm0plus.h ****   __IM  uint32_t CPUID;                  /*!< Offset: 0x000 (R/ )  CPUID Base Register */
 358:Generated_Source\PSoC6\pdl\cmsis/include/core_cm0plus.h ****   __IOM uint32_t ICSR;                   /*!< Offset: 0x004 (R/W)  Interrupt Control and State Regi
 359:Generated_Source\PSoC6\pdl\cmsis/include/core_cm0plus.h **** #if defined (__VTOR_PRESENT) && (__VTOR_PRESENT == 1U)
 360:Generated_Source\PSoC6\pdl\cmsis/include/core_cm0plus.h ****   __IOM uint32_t VTOR;                   /*!< Offset: 0x008 (R/W)  Vector Table Offset Register */
 361:Generated_Source\PSoC6\pdl\cmsis/include/core_cm0plus.h **** #else
 362:Generated_Source\PSoC6\pdl\cmsis/include/core_cm0plus.h ****         uint32_t RESERVED0;
 363:Generated_Source\PSoC6\pdl\cmsis/include/core_cm0plus.h **** #endif
 364:Generated_Source\PSoC6\pdl\cmsis/include/core_cm0plus.h ****   __IOM uint32_t AIRCR;                  /*!< Offset: 0x00C (R/W)  Application Interrupt and Reset 
 365:Generated_Source\PSoC6\pdl\cmsis/include/core_cm0plus.h ****   __IOM uint32_t SCR;                    /*!< Offset: 0x010 (R/W)  System Control Register */
 366:Generated_Source\PSoC6\pdl\cmsis/include/core_cm0plus.h ****   __IOM uint32_t CCR;                    /*!< Offset: 0x014 (R/W)  Configuration Control Register *
 367:Generated_Source\PSoC6\pdl\cmsis/include/core_cm0plus.h ****         uint32_t RESERVED1;
 368:Generated_Source\PSoC6\pdl\cmsis/include/core_cm0plus.h ****   __IOM uint32_t SHP[2U];                /*!< Offset: 0x01C (R/W)  System Handlers Priority Registe
 369:Generated_Source\PSoC6\pdl\cmsis/include/core_cm0plus.h ****   __IOM uint32_t SHCSR;                  /*!< Offset: 0x024 (R/W)  System Handler Control and State
 370:Generated_Source\PSoC6\pdl\cmsis/include/core_cm0plus.h **** } SCB_Type;
 371:Generated_Source\PSoC6\pdl\cmsis/include/core_cm0plus.h **** 
 372:Generated_Source\PSoC6\pdl\cmsis/include/core_cm0plus.h **** /* SCB CPUID Register Definitions */
 373:Generated_Source\PSoC6\pdl\cmsis/include/core_cm0plus.h **** #define SCB_CPUID_IMPLEMENTER_Pos          24U                                            /*!< SCB 
 374:Generated_Source\PSoC6\pdl\cmsis/include/core_cm0plus.h **** #define SCB_CPUID_IMPLEMENTER_Msk          (0xFFUL << SCB_CPUID_IMPLEMENTER_Pos)          /*!< SCB 
 375:Generated_Source\PSoC6\pdl\cmsis/include/core_cm0plus.h **** 
 376:Generated_Source\PSoC6\pdl\cmsis/include/core_cm0plus.h **** #define SCB_CPUID_VARIANT_Pos              20U                                            /*!< SCB 
 377:Generated_Source\PSoC6\pdl\cmsis/include/core_cm0plus.h **** #define SCB_CPUID_VARIANT_Msk              (0xFUL << SCB_CPUID_VARIANT_Pos)               /*!< SCB 
ARM GAS  C:\Users\ASUS\AppData\Local\Temp\ccAE7Y5b.s 			page 17


 378:Generated_Source\PSoC6\pdl\cmsis/include/core_cm0plus.h **** 
 379:Generated_Source\PSoC6\pdl\cmsis/include/core_cm0plus.h **** #define SCB_CPUID_ARCHITECTURE_Pos         16U                                            /*!< SCB 
 380:Generated_Source\PSoC6\pdl\cmsis/include/core_cm0plus.h **** #define SCB_CPUID_ARCHITECTURE_Msk         (0xFUL << SCB_CPUID_ARCHITECTURE_Pos)          /*!< SCB 
 381:Generated_Source\PSoC6\pdl\cmsis/include/core_cm0plus.h **** 
 382:Generated_Source\PSoC6\pdl\cmsis/include/core_cm0plus.h **** #define SCB_CPUID_PARTNO_Pos                4U                                            /*!< SCB 
 383:Generated_Source\PSoC6\pdl\cmsis/include/core_cm0plus.h **** #define SCB_CPUID_PARTNO_Msk               (0xFFFUL << SCB_CPUID_PARTNO_Pos)              /*!< SCB 
 384:Generated_Source\PSoC6\pdl\cmsis/include/core_cm0plus.h **** 
 385:Generated_Source\PSoC6\pdl\cmsis/include/core_cm0plus.h **** #define SCB_CPUID_REVISION_Pos              0U                                            /*!< SCB 
 386:Generated_Source\PSoC6\pdl\cmsis/include/core_cm0plus.h **** #define SCB_CPUID_REVISION_Msk             (0xFUL /*<< SCB_CPUID_REVISION_Pos*/)          /*!< SCB 
 387:Generated_Source\PSoC6\pdl\cmsis/include/core_cm0plus.h **** 
 388:Generated_Source\PSoC6\pdl\cmsis/include/core_cm0plus.h **** /* SCB Interrupt Control State Register Definitions */
 389:Generated_Source\PSoC6\pdl\cmsis/include/core_cm0plus.h **** #define SCB_ICSR_NMIPENDSET_Pos            31U                                            /*!< SCB 
 390:Generated_Source\PSoC6\pdl\cmsis/include/core_cm0plus.h **** #define SCB_ICSR_NMIPENDSET_Msk            (1UL << SCB_ICSR_NMIPENDSET_Pos)               /*!< SCB 
 391:Generated_Source\PSoC6\pdl\cmsis/include/core_cm0plus.h **** 
 392:Generated_Source\PSoC6\pdl\cmsis/include/core_cm0plus.h **** #define SCB_ICSR_PENDSVSET_Pos             28U                                            /*!< SCB 
 393:Generated_Source\PSoC6\pdl\cmsis/include/core_cm0plus.h **** #define SCB_ICSR_PENDSVSET_Msk             (1UL << SCB_ICSR_PENDSVSET_Pos)                /*!< SCB 
 394:Generated_Source\PSoC6\pdl\cmsis/include/core_cm0plus.h **** 
 395:Generated_Source\PSoC6\pdl\cmsis/include/core_cm0plus.h **** #define SCB_ICSR_PENDSVCLR_Pos             27U                                            /*!< SCB 
 396:Generated_Source\PSoC6\pdl\cmsis/include/core_cm0plus.h **** #define SCB_ICSR_PENDSVCLR_Msk             (1UL << SCB_ICSR_PENDSVCLR_Pos)                /*!< SCB 
 397:Generated_Source\PSoC6\pdl\cmsis/include/core_cm0plus.h **** 
 398:Generated_Source\PSoC6\pdl\cmsis/include/core_cm0plus.h **** #define SCB_ICSR_PENDSTSET_Pos             26U                                            /*!< SCB 
 399:Generated_Source\PSoC6\pdl\cmsis/include/core_cm0plus.h **** #define SCB_ICSR_PENDSTSET_Msk             (1UL << SCB_ICSR_PENDSTSET_Pos)                /*!< SCB 
 400:Generated_Source\PSoC6\pdl\cmsis/include/core_cm0plus.h **** 
 401:Generated_Source\PSoC6\pdl\cmsis/include/core_cm0plus.h **** #define SCB_ICSR_PENDSTCLR_Pos             25U                                            /*!< SCB 
 402:Generated_Source\PSoC6\pdl\cmsis/include/core_cm0plus.h **** #define SCB_ICSR_PENDSTCLR_Msk             (1UL << SCB_ICSR_PENDSTCLR_Pos)                /*!< SCB 
 403:Generated_Source\PSoC6\pdl\cmsis/include/core_cm0plus.h **** 
 404:Generated_Source\PSoC6\pdl\cmsis/include/core_cm0plus.h **** #define SCB_ICSR_ISRPREEMPT_Pos            23U                                            /*!< SCB 
 405:Generated_Source\PSoC6\pdl\cmsis/include/core_cm0plus.h **** #define SCB_ICSR_ISRPREEMPT_Msk            (1UL << SCB_ICSR_ISRPREEMPT_Pos)               /*!< SCB 
 406:Generated_Source\PSoC6\pdl\cmsis/include/core_cm0plus.h **** 
 407:Generated_Source\PSoC6\pdl\cmsis/include/core_cm0plus.h **** #define SCB_ICSR_ISRPENDING_Pos            22U                                            /*!< SCB 
 408:Generated_Source\PSoC6\pdl\cmsis/include/core_cm0plus.h **** #define SCB_ICSR_ISRPENDING_Msk            (1UL << SCB_ICSR_ISRPENDING_Pos)               /*!< SCB 
 409:Generated_Source\PSoC6\pdl\cmsis/include/core_cm0plus.h **** 
 410:Generated_Source\PSoC6\pdl\cmsis/include/core_cm0plus.h **** #define SCB_ICSR_VECTPENDING_Pos           12U                                            /*!< SCB 
 411:Generated_Source\PSoC6\pdl\cmsis/include/core_cm0plus.h **** #define SCB_ICSR_VECTPENDING_Msk           (0x1FFUL << SCB_ICSR_VECTPENDING_Pos)          /*!< SCB 
 412:Generated_Source\PSoC6\pdl\cmsis/include/core_cm0plus.h **** 
 413:Generated_Source\PSoC6\pdl\cmsis/include/core_cm0plus.h **** #define SCB_ICSR_VECTACTIVE_Pos             0U                                            /*!< SCB 
 414:Generated_Source\PSoC6\pdl\cmsis/include/core_cm0plus.h **** #define SCB_ICSR_VECTACTIVE_Msk            (0x1FFUL /*<< SCB_ICSR_VECTACTIVE_Pos*/)       /*!< SCB 
 415:Generated_Source\PSoC6\pdl\cmsis/include/core_cm0plus.h **** 
 416:Generated_Source\PSoC6\pdl\cmsis/include/core_cm0plus.h **** #if defined (__VTOR_PRESENT) && (__VTOR_PRESENT == 1U)
 417:Generated_Source\PSoC6\pdl\cmsis/include/core_cm0plus.h **** /* SCB Interrupt Control State Register Definitions */
 418:Generated_Source\PSoC6\pdl\cmsis/include/core_cm0plus.h **** #define SCB_VTOR_TBLOFF_Pos                 8U                                            /*!< SCB 
 419:Generated_Source\PSoC6\pdl\cmsis/include/core_cm0plus.h **** #define SCB_VTOR_TBLOFF_Msk                (0xFFFFFFUL << SCB_VTOR_TBLOFF_Pos)            /*!< SCB 
 420:Generated_Source\PSoC6\pdl\cmsis/include/core_cm0plus.h **** #endif
 421:Generated_Source\PSoC6\pdl\cmsis/include/core_cm0plus.h **** 
 422:Generated_Source\PSoC6\pdl\cmsis/include/core_cm0plus.h **** /* SCB Application Interrupt and Reset Control Register Definitions */
 423:Generated_Source\PSoC6\pdl\cmsis/include/core_cm0plus.h **** #define SCB_AIRCR_VECTKEY_Pos              16U                                            /*!< SCB 
 424:Generated_Source\PSoC6\pdl\cmsis/include/core_cm0plus.h **** #define SCB_AIRCR_VECTKEY_Msk              (0xFFFFUL << SCB_AIRCR_VECTKEY_Pos)            /*!< SCB 
 425:Generated_Source\PSoC6\pdl\cmsis/include/core_cm0plus.h **** 
 426:Generated_Source\PSoC6\pdl\cmsis/include/core_cm0plus.h **** #define SCB_AIRCR_VECTKEYSTAT_Pos          16U                                            /*!< SCB 
 427:Generated_Source\PSoC6\pdl\cmsis/include/core_cm0plus.h **** #define SCB_AIRCR_VECTKEYSTAT_Msk          (0xFFFFUL << SCB_AIRCR_VECTKEYSTAT_Pos)        /*!< SCB 
 428:Generated_Source\PSoC6\pdl\cmsis/include/core_cm0plus.h **** 
 429:Generated_Source\PSoC6\pdl\cmsis/include/core_cm0plus.h **** #define SCB_AIRCR_ENDIANESS_Pos            15U                                            /*!< SCB 
 430:Generated_Source\PSoC6\pdl\cmsis/include/core_cm0plus.h **** #define SCB_AIRCR_ENDIANESS_Msk            (1UL << SCB_AIRCR_ENDIANESS_Pos)               /*!< SCB 
 431:Generated_Source\PSoC6\pdl\cmsis/include/core_cm0plus.h **** 
 432:Generated_Source\PSoC6\pdl\cmsis/include/core_cm0plus.h **** #define SCB_AIRCR_SYSRESETREQ_Pos           2U                                            /*!< SCB 
 433:Generated_Source\PSoC6\pdl\cmsis/include/core_cm0plus.h **** #define SCB_AIRCR_SYSRESETREQ_Msk          (1UL << SCB_AIRCR_SYSRESETREQ_Pos)             /*!< SCB 
 434:Generated_Source\PSoC6\pdl\cmsis/include/core_cm0plus.h **** 
ARM GAS  C:\Users\ASUS\AppData\Local\Temp\ccAE7Y5b.s 			page 18


 435:Generated_Source\PSoC6\pdl\cmsis/include/core_cm0plus.h **** #define SCB_AIRCR_VECTCLRACTIVE_Pos         1U                                            /*!< SCB 
 436:Generated_Source\PSoC6\pdl\cmsis/include/core_cm0plus.h **** #define SCB_AIRCR_VECTCLRACTIVE_Msk        (1UL << SCB_AIRCR_VECTCLRACTIVE_Pos)           /*!< SCB 
 437:Generated_Source\PSoC6\pdl\cmsis/include/core_cm0plus.h **** 
 438:Generated_Source\PSoC6\pdl\cmsis/include/core_cm0plus.h **** /* SCB System Control Register Definitions */
 439:Generated_Source\PSoC6\pdl\cmsis/include/core_cm0plus.h **** #define SCB_SCR_SEVONPEND_Pos               4U                                            /*!< SCB 
 440:Generated_Source\PSoC6\pdl\cmsis/include/core_cm0plus.h **** #define SCB_SCR_SEVONPEND_Msk              (1UL << SCB_SCR_SEVONPEND_Pos)                 /*!< SCB 
 441:Generated_Source\PSoC6\pdl\cmsis/include/core_cm0plus.h **** 
 442:Generated_Source\PSoC6\pdl\cmsis/include/core_cm0plus.h **** #define SCB_SCR_SLEEPDEEP_Pos               2U                                            /*!< SCB 
 443:Generated_Source\PSoC6\pdl\cmsis/include/core_cm0plus.h **** #define SCB_SCR_SLEEPDEEP_Msk              (1UL << SCB_SCR_SLEEPDEEP_Pos)                 /*!< SCB 
 444:Generated_Source\PSoC6\pdl\cmsis/include/core_cm0plus.h **** 
 445:Generated_Source\PSoC6\pdl\cmsis/include/core_cm0plus.h **** #define SCB_SCR_SLEEPONEXIT_Pos             1U                                            /*!< SCB 
 446:Generated_Source\PSoC6\pdl\cmsis/include/core_cm0plus.h **** #define SCB_SCR_SLEEPONEXIT_Msk            (1UL << SCB_SCR_SLEEPONEXIT_Pos)               /*!< SCB 
 447:Generated_Source\PSoC6\pdl\cmsis/include/core_cm0plus.h **** 
 448:Generated_Source\PSoC6\pdl\cmsis/include/core_cm0plus.h **** /* SCB Configuration Control Register Definitions */
 449:Generated_Source\PSoC6\pdl\cmsis/include/core_cm0plus.h **** #define SCB_CCR_STKALIGN_Pos                9U                                            /*!< SCB 
 450:Generated_Source\PSoC6\pdl\cmsis/include/core_cm0plus.h **** #define SCB_CCR_STKALIGN_Msk               (1UL << SCB_CCR_STKALIGN_Pos)                  /*!< SCB 
 451:Generated_Source\PSoC6\pdl\cmsis/include/core_cm0plus.h **** 
 452:Generated_Source\PSoC6\pdl\cmsis/include/core_cm0plus.h **** #define SCB_CCR_UNALIGN_TRP_Pos             3U                                            /*!< SCB 
 453:Generated_Source\PSoC6\pdl\cmsis/include/core_cm0plus.h **** #define SCB_CCR_UNALIGN_TRP_Msk            (1UL << SCB_CCR_UNALIGN_TRP_Pos)               /*!< SCB 
 454:Generated_Source\PSoC6\pdl\cmsis/include/core_cm0plus.h **** 
 455:Generated_Source\PSoC6\pdl\cmsis/include/core_cm0plus.h **** /* SCB System Handler Control and State Register Definitions */
 456:Generated_Source\PSoC6\pdl\cmsis/include/core_cm0plus.h **** #define SCB_SHCSR_SVCALLPENDED_Pos         15U                                            /*!< SCB 
 457:Generated_Source\PSoC6\pdl\cmsis/include/core_cm0plus.h **** #define SCB_SHCSR_SVCALLPENDED_Msk         (1UL << SCB_SHCSR_SVCALLPENDED_Pos)            /*!< SCB 
 458:Generated_Source\PSoC6\pdl\cmsis/include/core_cm0plus.h **** 
 459:Generated_Source\PSoC6\pdl\cmsis/include/core_cm0plus.h **** /*@} end of group CMSIS_SCB */
 460:Generated_Source\PSoC6\pdl\cmsis/include/core_cm0plus.h **** 
 461:Generated_Source\PSoC6\pdl\cmsis/include/core_cm0plus.h **** 
 462:Generated_Source\PSoC6\pdl\cmsis/include/core_cm0plus.h **** /**
 463:Generated_Source\PSoC6\pdl\cmsis/include/core_cm0plus.h ****   \ingroup  CMSIS_core_register
 464:Generated_Source\PSoC6\pdl\cmsis/include/core_cm0plus.h ****   \defgroup CMSIS_SysTick     System Tick Timer (SysTick)
 465:Generated_Source\PSoC6\pdl\cmsis/include/core_cm0plus.h ****   \brief    Type definitions for the System Timer Registers.
 466:Generated_Source\PSoC6\pdl\cmsis/include/core_cm0plus.h ****   @{
 467:Generated_Source\PSoC6\pdl\cmsis/include/core_cm0plus.h ****  */
 468:Generated_Source\PSoC6\pdl\cmsis/include/core_cm0plus.h **** 
 469:Generated_Source\PSoC6\pdl\cmsis/include/core_cm0plus.h **** /**
 470:Generated_Source\PSoC6\pdl\cmsis/include/core_cm0plus.h ****   \brief  Structure type to access the System Timer (SysTick).
 471:Generated_Source\PSoC6\pdl\cmsis/include/core_cm0plus.h ****  */
 472:Generated_Source\PSoC6\pdl\cmsis/include/core_cm0plus.h **** typedef struct
 473:Generated_Source\PSoC6\pdl\cmsis/include/core_cm0plus.h **** {
 474:Generated_Source\PSoC6\pdl\cmsis/include/core_cm0plus.h ****   __IOM uint32_t CTRL;                   /*!< Offset: 0x000 (R/W)  SysTick Control and Status Regis
 475:Generated_Source\PSoC6\pdl\cmsis/include/core_cm0plus.h ****   __IOM uint32_t LOAD;                   /*!< Offset: 0x004 (R/W)  SysTick Reload Value Register */
 476:Generated_Source\PSoC6\pdl\cmsis/include/core_cm0plus.h ****   __IOM uint32_t VAL;                    /*!< Offset: 0x008 (R/W)  SysTick Current Value Register *
 477:Generated_Source\PSoC6\pdl\cmsis/include/core_cm0plus.h ****   __IM  uint32_t CALIB;                  /*!< Offset: 0x00C (R/ )  SysTick Calibration Register */
 478:Generated_Source\PSoC6\pdl\cmsis/include/core_cm0plus.h **** } SysTick_Type;
 479:Generated_Source\PSoC6\pdl\cmsis/include/core_cm0plus.h **** 
 480:Generated_Source\PSoC6\pdl\cmsis/include/core_cm0plus.h **** /* SysTick Control / Status Register Definitions */
 481:Generated_Source\PSoC6\pdl\cmsis/include/core_cm0plus.h **** #define SysTick_CTRL_COUNTFLAG_Pos         16U                                            /*!< SysT
 482:Generated_Source\PSoC6\pdl\cmsis/include/core_cm0plus.h **** #define SysTick_CTRL_COUNTFLAG_Msk         (1UL << SysTick_CTRL_COUNTFLAG_Pos)            /*!< SysT
 483:Generated_Source\PSoC6\pdl\cmsis/include/core_cm0plus.h **** 
 484:Generated_Source\PSoC6\pdl\cmsis/include/core_cm0plus.h **** #define SysTick_CTRL_CLKSOURCE_Pos          2U                                            /*!< SysT
 485:Generated_Source\PSoC6\pdl\cmsis/include/core_cm0plus.h **** #define SysTick_CTRL_CLKSOURCE_Msk         (1UL << SysTick_CTRL_CLKSOURCE_Pos)            /*!< SysT
 486:Generated_Source\PSoC6\pdl\cmsis/include/core_cm0plus.h **** 
 487:Generated_Source\PSoC6\pdl\cmsis/include/core_cm0plus.h **** #define SysTick_CTRL_TICKINT_Pos            1U                                            /*!< SysT
 488:Generated_Source\PSoC6\pdl\cmsis/include/core_cm0plus.h **** #define SysTick_CTRL_TICKINT_Msk           (1UL << SysTick_CTRL_TICKINT_Pos)              /*!< SysT
 489:Generated_Source\PSoC6\pdl\cmsis/include/core_cm0plus.h **** 
 490:Generated_Source\PSoC6\pdl\cmsis/include/core_cm0plus.h **** #define SysTick_CTRL_ENABLE_Pos             0U                                            /*!< SysT
 491:Generated_Source\PSoC6\pdl\cmsis/include/core_cm0plus.h **** #define SysTick_CTRL_ENABLE_Msk            (1UL /*<< SysTick_CTRL_ENABLE_Pos*/)           /*!< SysT
ARM GAS  C:\Users\ASUS\AppData\Local\Temp\ccAE7Y5b.s 			page 19


 492:Generated_Source\PSoC6\pdl\cmsis/include/core_cm0plus.h **** 
 493:Generated_Source\PSoC6\pdl\cmsis/include/core_cm0plus.h **** /* SysTick Reload Register Definitions */
 494:Generated_Source\PSoC6\pdl\cmsis/include/core_cm0plus.h **** #define SysTick_LOAD_RELOAD_Pos             0U                                            /*!< SysT
 495:Generated_Source\PSoC6\pdl\cmsis/include/core_cm0plus.h **** #define SysTick_LOAD_RELOAD_Msk            (0xFFFFFFUL /*<< SysTick_LOAD_RELOAD_Pos*/)    /*!< SysT
 496:Generated_Source\PSoC6\pdl\cmsis/include/core_cm0plus.h **** 
 497:Generated_Source\PSoC6\pdl\cmsis/include/core_cm0plus.h **** /* SysTick Current Register Definitions */
 498:Generated_Source\PSoC6\pdl\cmsis/include/core_cm0plus.h **** #define SysTick_VAL_CURRENT_Pos             0U                                            /*!< SysT
 499:Generated_Source\PSoC6\pdl\cmsis/include/core_cm0plus.h **** #define SysTick_VAL_CURRENT_Msk            (0xFFFFFFUL /*<< SysTick_VAL_CURRENT_Pos*/)    /*!< SysT
 500:Generated_Source\PSoC6\pdl\cmsis/include/core_cm0plus.h **** 
 501:Generated_Source\PSoC6\pdl\cmsis/include/core_cm0plus.h **** /* SysTick Calibration Register Definitions */
 502:Generated_Source\PSoC6\pdl\cmsis/include/core_cm0plus.h **** #define SysTick_CALIB_NOREF_Pos            31U                                            /*!< SysT
 503:Generated_Source\PSoC6\pdl\cmsis/include/core_cm0plus.h **** #define SysTick_CALIB_NOREF_Msk            (1UL << SysTick_CALIB_NOREF_Pos)               /*!< SysT
 504:Generated_Source\PSoC6\pdl\cmsis/include/core_cm0plus.h **** 
 505:Generated_Source\PSoC6\pdl\cmsis/include/core_cm0plus.h **** #define SysTick_CALIB_SKEW_Pos             30U                                            /*!< SysT
 506:Generated_Source\PSoC6\pdl\cmsis/include/core_cm0plus.h **** #define SysTick_CALIB_SKEW_Msk             (1UL << SysTick_CALIB_SKEW_Pos)                /*!< SysT
 507:Generated_Source\PSoC6\pdl\cmsis/include/core_cm0plus.h **** 
 508:Generated_Source\PSoC6\pdl\cmsis/include/core_cm0plus.h **** #define SysTick_CALIB_TENMS_Pos             0U                                            /*!< SysT
 509:Generated_Source\PSoC6\pdl\cmsis/include/core_cm0plus.h **** #define SysTick_CALIB_TENMS_Msk            (0xFFFFFFUL /*<< SysTick_CALIB_TENMS_Pos*/)    /*!< SysT
 510:Generated_Source\PSoC6\pdl\cmsis/include/core_cm0plus.h **** 
 511:Generated_Source\PSoC6\pdl\cmsis/include/core_cm0plus.h **** /*@} end of group CMSIS_SysTick */
 512:Generated_Source\PSoC6\pdl\cmsis/include/core_cm0plus.h **** 
 513:Generated_Source\PSoC6\pdl\cmsis/include/core_cm0plus.h **** #if defined (__MPU_PRESENT) && (__MPU_PRESENT == 1U)
 514:Generated_Source\PSoC6\pdl\cmsis/include/core_cm0plus.h **** /**
 515:Generated_Source\PSoC6\pdl\cmsis/include/core_cm0plus.h ****   \ingroup  CMSIS_core_register
 516:Generated_Source\PSoC6\pdl\cmsis/include/core_cm0plus.h ****   \defgroup CMSIS_MPU     Memory Protection Unit (MPU)
 517:Generated_Source\PSoC6\pdl\cmsis/include/core_cm0plus.h ****   \brief    Type definitions for the Memory Protection Unit (MPU)
 518:Generated_Source\PSoC6\pdl\cmsis/include/core_cm0plus.h ****   @{
 519:Generated_Source\PSoC6\pdl\cmsis/include/core_cm0plus.h ****  */
 520:Generated_Source\PSoC6\pdl\cmsis/include/core_cm0plus.h **** 
 521:Generated_Source\PSoC6\pdl\cmsis/include/core_cm0plus.h **** /**
 522:Generated_Source\PSoC6\pdl\cmsis/include/core_cm0plus.h ****   \brief  Structure type to access the Memory Protection Unit (MPU).
 523:Generated_Source\PSoC6\pdl\cmsis/include/core_cm0plus.h ****  */
 524:Generated_Source\PSoC6\pdl\cmsis/include/core_cm0plus.h **** typedef struct
 525:Generated_Source\PSoC6\pdl\cmsis/include/core_cm0plus.h **** {
 526:Generated_Source\PSoC6\pdl\cmsis/include/core_cm0plus.h ****   __IM  uint32_t TYPE;                   /*!< Offset: 0x000 (R/ )  MPU Type Register */
 527:Generated_Source\PSoC6\pdl\cmsis/include/core_cm0plus.h ****   __IOM uint32_t CTRL;                   /*!< Offset: 0x004 (R/W)  MPU Control Register */
 528:Generated_Source\PSoC6\pdl\cmsis/include/core_cm0plus.h ****   __IOM uint32_t RNR;                    /*!< Offset: 0x008 (R/W)  MPU Region RNRber Register */
 529:Generated_Source\PSoC6\pdl\cmsis/include/core_cm0plus.h ****   __IOM uint32_t RBAR;                   /*!< Offset: 0x00C (R/W)  MPU Region Base Address Register
 530:Generated_Source\PSoC6\pdl\cmsis/include/core_cm0plus.h ****   __IOM uint32_t RASR;                   /*!< Offset: 0x010 (R/W)  MPU Region Attribute and Size Re
 531:Generated_Source\PSoC6\pdl\cmsis/include/core_cm0plus.h **** } MPU_Type;
 532:Generated_Source\PSoC6\pdl\cmsis/include/core_cm0plus.h **** 
 533:Generated_Source\PSoC6\pdl\cmsis/include/core_cm0plus.h **** #define MPU_TYPE_RALIASES                  1U
 534:Generated_Source\PSoC6\pdl\cmsis/include/core_cm0plus.h **** 
 535:Generated_Source\PSoC6\pdl\cmsis/include/core_cm0plus.h **** /* MPU Type Register Definitions */
 536:Generated_Source\PSoC6\pdl\cmsis/include/core_cm0plus.h **** #define MPU_TYPE_IREGION_Pos               16U                                            /*!< MPU 
 537:Generated_Source\PSoC6\pdl\cmsis/include/core_cm0plus.h **** #define MPU_TYPE_IREGION_Msk               (0xFFUL << MPU_TYPE_IREGION_Pos)               /*!< MPU 
 538:Generated_Source\PSoC6\pdl\cmsis/include/core_cm0plus.h **** 
 539:Generated_Source\PSoC6\pdl\cmsis/include/core_cm0plus.h **** #define MPU_TYPE_DREGION_Pos                8U                                            /*!< MPU 
 540:Generated_Source\PSoC6\pdl\cmsis/include/core_cm0plus.h **** #define MPU_TYPE_DREGION_Msk               (0xFFUL << MPU_TYPE_DREGION_Pos)               /*!< MPU 
 541:Generated_Source\PSoC6\pdl\cmsis/include/core_cm0plus.h **** 
 542:Generated_Source\PSoC6\pdl\cmsis/include/core_cm0plus.h **** #define MPU_TYPE_SEPARATE_Pos               0U                                            /*!< MPU 
 543:Generated_Source\PSoC6\pdl\cmsis/include/core_cm0plus.h **** #define MPU_TYPE_SEPARATE_Msk              (1UL /*<< MPU_TYPE_SEPARATE_Pos*/)             /*!< MPU 
 544:Generated_Source\PSoC6\pdl\cmsis/include/core_cm0plus.h **** 
 545:Generated_Source\PSoC6\pdl\cmsis/include/core_cm0plus.h **** /* MPU Control Register Definitions */
 546:Generated_Source\PSoC6\pdl\cmsis/include/core_cm0plus.h **** #define MPU_CTRL_PRIVDEFENA_Pos             2U                                            /*!< MPU 
 547:Generated_Source\PSoC6\pdl\cmsis/include/core_cm0plus.h **** #define MPU_CTRL_PRIVDEFENA_Msk            (1UL << MPU_CTRL_PRIVDEFENA_Pos)               /*!< MPU 
 548:Generated_Source\PSoC6\pdl\cmsis/include/core_cm0plus.h **** 
ARM GAS  C:\Users\ASUS\AppData\Local\Temp\ccAE7Y5b.s 			page 20


 549:Generated_Source\PSoC6\pdl\cmsis/include/core_cm0plus.h **** #define MPU_CTRL_HFNMIENA_Pos               1U                                            /*!< MPU 
 550:Generated_Source\PSoC6\pdl\cmsis/include/core_cm0plus.h **** #define MPU_CTRL_HFNMIENA_Msk              (1UL << MPU_CTRL_HFNMIENA_Pos)                 /*!< MPU 
 551:Generated_Source\PSoC6\pdl\cmsis/include/core_cm0plus.h **** 
 552:Generated_Source\PSoC6\pdl\cmsis/include/core_cm0plus.h **** #define MPU_CTRL_ENABLE_Pos                 0U                                            /*!< MPU 
 553:Generated_Source\PSoC6\pdl\cmsis/include/core_cm0plus.h **** #define MPU_CTRL_ENABLE_Msk                (1UL /*<< MPU_CTRL_ENABLE_Pos*/)               /*!< MPU 
 554:Generated_Source\PSoC6\pdl\cmsis/include/core_cm0plus.h **** 
 555:Generated_Source\PSoC6\pdl\cmsis/include/core_cm0plus.h **** /* MPU Region Number Register Definitions */
 556:Generated_Source\PSoC6\pdl\cmsis/include/core_cm0plus.h **** #define MPU_RNR_REGION_Pos                  0U                                            /*!< MPU 
 557:Generated_Source\PSoC6\pdl\cmsis/include/core_cm0plus.h **** #define MPU_RNR_REGION_Msk                 (0xFFUL /*<< MPU_RNR_REGION_Pos*/)             /*!< MPU 
 558:Generated_Source\PSoC6\pdl\cmsis/include/core_cm0plus.h **** 
 559:Generated_Source\PSoC6\pdl\cmsis/include/core_cm0plus.h **** /* MPU Region Base Address Register Definitions */
 560:Generated_Source\PSoC6\pdl\cmsis/include/core_cm0plus.h **** #define MPU_RBAR_ADDR_Pos                   8U                                            /*!< MPU 
 561:Generated_Source\PSoC6\pdl\cmsis/include/core_cm0plus.h **** #define MPU_RBAR_ADDR_Msk                  (0xFFFFFFUL << MPU_RBAR_ADDR_Pos)              /*!< MPU 
 562:Generated_Source\PSoC6\pdl\cmsis/include/core_cm0plus.h **** 
 563:Generated_Source\PSoC6\pdl\cmsis/include/core_cm0plus.h **** #define MPU_RBAR_VALID_Pos                  4U                                            /*!< MPU 
 564:Generated_Source\PSoC6\pdl\cmsis/include/core_cm0plus.h **** #define MPU_RBAR_VALID_Msk                 (1UL << MPU_RBAR_VALID_Pos)                    /*!< MPU 
 565:Generated_Source\PSoC6\pdl\cmsis/include/core_cm0plus.h **** 
 566:Generated_Source\PSoC6\pdl\cmsis/include/core_cm0plus.h **** #define MPU_RBAR_REGION_Pos                 0U                                            /*!< MPU 
 567:Generated_Source\PSoC6\pdl\cmsis/include/core_cm0plus.h **** #define MPU_RBAR_REGION_Msk                (0xFUL /*<< MPU_RBAR_REGION_Pos*/)             /*!< MPU 
 568:Generated_Source\PSoC6\pdl\cmsis/include/core_cm0plus.h **** 
 569:Generated_Source\PSoC6\pdl\cmsis/include/core_cm0plus.h **** /* MPU Region Attribute and Size Register Definitions */
 570:Generated_Source\PSoC6\pdl\cmsis/include/core_cm0plus.h **** #define MPU_RASR_ATTRS_Pos                 16U                                            /*!< MPU 
 571:Generated_Source\PSoC6\pdl\cmsis/include/core_cm0plus.h **** #define MPU_RASR_ATTRS_Msk                 (0xFFFFUL << MPU_RASR_ATTRS_Pos)               /*!< MPU 
 572:Generated_Source\PSoC6\pdl\cmsis/include/core_cm0plus.h **** 
 573:Generated_Source\PSoC6\pdl\cmsis/include/core_cm0plus.h **** #define MPU_RASR_XN_Pos                    28U                                            /*!< MPU 
 574:Generated_Source\PSoC6\pdl\cmsis/include/core_cm0plus.h **** #define MPU_RASR_XN_Msk                    (1UL << MPU_RASR_XN_Pos)                       /*!< MPU 
 575:Generated_Source\PSoC6\pdl\cmsis/include/core_cm0plus.h **** 
 576:Generated_Source\PSoC6\pdl\cmsis/include/core_cm0plus.h **** #define MPU_RASR_AP_Pos                    24U                                            /*!< MPU 
 577:Generated_Source\PSoC6\pdl\cmsis/include/core_cm0plus.h **** #define MPU_RASR_AP_Msk                    (0x7UL << MPU_RASR_AP_Pos)                     /*!< MPU 
 578:Generated_Source\PSoC6\pdl\cmsis/include/core_cm0plus.h **** 
 579:Generated_Source\PSoC6\pdl\cmsis/include/core_cm0plus.h **** #define MPU_RASR_TEX_Pos                   19U                                            /*!< MPU 
 580:Generated_Source\PSoC6\pdl\cmsis/include/core_cm0plus.h **** #define MPU_RASR_TEX_Msk                   (0x7UL << MPU_RASR_TEX_Pos)                    /*!< MPU 
 581:Generated_Source\PSoC6\pdl\cmsis/include/core_cm0plus.h **** 
 582:Generated_Source\PSoC6\pdl\cmsis/include/core_cm0plus.h **** #define MPU_RASR_S_Pos                     18U                                            /*!< MPU 
 583:Generated_Source\PSoC6\pdl\cmsis/include/core_cm0plus.h **** #define MPU_RASR_S_Msk                     (1UL << MPU_RASR_S_Pos)                        /*!< MPU 
 584:Generated_Source\PSoC6\pdl\cmsis/include/core_cm0plus.h **** 
 585:Generated_Source\PSoC6\pdl\cmsis/include/core_cm0plus.h **** #define MPU_RASR_C_Pos                     17U                                            /*!< MPU 
 586:Generated_Source\PSoC6\pdl\cmsis/include/core_cm0plus.h **** #define MPU_RASR_C_Msk                     (1UL << MPU_RASR_C_Pos)                        /*!< MPU 
 587:Generated_Source\PSoC6\pdl\cmsis/include/core_cm0plus.h **** 
 588:Generated_Source\PSoC6\pdl\cmsis/include/core_cm0plus.h **** #define MPU_RASR_B_Pos                     16U                                            /*!< MPU 
 589:Generated_Source\PSoC6\pdl\cmsis/include/core_cm0plus.h **** #define MPU_RASR_B_Msk                     (1UL << MPU_RASR_B_Pos)                        /*!< MPU 
 590:Generated_Source\PSoC6\pdl\cmsis/include/core_cm0plus.h **** 
 591:Generated_Source\PSoC6\pdl\cmsis/include/core_cm0plus.h **** #define MPU_RASR_SRD_Pos                    8U                                            /*!< MPU 
 592:Generated_Source\PSoC6\pdl\cmsis/include/core_cm0plus.h **** #define MPU_RASR_SRD_Msk                   (0xFFUL << MPU_RASR_SRD_Pos)                   /*!< MPU 
 593:Generated_Source\PSoC6\pdl\cmsis/include/core_cm0plus.h **** 
 594:Generated_Source\PSoC6\pdl\cmsis/include/core_cm0plus.h **** #define MPU_RASR_SIZE_Pos                   1U                                            /*!< MPU 
 595:Generated_Source\PSoC6\pdl\cmsis/include/core_cm0plus.h **** #define MPU_RASR_SIZE_Msk                  (0x1FUL << MPU_RASR_SIZE_Pos)                  /*!< MPU 
 596:Generated_Source\PSoC6\pdl\cmsis/include/core_cm0plus.h **** 
 597:Generated_Source\PSoC6\pdl\cmsis/include/core_cm0plus.h **** #define MPU_RASR_ENABLE_Pos                 0U                                            /*!< MPU 
 598:Generated_Source\PSoC6\pdl\cmsis/include/core_cm0plus.h **** #define MPU_RASR_ENABLE_Msk                (1UL /*<< MPU_RASR_ENABLE_Pos*/)               /*!< MPU 
 599:Generated_Source\PSoC6\pdl\cmsis/include/core_cm0plus.h **** 
 600:Generated_Source\PSoC6\pdl\cmsis/include/core_cm0plus.h **** /*@} end of group CMSIS_MPU */
 601:Generated_Source\PSoC6\pdl\cmsis/include/core_cm0plus.h **** #endif
 602:Generated_Source\PSoC6\pdl\cmsis/include/core_cm0plus.h **** 
 603:Generated_Source\PSoC6\pdl\cmsis/include/core_cm0plus.h **** 
 604:Generated_Source\PSoC6\pdl\cmsis/include/core_cm0plus.h **** /**
 605:Generated_Source\PSoC6\pdl\cmsis/include/core_cm0plus.h ****   \ingroup  CMSIS_core_register
ARM GAS  C:\Users\ASUS\AppData\Local\Temp\ccAE7Y5b.s 			page 21


 606:Generated_Source\PSoC6\pdl\cmsis/include/core_cm0plus.h ****   \defgroup CMSIS_CoreDebug       Core Debug Registers (CoreDebug)
 607:Generated_Source\PSoC6\pdl\cmsis/include/core_cm0plus.h ****   \brief    Cortex-M0+ Core Debug Registers (DCB registers, SHCSR, and DFSR) are only accessible ov
 608:Generated_Source\PSoC6\pdl\cmsis/include/core_cm0plus.h ****             Therefore they are not covered by the Cortex-M0+ header file.
 609:Generated_Source\PSoC6\pdl\cmsis/include/core_cm0plus.h ****   @{
 610:Generated_Source\PSoC6\pdl\cmsis/include/core_cm0plus.h ****  */
 611:Generated_Source\PSoC6\pdl\cmsis/include/core_cm0plus.h **** /*@} end of group CMSIS_CoreDebug */
 612:Generated_Source\PSoC6\pdl\cmsis/include/core_cm0plus.h **** 
 613:Generated_Source\PSoC6\pdl\cmsis/include/core_cm0plus.h **** 
 614:Generated_Source\PSoC6\pdl\cmsis/include/core_cm0plus.h **** /**
 615:Generated_Source\PSoC6\pdl\cmsis/include/core_cm0plus.h ****   \ingroup    CMSIS_core_register
 616:Generated_Source\PSoC6\pdl\cmsis/include/core_cm0plus.h ****   \defgroup   CMSIS_core_bitfield     Core register bit field macros
 617:Generated_Source\PSoC6\pdl\cmsis/include/core_cm0plus.h ****   \brief      Macros for use with bit field definitions (xxx_Pos, xxx_Msk).
 618:Generated_Source\PSoC6\pdl\cmsis/include/core_cm0plus.h ****   @{
 619:Generated_Source\PSoC6\pdl\cmsis/include/core_cm0plus.h ****  */
 620:Generated_Source\PSoC6\pdl\cmsis/include/core_cm0plus.h **** 
 621:Generated_Source\PSoC6\pdl\cmsis/include/core_cm0plus.h **** /**
 622:Generated_Source\PSoC6\pdl\cmsis/include/core_cm0plus.h ****   \brief   Mask and shift a bit field value for use in a register bit range.
 623:Generated_Source\PSoC6\pdl\cmsis/include/core_cm0plus.h ****   \param[in] field  Name of the register bit field.
 624:Generated_Source\PSoC6\pdl\cmsis/include/core_cm0plus.h ****   \param[in] value  Value of the bit field. This parameter is interpreted as an uint32_t type.
 625:Generated_Source\PSoC6\pdl\cmsis/include/core_cm0plus.h ****   \return           Masked and shifted value.
 626:Generated_Source\PSoC6\pdl\cmsis/include/core_cm0plus.h **** */
 627:Generated_Source\PSoC6\pdl\cmsis/include/core_cm0plus.h **** #define _VAL2FLD(field, value)    (((uint32_t)(value) << field ## _Pos) & field ## _Msk)
 628:Generated_Source\PSoC6\pdl\cmsis/include/core_cm0plus.h **** 
 629:Generated_Source\PSoC6\pdl\cmsis/include/core_cm0plus.h **** /**
 630:Generated_Source\PSoC6\pdl\cmsis/include/core_cm0plus.h ****   \brief     Mask and shift a register value to extract a bit filed value.
 631:Generated_Source\PSoC6\pdl\cmsis/include/core_cm0plus.h ****   \param[in] field  Name of the register bit field.
 632:Generated_Source\PSoC6\pdl\cmsis/include/core_cm0plus.h ****   \param[in] value  Value of register. This parameter is interpreted as an uint32_t type.
 633:Generated_Source\PSoC6\pdl\cmsis/include/core_cm0plus.h ****   \return           Masked and shifted bit field value.
 634:Generated_Source\PSoC6\pdl\cmsis/include/core_cm0plus.h **** */
 635:Generated_Source\PSoC6\pdl\cmsis/include/core_cm0plus.h **** #define _FLD2VAL(field, value)    (((uint32_t)(value) & field ## _Msk) >> field ## _Pos)
 636:Generated_Source\PSoC6\pdl\cmsis/include/core_cm0plus.h **** 
 637:Generated_Source\PSoC6\pdl\cmsis/include/core_cm0plus.h **** /*@} end of group CMSIS_core_bitfield */
 638:Generated_Source\PSoC6\pdl\cmsis/include/core_cm0plus.h **** 
 639:Generated_Source\PSoC6\pdl\cmsis/include/core_cm0plus.h **** 
 640:Generated_Source\PSoC6\pdl\cmsis/include/core_cm0plus.h **** /**
 641:Generated_Source\PSoC6\pdl\cmsis/include/core_cm0plus.h ****   \ingroup    CMSIS_core_register
 642:Generated_Source\PSoC6\pdl\cmsis/include/core_cm0plus.h ****   \defgroup   CMSIS_core_base     Core Definitions
 643:Generated_Source\PSoC6\pdl\cmsis/include/core_cm0plus.h ****   \brief      Definitions for base addresses, unions, and structures.
 644:Generated_Source\PSoC6\pdl\cmsis/include/core_cm0plus.h ****   @{
 645:Generated_Source\PSoC6\pdl\cmsis/include/core_cm0plus.h ****  */
 646:Generated_Source\PSoC6\pdl\cmsis/include/core_cm0plus.h **** 
 647:Generated_Source\PSoC6\pdl\cmsis/include/core_cm0plus.h **** /* Memory mapping of Core Hardware */
 648:Generated_Source\PSoC6\pdl\cmsis/include/core_cm0plus.h **** #define SCS_BASE            (0xE000E000UL)                            /*!< System Control Space Bas
 649:Generated_Source\PSoC6\pdl\cmsis/include/core_cm0plus.h **** #define SysTick_BASE        (SCS_BASE +  0x0010UL)                    /*!< SysTick Base Address */
 650:Generated_Source\PSoC6\pdl\cmsis/include/core_cm0plus.h **** #define NVIC_BASE           (SCS_BASE +  0x0100UL)                    /*!< NVIC Base Address */
 651:Generated_Source\PSoC6\pdl\cmsis/include/core_cm0plus.h **** #define SCB_BASE            (SCS_BASE +  0x0D00UL)                    /*!< System Control Block Bas
 652:Generated_Source\PSoC6\pdl\cmsis/include/core_cm0plus.h **** 
 653:Generated_Source\PSoC6\pdl\cmsis/include/core_cm0plus.h **** #define SCB                 ((SCB_Type       *)     SCB_BASE      )   /*!< SCB configuration struct
 654:Generated_Source\PSoC6\pdl\cmsis/include/core_cm0plus.h **** #define SysTick             ((SysTick_Type   *)     SysTick_BASE  )   /*!< SysTick configuration st
 655:Generated_Source\PSoC6\pdl\cmsis/include/core_cm0plus.h **** #define NVIC                ((NVIC_Type      *)     NVIC_BASE     )   /*!< NVIC configuration struc
 656:Generated_Source\PSoC6\pdl\cmsis/include/core_cm0plus.h **** 
 657:Generated_Source\PSoC6\pdl\cmsis/include/core_cm0plus.h **** #if defined (__MPU_PRESENT) && (__MPU_PRESENT == 1U)
 658:Generated_Source\PSoC6\pdl\cmsis/include/core_cm0plus.h ****   #define MPU_BASE          (SCS_BASE +  0x0D90UL)                    /*!< Memory Protection Unit *
 659:Generated_Source\PSoC6\pdl\cmsis/include/core_cm0plus.h ****   #define MPU               ((MPU_Type       *)     MPU_BASE      )   /*!< Memory Protection Unit *
 660:Generated_Source\PSoC6\pdl\cmsis/include/core_cm0plus.h **** #endif
 661:Generated_Source\PSoC6\pdl\cmsis/include/core_cm0plus.h **** 
 662:Generated_Source\PSoC6\pdl\cmsis/include/core_cm0plus.h **** /*@} */
ARM GAS  C:\Users\ASUS\AppData\Local\Temp\ccAE7Y5b.s 			page 22


 663:Generated_Source\PSoC6\pdl\cmsis/include/core_cm0plus.h **** 
 664:Generated_Source\PSoC6\pdl\cmsis/include/core_cm0plus.h **** 
 665:Generated_Source\PSoC6\pdl\cmsis/include/core_cm0plus.h **** 
 666:Generated_Source\PSoC6\pdl\cmsis/include/core_cm0plus.h **** /*******************************************************************************
 667:Generated_Source\PSoC6\pdl\cmsis/include/core_cm0plus.h ****  *                Hardware Abstraction Layer
 668:Generated_Source\PSoC6\pdl\cmsis/include/core_cm0plus.h ****   Core Function Interface contains:
 669:Generated_Source\PSoC6\pdl\cmsis/include/core_cm0plus.h ****   - Core NVIC Functions
 670:Generated_Source\PSoC6\pdl\cmsis/include/core_cm0plus.h ****   - Core SysTick Functions
 671:Generated_Source\PSoC6\pdl\cmsis/include/core_cm0plus.h ****   - Core Register Access Functions
 672:Generated_Source\PSoC6\pdl\cmsis/include/core_cm0plus.h ****  ******************************************************************************/
 673:Generated_Source\PSoC6\pdl\cmsis/include/core_cm0plus.h **** /**
 674:Generated_Source\PSoC6\pdl\cmsis/include/core_cm0plus.h ****   \defgroup CMSIS_Core_FunctionInterface Functions and Instructions Reference
 675:Generated_Source\PSoC6\pdl\cmsis/include/core_cm0plus.h **** */
 676:Generated_Source\PSoC6\pdl\cmsis/include/core_cm0plus.h **** 
 677:Generated_Source\PSoC6\pdl\cmsis/include/core_cm0plus.h **** 
 678:Generated_Source\PSoC6\pdl\cmsis/include/core_cm0plus.h **** 
 679:Generated_Source\PSoC6\pdl\cmsis/include/core_cm0plus.h **** /* ##########################   NVIC functions  #################################### */
 680:Generated_Source\PSoC6\pdl\cmsis/include/core_cm0plus.h **** /**
 681:Generated_Source\PSoC6\pdl\cmsis/include/core_cm0plus.h ****   \ingroup  CMSIS_Core_FunctionInterface
 682:Generated_Source\PSoC6\pdl\cmsis/include/core_cm0plus.h ****   \defgroup CMSIS_Core_NVICFunctions NVIC Functions
 683:Generated_Source\PSoC6\pdl\cmsis/include/core_cm0plus.h ****   \brief    Functions that manage interrupts and exceptions via the NVIC.
 684:Generated_Source\PSoC6\pdl\cmsis/include/core_cm0plus.h ****   @{
 685:Generated_Source\PSoC6\pdl\cmsis/include/core_cm0plus.h ****  */
 686:Generated_Source\PSoC6\pdl\cmsis/include/core_cm0plus.h **** 
 687:Generated_Source\PSoC6\pdl\cmsis/include/core_cm0plus.h **** #ifdef CMSIS_NVIC_VIRTUAL
 688:Generated_Source\PSoC6\pdl\cmsis/include/core_cm0plus.h ****   #ifndef CMSIS_NVIC_VIRTUAL_HEADER_FILE
 689:Generated_Source\PSoC6\pdl\cmsis/include/core_cm0plus.h ****     #define CMSIS_NVIC_VIRTUAL_HEADER_FILE "cmsis_nvic_virtual.h"
 690:Generated_Source\PSoC6\pdl\cmsis/include/core_cm0plus.h ****   #endif
 691:Generated_Source\PSoC6\pdl\cmsis/include/core_cm0plus.h ****   #include CMSIS_NVIC_VIRTUAL_HEADER_FILE
 692:Generated_Source\PSoC6\pdl\cmsis/include/core_cm0plus.h **** #else
 693:Generated_Source\PSoC6\pdl\cmsis/include/core_cm0plus.h **** /*#define NVIC_SetPriorityGrouping    __NVIC_SetPriorityGrouping   not available for Cortex-M0+ */
 694:Generated_Source\PSoC6\pdl\cmsis/include/core_cm0plus.h **** /*#define NVIC_GetPriorityGrouping    __NVIC_GetPriorityGrouping   not available for Cortex-M0+ */
 695:Generated_Source\PSoC6\pdl\cmsis/include/core_cm0plus.h ****   #define NVIC_EnableIRQ              __NVIC_EnableIRQ
 696:Generated_Source\PSoC6\pdl\cmsis/include/core_cm0plus.h ****   #define NVIC_GetEnableIRQ           __NVIC_GetEnableIRQ
 697:Generated_Source\PSoC6\pdl\cmsis/include/core_cm0plus.h ****   #define NVIC_DisableIRQ             __NVIC_DisableIRQ
 698:Generated_Source\PSoC6\pdl\cmsis/include/core_cm0plus.h ****   #define NVIC_GetPendingIRQ          __NVIC_GetPendingIRQ
 699:Generated_Source\PSoC6\pdl\cmsis/include/core_cm0plus.h ****   #define NVIC_SetPendingIRQ          __NVIC_SetPendingIRQ
 700:Generated_Source\PSoC6\pdl\cmsis/include/core_cm0plus.h ****   #define NVIC_ClearPendingIRQ        __NVIC_ClearPendingIRQ
 701:Generated_Source\PSoC6\pdl\cmsis/include/core_cm0plus.h **** /*#define NVIC_GetActive              __NVIC_GetActive             not available for Cortex-M0+ */
 702:Generated_Source\PSoC6\pdl\cmsis/include/core_cm0plus.h ****   #define NVIC_SetPriority            __NVIC_SetPriority
 703:Generated_Source\PSoC6\pdl\cmsis/include/core_cm0plus.h ****   #define NVIC_GetPriority            __NVIC_GetPriority
 704:Generated_Source\PSoC6\pdl\cmsis/include/core_cm0plus.h ****   #define NVIC_SystemReset            __NVIC_SystemReset
 705:Generated_Source\PSoC6\pdl\cmsis/include/core_cm0plus.h **** #endif /* CMSIS_NVIC_VIRTUAL */
 706:Generated_Source\PSoC6\pdl\cmsis/include/core_cm0plus.h **** 
 707:Generated_Source\PSoC6\pdl\cmsis/include/core_cm0plus.h **** #ifdef CMSIS_VECTAB_VIRTUAL
 708:Generated_Source\PSoC6\pdl\cmsis/include/core_cm0plus.h ****   #ifndef CMSIS_VECTAB_VIRTUAL_HEADER_FILE
 709:Generated_Source\PSoC6\pdl\cmsis/include/core_cm0plus.h ****     #define CMSIS_VECTAB_VIRTUAL_HEADER_FILE "cmsis_vectab_virtual.h"
 710:Generated_Source\PSoC6\pdl\cmsis/include/core_cm0plus.h ****   #endif
 711:Generated_Source\PSoC6\pdl\cmsis/include/core_cm0plus.h ****   #include CMSIS_VECTAB_VIRTUAL_HEADER_FILE
 712:Generated_Source\PSoC6\pdl\cmsis/include/core_cm0plus.h **** #else
 713:Generated_Source\PSoC6\pdl\cmsis/include/core_cm0plus.h ****   #define NVIC_SetVector              __NVIC_SetVector
 714:Generated_Source\PSoC6\pdl\cmsis/include/core_cm0plus.h ****   #define NVIC_GetVector              __NVIC_GetVector
 715:Generated_Source\PSoC6\pdl\cmsis/include/core_cm0plus.h **** #endif  /* (CMSIS_VECTAB_VIRTUAL) */
 716:Generated_Source\PSoC6\pdl\cmsis/include/core_cm0plus.h **** 
 717:Generated_Source\PSoC6\pdl\cmsis/include/core_cm0plus.h **** #define NVIC_USER_IRQ_OFFSET          16
 718:Generated_Source\PSoC6\pdl\cmsis/include/core_cm0plus.h **** 
 719:Generated_Source\PSoC6\pdl\cmsis/include/core_cm0plus.h **** 
ARM GAS  C:\Users\ASUS\AppData\Local\Temp\ccAE7Y5b.s 			page 23


 720:Generated_Source\PSoC6\pdl\cmsis/include/core_cm0plus.h **** /* Interrupt Priorities are WORD accessible only under Armv6-M                  */
 721:Generated_Source\PSoC6\pdl\cmsis/include/core_cm0plus.h **** /* The following MACROS handle generation of the register offset and byte masks */
 722:Generated_Source\PSoC6\pdl\cmsis/include/core_cm0plus.h **** #define _BIT_SHIFT(IRQn)         (  ((((uint32_t)(int32_t)(IRQn))         )      &  0x03UL) * 8UL)
 723:Generated_Source\PSoC6\pdl\cmsis/include/core_cm0plus.h **** #define _SHP_IDX(IRQn)           ( (((((uint32_t)(int32_t)(IRQn)) & 0x0FUL)-8UL) >>    2UL)      )
 724:Generated_Source\PSoC6\pdl\cmsis/include/core_cm0plus.h **** #define _IP_IDX(IRQn)            (   (((uint32_t)(int32_t)(IRQn))                >>    2UL)      )
 725:Generated_Source\PSoC6\pdl\cmsis/include/core_cm0plus.h **** 
 726:Generated_Source\PSoC6\pdl\cmsis/include/core_cm0plus.h **** 
 727:Generated_Source\PSoC6\pdl\cmsis/include/core_cm0plus.h **** /**
 728:Generated_Source\PSoC6\pdl\cmsis/include/core_cm0plus.h ****   \brief   Enable Interrupt
 729:Generated_Source\PSoC6\pdl\cmsis/include/core_cm0plus.h ****   \details Enables a device specific interrupt in the NVIC interrupt controller.
 730:Generated_Source\PSoC6\pdl\cmsis/include/core_cm0plus.h ****   \param [in]      IRQn  Device specific interrupt number.
 731:Generated_Source\PSoC6\pdl\cmsis/include/core_cm0plus.h ****   \note    IRQn must not be negative.
 732:Generated_Source\PSoC6\pdl\cmsis/include/core_cm0plus.h ****  */
 733:Generated_Source\PSoC6\pdl\cmsis/include/core_cm0plus.h **** __STATIC_INLINE void __NVIC_EnableIRQ(IRQn_Type IRQn)
 734:Generated_Source\PSoC6\pdl\cmsis/include/core_cm0plus.h **** {
 735:Generated_Source\PSoC6\pdl\cmsis/include/core_cm0plus.h ****   if ((int32_t)(IRQn) >= 0)
  92              		.loc 3 735 0
  93 001e 002A     		cmp	r2, #0
  94 0020 05DB     		blt	.L4
 736:Generated_Source\PSoC6\pdl\cmsis/include/core_cm0plus.h ****   {
 737:Generated_Source\PSoC6\pdl\cmsis/include/core_cm0plus.h ****     NVIC->ISER[0U] = (uint32_t)(1UL << (((uint32_t)IRQn) & 0x1FUL));
  95              		.loc 3 737 0
  96 0022 1F23     		movs	r3, #31
  97 0024 1A40     		ands	r2, r3
  98              	.LVL3:
  99 0026 1E3B     		subs	r3, r3, #30
 100 0028 9340     		lsls	r3, r3, r2
 101 002a 044A     		ldr	r2, .L7+12
 102 002c 1360     		str	r3, [r2]
 103              	.LVL4:
 104              	.L4:
 105              	.LBE5:
 106              	.LBE4:
 123:Generated_Source\PSoC6/RTC.c ****         #endif /* defined(RTC_RTC_IRQ__INTC_ASSIGNED) */
 124:Generated_Source\PSoC6/RTC.c **** 
 125:Generated_Source\PSoC6/RTC.c ****         #if(0u != RTC_INITIAL_DST_STATUS)
 126:Generated_Source\PSoC6/RTC.c ****             #if(0u != RTC_TIME_RESET_ON_START)
 127:Generated_Source\PSoC6/RTC.c ****                 
 128:Generated_Source\PSoC6/RTC.c ****                 /* Wait for previous RTC update */
 129:Generated_Source\PSoC6/RTC.c ****                 Cy_SysLib_Delay(RTC_DELAY_BEFORE_DST);
 130:Generated_Source\PSoC6/RTC.c ****             #endif /* (0u != RTC_TIME_RESET_ON_START) */
 131:Generated_Source\PSoC6/RTC.c ****                 
 132:Generated_Source\PSoC6/RTC.c ****             Cy_RTC_GetDateAndTime(&curTimeAndDate);
 133:Generated_Source\PSoC6/RTC.c ****             
 134:Generated_Source\PSoC6/RTC.c ****             /* Set the DST configuration */
 135:Generated_Source\PSoC6/RTC.c ****             if(Cy_RTC_EnableDstTime(&RTC_dstConfig, &curTimeAndDate) != CY_RTC_SUCCESS)
 136:Generated_Source\PSoC6/RTC.c ****             {
 137:Generated_Source\PSoC6/RTC.c ****                 /* DST Setting failed */
 138:Generated_Source\PSoC6/RTC.c ****                 CY_ASSERT(0u != 0u);
 139:Generated_Source\PSoC6/RTC.c ****             }
 140:Generated_Source\PSoC6/RTC.c ****         #endif /* (0u != RTC_INITIAL_DST_STATUS) */
 141:Generated_Source\PSoC6/RTC.c ****     #endif /* (0u != RTC_INITIAL_IRQ_STATUS) */
 142:Generated_Source\PSoC6/RTC.c **** }
 107              		.loc 2 142 0
 108              		@ sp needed
 109 002e 10BD     		pop	{r4, pc}
 110              	.L8:
ARM GAS  C:\Users\ASUS\AppData\Local\Temp\ccAE7Y5b.s 			page 24


 111              		.align	2
 112              	.L7:
 113 0030 00000000 		.word	.LANCHOR0
 114 0034 00000000 		.word	RTC_Interrupt
 115 0038 00000000 		.word	RTC_RTC_IRQ_cfg
 116 003c 00E100E0 		.word	-536813312
 117              		.cfi_endproc
 118              	.LFE111:
 119              		.size	RTC_Start, .-RTC_Start
 120              		.comm	RTC_dstConfig,48,4
 121              		.global	RTC_rtcDstStatus
 122              		.global	RTC_config
 123              		.global	RTC_initVar
 124              		.section	.rodata
 125              		.align	2
 126              		.type	RTC_config, %object
 127              		.size	RTC_config, 32
 128              	RTC_config:
 129 0000 00000000 		.word	0
 130 0004 00000000 		.word	0
 131 0008 09000000 		.word	9
 132 000c 00       		.space	1
 133 000d 00       		.byte	0
 134 000e 0000     		.space	2
 135 0010 02000000 		.word	2
 136 0014 17000000 		.word	23
 137 0018 03000000 		.word	3
 138 001c 14000000 		.word	20
 139              		.bss
 140              		.set	.LANCHOR0,. + 0
 141              		.type	RTC_rtcDstStatus, %object
 142              		.size	RTC_rtcDstStatus, 1
 143              	RTC_rtcDstStatus:
 144 0000 00       		.space	1
 145              		.type	RTC_initVar, %object
 146              		.size	RTC_initVar, 1
 147              	RTC_initVar:
 148 0001 00       		.space	1
 149              		.text
 150              	.Letext0:
 151              		.file 4 "Generated_Source\\PSoC6\\pdl\\devices/psoc6/include/cyble_416045_02.h"
 152              		.file 5 "d:\\program files (x86)\\cypress\\psoc creator\\4.2\\psoc creator\\import\\gnu\\arm\\5.4.
 153              		.file 6 "d:\\program files (x86)\\cypress\\psoc creator\\4.2\\psoc creator\\import\\gnu\\arm\\5.4.
 154              		.file 7 "Generated_Source\\PSoC6\\pdl\\drivers/peripheral/device/cy_device.h"
 155              		.file 8 "Generated_Source\\PSoC6\\pdl\\drivers/peripheral/rtc/cy_rtc.h"
 156              		.file 9 "Generated_Source\\PSoC6\\pdl\\drivers/peripheral/sysint/cy_sysint.h"
 157              		.file 10 "Generated_Source\\PSoC6\\cyfitter_sysint_cfg.h"