ARM GAS  C:\Users\YOUSEF~1\AppData\Local\Temp\ccQanZ98.s 			page 1


   1              		.syntax unified
   2              		.cpu cortex-m0plus
   3              		.fpu softvfp
   4              		.eabi_attribute 20, 1
   5              		.eabi_attribute 21, 1
   6              		.eabi_attribute 23, 3
   7              		.eabi_attribute 24, 1
   8              		.eabi_attribute 25, 1
   9              		.eabi_attribute 26, 1
  10              		.eabi_attribute 30, 1
  11              		.eabi_attribute 34, 0
  12              		.eabi_attribute 18, 4
  13              		.thumb
  14              		.syntax unified
  15              		.file	"UART.c"
  16              		.text
  17              	.Ltext0:
  18              		.cfi_sections	.debug_frame
  19              		.section	.text.UART_Interrupt,"ax",%progbits
  20              		.align	2
  21              		.code	16
  22              		.thumb_func
  23              		.type	UART_Interrupt, %function
  24              	UART_Interrupt:
  25              	.LFB191:
  26              		.file 1 "Generated_Source\\PSoC6\\UART.h"
   1:Generated_Source\PSoC6/UART.h **** /***************************************************************************//**
   2:Generated_Source\PSoC6/UART.h **** * \file UART.h
   3:Generated_Source\PSoC6/UART.h **** * \version 2.0
   4:Generated_Source\PSoC6/UART.h **** *
   5:Generated_Source\PSoC6/UART.h **** *  This file provides constants and parameter values for the UART component.
   6:Generated_Source\PSoC6/UART.h **** *
   7:Generated_Source\PSoC6/UART.h **** ********************************************************************************
   8:Generated_Source\PSoC6/UART.h **** * \copyright
   9:Generated_Source\PSoC6/UART.h **** * Copyright 2016-2017, Cypress Semiconductor Corporation. All rights reserved.
  10:Generated_Source\PSoC6/UART.h **** * You may use this file only in accordance with the license, terms, conditions,
  11:Generated_Source\PSoC6/UART.h **** * disclaimers, and limitations in the end user license agreement accompanying
  12:Generated_Source\PSoC6/UART.h **** * the software package with which this file was provided.
  13:Generated_Source\PSoC6/UART.h **** *******************************************************************************/
  14:Generated_Source\PSoC6/UART.h **** 
  15:Generated_Source\PSoC6/UART.h **** #if !defined(UART_CY_SCB_UART_PDL_H)
  16:Generated_Source\PSoC6/UART.h **** #define UART_CY_SCB_UART_PDL_H
  17:Generated_Source\PSoC6/UART.h **** 
  18:Generated_Source\PSoC6/UART.h **** #include "cyfitter.h"
  19:Generated_Source\PSoC6/UART.h **** #include "scb/cy_scb_uart.h"
  20:Generated_Source\PSoC6/UART.h **** 
  21:Generated_Source\PSoC6/UART.h **** #if defined(__cplusplus)
  22:Generated_Source\PSoC6/UART.h **** extern "C" {
  23:Generated_Source\PSoC6/UART.h **** #endif
  24:Generated_Source\PSoC6/UART.h **** 
  25:Generated_Source\PSoC6/UART.h **** /***************************************
  26:Generated_Source\PSoC6/UART.h **** *   Initial Parameter Constants
  27:Generated_Source\PSoC6/UART.h **** ****************************************/
  28:Generated_Source\PSoC6/UART.h **** 
  29:Generated_Source\PSoC6/UART.h **** #define UART_DIRECTION  (3U)
  30:Generated_Source\PSoC6/UART.h **** #define UART_ENABLE_RTS (0U)
  31:Generated_Source\PSoC6/UART.h **** #define UART_ENABLE_CTS (0U)
ARM GAS  C:\Users\YOUSEF~1\AppData\Local\Temp\ccQanZ98.s 			page 2


  32:Generated_Source\PSoC6/UART.h **** 
  33:Generated_Source\PSoC6/UART.h **** /* UART direction enum */
  34:Generated_Source\PSoC6/UART.h **** #define UART_RX    (0x1U)
  35:Generated_Source\PSoC6/UART.h **** #define UART_TX    (0x2U)
  36:Generated_Source\PSoC6/UART.h **** 
  37:Generated_Source\PSoC6/UART.h **** #define UART_ENABLE_RX  (0UL != (UART_DIRECTION & UART_RX))
  38:Generated_Source\PSoC6/UART.h **** #define UART_ENABLE_TX  (0UL != (UART_DIRECTION & UART_TX))
  39:Generated_Source\PSoC6/UART.h **** 
  40:Generated_Source\PSoC6/UART.h **** 
  41:Generated_Source\PSoC6/UART.h **** /***************************************
  42:Generated_Source\PSoC6/UART.h **** *        Function Prototypes
  43:Generated_Source\PSoC6/UART.h **** ***************************************/
  44:Generated_Source\PSoC6/UART.h **** /**
  45:Generated_Source\PSoC6/UART.h **** * \addtogroup group_general
  46:Generated_Source\PSoC6/UART.h **** * @{
  47:Generated_Source\PSoC6/UART.h **** */
  48:Generated_Source\PSoC6/UART.h **** /* Component specific functions. */
  49:Generated_Source\PSoC6/UART.h **** void UART_Start(void);
  50:Generated_Source\PSoC6/UART.h **** 
  51:Generated_Source\PSoC6/UART.h **** /* Basic functions */
  52:Generated_Source\PSoC6/UART.h **** __STATIC_INLINE cy_en_scb_uart_status_t UART_Init(cy_stc_scb_uart_config_t const *config);
  53:Generated_Source\PSoC6/UART.h **** __STATIC_INLINE void UART_DeInit(void);
  54:Generated_Source\PSoC6/UART.h **** __STATIC_INLINE void UART_Enable(void);
  55:Generated_Source\PSoC6/UART.h **** __STATIC_INLINE void UART_Disable(void);
  56:Generated_Source\PSoC6/UART.h **** 
  57:Generated_Source\PSoC6/UART.h **** /* Register callback. */
  58:Generated_Source\PSoC6/UART.h **** __STATIC_INLINE void UART_RegisterCallback(cy_cb_scb_uart_handle_events_t callback);
  59:Generated_Source\PSoC6/UART.h **** 
  60:Generated_Source\PSoC6/UART.h **** /* Configuration change. */
  61:Generated_Source\PSoC6/UART.h **** #if (UART_ENABLE_CTS)
  62:Generated_Source\PSoC6/UART.h **** __STATIC_INLINE void UART_EnableCts(void);
  63:Generated_Source\PSoC6/UART.h **** __STATIC_INLINE void UART_DisableCts(void);
  64:Generated_Source\PSoC6/UART.h **** #endif /* (UART_ENABLE_CTS) */
  65:Generated_Source\PSoC6/UART.h **** 
  66:Generated_Source\PSoC6/UART.h **** #if (UART_ENABLE_RTS)
  67:Generated_Source\PSoC6/UART.h **** __STATIC_INLINE void     UART_SetRtsFifoLevel(uint32_t level);
  68:Generated_Source\PSoC6/UART.h **** __STATIC_INLINE uint32_t UART_GetRtsFifoLevel(void);
  69:Generated_Source\PSoC6/UART.h **** #endif /* (UART_ENABLE_RTS) */
  70:Generated_Source\PSoC6/UART.h **** 
  71:Generated_Source\PSoC6/UART.h **** __STATIC_INLINE void UART_EnableSkipStart(void);
  72:Generated_Source\PSoC6/UART.h **** __STATIC_INLINE void UART_DisableSkipStart(void);
  73:Generated_Source\PSoC6/UART.h **** 
  74:Generated_Source\PSoC6/UART.h **** #if (UART_ENABLE_RX)
  75:Generated_Source\PSoC6/UART.h **** /* Low level: Receive direction. */
  76:Generated_Source\PSoC6/UART.h **** __STATIC_INLINE uint32_t UART_Get(void);
  77:Generated_Source\PSoC6/UART.h **** __STATIC_INLINE uint32_t UART_GetArray(void *buffer, uint32_t size);
  78:Generated_Source\PSoC6/UART.h **** __STATIC_INLINE void     UART_GetArrayBlocking(void *buffer, uint32_t size);
  79:Generated_Source\PSoC6/UART.h **** __STATIC_INLINE uint32_t UART_GetRxFifoStatus(void);
  80:Generated_Source\PSoC6/UART.h **** __STATIC_INLINE void     UART_ClearRxFifoStatus(uint32_t clearMask);
  81:Generated_Source\PSoC6/UART.h **** __STATIC_INLINE uint32_t UART_GetNumInRxFifo(void);
  82:Generated_Source\PSoC6/UART.h **** __STATIC_INLINE void     UART_ClearRxFifo(void);
  83:Generated_Source\PSoC6/UART.h **** #endif /* (UART_ENABLE_RX) */
  84:Generated_Source\PSoC6/UART.h **** 
  85:Generated_Source\PSoC6/UART.h **** #if (UART_ENABLE_TX)
  86:Generated_Source\PSoC6/UART.h **** /* Low level: Transmit direction. */
  87:Generated_Source\PSoC6/UART.h **** __STATIC_INLINE uint32_t UART_Put(uint32_t data);
  88:Generated_Source\PSoC6/UART.h **** __STATIC_INLINE uint32_t UART_PutArray(void *buffer, uint32_t size);
ARM GAS  C:\Users\YOUSEF~1\AppData\Local\Temp\ccQanZ98.s 			page 3


  89:Generated_Source\PSoC6/UART.h **** __STATIC_INLINE void     UART_PutArrayBlocking(void *buffer, uint32_t size);
  90:Generated_Source\PSoC6/UART.h **** __STATIC_INLINE void     UART_PutString(char_t const string[]);
  91:Generated_Source\PSoC6/UART.h **** __STATIC_INLINE void     UART_SendBreakBlocking(uint32_t breakWidth);
  92:Generated_Source\PSoC6/UART.h **** __STATIC_INLINE uint32_t UART_GetTxFifoStatus(void);
  93:Generated_Source\PSoC6/UART.h **** __STATIC_INLINE void     UART_ClearTxFifoStatus(uint32_t clearMask);
  94:Generated_Source\PSoC6/UART.h **** __STATIC_INLINE uint32_t UART_GetNumInTxFifo(void);
  95:Generated_Source\PSoC6/UART.h **** __STATIC_INLINE bool     UART_IsTxComplete(void);
  96:Generated_Source\PSoC6/UART.h **** __STATIC_INLINE void     UART_ClearTxFifo(void);
  97:Generated_Source\PSoC6/UART.h **** #endif /* (UART_ENABLE_TX) */
  98:Generated_Source\PSoC6/UART.h **** 
  99:Generated_Source\PSoC6/UART.h **** #if (UART_ENABLE_RX)
 100:Generated_Source\PSoC6/UART.h **** /* High level: Ring buffer functions. */
 101:Generated_Source\PSoC6/UART.h **** __STATIC_INLINE void     UART_StartRingBuffer(void *buffer, uint32_t size);
 102:Generated_Source\PSoC6/UART.h **** __STATIC_INLINE void     UART_StopRingBuffer(void);
 103:Generated_Source\PSoC6/UART.h **** __STATIC_INLINE void     UART_ClearRingBuffer(void);
 104:Generated_Source\PSoC6/UART.h **** __STATIC_INLINE uint32_t UART_GetNumInRingBuffer(void);
 105:Generated_Source\PSoC6/UART.h **** 
 106:Generated_Source\PSoC6/UART.h **** /* High level: Receive direction functions. */
 107:Generated_Source\PSoC6/UART.h **** __STATIC_INLINE cy_en_scb_uart_status_t UART_Receive(void *buffer, uint32_t size);
 108:Generated_Source\PSoC6/UART.h **** __STATIC_INLINE void     UART_AbortReceive(void);
 109:Generated_Source\PSoC6/UART.h **** __STATIC_INLINE uint32_t UART_GetReceiveStatus(void);
 110:Generated_Source\PSoC6/UART.h **** __STATIC_INLINE uint32_t UART_GetNumReceived(void);
 111:Generated_Source\PSoC6/UART.h **** #endif /* (UART_ENABLE_RX) */
 112:Generated_Source\PSoC6/UART.h **** 
 113:Generated_Source\PSoC6/UART.h **** #if (UART_ENABLE_TX)
 114:Generated_Source\PSoC6/UART.h **** /* High level: Transmit direction functions. */
 115:Generated_Source\PSoC6/UART.h **** __STATIC_INLINE cy_en_scb_uart_status_t UART_Transmit(void *buffer, uint32_t size);
 116:Generated_Source\PSoC6/UART.h **** __STATIC_INLINE void     UART_AbortTransmit(void);
 117:Generated_Source\PSoC6/UART.h **** __STATIC_INLINE uint32_t UART_GetTransmitStatus(void);
 118:Generated_Source\PSoC6/UART.h **** __STATIC_INLINE uint32_t UART_GetNumLeftToTransmit(void);
 119:Generated_Source\PSoC6/UART.h **** #endif /* (UART_ENABLE_TX) */
 120:Generated_Source\PSoC6/UART.h **** 
 121:Generated_Source\PSoC6/UART.h **** /* Interrupt handler */
 122:Generated_Source\PSoC6/UART.h **** __STATIC_INLINE void UART_Interrupt(void);
 123:Generated_Source\PSoC6/UART.h **** /** @} group_general */
 124:Generated_Source\PSoC6/UART.h **** 
 125:Generated_Source\PSoC6/UART.h **** 
 126:Generated_Source\PSoC6/UART.h **** /***************************************
 127:Generated_Source\PSoC6/UART.h **** *    Variables with External Linkage
 128:Generated_Source\PSoC6/UART.h **** ***************************************/
 129:Generated_Source\PSoC6/UART.h **** /**
 130:Generated_Source\PSoC6/UART.h **** * \addtogroup group_globals
 131:Generated_Source\PSoC6/UART.h **** * @{
 132:Generated_Source\PSoC6/UART.h **** */
 133:Generated_Source\PSoC6/UART.h **** extern uint8_t UART_initVar;
 134:Generated_Source\PSoC6/UART.h **** extern cy_stc_scb_uart_config_t const UART_config;
 135:Generated_Source\PSoC6/UART.h **** extern cy_stc_scb_uart_context_t UART_context;
 136:Generated_Source\PSoC6/UART.h **** /** @} group_globals */
 137:Generated_Source\PSoC6/UART.h **** 
 138:Generated_Source\PSoC6/UART.h **** 
 139:Generated_Source\PSoC6/UART.h **** /***************************************
 140:Generated_Source\PSoC6/UART.h **** *         Preprocessor Macros
 141:Generated_Source\PSoC6/UART.h **** ***************************************/
 142:Generated_Source\PSoC6/UART.h **** /**
 143:Generated_Source\PSoC6/UART.h **** * \addtogroup group_macros
 144:Generated_Source\PSoC6/UART.h **** * @{
 145:Generated_Source\PSoC6/UART.h **** */
ARM GAS  C:\Users\YOUSEF~1\AppData\Local\Temp\ccQanZ98.s 			page 4


 146:Generated_Source\PSoC6/UART.h **** /** The pointer to the base address of the hardware */
 147:Generated_Source\PSoC6/UART.h **** #define UART_HW     ((CySCB_Type *) UART_SCB__HW)
 148:Generated_Source\PSoC6/UART.h **** /** @} group_macros */
 149:Generated_Source\PSoC6/UART.h **** 
 150:Generated_Source\PSoC6/UART.h **** 
 151:Generated_Source\PSoC6/UART.h **** /***************************************
 152:Generated_Source\PSoC6/UART.h **** *    In-line Function Implementation
 153:Generated_Source\PSoC6/UART.h **** ***************************************/
 154:Generated_Source\PSoC6/UART.h **** 
 155:Generated_Source\PSoC6/UART.h **** /*******************************************************************************
 156:Generated_Source\PSoC6/UART.h **** * Function Name: UART_Init
 157:Generated_Source\PSoC6/UART.h **** ****************************************************************************//**
 158:Generated_Source\PSoC6/UART.h **** *
 159:Generated_Source\PSoC6/UART.h **** * Invokes the Cy_SCB_UART_Init() PDL driver function.
 160:Generated_Source\PSoC6/UART.h **** *
 161:Generated_Source\PSoC6/UART.h **** *******************************************************************************/
 162:Generated_Source\PSoC6/UART.h **** __STATIC_INLINE cy_en_scb_uart_status_t UART_Init(cy_stc_scb_uart_config_t const *config)
 163:Generated_Source\PSoC6/UART.h **** {
 164:Generated_Source\PSoC6/UART.h ****    return Cy_SCB_UART_Init(UART_HW, config, &UART_context);
 165:Generated_Source\PSoC6/UART.h **** }
 166:Generated_Source\PSoC6/UART.h **** 
 167:Generated_Source\PSoC6/UART.h **** 
 168:Generated_Source\PSoC6/UART.h **** /*******************************************************************************
 169:Generated_Source\PSoC6/UART.h **** * Function Name: UART_DeInit
 170:Generated_Source\PSoC6/UART.h **** ****************************************************************************//**
 171:Generated_Source\PSoC6/UART.h **** *
 172:Generated_Source\PSoC6/UART.h **** * Invokes the Cy_SCB_UART_DeInit() PDL driver function.
 173:Generated_Source\PSoC6/UART.h **** *
 174:Generated_Source\PSoC6/UART.h **** *******************************************************************************/
 175:Generated_Source\PSoC6/UART.h **** __STATIC_INLINE void UART_DeInit(void)
 176:Generated_Source\PSoC6/UART.h **** {
 177:Generated_Source\PSoC6/UART.h ****     Cy_SCB_UART_DeInit(UART_HW);
 178:Generated_Source\PSoC6/UART.h **** }
 179:Generated_Source\PSoC6/UART.h **** 
 180:Generated_Source\PSoC6/UART.h **** 
 181:Generated_Source\PSoC6/UART.h **** /*******************************************************************************
 182:Generated_Source\PSoC6/UART.h **** * Function Name: UART_Enable
 183:Generated_Source\PSoC6/UART.h **** ****************************************************************************//**
 184:Generated_Source\PSoC6/UART.h **** *
 185:Generated_Source\PSoC6/UART.h **** * Invokes the Cy_SCB_UART_Enable() PDL driver function.
 186:Generated_Source\PSoC6/UART.h **** *
 187:Generated_Source\PSoC6/UART.h **** *******************************************************************************/
 188:Generated_Source\PSoC6/UART.h **** __STATIC_INLINE void UART_Enable(void)
 189:Generated_Source\PSoC6/UART.h **** {
 190:Generated_Source\PSoC6/UART.h ****     Cy_SCB_UART_Enable(UART_HW);
 191:Generated_Source\PSoC6/UART.h **** }
 192:Generated_Source\PSoC6/UART.h **** 
 193:Generated_Source\PSoC6/UART.h **** 
 194:Generated_Source\PSoC6/UART.h **** /*******************************************************************************
 195:Generated_Source\PSoC6/UART.h **** * Function Name: UART_Disable
 196:Generated_Source\PSoC6/UART.h **** ****************************************************************************//**
 197:Generated_Source\PSoC6/UART.h **** *
 198:Generated_Source\PSoC6/UART.h **** * Invokes the Cy_SCB_UART_Disable() PDL driver function.
 199:Generated_Source\PSoC6/UART.h **** *
 200:Generated_Source\PSoC6/UART.h **** *******************************************************************************/
 201:Generated_Source\PSoC6/UART.h **** __STATIC_INLINE void UART_Disable(void)
 202:Generated_Source\PSoC6/UART.h **** {
ARM GAS  C:\Users\YOUSEF~1\AppData\Local\Temp\ccQanZ98.s 			page 5


 203:Generated_Source\PSoC6/UART.h ****     Cy_SCB_UART_Disable(UART_HW, &UART_context);
 204:Generated_Source\PSoC6/UART.h **** }
 205:Generated_Source\PSoC6/UART.h **** 
 206:Generated_Source\PSoC6/UART.h **** 
 207:Generated_Source\PSoC6/UART.h **** /*******************************************************************************
 208:Generated_Source\PSoC6/UART.h **** * Function Name: UART_RegisterCallback
 209:Generated_Source\PSoC6/UART.h **** ****************************************************************************//**
 210:Generated_Source\PSoC6/UART.h **** *
 211:Generated_Source\PSoC6/UART.h **** * Invokes the Cy_SCB_UART_RegisterCallback() PDL driver function.
 212:Generated_Source\PSoC6/UART.h **** *
 213:Generated_Source\PSoC6/UART.h **** *******************************************************************************/
 214:Generated_Source\PSoC6/UART.h **** __STATIC_INLINE void UART_RegisterCallback(cy_cb_scb_uart_handle_events_t callback)
 215:Generated_Source\PSoC6/UART.h **** {
 216:Generated_Source\PSoC6/UART.h ****     Cy_SCB_UART_RegisterCallback(UART_HW, callback, &UART_context);
 217:Generated_Source\PSoC6/UART.h **** }
 218:Generated_Source\PSoC6/UART.h **** 
 219:Generated_Source\PSoC6/UART.h **** 
 220:Generated_Source\PSoC6/UART.h **** #if (UART_ENABLE_CTS)
 221:Generated_Source\PSoC6/UART.h **** /*******************************************************************************
 222:Generated_Source\PSoC6/UART.h **** * Function Name: UART_EnableCts
 223:Generated_Source\PSoC6/UART.h **** ****************************************************************************//**
 224:Generated_Source\PSoC6/UART.h **** *
 225:Generated_Source\PSoC6/UART.h **** * Invokes the Cy_SCB_UART_EnableCts() PDL driver function.
 226:Generated_Source\PSoC6/UART.h **** *
 227:Generated_Source\PSoC6/UART.h **** *******************************************************************************/
 228:Generated_Source\PSoC6/UART.h **** __STATIC_INLINE void UART_EnableCts(void)
 229:Generated_Source\PSoC6/UART.h **** {
 230:Generated_Source\PSoC6/UART.h ****     Cy_SCB_UART_EnableCts(UART_HW);
 231:Generated_Source\PSoC6/UART.h **** }
 232:Generated_Source\PSoC6/UART.h **** 
 233:Generated_Source\PSoC6/UART.h **** 
 234:Generated_Source\PSoC6/UART.h **** /*******************************************************************************
 235:Generated_Source\PSoC6/UART.h **** * Function Name: Cy_SCB_UART_DisableCts
 236:Generated_Source\PSoC6/UART.h **** ****************************************************************************//**
 237:Generated_Source\PSoC6/UART.h **** *
 238:Generated_Source\PSoC6/UART.h **** * Invokes the Cy_SCB_UART_DisableCts() PDL driver function.
 239:Generated_Source\PSoC6/UART.h **** *
 240:Generated_Source\PSoC6/UART.h **** *******************************************************************************/
 241:Generated_Source\PSoC6/UART.h **** __STATIC_INLINE void UART_DisableCts(void)
 242:Generated_Source\PSoC6/UART.h **** {
 243:Generated_Source\PSoC6/UART.h ****     Cy_SCB_UART_DisableCts(UART_HW);
 244:Generated_Source\PSoC6/UART.h **** }
 245:Generated_Source\PSoC6/UART.h **** #endif /* (UART_ENABLE_CTS) */
 246:Generated_Source\PSoC6/UART.h **** 
 247:Generated_Source\PSoC6/UART.h **** 
 248:Generated_Source\PSoC6/UART.h **** #if (UART_ENABLE_RTS)
 249:Generated_Source\PSoC6/UART.h **** /*******************************************************************************
 250:Generated_Source\PSoC6/UART.h **** * Function Name: UART_SetRtsFifoLevel
 251:Generated_Source\PSoC6/UART.h **** ****************************************************************************//**
 252:Generated_Source\PSoC6/UART.h **** *
 253:Generated_Source\PSoC6/UART.h **** * Invokes the Cy_SCB_UART_SetRtsFifoLevel() PDL driver function.
 254:Generated_Source\PSoC6/UART.h **** *
 255:Generated_Source\PSoC6/UART.h **** *******************************************************************************/
 256:Generated_Source\PSoC6/UART.h **** __STATIC_INLINE void UART_SetRtsFifoLevel(uint32_t level)
 257:Generated_Source\PSoC6/UART.h **** {
 258:Generated_Source\PSoC6/UART.h ****     Cy_SCB_UART_SetRtsFifoLevel(UART_HW, level);
 259:Generated_Source\PSoC6/UART.h **** }
ARM GAS  C:\Users\YOUSEF~1\AppData\Local\Temp\ccQanZ98.s 			page 6


 260:Generated_Source\PSoC6/UART.h **** 
 261:Generated_Source\PSoC6/UART.h **** 
 262:Generated_Source\PSoC6/UART.h **** /*******************************************************************************
 263:Generated_Source\PSoC6/UART.h **** * Function Name: UART_GetRtsFifoLevel
 264:Generated_Source\PSoC6/UART.h **** ****************************************************************************//**
 265:Generated_Source\PSoC6/UART.h **** *
 266:Generated_Source\PSoC6/UART.h **** * Invokes the Cy_SCB_UART_GetRtsFifoLevel() PDL driver function.
 267:Generated_Source\PSoC6/UART.h **** *
 268:Generated_Source\PSoC6/UART.h **** *******************************************************************************/
 269:Generated_Source\PSoC6/UART.h **** __STATIC_INLINE uint32_t UART_GetRtsFifoLevel(void)
 270:Generated_Source\PSoC6/UART.h **** {
 271:Generated_Source\PSoC6/UART.h ****     return Cy_SCB_UART_GetRtsFifoLevel(UART_HW);
 272:Generated_Source\PSoC6/UART.h **** }
 273:Generated_Source\PSoC6/UART.h **** #endif /* (UART_ENABLE_RTS) */
 274:Generated_Source\PSoC6/UART.h **** 
 275:Generated_Source\PSoC6/UART.h **** 
 276:Generated_Source\PSoC6/UART.h **** /*******************************************************************************
 277:Generated_Source\PSoC6/UART.h **** * Function Name: UART_EnableSkipStart
 278:Generated_Source\PSoC6/UART.h **** ****************************************************************************//**
 279:Generated_Source\PSoC6/UART.h **** *
 280:Generated_Source\PSoC6/UART.h **** * Invokes the Cy_SCB_UART_EnableSkipStart() PDL driver function.
 281:Generated_Source\PSoC6/UART.h **** *
 282:Generated_Source\PSoC6/UART.h **** *******************************************************************************/
 283:Generated_Source\PSoC6/UART.h **** __STATIC_INLINE void UART_EnableSkipStart(void)
 284:Generated_Source\PSoC6/UART.h **** {
 285:Generated_Source\PSoC6/UART.h ****     Cy_SCB_UART_EnableSkipStart(UART_HW);
 286:Generated_Source\PSoC6/UART.h **** }
 287:Generated_Source\PSoC6/UART.h **** 
 288:Generated_Source\PSoC6/UART.h **** 
 289:Generated_Source\PSoC6/UART.h **** /*******************************************************************************
 290:Generated_Source\PSoC6/UART.h **** * Function Name: UART_DisableSkipStart
 291:Generated_Source\PSoC6/UART.h **** ****************************************************************************//**
 292:Generated_Source\PSoC6/UART.h **** *
 293:Generated_Source\PSoC6/UART.h **** * Invokes the Cy_SCB_UART_DisableSkipStart() PDL driver function.
 294:Generated_Source\PSoC6/UART.h **** *
 295:Generated_Source\PSoC6/UART.h **** *******************************************************************************/
 296:Generated_Source\PSoC6/UART.h **** __STATIC_INLINE void UART_DisableSkipStart(void)
 297:Generated_Source\PSoC6/UART.h **** {
 298:Generated_Source\PSoC6/UART.h ****     Cy_SCB_UART_DisableSkipStart(UART_HW);
 299:Generated_Source\PSoC6/UART.h **** }
 300:Generated_Source\PSoC6/UART.h **** 
 301:Generated_Source\PSoC6/UART.h **** 
 302:Generated_Source\PSoC6/UART.h **** #if (UART_ENABLE_RX)
 303:Generated_Source\PSoC6/UART.h **** /*******************************************************************************
 304:Generated_Source\PSoC6/UART.h **** * Function Name: UART_Get
 305:Generated_Source\PSoC6/UART.h **** ****************************************************************************//**
 306:Generated_Source\PSoC6/UART.h **** *
 307:Generated_Source\PSoC6/UART.h **** * Invokes the Cy_SCB_UART_Get() PDL driver function.
 308:Generated_Source\PSoC6/UART.h **** *
 309:Generated_Source\PSoC6/UART.h **** *******************************************************************************/
 310:Generated_Source\PSoC6/UART.h **** __STATIC_INLINE uint32_t UART_Get(void)
 311:Generated_Source\PSoC6/UART.h **** {
 312:Generated_Source\PSoC6/UART.h ****     return Cy_SCB_UART_Get(UART_HW);
 313:Generated_Source\PSoC6/UART.h **** }
 314:Generated_Source\PSoC6/UART.h **** 
 315:Generated_Source\PSoC6/UART.h **** 
 316:Generated_Source\PSoC6/UART.h **** /*******************************************************************************
ARM GAS  C:\Users\YOUSEF~1\AppData\Local\Temp\ccQanZ98.s 			page 7


 317:Generated_Source\PSoC6/UART.h **** * Function Name: UART_GetArray
 318:Generated_Source\PSoC6/UART.h **** ****************************************************************************//**
 319:Generated_Source\PSoC6/UART.h **** *
 320:Generated_Source\PSoC6/UART.h **** * Invokes the Cy_SCB_UART_GetArray() PDL driver function.
 321:Generated_Source\PSoC6/UART.h **** *
 322:Generated_Source\PSoC6/UART.h **** *******************************************************************************/
 323:Generated_Source\PSoC6/UART.h **** __STATIC_INLINE uint32_t UART_GetArray(void *buffer, uint32_t size)
 324:Generated_Source\PSoC6/UART.h **** {
 325:Generated_Source\PSoC6/UART.h ****     return Cy_SCB_UART_GetArray(UART_HW, buffer, size);
 326:Generated_Source\PSoC6/UART.h **** }
 327:Generated_Source\PSoC6/UART.h **** 
 328:Generated_Source\PSoC6/UART.h **** 
 329:Generated_Source\PSoC6/UART.h **** /*******************************************************************************
 330:Generated_Source\PSoC6/UART.h **** * Function Name: UART_GetArrayBlocking
 331:Generated_Source\PSoC6/UART.h **** ****************************************************************************//**
 332:Generated_Source\PSoC6/UART.h **** *
 333:Generated_Source\PSoC6/UART.h **** * Invokes the Cy_SCB_UART_GetArrayBlocking() PDL driver function.
 334:Generated_Source\PSoC6/UART.h **** *
 335:Generated_Source\PSoC6/UART.h **** *******************************************************************************/
 336:Generated_Source\PSoC6/UART.h **** __STATIC_INLINE void UART_GetArrayBlocking(void *buffer, uint32_t size)
 337:Generated_Source\PSoC6/UART.h **** {
 338:Generated_Source\PSoC6/UART.h ****     Cy_SCB_UART_GetArrayBlocking(UART_HW, buffer, size);
 339:Generated_Source\PSoC6/UART.h **** }
 340:Generated_Source\PSoC6/UART.h **** 
 341:Generated_Source\PSoC6/UART.h **** 
 342:Generated_Source\PSoC6/UART.h **** /*******************************************************************************
 343:Generated_Source\PSoC6/UART.h **** * Function Name: UART_GetRxFifoStatus
 344:Generated_Source\PSoC6/UART.h **** ****************************************************************************//**
 345:Generated_Source\PSoC6/UART.h **** *
 346:Generated_Source\PSoC6/UART.h **** * Invokes the Cy_SCB_UART_GetRxFifoStatus() PDL driver function.
 347:Generated_Source\PSoC6/UART.h **** *
 348:Generated_Source\PSoC6/UART.h **** *******************************************************************************/
 349:Generated_Source\PSoC6/UART.h **** __STATIC_INLINE uint32_t UART_GetRxFifoStatus(void)
 350:Generated_Source\PSoC6/UART.h **** {
 351:Generated_Source\PSoC6/UART.h ****     return Cy_SCB_UART_GetRxFifoStatus(UART_HW);
 352:Generated_Source\PSoC6/UART.h **** }
 353:Generated_Source\PSoC6/UART.h **** 
 354:Generated_Source\PSoC6/UART.h **** 
 355:Generated_Source\PSoC6/UART.h **** /*******************************************************************************
 356:Generated_Source\PSoC6/UART.h **** * Function Name: UART_ClearRxFifoStatus
 357:Generated_Source\PSoC6/UART.h **** ****************************************************************************//**
 358:Generated_Source\PSoC6/UART.h **** *
 359:Generated_Source\PSoC6/UART.h **** * Invokes the Cy_SCB_UART_ClearRxFifoStatus() PDL driver function.
 360:Generated_Source\PSoC6/UART.h **** *
 361:Generated_Source\PSoC6/UART.h **** *******************************************************************************/
 362:Generated_Source\PSoC6/UART.h **** __STATIC_INLINE void UART_ClearRxFifoStatus(uint32_t clearMask)
 363:Generated_Source\PSoC6/UART.h **** {
 364:Generated_Source\PSoC6/UART.h ****     Cy_SCB_UART_ClearRxFifoStatus(UART_HW, clearMask);
 365:Generated_Source\PSoC6/UART.h **** }
 366:Generated_Source\PSoC6/UART.h **** 
 367:Generated_Source\PSoC6/UART.h **** 
 368:Generated_Source\PSoC6/UART.h **** /*******************************************************************************
 369:Generated_Source\PSoC6/UART.h **** * Function Name: UART_GetNumInRxFifo
 370:Generated_Source\PSoC6/UART.h **** ****************************************************************************//**
 371:Generated_Source\PSoC6/UART.h **** *
 372:Generated_Source\PSoC6/UART.h **** * Invokes the Cy_SCB_UART_GetNumInRxFifo() PDL driver function.
 373:Generated_Source\PSoC6/UART.h **** *
ARM GAS  C:\Users\YOUSEF~1\AppData\Local\Temp\ccQanZ98.s 			page 8


 374:Generated_Source\PSoC6/UART.h **** *******************************************************************************/
 375:Generated_Source\PSoC6/UART.h **** __STATIC_INLINE uint32_t UART_GetNumInRxFifo(void)
 376:Generated_Source\PSoC6/UART.h **** {
 377:Generated_Source\PSoC6/UART.h ****     return Cy_SCB_UART_GetNumInRxFifo(UART_HW);
 378:Generated_Source\PSoC6/UART.h **** }
 379:Generated_Source\PSoC6/UART.h **** 
 380:Generated_Source\PSoC6/UART.h **** 
 381:Generated_Source\PSoC6/UART.h **** /*******************************************************************************
 382:Generated_Source\PSoC6/UART.h **** * Function Name: UART_ClearRxFifo
 383:Generated_Source\PSoC6/UART.h **** ****************************************************************************//**
 384:Generated_Source\PSoC6/UART.h **** *
 385:Generated_Source\PSoC6/UART.h **** * Invokes the Cy_SCB_UART_ClearRxFifo() PDL driver function.
 386:Generated_Source\PSoC6/UART.h **** *
 387:Generated_Source\PSoC6/UART.h **** *******************************************************************************/
 388:Generated_Source\PSoC6/UART.h **** __STATIC_INLINE void UART_ClearRxFifo(void)
 389:Generated_Source\PSoC6/UART.h **** {
 390:Generated_Source\PSoC6/UART.h ****     Cy_SCB_UART_ClearRxFifo(UART_HW);
 391:Generated_Source\PSoC6/UART.h **** }
 392:Generated_Source\PSoC6/UART.h **** #endif /* (UART_ENABLE_RX) */
 393:Generated_Source\PSoC6/UART.h **** 
 394:Generated_Source\PSoC6/UART.h **** 
 395:Generated_Source\PSoC6/UART.h **** #if (UART_ENABLE_TX)
 396:Generated_Source\PSoC6/UART.h **** /*******************************************************************************
 397:Generated_Source\PSoC6/UART.h **** * Function Name: UART_Put
 398:Generated_Source\PSoC6/UART.h **** ****************************************************************************//**
 399:Generated_Source\PSoC6/UART.h **** *
 400:Generated_Source\PSoC6/UART.h **** * Invokes the Cy_SCB_UART_Put() PDL driver function.
 401:Generated_Source\PSoC6/UART.h **** *
 402:Generated_Source\PSoC6/UART.h **** *******************************************************************************/
 403:Generated_Source\PSoC6/UART.h **** __STATIC_INLINE uint32_t UART_Put(uint32_t data)
 404:Generated_Source\PSoC6/UART.h **** {
 405:Generated_Source\PSoC6/UART.h ****     return Cy_SCB_UART_Put(UART_HW,data);
 406:Generated_Source\PSoC6/UART.h **** }
 407:Generated_Source\PSoC6/UART.h **** 
 408:Generated_Source\PSoC6/UART.h **** 
 409:Generated_Source\PSoC6/UART.h **** /*******************************************************************************
 410:Generated_Source\PSoC6/UART.h **** * Function Name: UART_PutArray
 411:Generated_Source\PSoC6/UART.h **** ****************************************************************************//**
 412:Generated_Source\PSoC6/UART.h **** *
 413:Generated_Source\PSoC6/UART.h **** * Invokes the Cy_SCB_UART_PutArray() PDL driver function.
 414:Generated_Source\PSoC6/UART.h **** *
 415:Generated_Source\PSoC6/UART.h **** *******************************************************************************/
 416:Generated_Source\PSoC6/UART.h **** __STATIC_INLINE uint32_t UART_PutArray(void *buffer, uint32_t size)
 417:Generated_Source\PSoC6/UART.h **** {
 418:Generated_Source\PSoC6/UART.h ****     return Cy_SCB_UART_PutArray(UART_HW, buffer, size);
 419:Generated_Source\PSoC6/UART.h **** }
 420:Generated_Source\PSoC6/UART.h **** 
 421:Generated_Source\PSoC6/UART.h **** 
 422:Generated_Source\PSoC6/UART.h **** /*******************************************************************************
 423:Generated_Source\PSoC6/UART.h **** * Function Name: UART_PutArrayBlocking
 424:Generated_Source\PSoC6/UART.h **** ****************************************************************************//**
 425:Generated_Source\PSoC6/UART.h **** *
 426:Generated_Source\PSoC6/UART.h **** * Invokes the Cy_SCB_UART_PutArrayBlocking() PDL driver function.
 427:Generated_Source\PSoC6/UART.h **** *
 428:Generated_Source\PSoC6/UART.h **** *******************************************************************************/
 429:Generated_Source\PSoC6/UART.h **** __STATIC_INLINE void UART_PutArrayBlocking(void *buffer, uint32_t size)
 430:Generated_Source\PSoC6/UART.h **** {
ARM GAS  C:\Users\YOUSEF~1\AppData\Local\Temp\ccQanZ98.s 			page 9


 431:Generated_Source\PSoC6/UART.h ****     Cy_SCB_UART_PutArrayBlocking(UART_HW, buffer, size);
 432:Generated_Source\PSoC6/UART.h **** }
 433:Generated_Source\PSoC6/UART.h **** 
 434:Generated_Source\PSoC6/UART.h **** 
 435:Generated_Source\PSoC6/UART.h **** /*******************************************************************************
 436:Generated_Source\PSoC6/UART.h **** * Function Name: UART_PutString
 437:Generated_Source\PSoC6/UART.h **** ****************************************************************************//**
 438:Generated_Source\PSoC6/UART.h **** *
 439:Generated_Source\PSoC6/UART.h **** * Invokes the Cy_SCB_UART_PutString() PDL driver function.
 440:Generated_Source\PSoC6/UART.h **** *
 441:Generated_Source\PSoC6/UART.h **** *******************************************************************************/
 442:Generated_Source\PSoC6/UART.h **** __STATIC_INLINE void UART_PutString(char_t const string[])
 443:Generated_Source\PSoC6/UART.h **** {
 444:Generated_Source\PSoC6/UART.h ****     Cy_SCB_UART_PutString(UART_HW, string);
 445:Generated_Source\PSoC6/UART.h **** }
 446:Generated_Source\PSoC6/UART.h **** 
 447:Generated_Source\PSoC6/UART.h **** 
 448:Generated_Source\PSoC6/UART.h **** /*******************************************************************************
 449:Generated_Source\PSoC6/UART.h **** * Function Name: UART_SendBreakBlocking
 450:Generated_Source\PSoC6/UART.h **** ****************************************************************************//**
 451:Generated_Source\PSoC6/UART.h **** *
 452:Generated_Source\PSoC6/UART.h **** * Invokes the Cy_SCB_UART_SendBreakBlocking() PDL driver function.
 453:Generated_Source\PSoC6/UART.h **** *
 454:Generated_Source\PSoC6/UART.h **** *******************************************************************************/
 455:Generated_Source\PSoC6/UART.h **** __STATIC_INLINE void UART_SendBreakBlocking(uint32_t breakWidth)
 456:Generated_Source\PSoC6/UART.h **** {
 457:Generated_Source\PSoC6/UART.h ****     Cy_SCB_UART_SendBreakBlocking(UART_HW, breakWidth);
 458:Generated_Source\PSoC6/UART.h **** }
 459:Generated_Source\PSoC6/UART.h **** 
 460:Generated_Source\PSoC6/UART.h **** 
 461:Generated_Source\PSoC6/UART.h **** /*******************************************************************************
 462:Generated_Source\PSoC6/UART.h **** * Function Name: UART_GetTxFifoStatus
 463:Generated_Source\PSoC6/UART.h **** ****************************************************************************//**
 464:Generated_Source\PSoC6/UART.h **** *
 465:Generated_Source\PSoC6/UART.h **** * Invokes the Cy_SCB_UART_GetTxFifoStatus() PDL driver function.
 466:Generated_Source\PSoC6/UART.h **** *
 467:Generated_Source\PSoC6/UART.h **** *******************************************************************************/
 468:Generated_Source\PSoC6/UART.h **** __STATIC_INLINE uint32_t UART_GetTxFifoStatus(void)
 469:Generated_Source\PSoC6/UART.h **** {
 470:Generated_Source\PSoC6/UART.h ****     return Cy_SCB_UART_GetTxFifoStatus(UART_HW);
 471:Generated_Source\PSoC6/UART.h **** }
 472:Generated_Source\PSoC6/UART.h **** 
 473:Generated_Source\PSoC6/UART.h **** 
 474:Generated_Source\PSoC6/UART.h **** /*******************************************************************************
 475:Generated_Source\PSoC6/UART.h **** * Function Name: UART_ClearTxFifoStatus
 476:Generated_Source\PSoC6/UART.h **** ****************************************************************************//**
 477:Generated_Source\PSoC6/UART.h **** *
 478:Generated_Source\PSoC6/UART.h **** * Invokes the Cy_SCB_UART_ClearTxFifoStatus() PDL driver function.
 479:Generated_Source\PSoC6/UART.h **** *
 480:Generated_Source\PSoC6/UART.h **** *******************************************************************************/
 481:Generated_Source\PSoC6/UART.h **** __STATIC_INLINE void UART_ClearTxFifoStatus(uint32_t clearMask)
 482:Generated_Source\PSoC6/UART.h **** {
 483:Generated_Source\PSoC6/UART.h ****     Cy_SCB_UART_ClearTxFifoStatus(UART_HW, clearMask);
 484:Generated_Source\PSoC6/UART.h **** }
 485:Generated_Source\PSoC6/UART.h **** 
 486:Generated_Source\PSoC6/UART.h **** 
 487:Generated_Source\PSoC6/UART.h **** /*******************************************************************************
ARM GAS  C:\Users\YOUSEF~1\AppData\Local\Temp\ccQanZ98.s 			page 10


 488:Generated_Source\PSoC6/UART.h **** * Function Name: UART_GetNumInTxFifo
 489:Generated_Source\PSoC6/UART.h **** ****************************************************************************//**
 490:Generated_Source\PSoC6/UART.h **** *
 491:Generated_Source\PSoC6/UART.h **** * Invokes the Cy_SCB_UART_GetNumInTxFifo() PDL driver function.
 492:Generated_Source\PSoC6/UART.h **** *
 493:Generated_Source\PSoC6/UART.h **** *******************************************************************************/
 494:Generated_Source\PSoC6/UART.h **** __STATIC_INLINE uint32_t UART_GetNumInTxFifo(void)
 495:Generated_Source\PSoC6/UART.h **** {
 496:Generated_Source\PSoC6/UART.h ****     return Cy_SCB_UART_GetNumInTxFifo(UART_HW);
 497:Generated_Source\PSoC6/UART.h **** }
 498:Generated_Source\PSoC6/UART.h **** 
 499:Generated_Source\PSoC6/UART.h **** 
 500:Generated_Source\PSoC6/UART.h **** /*******************************************************************************
 501:Generated_Source\PSoC6/UART.h **** * Function Name: UART_IsTxComplete
 502:Generated_Source\PSoC6/UART.h **** ****************************************************************************//**
 503:Generated_Source\PSoC6/UART.h **** *
 504:Generated_Source\PSoC6/UART.h **** * Invokes the Cy_SCB_UART_IsTxComplete() PDL driver function.
 505:Generated_Source\PSoC6/UART.h **** *
 506:Generated_Source\PSoC6/UART.h **** *******************************************************************************/
 507:Generated_Source\PSoC6/UART.h **** __STATIC_INLINE bool UART_IsTxComplete(void)
 508:Generated_Source\PSoC6/UART.h **** {
 509:Generated_Source\PSoC6/UART.h ****     return Cy_SCB_UART_IsTxComplete(UART_HW);
 510:Generated_Source\PSoC6/UART.h **** }
 511:Generated_Source\PSoC6/UART.h **** 
 512:Generated_Source\PSoC6/UART.h **** 
 513:Generated_Source\PSoC6/UART.h **** /*******************************************************************************
 514:Generated_Source\PSoC6/UART.h **** * Function Name: UART_ClearTxFifo
 515:Generated_Source\PSoC6/UART.h **** ****************************************************************************//**
 516:Generated_Source\PSoC6/UART.h **** *
 517:Generated_Source\PSoC6/UART.h **** * Invokes the Cy_SCB_UART_ClearTxFifo() PDL driver function.
 518:Generated_Source\PSoC6/UART.h **** *
 519:Generated_Source\PSoC6/UART.h **** *******************************************************************************/
 520:Generated_Source\PSoC6/UART.h **** __STATIC_INLINE void UART_ClearTxFifo(void)
 521:Generated_Source\PSoC6/UART.h **** {
 522:Generated_Source\PSoC6/UART.h ****     Cy_SCB_UART_ClearTxFifo(UART_HW);
 523:Generated_Source\PSoC6/UART.h **** }
 524:Generated_Source\PSoC6/UART.h **** #endif /* (UART_ENABLE_TX) */
 525:Generated_Source\PSoC6/UART.h **** 
 526:Generated_Source\PSoC6/UART.h **** 
 527:Generated_Source\PSoC6/UART.h **** #if (UART_ENABLE_RX)
 528:Generated_Source\PSoC6/UART.h **** /*******************************************************************************
 529:Generated_Source\PSoC6/UART.h **** * Function Name: UART_StartRingBuffer
 530:Generated_Source\PSoC6/UART.h **** ****************************************************************************//**
 531:Generated_Source\PSoC6/UART.h **** *
 532:Generated_Source\PSoC6/UART.h **** * Invokes the Cy_SCB_UART_StartRingBuffer() PDL driver function.
 533:Generated_Source\PSoC6/UART.h **** *
 534:Generated_Source\PSoC6/UART.h **** *******************************************************************************/
 535:Generated_Source\PSoC6/UART.h **** __STATIC_INLINE void UART_StartRingBuffer(void *buffer, uint32_t size)
 536:Generated_Source\PSoC6/UART.h **** {
 537:Generated_Source\PSoC6/UART.h ****     Cy_SCB_UART_StartRingBuffer(UART_HW, buffer, size, &UART_context);
 538:Generated_Source\PSoC6/UART.h **** }
 539:Generated_Source\PSoC6/UART.h **** 
 540:Generated_Source\PSoC6/UART.h **** 
 541:Generated_Source\PSoC6/UART.h **** /*******************************************************************************
 542:Generated_Source\PSoC6/UART.h **** * Function Name: UART_StopRingBuffer
 543:Generated_Source\PSoC6/UART.h **** ****************************************************************************//**
 544:Generated_Source\PSoC6/UART.h **** *
ARM GAS  C:\Users\YOUSEF~1\AppData\Local\Temp\ccQanZ98.s 			page 11


 545:Generated_Source\PSoC6/UART.h **** * Invokes the Cy_SCB_UART_StopRingBuffer() PDL driver function.
 546:Generated_Source\PSoC6/UART.h **** *
 547:Generated_Source\PSoC6/UART.h **** *******************************************************************************/
 548:Generated_Source\PSoC6/UART.h **** __STATIC_INLINE void UART_StopRingBuffer(void)
 549:Generated_Source\PSoC6/UART.h **** {
 550:Generated_Source\PSoC6/UART.h ****     Cy_SCB_UART_StopRingBuffer(UART_HW, &UART_context);
 551:Generated_Source\PSoC6/UART.h **** }
 552:Generated_Source\PSoC6/UART.h **** 
 553:Generated_Source\PSoC6/UART.h **** 
 554:Generated_Source\PSoC6/UART.h **** /*******************************************************************************
 555:Generated_Source\PSoC6/UART.h **** * Function Name: UART_ClearRingBuffer
 556:Generated_Source\PSoC6/UART.h **** ****************************************************************************//**
 557:Generated_Source\PSoC6/UART.h **** *
 558:Generated_Source\PSoC6/UART.h **** * Invokes the Cy_SCB_UART_ClearRingBuffer() PDL driver function.
 559:Generated_Source\PSoC6/UART.h **** *
 560:Generated_Source\PSoC6/UART.h **** *******************************************************************************/
 561:Generated_Source\PSoC6/UART.h **** __STATIC_INLINE void UART_ClearRingBuffer(void)
 562:Generated_Source\PSoC6/UART.h **** {
 563:Generated_Source\PSoC6/UART.h ****     Cy_SCB_UART_ClearRingBuffer(UART_HW, &UART_context);
 564:Generated_Source\PSoC6/UART.h **** }
 565:Generated_Source\PSoC6/UART.h **** 
 566:Generated_Source\PSoC6/UART.h **** 
 567:Generated_Source\PSoC6/UART.h **** /*******************************************************************************
 568:Generated_Source\PSoC6/UART.h **** * Function Name: UART_GetNumInRingBuffer
 569:Generated_Source\PSoC6/UART.h **** ****************************************************************************//**
 570:Generated_Source\PSoC6/UART.h **** *
 571:Generated_Source\PSoC6/UART.h **** * Invokes the Cy_SCB_UART_GetNumInRingBuffer() PDL driver function.
 572:Generated_Source\PSoC6/UART.h **** *
 573:Generated_Source\PSoC6/UART.h **** *******************************************************************************/
 574:Generated_Source\PSoC6/UART.h **** __STATIC_INLINE uint32_t UART_GetNumInRingBuffer(void)
 575:Generated_Source\PSoC6/UART.h **** {
 576:Generated_Source\PSoC6/UART.h ****     return Cy_SCB_UART_GetNumInRingBuffer(UART_HW, &UART_context);
 577:Generated_Source\PSoC6/UART.h **** }
 578:Generated_Source\PSoC6/UART.h **** 
 579:Generated_Source\PSoC6/UART.h **** 
 580:Generated_Source\PSoC6/UART.h **** /*******************************************************************************
 581:Generated_Source\PSoC6/UART.h **** * Function Name: UART_Receive
 582:Generated_Source\PSoC6/UART.h **** ****************************************************************************//**
 583:Generated_Source\PSoC6/UART.h **** *
 584:Generated_Source\PSoC6/UART.h **** * Invokes the Cy_SCB_UART_Receive() PDL driver function.
 585:Generated_Source\PSoC6/UART.h **** *
 586:Generated_Source\PSoC6/UART.h **** *******************************************************************************/
 587:Generated_Source\PSoC6/UART.h **** __STATIC_INLINE cy_en_scb_uart_status_t UART_Receive(void *buffer, uint32_t size)
 588:Generated_Source\PSoC6/UART.h **** {
 589:Generated_Source\PSoC6/UART.h ****     return Cy_SCB_UART_Receive(UART_HW, buffer, size, &UART_context);
 590:Generated_Source\PSoC6/UART.h **** }
 591:Generated_Source\PSoC6/UART.h **** 
 592:Generated_Source\PSoC6/UART.h **** 
 593:Generated_Source\PSoC6/UART.h **** /*******************************************************************************
 594:Generated_Source\PSoC6/UART.h **** * Function Name: UART_GetReceiveStatus
 595:Generated_Source\PSoC6/UART.h **** ****************************************************************************//**
 596:Generated_Source\PSoC6/UART.h **** *
 597:Generated_Source\PSoC6/UART.h **** * Invokes the Cy_SCB_UART_GetReceiveStatus() PDL driver function.
 598:Generated_Source\PSoC6/UART.h **** *
 599:Generated_Source\PSoC6/UART.h **** *******************************************************************************/
 600:Generated_Source\PSoC6/UART.h **** __STATIC_INLINE uint32_t UART_GetReceiveStatus(void)
 601:Generated_Source\PSoC6/UART.h **** {
ARM GAS  C:\Users\YOUSEF~1\AppData\Local\Temp\ccQanZ98.s 			page 12


 602:Generated_Source\PSoC6/UART.h ****     return Cy_SCB_UART_GetReceiveStatus(UART_HW, &UART_context);
 603:Generated_Source\PSoC6/UART.h **** }
 604:Generated_Source\PSoC6/UART.h **** 
 605:Generated_Source\PSoC6/UART.h **** 
 606:Generated_Source\PSoC6/UART.h **** /*******************************************************************************
 607:Generated_Source\PSoC6/UART.h **** * Function Name: UART_AbortReceive
 608:Generated_Source\PSoC6/UART.h **** ****************************************************************************//**
 609:Generated_Source\PSoC6/UART.h **** *
 610:Generated_Source\PSoC6/UART.h **** * Invokes the Cy_SCB_UART_AbortReceive() PDL driver function.
 611:Generated_Source\PSoC6/UART.h **** *
 612:Generated_Source\PSoC6/UART.h **** *******************************************************************************/
 613:Generated_Source\PSoC6/UART.h **** __STATIC_INLINE void UART_AbortReceive(void)
 614:Generated_Source\PSoC6/UART.h **** {
 615:Generated_Source\PSoC6/UART.h ****     Cy_SCB_UART_AbortReceive(UART_HW, &UART_context);
 616:Generated_Source\PSoC6/UART.h **** }
 617:Generated_Source\PSoC6/UART.h **** 
 618:Generated_Source\PSoC6/UART.h **** 
 619:Generated_Source\PSoC6/UART.h **** /*******************************************************************************
 620:Generated_Source\PSoC6/UART.h **** * Function Name: UART_GetNumReceived
 621:Generated_Source\PSoC6/UART.h **** ****************************************************************************//**
 622:Generated_Source\PSoC6/UART.h **** *
 623:Generated_Source\PSoC6/UART.h **** * Invokes the Cy_SCB_UART_GetNumReceived() PDL driver function.
 624:Generated_Source\PSoC6/UART.h **** *
 625:Generated_Source\PSoC6/UART.h **** *******************************************************************************/
 626:Generated_Source\PSoC6/UART.h **** __STATIC_INLINE uint32_t UART_GetNumReceived(void)
 627:Generated_Source\PSoC6/UART.h **** {
 628:Generated_Source\PSoC6/UART.h ****     return Cy_SCB_UART_GetNumReceived(UART_HW, &UART_context);
 629:Generated_Source\PSoC6/UART.h **** }
 630:Generated_Source\PSoC6/UART.h **** #endif /* (UART_ENABLE_RX) */
 631:Generated_Source\PSoC6/UART.h **** 
 632:Generated_Source\PSoC6/UART.h **** 
 633:Generated_Source\PSoC6/UART.h **** #if (UART_ENABLE_TX)
 634:Generated_Source\PSoC6/UART.h **** /*******************************************************************************
 635:Generated_Source\PSoC6/UART.h **** * Function Name: UART_Transmit
 636:Generated_Source\PSoC6/UART.h **** ****************************************************************************//**
 637:Generated_Source\PSoC6/UART.h **** *
 638:Generated_Source\PSoC6/UART.h **** * Invokes the Cy_SCB_UART_Transmit() PDL driver function.
 639:Generated_Source\PSoC6/UART.h **** *
 640:Generated_Source\PSoC6/UART.h **** *******************************************************************************/
 641:Generated_Source\PSoC6/UART.h **** __STATIC_INLINE cy_en_scb_uart_status_t UART_Transmit(void *buffer, uint32_t size)
 642:Generated_Source\PSoC6/UART.h **** {
 643:Generated_Source\PSoC6/UART.h ****     return Cy_SCB_UART_Transmit(UART_HW, buffer, size, &UART_context);
 644:Generated_Source\PSoC6/UART.h **** }
 645:Generated_Source\PSoC6/UART.h **** 
 646:Generated_Source\PSoC6/UART.h **** 
 647:Generated_Source\PSoC6/UART.h **** /*******************************************************************************
 648:Generated_Source\PSoC6/UART.h **** * Function Name: UART_GetTransmitStatus
 649:Generated_Source\PSoC6/UART.h **** ****************************************************************************//**
 650:Generated_Source\PSoC6/UART.h **** *
 651:Generated_Source\PSoC6/UART.h **** * Invokes the Cy_SCB_UART_GetTransmitStatus() PDL driver function.
 652:Generated_Source\PSoC6/UART.h **** *
 653:Generated_Source\PSoC6/UART.h **** *******************************************************************************/
 654:Generated_Source\PSoC6/UART.h **** __STATIC_INLINE uint32_t UART_GetTransmitStatus(void)
 655:Generated_Source\PSoC6/UART.h **** {
 656:Generated_Source\PSoC6/UART.h ****     return Cy_SCB_UART_GetTransmitStatus(UART_HW, &UART_context);
 657:Generated_Source\PSoC6/UART.h **** }
 658:Generated_Source\PSoC6/UART.h **** 
ARM GAS  C:\Users\YOUSEF~1\AppData\Local\Temp\ccQanZ98.s 			page 13


 659:Generated_Source\PSoC6/UART.h **** 
 660:Generated_Source\PSoC6/UART.h **** /*******************************************************************************
 661:Generated_Source\PSoC6/UART.h **** * Function Name: UART_AbortTransmit
 662:Generated_Source\PSoC6/UART.h **** ****************************************************************************//**
 663:Generated_Source\PSoC6/UART.h **** *
 664:Generated_Source\PSoC6/UART.h **** * Invokes the Cy_SCB_UART_AbortTransmit() PDL driver function.
 665:Generated_Source\PSoC6/UART.h **** *
 666:Generated_Source\PSoC6/UART.h **** *******************************************************************************/
 667:Generated_Source\PSoC6/UART.h **** __STATIC_INLINE void UART_AbortTransmit(void)
 668:Generated_Source\PSoC6/UART.h **** {
 669:Generated_Source\PSoC6/UART.h ****     Cy_SCB_UART_AbortTransmit(UART_HW, &UART_context);
 670:Generated_Source\PSoC6/UART.h **** }
 671:Generated_Source\PSoC6/UART.h **** 
 672:Generated_Source\PSoC6/UART.h **** 
 673:Generated_Source\PSoC6/UART.h **** /*******************************************************************************
 674:Generated_Source\PSoC6/UART.h **** * Function Name: UART_GetNumLeftToTransmit
 675:Generated_Source\PSoC6/UART.h **** ****************************************************************************//**
 676:Generated_Source\PSoC6/UART.h **** *
 677:Generated_Source\PSoC6/UART.h **** * Invokes the Cy_SCB_UART_GetNumLeftToTransmit() PDL driver function.
 678:Generated_Source\PSoC6/UART.h **** *
 679:Generated_Source\PSoC6/UART.h **** *******************************************************************************/
 680:Generated_Source\PSoC6/UART.h **** __STATIC_INLINE uint32_t UART_GetNumLeftToTransmit(void)
 681:Generated_Source\PSoC6/UART.h **** {
 682:Generated_Source\PSoC6/UART.h ****     return Cy_SCB_UART_GetNumLeftToTransmit(UART_HW, &UART_context);
 683:Generated_Source\PSoC6/UART.h **** }
 684:Generated_Source\PSoC6/UART.h **** #endif /* (UART_ENABLE_TX) */
 685:Generated_Source\PSoC6/UART.h **** 
 686:Generated_Source\PSoC6/UART.h **** 
 687:Generated_Source\PSoC6/UART.h **** /*******************************************************************************
 688:Generated_Source\PSoC6/UART.h **** * Function Name: UART_Interrupt
 689:Generated_Source\PSoC6/UART.h **** ****************************************************************************//**
 690:Generated_Source\PSoC6/UART.h **** *
 691:Generated_Source\PSoC6/UART.h **** * Invokes the Cy_SCB_UART_Interrupt() PDL driver function.
 692:Generated_Source\PSoC6/UART.h **** *
 693:Generated_Source\PSoC6/UART.h **** *******************************************************************************/
 694:Generated_Source\PSoC6/UART.h **** __STATIC_INLINE void UART_Interrupt(void)
 695:Generated_Source\PSoC6/UART.h **** {
  27              		.loc 1 695 0
  28              		.cfi_startproc
  29              		@ args = 0, pretend = 0, frame = 0
  30              		@ frame_needed = 0, uses_anonymous_args = 0
  31 0000 10B5     		push	{r4, lr}
  32              		.cfi_def_cfa_offset 8
  33              		.cfi_offset 4, -8
  34              		.cfi_offset 14, -4
 696:Generated_Source\PSoC6/UART.h ****     Cy_SCB_UART_Interrupt(UART_HW, &UART_context);
  35              		.loc 1 696 0
  36 0002 0249     		ldr	r1, .L2
  37 0004 0248     		ldr	r0, .L2+4
  38 0006 FFF7FEFF 		bl	Cy_SCB_UART_Interrupt
  39              	.LVL0:
 697:Generated_Source\PSoC6/UART.h **** }
  40              		.loc 1 697 0
  41              		@ sp needed
  42 000a 10BD     		pop	{r4, pc}
  43              	.L3:
  44              		.align	2
ARM GAS  C:\Users\YOUSEF~1\AppData\Local\Temp\ccQanZ98.s 			page 14


  45              	.L2:
  46 000c 00000000 		.word	UART_context
  47 0010 00006640 		.word	1080426496
  48              		.cfi_endproc
  49              	.LFE191:
  50              		.size	UART_Interrupt, .-UART_Interrupt
  51              		.section	.text.UART_Start,"ax",%progbits
  52              		.align	2
  53              		.global	UART_Start
  54              		.code	16
  55              		.thumb_func
  56              		.type	UART_Start, %function
  57              	UART_Start:
  58              	.LFB194:
  59              		.file 2 "Generated_Source\\PSoC6\\UART.c"
   1:Generated_Source\PSoC6/UART.c **** /***************************************************************************//**
   2:Generated_Source\PSoC6/UART.c **** * \file UART.c
   3:Generated_Source\PSoC6/UART.c **** * \version 2.0
   4:Generated_Source\PSoC6/UART.c **** *
   5:Generated_Source\PSoC6/UART.c **** *  This file provides the source code to the API for the UART Component.
   6:Generated_Source\PSoC6/UART.c **** *
   7:Generated_Source\PSoC6/UART.c **** ********************************************************************************
   8:Generated_Source\PSoC6/UART.c **** * \copyright
   9:Generated_Source\PSoC6/UART.c **** * Copyright 2016-2017, Cypress Semiconductor Corporation. All rights reserved.
  10:Generated_Source\PSoC6/UART.c **** * You may use this file only in accordance with the license, terms, conditions,
  11:Generated_Source\PSoC6/UART.c **** * disclaimers, and limitations in the end user license agreement accompanying
  12:Generated_Source\PSoC6/UART.c **** * the software package with which this file was provided.
  13:Generated_Source\PSoC6/UART.c **** *******************************************************************************/
  14:Generated_Source\PSoC6/UART.c **** 
  15:Generated_Source\PSoC6/UART.c **** #include "UART.h"
  16:Generated_Source\PSoC6/UART.c **** #include "sysint/cy_sysint.h"
  17:Generated_Source\PSoC6/UART.c **** #include "cyfitter_sysint.h"
  18:Generated_Source\PSoC6/UART.c **** #include "cyfitter_sysint_cfg.h"
  19:Generated_Source\PSoC6/UART.c **** 
  20:Generated_Source\PSoC6/UART.c **** #if defined(__cplusplus)
  21:Generated_Source\PSoC6/UART.c **** extern "C" {
  22:Generated_Source\PSoC6/UART.c **** #endif
  23:Generated_Source\PSoC6/UART.c **** 
  24:Generated_Source\PSoC6/UART.c **** /***************************************
  25:Generated_Source\PSoC6/UART.c **** *     Global variables
  26:Generated_Source\PSoC6/UART.c **** ***************************************/
  27:Generated_Source\PSoC6/UART.c **** 
  28:Generated_Source\PSoC6/UART.c **** /** UART_initVar indicates whether the UART
  29:Generated_Source\PSoC6/UART.c **** *  component has been initialized. The variable is initialized to 0
  30:Generated_Source\PSoC6/UART.c **** *  and set to 1 the first time UART_Start() is called.
  31:Generated_Source\PSoC6/UART.c **** *  This allows  the component to restart without reinitialization
  32:Generated_Source\PSoC6/UART.c **** *  after the first call to the UART_Start() routine.
  33:Generated_Source\PSoC6/UART.c **** *
  34:Generated_Source\PSoC6/UART.c **** *  If re-initialization of the component is required, then the
  35:Generated_Source\PSoC6/UART.c **** *  UART_Init() function can be called before the
  36:Generated_Source\PSoC6/UART.c **** *  UART_Start() or UART_Enable() function.
  37:Generated_Source\PSoC6/UART.c **** */
  38:Generated_Source\PSoC6/UART.c **** uint8_t UART_initVar = 0U;
  39:Generated_Source\PSoC6/UART.c **** 
  40:Generated_Source\PSoC6/UART.c **** 
  41:Generated_Source\PSoC6/UART.c **** /** The instance-specific configuration structure.
  42:Generated_Source\PSoC6/UART.c **** * The pointer to this structure should be passed to Cy_SCB_UART_Init function
ARM GAS  C:\Users\YOUSEF~1\AppData\Local\Temp\ccQanZ98.s 			page 15


  43:Generated_Source\PSoC6/UART.c **** * to initialize component with GUI selected settings.
  44:Generated_Source\PSoC6/UART.c **** */
  45:Generated_Source\PSoC6/UART.c **** cy_stc_scb_uart_config_t const UART_config =
  46:Generated_Source\PSoC6/UART.c **** {
  47:Generated_Source\PSoC6/UART.c ****     .uartMode                   = CY_SCB_UART_STANDARD,
  48:Generated_Source\PSoC6/UART.c ****     .enableMutliProcessorMode   = false,
  49:Generated_Source\PSoC6/UART.c ****     .smartCardRetryOnNack       = false,
  50:Generated_Source\PSoC6/UART.c ****     .irdaInvertRx               = false,
  51:Generated_Source\PSoC6/UART.c ****     .irdaEnableLowPowerReceiver = false,
  52:Generated_Source\PSoC6/UART.c **** 
  53:Generated_Source\PSoC6/UART.c ****     .oversample                 = 12UL,
  54:Generated_Source\PSoC6/UART.c ****     
  55:Generated_Source\PSoC6/UART.c ****     .enableMsbFirst             = false,
  56:Generated_Source\PSoC6/UART.c ****     .dataWidth                  = 8UL,
  57:Generated_Source\PSoC6/UART.c ****     .parity                     = CY_SCB_UART_PARITY_NONE,
  58:Generated_Source\PSoC6/UART.c ****     .stopBits                   = CY_SCB_UART_STOP_BITS_1,
  59:Generated_Source\PSoC6/UART.c ****     .enableInputFilter          = false,
  60:Generated_Source\PSoC6/UART.c ****     .breakWidth                 = 11UL,
  61:Generated_Source\PSoC6/UART.c ****     .dropOnFrameError           = false,
  62:Generated_Source\PSoC6/UART.c ****     .dropOnParityError          = false,
  63:Generated_Source\PSoC6/UART.c **** 
  64:Generated_Source\PSoC6/UART.c ****     .receiverAddress            = 0x0UL,
  65:Generated_Source\PSoC6/UART.c ****     .receiverAddressMask        = 0x0UL,
  66:Generated_Source\PSoC6/UART.c ****     .acceptAddrInFifo           = false,
  67:Generated_Source\PSoC6/UART.c **** 
  68:Generated_Source\PSoC6/UART.c ****     .enableCts                  = false,
  69:Generated_Source\PSoC6/UART.c ****     .ctsPolarity                = CY_SCB_UART_ACTIVE_LOW,
  70:Generated_Source\PSoC6/UART.c ****     .rtsRxFifoLevel             = 0UL,
  71:Generated_Source\PSoC6/UART.c ****     .rtsPolarity                = CY_SCB_UART_ACTIVE_LOW,
  72:Generated_Source\PSoC6/UART.c **** 
  73:Generated_Source\PSoC6/UART.c ****     .rxFifoTriggerLevel         = 0UL,
  74:Generated_Source\PSoC6/UART.c ****     .rxFifoIntEnableMask        = 0x0UL,
  75:Generated_Source\PSoC6/UART.c **** 
  76:Generated_Source\PSoC6/UART.c ****     .txFifoTriggerLevel         = 0UL,
  77:Generated_Source\PSoC6/UART.c ****     .txFifoIntEnableMask        = 0x0UL
  78:Generated_Source\PSoC6/UART.c **** };
  79:Generated_Source\PSoC6/UART.c **** 
  80:Generated_Source\PSoC6/UART.c **** /** The instance-specific context structure.
  81:Generated_Source\PSoC6/UART.c **** * It is used while the driver operation for internal configuration and
  82:Generated_Source\PSoC6/UART.c **** * data keeping for the UART. The user should not modify anything in this 
  83:Generated_Source\PSoC6/UART.c **** * structure.
  84:Generated_Source\PSoC6/UART.c **** */
  85:Generated_Source\PSoC6/UART.c **** cy_stc_scb_uart_context_t UART_context;
  86:Generated_Source\PSoC6/UART.c **** 
  87:Generated_Source\PSoC6/UART.c **** 
  88:Generated_Source\PSoC6/UART.c **** /*******************************************************************************
  89:Generated_Source\PSoC6/UART.c **** * Function Name: UART_Start
  90:Generated_Source\PSoC6/UART.c **** ****************************************************************************//**
  91:Generated_Source\PSoC6/UART.c **** *
  92:Generated_Source\PSoC6/UART.c **** * Invokes UART_Init() and UART_Enable().
  93:Generated_Source\PSoC6/UART.c **** * Also configures interrupt if it is internal.
  94:Generated_Source\PSoC6/UART.c **** * After this function call the component is enabled and ready for operation.
  95:Generated_Source\PSoC6/UART.c **** * This is the preferred method to begin component operation.
  96:Generated_Source\PSoC6/UART.c **** *
  97:Generated_Source\PSoC6/UART.c **** * \globalvars
  98:Generated_Source\PSoC6/UART.c **** * \ref UART_initVar - used to check initial configuration,
  99:Generated_Source\PSoC6/UART.c **** * modified  on first function call.
ARM GAS  C:\Users\YOUSEF~1\AppData\Local\Temp\ccQanZ98.s 			page 16


 100:Generated_Source\PSoC6/UART.c **** *
 101:Generated_Source\PSoC6/UART.c **** *******************************************************************************/
 102:Generated_Source\PSoC6/UART.c **** void UART_Start(void)
 103:Generated_Source\PSoC6/UART.c **** {
  60              		.loc 2 103 0
  61              		.cfi_startproc
  62              		@ args = 0, pretend = 0, frame = 0
  63              		@ frame_needed = 0, uses_anonymous_args = 0
  64 0000 10B5     		push	{r4, lr}
  65              		.cfi_def_cfa_offset 8
  66              		.cfi_offset 4, -8
  67              		.cfi_offset 14, -4
 104:Generated_Source\PSoC6/UART.c ****     if (0U == UART_initVar)
  68              		.loc 2 104 0
  69 0002 114B     		ldr	r3, .L7
  70 0004 1B78     		ldrb	r3, [r3]
  71 0006 002B     		cmp	r3, #0
  72 0008 0BD1     		bne	.L5
 105:Generated_Source\PSoC6/UART.c ****     {
 106:Generated_Source\PSoC6/UART.c ****         /* Configure component */
 107:Generated_Source\PSoC6/UART.c ****         (void) Cy_SCB_UART_Init(UART_HW, &UART_config, &UART_context);
  73              		.loc 2 107 0
  74 000a 104A     		ldr	r2, .L7+4
  75 000c 1049     		ldr	r1, .L7+8
  76 000e 1148     		ldr	r0, .L7+12
  77 0010 FFF7FEFF 		bl	Cy_SCB_UART_Init
  78              	.LVL1:
 108:Generated_Source\PSoC6/UART.c **** 
 109:Generated_Source\PSoC6/UART.c ****         /* Hook interrupt service routine */
 110:Generated_Source\PSoC6/UART.c ****     #if defined(UART_SCB_IRQ__INTC_ASSIGNED)
 111:Generated_Source\PSoC6/UART.c ****         (void) Cy_SysInt_Init(&UART_SCB_IRQ_cfg, &UART_Interrupt);
  79              		.loc 2 111 0
  80 0014 1049     		ldr	r1, .L7+16
  81 0016 1148     		ldr	r0, .L7+20
  82 0018 FFF7FEFF 		bl	Cy_SysInt_Init
  83              	.LVL2:
 112:Generated_Source\PSoC6/UART.c ****     #endif /* (UART_SCB_IRQ__INTC_ASSIGNED) */
 113:Generated_Source\PSoC6/UART.c ****     
 114:Generated_Source\PSoC6/UART.c ****         /* Component is configured */
 115:Generated_Source\PSoC6/UART.c ****         UART_initVar = 1U;
  84              		.loc 2 115 0
  85 001c 0122     		movs	r2, #1
  86 001e 0A4B     		ldr	r3, .L7
  87 0020 1A70     		strb	r2, [r3]
  88              	.L5:
 116:Generated_Source\PSoC6/UART.c ****     }
 117:Generated_Source\PSoC6/UART.c **** 
 118:Generated_Source\PSoC6/UART.c ****     /* Enable interrupt in NVIC */
 119:Generated_Source\PSoC6/UART.c **** #if defined(UART_SCB_IRQ__INTC_ASSIGNED)
 120:Generated_Source\PSoC6/UART.c ****     NVIC_EnableIRQ((IRQn_Type) UART_SCB_IRQ_cfg.intrSrc);
  89              		.loc 2 120 0
  90 0022 0E4B     		ldr	r3, .L7+20
  91 0024 0022     		movs	r2, #0
  92 0026 9A5E     		ldrsh	r2, [r3, r2]
  93              	.LVL3:
  94              	.LBB6:
  95              	.LBB7:
ARM GAS  C:\Users\YOUSEF~1\AppData\Local\Temp\ccQanZ98.s 			page 17


  96              		.file 3 "Generated_Source\\PSoC6\\pdl\\cmsis/include/core_cm0plus.h"
   1:Generated_Source\PSoC6\pdl\cmsis/include/core_cm0plus.h **** /**************************************************************************//**
   2:Generated_Source\PSoC6\pdl\cmsis/include/core_cm0plus.h ****  * @file     core_cm0plus.h
   3:Generated_Source\PSoC6\pdl\cmsis/include/core_cm0plus.h ****  * @brief    CMSIS Cortex-M0+ Core Peripheral Access Layer Header File
   4:Generated_Source\PSoC6\pdl\cmsis/include/core_cm0plus.h ****  * @version  V5.0.4
   5:Generated_Source\PSoC6\pdl\cmsis/include/core_cm0plus.h ****  * @date     10. January 2018
   6:Generated_Source\PSoC6\pdl\cmsis/include/core_cm0plus.h ****  ******************************************************************************/
   7:Generated_Source\PSoC6\pdl\cmsis/include/core_cm0plus.h **** /*
   8:Generated_Source\PSoC6\pdl\cmsis/include/core_cm0plus.h ****  * Copyright (c) 2009-2018 Arm Limited. All rights reserved.
   9:Generated_Source\PSoC6\pdl\cmsis/include/core_cm0plus.h ****  *
  10:Generated_Source\PSoC6\pdl\cmsis/include/core_cm0plus.h ****  * SPDX-License-Identifier: Apache-2.0
  11:Generated_Source\PSoC6\pdl\cmsis/include/core_cm0plus.h ****  *
  12:Generated_Source\PSoC6\pdl\cmsis/include/core_cm0plus.h ****  * Licensed under the Apache License, Version 2.0 (the License); you may
  13:Generated_Source\PSoC6\pdl\cmsis/include/core_cm0plus.h ****  * not use this file except in compliance with the License.
  14:Generated_Source\PSoC6\pdl\cmsis/include/core_cm0plus.h ****  * You may obtain a copy of the License at
  15:Generated_Source\PSoC6\pdl\cmsis/include/core_cm0plus.h ****  *
  16:Generated_Source\PSoC6\pdl\cmsis/include/core_cm0plus.h ****  * www.apache.org/licenses/LICENSE-2.0
  17:Generated_Source\PSoC6\pdl\cmsis/include/core_cm0plus.h ****  *
  18:Generated_Source\PSoC6\pdl\cmsis/include/core_cm0plus.h ****  * Unless required by applicable law or agreed to in writing, software
  19:Generated_Source\PSoC6\pdl\cmsis/include/core_cm0plus.h ****  * distributed under the License is distributed on an AS IS BASIS, WITHOUT
  20:Generated_Source\PSoC6\pdl\cmsis/include/core_cm0plus.h ****  * WARRANTIES OR CONDITIONS OF ANY KIND, either express or implied.
  21:Generated_Source\PSoC6\pdl\cmsis/include/core_cm0plus.h ****  * See the License for the specific language governing permissions and
  22:Generated_Source\PSoC6\pdl\cmsis/include/core_cm0plus.h ****  * limitations under the License.
  23:Generated_Source\PSoC6\pdl\cmsis/include/core_cm0plus.h ****  */
  24:Generated_Source\PSoC6\pdl\cmsis/include/core_cm0plus.h **** 
  25:Generated_Source\PSoC6\pdl\cmsis/include/core_cm0plus.h **** #if   defined ( __ICCARM__ )
  26:Generated_Source\PSoC6\pdl\cmsis/include/core_cm0plus.h ****   #pragma system_include         /* treat file as system include file for MISRA check */
  27:Generated_Source\PSoC6\pdl\cmsis/include/core_cm0plus.h **** #elif defined (__clang__)
  28:Generated_Source\PSoC6\pdl\cmsis/include/core_cm0plus.h ****   #pragma clang system_header   /* treat file as system include file */
  29:Generated_Source\PSoC6\pdl\cmsis/include/core_cm0plus.h **** #endif
  30:Generated_Source\PSoC6\pdl\cmsis/include/core_cm0plus.h **** 
  31:Generated_Source\PSoC6\pdl\cmsis/include/core_cm0plus.h **** #ifndef __CORE_CM0PLUS_H_GENERIC
  32:Generated_Source\PSoC6\pdl\cmsis/include/core_cm0plus.h **** #define __CORE_CM0PLUS_H_GENERIC
  33:Generated_Source\PSoC6\pdl\cmsis/include/core_cm0plus.h **** 
  34:Generated_Source\PSoC6\pdl\cmsis/include/core_cm0plus.h **** #include <stdint.h>
  35:Generated_Source\PSoC6\pdl\cmsis/include/core_cm0plus.h **** 
  36:Generated_Source\PSoC6\pdl\cmsis/include/core_cm0plus.h **** #ifdef __cplusplus
  37:Generated_Source\PSoC6\pdl\cmsis/include/core_cm0plus.h ****  extern "C" {
  38:Generated_Source\PSoC6\pdl\cmsis/include/core_cm0plus.h **** #endif
  39:Generated_Source\PSoC6\pdl\cmsis/include/core_cm0plus.h **** 
  40:Generated_Source\PSoC6\pdl\cmsis/include/core_cm0plus.h **** /**
  41:Generated_Source\PSoC6\pdl\cmsis/include/core_cm0plus.h ****   \page CMSIS_MISRA_Exceptions  MISRA-C:2004 Compliance Exceptions
  42:Generated_Source\PSoC6\pdl\cmsis/include/core_cm0plus.h ****   CMSIS violates the following MISRA-C:2004 rules:
  43:Generated_Source\PSoC6\pdl\cmsis/include/core_cm0plus.h **** 
  44:Generated_Source\PSoC6\pdl\cmsis/include/core_cm0plus.h ****    \li Required Rule 8.5, object/function definition in header file.<br>
  45:Generated_Source\PSoC6\pdl\cmsis/include/core_cm0plus.h ****      Function definitions in header files are used to allow 'inlining'.
  46:Generated_Source\PSoC6\pdl\cmsis/include/core_cm0plus.h **** 
  47:Generated_Source\PSoC6\pdl\cmsis/include/core_cm0plus.h ****    \li Required Rule 18.4, declaration of union type or object of union type: '{...}'.<br>
  48:Generated_Source\PSoC6\pdl\cmsis/include/core_cm0plus.h ****      Unions are used for effective representation of core registers.
  49:Generated_Source\PSoC6\pdl\cmsis/include/core_cm0plus.h **** 
  50:Generated_Source\PSoC6\pdl\cmsis/include/core_cm0plus.h ****    \li Advisory Rule 19.7, Function-like macro defined.<br>
  51:Generated_Source\PSoC6\pdl\cmsis/include/core_cm0plus.h ****      Function-like macros are used to allow more efficient code.
  52:Generated_Source\PSoC6\pdl\cmsis/include/core_cm0plus.h ****  */
  53:Generated_Source\PSoC6\pdl\cmsis/include/core_cm0plus.h **** 
  54:Generated_Source\PSoC6\pdl\cmsis/include/core_cm0plus.h **** 
  55:Generated_Source\PSoC6\pdl\cmsis/include/core_cm0plus.h **** /*******************************************************************************
  56:Generated_Source\PSoC6\pdl\cmsis/include/core_cm0plus.h ****  *                 CMSIS definitions
ARM GAS  C:\Users\YOUSEF~1\AppData\Local\Temp\ccQanZ98.s 			page 18


  57:Generated_Source\PSoC6\pdl\cmsis/include/core_cm0plus.h ****  ******************************************************************************/
  58:Generated_Source\PSoC6\pdl\cmsis/include/core_cm0plus.h **** /**
  59:Generated_Source\PSoC6\pdl\cmsis/include/core_cm0plus.h ****   \ingroup Cortex-M0+
  60:Generated_Source\PSoC6\pdl\cmsis/include/core_cm0plus.h ****   @{
  61:Generated_Source\PSoC6\pdl\cmsis/include/core_cm0plus.h ****  */
  62:Generated_Source\PSoC6\pdl\cmsis/include/core_cm0plus.h **** 
  63:Generated_Source\PSoC6\pdl\cmsis/include/core_cm0plus.h **** #include "cmsis_version.h"
  64:Generated_Source\PSoC6\pdl\cmsis/include/core_cm0plus.h ****  
  65:Generated_Source\PSoC6\pdl\cmsis/include/core_cm0plus.h **** /*  CMSIS CM0+ definitions */
  66:Generated_Source\PSoC6\pdl\cmsis/include/core_cm0plus.h **** #define __CM0PLUS_CMSIS_VERSION_MAIN (__CM_CMSIS_VERSION_MAIN)                  /*!< \deprecated [3
  67:Generated_Source\PSoC6\pdl\cmsis/include/core_cm0plus.h **** #define __CM0PLUS_CMSIS_VERSION_SUB  (__CM_CMSIS_VERSION_SUB)                   /*!< \deprecated [1
  68:Generated_Source\PSoC6\pdl\cmsis/include/core_cm0plus.h **** #define __CM0PLUS_CMSIS_VERSION      ((__CM0PLUS_CMSIS_VERSION_MAIN << 16U) | \
  69:Generated_Source\PSoC6\pdl\cmsis/include/core_cm0plus.h ****                                        __CM0PLUS_CMSIS_VERSION_SUB           )  /*!< \deprecated CM
  70:Generated_Source\PSoC6\pdl\cmsis/include/core_cm0plus.h **** 
  71:Generated_Source\PSoC6\pdl\cmsis/include/core_cm0plus.h **** #define __CORTEX_M                   (0U)                                       /*!< Cortex-M Core 
  72:Generated_Source\PSoC6\pdl\cmsis/include/core_cm0plus.h **** 
  73:Generated_Source\PSoC6\pdl\cmsis/include/core_cm0plus.h **** /** __FPU_USED indicates whether an FPU is used or not.
  74:Generated_Source\PSoC6\pdl\cmsis/include/core_cm0plus.h ****     This core does not support an FPU at all
  75:Generated_Source\PSoC6\pdl\cmsis/include/core_cm0plus.h **** */
  76:Generated_Source\PSoC6\pdl\cmsis/include/core_cm0plus.h **** #define __FPU_USED       0U
  77:Generated_Source\PSoC6\pdl\cmsis/include/core_cm0plus.h **** 
  78:Generated_Source\PSoC6\pdl\cmsis/include/core_cm0plus.h **** #if defined ( __CC_ARM )
  79:Generated_Source\PSoC6\pdl\cmsis/include/core_cm0plus.h ****   #if defined __TARGET_FPU_VFP
  80:Generated_Source\PSoC6\pdl\cmsis/include/core_cm0plus.h ****     #error "Compiler generates FPU instructions for a device without an FPU (check __FPU_PRESENT)"
  81:Generated_Source\PSoC6\pdl\cmsis/include/core_cm0plus.h ****   #endif
  82:Generated_Source\PSoC6\pdl\cmsis/include/core_cm0plus.h **** 
  83:Generated_Source\PSoC6\pdl\cmsis/include/core_cm0plus.h **** #elif defined (__ARMCC_VERSION) && (__ARMCC_VERSION >= 6010050)
  84:Generated_Source\PSoC6\pdl\cmsis/include/core_cm0plus.h ****   #if defined __ARM_PCS_VFP
  85:Generated_Source\PSoC6\pdl\cmsis/include/core_cm0plus.h ****     #error "Compiler generates FPU instructions for a device without an FPU (check __FPU_PRESENT)"
  86:Generated_Source\PSoC6\pdl\cmsis/include/core_cm0plus.h ****   #endif
  87:Generated_Source\PSoC6\pdl\cmsis/include/core_cm0plus.h **** 
  88:Generated_Source\PSoC6\pdl\cmsis/include/core_cm0plus.h **** #elif defined ( __GNUC__ )
  89:Generated_Source\PSoC6\pdl\cmsis/include/core_cm0plus.h ****   #if defined (__VFP_FP__) && !defined(__SOFTFP__)
  90:Generated_Source\PSoC6\pdl\cmsis/include/core_cm0plus.h ****     #error "Compiler generates FPU instructions for a device without an FPU (check __FPU_PRESENT)"
  91:Generated_Source\PSoC6\pdl\cmsis/include/core_cm0plus.h ****   #endif
  92:Generated_Source\PSoC6\pdl\cmsis/include/core_cm0plus.h **** 
  93:Generated_Source\PSoC6\pdl\cmsis/include/core_cm0plus.h **** #elif defined ( __ICCARM__ )
  94:Generated_Source\PSoC6\pdl\cmsis/include/core_cm0plus.h ****   #if defined __ARMVFP__
  95:Generated_Source\PSoC6\pdl\cmsis/include/core_cm0plus.h ****     #error "Compiler generates FPU instructions for a device without an FPU (check __FPU_PRESENT)"
  96:Generated_Source\PSoC6\pdl\cmsis/include/core_cm0plus.h ****   #endif
  97:Generated_Source\PSoC6\pdl\cmsis/include/core_cm0plus.h **** 
  98:Generated_Source\PSoC6\pdl\cmsis/include/core_cm0plus.h **** #elif defined ( __TI_ARM__ )
  99:Generated_Source\PSoC6\pdl\cmsis/include/core_cm0plus.h ****   #if defined __TI_VFP_SUPPORT__
 100:Generated_Source\PSoC6\pdl\cmsis/include/core_cm0plus.h ****     #error "Compiler generates FPU instructions for a device without an FPU (check __FPU_PRESENT)"
 101:Generated_Source\PSoC6\pdl\cmsis/include/core_cm0plus.h ****   #endif
 102:Generated_Source\PSoC6\pdl\cmsis/include/core_cm0plus.h **** 
 103:Generated_Source\PSoC6\pdl\cmsis/include/core_cm0plus.h **** #elif defined ( __TASKING__ )
 104:Generated_Source\PSoC6\pdl\cmsis/include/core_cm0plus.h ****   #if defined __FPU_VFP__
 105:Generated_Source\PSoC6\pdl\cmsis/include/core_cm0plus.h ****     #error "Compiler generates FPU instructions for a device without an FPU (check __FPU_PRESENT)"
 106:Generated_Source\PSoC6\pdl\cmsis/include/core_cm0plus.h ****   #endif
 107:Generated_Source\PSoC6\pdl\cmsis/include/core_cm0plus.h **** 
 108:Generated_Source\PSoC6\pdl\cmsis/include/core_cm0plus.h **** #elif defined ( __CSMC__ )
 109:Generated_Source\PSoC6\pdl\cmsis/include/core_cm0plus.h ****   #if ( __CSMC__ & 0x400U)
 110:Generated_Source\PSoC6\pdl\cmsis/include/core_cm0plus.h ****     #error "Compiler generates FPU instructions for a device without an FPU (check __FPU_PRESENT)"
 111:Generated_Source\PSoC6\pdl\cmsis/include/core_cm0plus.h ****   #endif
 112:Generated_Source\PSoC6\pdl\cmsis/include/core_cm0plus.h **** 
 113:Generated_Source\PSoC6\pdl\cmsis/include/core_cm0plus.h **** #endif
ARM GAS  C:\Users\YOUSEF~1\AppData\Local\Temp\ccQanZ98.s 			page 19


 114:Generated_Source\PSoC6\pdl\cmsis/include/core_cm0plus.h **** 
 115:Generated_Source\PSoC6\pdl\cmsis/include/core_cm0plus.h **** #include "cmsis_compiler.h"               /* CMSIS compiler specific defines */
 116:Generated_Source\PSoC6\pdl\cmsis/include/core_cm0plus.h **** 
 117:Generated_Source\PSoC6\pdl\cmsis/include/core_cm0plus.h **** 
 118:Generated_Source\PSoC6\pdl\cmsis/include/core_cm0plus.h **** #ifdef __cplusplus
 119:Generated_Source\PSoC6\pdl\cmsis/include/core_cm0plus.h **** }
 120:Generated_Source\PSoC6\pdl\cmsis/include/core_cm0plus.h **** #endif
 121:Generated_Source\PSoC6\pdl\cmsis/include/core_cm0plus.h **** 
 122:Generated_Source\PSoC6\pdl\cmsis/include/core_cm0plus.h **** #endif /* __CORE_CM0PLUS_H_GENERIC */
 123:Generated_Source\PSoC6\pdl\cmsis/include/core_cm0plus.h **** 
 124:Generated_Source\PSoC6\pdl\cmsis/include/core_cm0plus.h **** #ifndef __CMSIS_GENERIC
 125:Generated_Source\PSoC6\pdl\cmsis/include/core_cm0plus.h **** 
 126:Generated_Source\PSoC6\pdl\cmsis/include/core_cm0plus.h **** #ifndef __CORE_CM0PLUS_H_DEPENDANT
 127:Generated_Source\PSoC6\pdl\cmsis/include/core_cm0plus.h **** #define __CORE_CM0PLUS_H_DEPENDANT
 128:Generated_Source\PSoC6\pdl\cmsis/include/core_cm0plus.h **** 
 129:Generated_Source\PSoC6\pdl\cmsis/include/core_cm0plus.h **** #ifdef __cplusplus
 130:Generated_Source\PSoC6\pdl\cmsis/include/core_cm0plus.h ****  extern "C" {
 131:Generated_Source\PSoC6\pdl\cmsis/include/core_cm0plus.h **** #endif
 132:Generated_Source\PSoC6\pdl\cmsis/include/core_cm0plus.h **** 
 133:Generated_Source\PSoC6\pdl\cmsis/include/core_cm0plus.h **** /* check device defines and use defaults */
 134:Generated_Source\PSoC6\pdl\cmsis/include/core_cm0plus.h **** #if defined __CHECK_DEVICE_DEFINES
 135:Generated_Source\PSoC6\pdl\cmsis/include/core_cm0plus.h ****   #ifndef __CM0PLUS_REV
 136:Generated_Source\PSoC6\pdl\cmsis/include/core_cm0plus.h ****     #define __CM0PLUS_REV             0x0000U
 137:Generated_Source\PSoC6\pdl\cmsis/include/core_cm0plus.h ****     #warning "__CM0PLUS_REV not defined in device header file; using default!"
 138:Generated_Source\PSoC6\pdl\cmsis/include/core_cm0plus.h ****   #endif
 139:Generated_Source\PSoC6\pdl\cmsis/include/core_cm0plus.h **** 
 140:Generated_Source\PSoC6\pdl\cmsis/include/core_cm0plus.h ****   #ifndef __MPU_PRESENT
 141:Generated_Source\PSoC6\pdl\cmsis/include/core_cm0plus.h ****     #define __MPU_PRESENT             0U
 142:Generated_Source\PSoC6\pdl\cmsis/include/core_cm0plus.h ****     #warning "__MPU_PRESENT not defined in device header file; using default!"
 143:Generated_Source\PSoC6\pdl\cmsis/include/core_cm0plus.h ****   #endif
 144:Generated_Source\PSoC6\pdl\cmsis/include/core_cm0plus.h **** 
 145:Generated_Source\PSoC6\pdl\cmsis/include/core_cm0plus.h ****   #ifndef __VTOR_PRESENT
 146:Generated_Source\PSoC6\pdl\cmsis/include/core_cm0plus.h ****     #define __VTOR_PRESENT            0U
 147:Generated_Source\PSoC6\pdl\cmsis/include/core_cm0plus.h ****     #warning "__VTOR_PRESENT not defined in device header file; using default!"
 148:Generated_Source\PSoC6\pdl\cmsis/include/core_cm0plus.h ****   #endif
 149:Generated_Source\PSoC6\pdl\cmsis/include/core_cm0plus.h **** 
 150:Generated_Source\PSoC6\pdl\cmsis/include/core_cm0plus.h ****   #ifndef __NVIC_PRIO_BITS
 151:Generated_Source\PSoC6\pdl\cmsis/include/core_cm0plus.h ****     #define __NVIC_PRIO_BITS          2U
 152:Generated_Source\PSoC6\pdl\cmsis/include/core_cm0plus.h ****     #warning "__NVIC_PRIO_BITS not defined in device header file; using default!"
 153:Generated_Source\PSoC6\pdl\cmsis/include/core_cm0plus.h ****   #endif
 154:Generated_Source\PSoC6\pdl\cmsis/include/core_cm0plus.h **** 
 155:Generated_Source\PSoC6\pdl\cmsis/include/core_cm0plus.h ****   #ifndef __Vendor_SysTickConfig
 156:Generated_Source\PSoC6\pdl\cmsis/include/core_cm0plus.h ****     #define __Vendor_SysTickConfig    0U
 157:Generated_Source\PSoC6\pdl\cmsis/include/core_cm0plus.h ****     #warning "__Vendor_SysTickConfig not defined in device header file; using default!"
 158:Generated_Source\PSoC6\pdl\cmsis/include/core_cm0plus.h ****   #endif
 159:Generated_Source\PSoC6\pdl\cmsis/include/core_cm0plus.h **** #endif
 160:Generated_Source\PSoC6\pdl\cmsis/include/core_cm0plus.h **** 
 161:Generated_Source\PSoC6\pdl\cmsis/include/core_cm0plus.h **** /* IO definitions (access restrictions to peripheral registers) */
 162:Generated_Source\PSoC6\pdl\cmsis/include/core_cm0plus.h **** /**
 163:Generated_Source\PSoC6\pdl\cmsis/include/core_cm0plus.h ****     \defgroup CMSIS_glob_defs CMSIS Global Defines
 164:Generated_Source\PSoC6\pdl\cmsis/include/core_cm0plus.h **** 
 165:Generated_Source\PSoC6\pdl\cmsis/include/core_cm0plus.h ****     <strong>IO Type Qualifiers</strong> are used
 166:Generated_Source\PSoC6\pdl\cmsis/include/core_cm0plus.h ****     \li to specify the access to peripheral variables.
 167:Generated_Source\PSoC6\pdl\cmsis/include/core_cm0plus.h ****     \li for automatic generation of peripheral register debug information.
 168:Generated_Source\PSoC6\pdl\cmsis/include/core_cm0plus.h **** */
 169:Generated_Source\PSoC6\pdl\cmsis/include/core_cm0plus.h **** #ifdef __cplusplus
 170:Generated_Source\PSoC6\pdl\cmsis/include/core_cm0plus.h ****   #define   __I     volatile             /*!< Defines 'read only' permissions */
ARM GAS  C:\Users\YOUSEF~1\AppData\Local\Temp\ccQanZ98.s 			page 20


 171:Generated_Source\PSoC6\pdl\cmsis/include/core_cm0plus.h **** #else
 172:Generated_Source\PSoC6\pdl\cmsis/include/core_cm0plus.h ****   #define   __I     volatile const       /*!< Defines 'read only' permissions */
 173:Generated_Source\PSoC6\pdl\cmsis/include/core_cm0plus.h **** #endif
 174:Generated_Source\PSoC6\pdl\cmsis/include/core_cm0plus.h **** #define     __O     volatile             /*!< Defines 'write only' permissions */
 175:Generated_Source\PSoC6\pdl\cmsis/include/core_cm0plus.h **** #define     __IO    volatile             /*!< Defines 'read / write' permissions */
 176:Generated_Source\PSoC6\pdl\cmsis/include/core_cm0plus.h **** 
 177:Generated_Source\PSoC6\pdl\cmsis/include/core_cm0plus.h **** /* following defines should be used for structure members */
 178:Generated_Source\PSoC6\pdl\cmsis/include/core_cm0plus.h **** #define     __IM     volatile const      /*! Defines 'read only' structure member permissions */
 179:Generated_Source\PSoC6\pdl\cmsis/include/core_cm0plus.h **** #define     __OM     volatile            /*! Defines 'write only' structure member permissions */
 180:Generated_Source\PSoC6\pdl\cmsis/include/core_cm0plus.h **** #define     __IOM    volatile            /*! Defines 'read / write' structure member permissions */
 181:Generated_Source\PSoC6\pdl\cmsis/include/core_cm0plus.h **** 
 182:Generated_Source\PSoC6\pdl\cmsis/include/core_cm0plus.h **** /*@} end of group Cortex-M0+ */
 183:Generated_Source\PSoC6\pdl\cmsis/include/core_cm0plus.h **** 
 184:Generated_Source\PSoC6\pdl\cmsis/include/core_cm0plus.h **** 
 185:Generated_Source\PSoC6\pdl\cmsis/include/core_cm0plus.h **** 
 186:Generated_Source\PSoC6\pdl\cmsis/include/core_cm0plus.h **** /*******************************************************************************
 187:Generated_Source\PSoC6\pdl\cmsis/include/core_cm0plus.h ****  *                 Register Abstraction
 188:Generated_Source\PSoC6\pdl\cmsis/include/core_cm0plus.h ****   Core Register contain:
 189:Generated_Source\PSoC6\pdl\cmsis/include/core_cm0plus.h ****   - Core Register
 190:Generated_Source\PSoC6\pdl\cmsis/include/core_cm0plus.h ****   - Core NVIC Register
 191:Generated_Source\PSoC6\pdl\cmsis/include/core_cm0plus.h ****   - Core SCB Register
 192:Generated_Source\PSoC6\pdl\cmsis/include/core_cm0plus.h ****   - Core SysTick Register
 193:Generated_Source\PSoC6\pdl\cmsis/include/core_cm0plus.h ****   - Core MPU Register
 194:Generated_Source\PSoC6\pdl\cmsis/include/core_cm0plus.h ****  ******************************************************************************/
 195:Generated_Source\PSoC6\pdl\cmsis/include/core_cm0plus.h **** /**
 196:Generated_Source\PSoC6\pdl\cmsis/include/core_cm0plus.h ****   \defgroup CMSIS_core_register Defines and Type Definitions
 197:Generated_Source\PSoC6\pdl\cmsis/include/core_cm0plus.h ****   \brief Type definitions and defines for Cortex-M processor based devices.
 198:Generated_Source\PSoC6\pdl\cmsis/include/core_cm0plus.h **** */
 199:Generated_Source\PSoC6\pdl\cmsis/include/core_cm0plus.h **** 
 200:Generated_Source\PSoC6\pdl\cmsis/include/core_cm0plus.h **** /**
 201:Generated_Source\PSoC6\pdl\cmsis/include/core_cm0plus.h ****   \ingroup    CMSIS_core_register
 202:Generated_Source\PSoC6\pdl\cmsis/include/core_cm0plus.h ****   \defgroup   CMSIS_CORE  Status and Control Registers
 203:Generated_Source\PSoC6\pdl\cmsis/include/core_cm0plus.h ****   \brief      Core Register type definitions.
 204:Generated_Source\PSoC6\pdl\cmsis/include/core_cm0plus.h ****   @{
 205:Generated_Source\PSoC6\pdl\cmsis/include/core_cm0plus.h ****  */
 206:Generated_Source\PSoC6\pdl\cmsis/include/core_cm0plus.h **** 
 207:Generated_Source\PSoC6\pdl\cmsis/include/core_cm0plus.h **** /**
 208:Generated_Source\PSoC6\pdl\cmsis/include/core_cm0plus.h ****   \brief  Union type to access the Application Program Status Register (APSR).
 209:Generated_Source\PSoC6\pdl\cmsis/include/core_cm0plus.h ****  */
 210:Generated_Source\PSoC6\pdl\cmsis/include/core_cm0plus.h **** typedef union
 211:Generated_Source\PSoC6\pdl\cmsis/include/core_cm0plus.h **** {
 212:Generated_Source\PSoC6\pdl\cmsis/include/core_cm0plus.h ****   struct
 213:Generated_Source\PSoC6\pdl\cmsis/include/core_cm0plus.h ****   {
 214:Generated_Source\PSoC6\pdl\cmsis/include/core_cm0plus.h ****     uint32_t _reserved0:28;              /*!< bit:  0..27  Reserved */
 215:Generated_Source\PSoC6\pdl\cmsis/include/core_cm0plus.h ****     uint32_t V:1;                        /*!< bit:     28  Overflow condition code flag */
 216:Generated_Source\PSoC6\pdl\cmsis/include/core_cm0plus.h ****     uint32_t C:1;                        /*!< bit:     29  Carry condition code flag */
 217:Generated_Source\PSoC6\pdl\cmsis/include/core_cm0plus.h ****     uint32_t Z:1;                        /*!< bit:     30  Zero condition code flag */
 218:Generated_Source\PSoC6\pdl\cmsis/include/core_cm0plus.h ****     uint32_t N:1;                        /*!< bit:     31  Negative condition code flag */
 219:Generated_Source\PSoC6\pdl\cmsis/include/core_cm0plus.h ****   } b;                                   /*!< Structure used for bit  access */
 220:Generated_Source\PSoC6\pdl\cmsis/include/core_cm0plus.h ****   uint32_t w;                            /*!< Type      used for word access */
 221:Generated_Source\PSoC6\pdl\cmsis/include/core_cm0plus.h **** } APSR_Type;
 222:Generated_Source\PSoC6\pdl\cmsis/include/core_cm0plus.h **** 
 223:Generated_Source\PSoC6\pdl\cmsis/include/core_cm0plus.h **** /* APSR Register Definitions */
 224:Generated_Source\PSoC6\pdl\cmsis/include/core_cm0plus.h **** #define APSR_N_Pos                         31U                                            /*!< APSR
 225:Generated_Source\PSoC6\pdl\cmsis/include/core_cm0plus.h **** #define APSR_N_Msk                         (1UL << APSR_N_Pos)                            /*!< APSR
 226:Generated_Source\PSoC6\pdl\cmsis/include/core_cm0plus.h **** 
 227:Generated_Source\PSoC6\pdl\cmsis/include/core_cm0plus.h **** #define APSR_Z_Pos                         30U                                            /*!< APSR
ARM GAS  C:\Users\YOUSEF~1\AppData\Local\Temp\ccQanZ98.s 			page 21


 228:Generated_Source\PSoC6\pdl\cmsis/include/core_cm0plus.h **** #define APSR_Z_Msk                         (1UL << APSR_Z_Pos)                            /*!< APSR
 229:Generated_Source\PSoC6\pdl\cmsis/include/core_cm0plus.h **** 
 230:Generated_Source\PSoC6\pdl\cmsis/include/core_cm0plus.h **** #define APSR_C_Pos                         29U                                            /*!< APSR
 231:Generated_Source\PSoC6\pdl\cmsis/include/core_cm0plus.h **** #define APSR_C_Msk                         (1UL << APSR_C_Pos)                            /*!< APSR
 232:Generated_Source\PSoC6\pdl\cmsis/include/core_cm0plus.h **** 
 233:Generated_Source\PSoC6\pdl\cmsis/include/core_cm0plus.h **** #define APSR_V_Pos                         28U                                            /*!< APSR
 234:Generated_Source\PSoC6\pdl\cmsis/include/core_cm0plus.h **** #define APSR_V_Msk                         (1UL << APSR_V_Pos)                            /*!< APSR
 235:Generated_Source\PSoC6\pdl\cmsis/include/core_cm0plus.h **** 
 236:Generated_Source\PSoC6\pdl\cmsis/include/core_cm0plus.h **** 
 237:Generated_Source\PSoC6\pdl\cmsis/include/core_cm0plus.h **** /**
 238:Generated_Source\PSoC6\pdl\cmsis/include/core_cm0plus.h ****   \brief  Union type to access the Interrupt Program Status Register (IPSR).
 239:Generated_Source\PSoC6\pdl\cmsis/include/core_cm0plus.h ****  */
 240:Generated_Source\PSoC6\pdl\cmsis/include/core_cm0plus.h **** typedef union
 241:Generated_Source\PSoC6\pdl\cmsis/include/core_cm0plus.h **** {
 242:Generated_Source\PSoC6\pdl\cmsis/include/core_cm0plus.h ****   struct
 243:Generated_Source\PSoC6\pdl\cmsis/include/core_cm0plus.h ****   {
 244:Generated_Source\PSoC6\pdl\cmsis/include/core_cm0plus.h ****     uint32_t ISR:9;                      /*!< bit:  0.. 8  Exception number */
 245:Generated_Source\PSoC6\pdl\cmsis/include/core_cm0plus.h ****     uint32_t _reserved0:23;              /*!< bit:  9..31  Reserved */
 246:Generated_Source\PSoC6\pdl\cmsis/include/core_cm0plus.h ****   } b;                                   /*!< Structure used for bit  access */
 247:Generated_Source\PSoC6\pdl\cmsis/include/core_cm0plus.h ****   uint32_t w;                            /*!< Type      used for word access */
 248:Generated_Source\PSoC6\pdl\cmsis/include/core_cm0plus.h **** } IPSR_Type;
 249:Generated_Source\PSoC6\pdl\cmsis/include/core_cm0plus.h **** 
 250:Generated_Source\PSoC6\pdl\cmsis/include/core_cm0plus.h **** /* IPSR Register Definitions */
 251:Generated_Source\PSoC6\pdl\cmsis/include/core_cm0plus.h **** #define IPSR_ISR_Pos                        0U                                            /*!< IPSR
 252:Generated_Source\PSoC6\pdl\cmsis/include/core_cm0plus.h **** #define IPSR_ISR_Msk                       (0x1FFUL /*<< IPSR_ISR_Pos*/)                  /*!< IPSR
 253:Generated_Source\PSoC6\pdl\cmsis/include/core_cm0plus.h **** 
 254:Generated_Source\PSoC6\pdl\cmsis/include/core_cm0plus.h **** 
 255:Generated_Source\PSoC6\pdl\cmsis/include/core_cm0plus.h **** /**
 256:Generated_Source\PSoC6\pdl\cmsis/include/core_cm0plus.h ****   \brief  Union type to access the Special-Purpose Program Status Registers (xPSR).
 257:Generated_Source\PSoC6\pdl\cmsis/include/core_cm0plus.h ****  */
 258:Generated_Source\PSoC6\pdl\cmsis/include/core_cm0plus.h **** typedef union
 259:Generated_Source\PSoC6\pdl\cmsis/include/core_cm0plus.h **** {
 260:Generated_Source\PSoC6\pdl\cmsis/include/core_cm0plus.h ****   struct
 261:Generated_Source\PSoC6\pdl\cmsis/include/core_cm0plus.h ****   {
 262:Generated_Source\PSoC6\pdl\cmsis/include/core_cm0plus.h ****     uint32_t ISR:9;                      /*!< bit:  0.. 8  Exception number */
 263:Generated_Source\PSoC6\pdl\cmsis/include/core_cm0plus.h ****     uint32_t _reserved0:15;              /*!< bit:  9..23  Reserved */
 264:Generated_Source\PSoC6\pdl\cmsis/include/core_cm0plus.h ****     uint32_t T:1;                        /*!< bit:     24  Thumb bit        (read 0) */
 265:Generated_Source\PSoC6\pdl\cmsis/include/core_cm0plus.h ****     uint32_t _reserved1:3;               /*!< bit: 25..27  Reserved */
 266:Generated_Source\PSoC6\pdl\cmsis/include/core_cm0plus.h ****     uint32_t V:1;                        /*!< bit:     28  Overflow condition code flag */
 267:Generated_Source\PSoC6\pdl\cmsis/include/core_cm0plus.h ****     uint32_t C:1;                        /*!< bit:     29  Carry condition code flag */
 268:Generated_Source\PSoC6\pdl\cmsis/include/core_cm0plus.h ****     uint32_t Z:1;                        /*!< bit:     30  Zero condition code flag */
 269:Generated_Source\PSoC6\pdl\cmsis/include/core_cm0plus.h ****     uint32_t N:1;                        /*!< bit:     31  Negative condition code flag */
 270:Generated_Source\PSoC6\pdl\cmsis/include/core_cm0plus.h ****   } b;                                   /*!< Structure used for bit  access */
 271:Generated_Source\PSoC6\pdl\cmsis/include/core_cm0plus.h ****   uint32_t w;                            /*!< Type      used for word access */
 272:Generated_Source\PSoC6\pdl\cmsis/include/core_cm0plus.h **** } xPSR_Type;
 273:Generated_Source\PSoC6\pdl\cmsis/include/core_cm0plus.h **** 
 274:Generated_Source\PSoC6\pdl\cmsis/include/core_cm0plus.h **** /* xPSR Register Definitions */
 275:Generated_Source\PSoC6\pdl\cmsis/include/core_cm0plus.h **** #define xPSR_N_Pos                         31U                                            /*!< xPSR
 276:Generated_Source\PSoC6\pdl\cmsis/include/core_cm0plus.h **** #define xPSR_N_Msk                         (1UL << xPSR_N_Pos)                            /*!< xPSR
 277:Generated_Source\PSoC6\pdl\cmsis/include/core_cm0plus.h **** 
 278:Generated_Source\PSoC6\pdl\cmsis/include/core_cm0plus.h **** #define xPSR_Z_Pos                         30U                                            /*!< xPSR
 279:Generated_Source\PSoC6\pdl\cmsis/include/core_cm0plus.h **** #define xPSR_Z_Msk                         (1UL << xPSR_Z_Pos)                            /*!< xPSR
 280:Generated_Source\PSoC6\pdl\cmsis/include/core_cm0plus.h **** 
 281:Generated_Source\PSoC6\pdl\cmsis/include/core_cm0plus.h **** #define xPSR_C_Pos                         29U                                            /*!< xPSR
 282:Generated_Source\PSoC6\pdl\cmsis/include/core_cm0plus.h **** #define xPSR_C_Msk                         (1UL << xPSR_C_Pos)                            /*!< xPSR
 283:Generated_Source\PSoC6\pdl\cmsis/include/core_cm0plus.h **** 
 284:Generated_Source\PSoC6\pdl\cmsis/include/core_cm0plus.h **** #define xPSR_V_Pos                         28U                                            /*!< xPSR
ARM GAS  C:\Users\YOUSEF~1\AppData\Local\Temp\ccQanZ98.s 			page 22


 285:Generated_Source\PSoC6\pdl\cmsis/include/core_cm0plus.h **** #define xPSR_V_Msk                         (1UL << xPSR_V_Pos)                            /*!< xPSR
 286:Generated_Source\PSoC6\pdl\cmsis/include/core_cm0plus.h **** 
 287:Generated_Source\PSoC6\pdl\cmsis/include/core_cm0plus.h **** #define xPSR_T_Pos                         24U                                            /*!< xPSR
 288:Generated_Source\PSoC6\pdl\cmsis/include/core_cm0plus.h **** #define xPSR_T_Msk                         (1UL << xPSR_T_Pos)                            /*!< xPSR
 289:Generated_Source\PSoC6\pdl\cmsis/include/core_cm0plus.h **** 
 290:Generated_Source\PSoC6\pdl\cmsis/include/core_cm0plus.h **** #define xPSR_ISR_Pos                        0U                                            /*!< xPSR
 291:Generated_Source\PSoC6\pdl\cmsis/include/core_cm0plus.h **** #define xPSR_ISR_Msk                       (0x1FFUL /*<< xPSR_ISR_Pos*/)                  /*!< xPSR
 292:Generated_Source\PSoC6\pdl\cmsis/include/core_cm0plus.h **** 
 293:Generated_Source\PSoC6\pdl\cmsis/include/core_cm0plus.h **** 
 294:Generated_Source\PSoC6\pdl\cmsis/include/core_cm0plus.h **** /**
 295:Generated_Source\PSoC6\pdl\cmsis/include/core_cm0plus.h ****   \brief  Union type to access the Control Registers (CONTROL).
 296:Generated_Source\PSoC6\pdl\cmsis/include/core_cm0plus.h ****  */
 297:Generated_Source\PSoC6\pdl\cmsis/include/core_cm0plus.h **** typedef union
 298:Generated_Source\PSoC6\pdl\cmsis/include/core_cm0plus.h **** {
 299:Generated_Source\PSoC6\pdl\cmsis/include/core_cm0plus.h ****   struct
 300:Generated_Source\PSoC6\pdl\cmsis/include/core_cm0plus.h ****   {
 301:Generated_Source\PSoC6\pdl\cmsis/include/core_cm0plus.h ****     uint32_t nPRIV:1;                    /*!< bit:      0  Execution privilege in Thread mode */
 302:Generated_Source\PSoC6\pdl\cmsis/include/core_cm0plus.h ****     uint32_t SPSEL:1;                    /*!< bit:      1  Stack to be used */
 303:Generated_Source\PSoC6\pdl\cmsis/include/core_cm0plus.h ****     uint32_t _reserved1:30;              /*!< bit:  2..31  Reserved */
 304:Generated_Source\PSoC6\pdl\cmsis/include/core_cm0plus.h ****   } b;                                   /*!< Structure used for bit  access */
 305:Generated_Source\PSoC6\pdl\cmsis/include/core_cm0plus.h ****   uint32_t w;                            /*!< Type      used for word access */
 306:Generated_Source\PSoC6\pdl\cmsis/include/core_cm0plus.h **** } CONTROL_Type;
 307:Generated_Source\PSoC6\pdl\cmsis/include/core_cm0plus.h **** 
 308:Generated_Source\PSoC6\pdl\cmsis/include/core_cm0plus.h **** /* CONTROL Register Definitions */
 309:Generated_Source\PSoC6\pdl\cmsis/include/core_cm0plus.h **** #define CONTROL_SPSEL_Pos                   1U                                            /*!< CONT
 310:Generated_Source\PSoC6\pdl\cmsis/include/core_cm0plus.h **** #define CONTROL_SPSEL_Msk                  (1UL << CONTROL_SPSEL_Pos)                     /*!< CONT
 311:Generated_Source\PSoC6\pdl\cmsis/include/core_cm0plus.h **** 
 312:Generated_Source\PSoC6\pdl\cmsis/include/core_cm0plus.h **** #define CONTROL_nPRIV_Pos                   0U                                            /*!< CONT
 313:Generated_Source\PSoC6\pdl\cmsis/include/core_cm0plus.h **** #define CONTROL_nPRIV_Msk                  (1UL /*<< CONTROL_nPRIV_Pos*/)                 /*!< CONT
 314:Generated_Source\PSoC6\pdl\cmsis/include/core_cm0plus.h **** 
 315:Generated_Source\PSoC6\pdl\cmsis/include/core_cm0plus.h **** /*@} end of group CMSIS_CORE */
 316:Generated_Source\PSoC6\pdl\cmsis/include/core_cm0plus.h **** 
 317:Generated_Source\PSoC6\pdl\cmsis/include/core_cm0plus.h **** 
 318:Generated_Source\PSoC6\pdl\cmsis/include/core_cm0plus.h **** /**
 319:Generated_Source\PSoC6\pdl\cmsis/include/core_cm0plus.h ****   \ingroup    CMSIS_core_register
 320:Generated_Source\PSoC6\pdl\cmsis/include/core_cm0plus.h ****   \defgroup   CMSIS_NVIC  Nested Vectored Interrupt Controller (NVIC)
 321:Generated_Source\PSoC6\pdl\cmsis/include/core_cm0plus.h ****   \brief      Type definitions for the NVIC Registers
 322:Generated_Source\PSoC6\pdl\cmsis/include/core_cm0plus.h ****   @{
 323:Generated_Source\PSoC6\pdl\cmsis/include/core_cm0plus.h ****  */
 324:Generated_Source\PSoC6\pdl\cmsis/include/core_cm0plus.h **** 
 325:Generated_Source\PSoC6\pdl\cmsis/include/core_cm0plus.h **** /**
 326:Generated_Source\PSoC6\pdl\cmsis/include/core_cm0plus.h ****   \brief  Structure type to access the Nested Vectored Interrupt Controller (NVIC).
 327:Generated_Source\PSoC6\pdl\cmsis/include/core_cm0plus.h ****  */
 328:Generated_Source\PSoC6\pdl\cmsis/include/core_cm0plus.h **** typedef struct
 329:Generated_Source\PSoC6\pdl\cmsis/include/core_cm0plus.h **** {
 330:Generated_Source\PSoC6\pdl\cmsis/include/core_cm0plus.h ****   __IOM uint32_t ISER[1U];               /*!< Offset: 0x000 (R/W)  Interrupt Set Enable Register */
 331:Generated_Source\PSoC6\pdl\cmsis/include/core_cm0plus.h ****         uint32_t RESERVED0[31U];
 332:Generated_Source\PSoC6\pdl\cmsis/include/core_cm0plus.h ****   __IOM uint32_t ICER[1U];               /*!< Offset: 0x080 (R/W)  Interrupt Clear Enable Register 
 333:Generated_Source\PSoC6\pdl\cmsis/include/core_cm0plus.h ****         uint32_t RSERVED1[31U];
 334:Generated_Source\PSoC6\pdl\cmsis/include/core_cm0plus.h ****   __IOM uint32_t ISPR[1U];               /*!< Offset: 0x100 (R/W)  Interrupt Set Pending Register *
 335:Generated_Source\PSoC6\pdl\cmsis/include/core_cm0plus.h ****         uint32_t RESERVED2[31U];
 336:Generated_Source\PSoC6\pdl\cmsis/include/core_cm0plus.h ****   __IOM uint32_t ICPR[1U];               /*!< Offset: 0x180 (R/W)  Interrupt Clear Pending Register
 337:Generated_Source\PSoC6\pdl\cmsis/include/core_cm0plus.h ****         uint32_t RESERVED3[31U];
 338:Generated_Source\PSoC6\pdl\cmsis/include/core_cm0plus.h ****         uint32_t RESERVED4[64U];
 339:Generated_Source\PSoC6\pdl\cmsis/include/core_cm0plus.h ****   __IOM uint32_t IP[8U];                 /*!< Offset: 0x300 (R/W)  Interrupt Priority Register */
 340:Generated_Source\PSoC6\pdl\cmsis/include/core_cm0plus.h **** }  NVIC_Type;
 341:Generated_Source\PSoC6\pdl\cmsis/include/core_cm0plus.h **** 
ARM GAS  C:\Users\YOUSEF~1\AppData\Local\Temp\ccQanZ98.s 			page 23


 342:Generated_Source\PSoC6\pdl\cmsis/include/core_cm0plus.h **** /*@} end of group CMSIS_NVIC */
 343:Generated_Source\PSoC6\pdl\cmsis/include/core_cm0plus.h **** 
 344:Generated_Source\PSoC6\pdl\cmsis/include/core_cm0plus.h **** 
 345:Generated_Source\PSoC6\pdl\cmsis/include/core_cm0plus.h **** /**
 346:Generated_Source\PSoC6\pdl\cmsis/include/core_cm0plus.h ****   \ingroup  CMSIS_core_register
 347:Generated_Source\PSoC6\pdl\cmsis/include/core_cm0plus.h ****   \defgroup CMSIS_SCB     System Control Block (SCB)
 348:Generated_Source\PSoC6\pdl\cmsis/include/core_cm0plus.h ****   \brief    Type definitions for the System Control Block Registers
 349:Generated_Source\PSoC6\pdl\cmsis/include/core_cm0plus.h ****   @{
 350:Generated_Source\PSoC6\pdl\cmsis/include/core_cm0plus.h ****  */
 351:Generated_Source\PSoC6\pdl\cmsis/include/core_cm0plus.h **** 
 352:Generated_Source\PSoC6\pdl\cmsis/include/core_cm0plus.h **** /**
 353:Generated_Source\PSoC6\pdl\cmsis/include/core_cm0plus.h ****   \brief  Structure type to access the System Control Block (SCB).
 354:Generated_Source\PSoC6\pdl\cmsis/include/core_cm0plus.h ****  */
 355:Generated_Source\PSoC6\pdl\cmsis/include/core_cm0plus.h **** typedef struct
 356:Generated_Source\PSoC6\pdl\cmsis/include/core_cm0plus.h **** {
 357:Generated_Source\PSoC6\pdl\cmsis/include/core_cm0plus.h ****   __IM  uint32_t CPUID;                  /*!< Offset: 0x000 (R/ )  CPUID Base Register */
 358:Generated_Source\PSoC6\pdl\cmsis/include/core_cm0plus.h ****   __IOM uint32_t ICSR;                   /*!< Offset: 0x004 (R/W)  Interrupt Control and State Regi
 359:Generated_Source\PSoC6\pdl\cmsis/include/core_cm0plus.h **** #if defined (__VTOR_PRESENT) && (__VTOR_PRESENT == 1U)
 360:Generated_Source\PSoC6\pdl\cmsis/include/core_cm0plus.h ****   __IOM uint32_t VTOR;                   /*!< Offset: 0x008 (R/W)  Vector Table Offset Register */
 361:Generated_Source\PSoC6\pdl\cmsis/include/core_cm0plus.h **** #else
 362:Generated_Source\PSoC6\pdl\cmsis/include/core_cm0plus.h ****         uint32_t RESERVED0;
 363:Generated_Source\PSoC6\pdl\cmsis/include/core_cm0plus.h **** #endif
 364:Generated_Source\PSoC6\pdl\cmsis/include/core_cm0plus.h ****   __IOM uint32_t AIRCR;                  /*!< Offset: 0x00C (R/W)  Application Interrupt and Reset 
 365:Generated_Source\PSoC6\pdl\cmsis/include/core_cm0plus.h ****   __IOM uint32_t SCR;                    /*!< Offset: 0x010 (R/W)  System Control Register */
 366:Generated_Source\PSoC6\pdl\cmsis/include/core_cm0plus.h ****   __IOM uint32_t CCR;                    /*!< Offset: 0x014 (R/W)  Configuration Control Register *
 367:Generated_Source\PSoC6\pdl\cmsis/include/core_cm0plus.h ****         uint32_t RESERVED1;
 368:Generated_Source\PSoC6\pdl\cmsis/include/core_cm0plus.h ****   __IOM uint32_t SHP[2U];                /*!< Offset: 0x01C (R/W)  System Handlers Priority Registe
 369:Generated_Source\PSoC6\pdl\cmsis/include/core_cm0plus.h ****   __IOM uint32_t SHCSR;                  /*!< Offset: 0x024 (R/W)  System Handler Control and State
 370:Generated_Source\PSoC6\pdl\cmsis/include/core_cm0plus.h **** } SCB_Type;
 371:Generated_Source\PSoC6\pdl\cmsis/include/core_cm0plus.h **** 
 372:Generated_Source\PSoC6\pdl\cmsis/include/core_cm0plus.h **** /* SCB CPUID Register Definitions */
 373:Generated_Source\PSoC6\pdl\cmsis/include/core_cm0plus.h **** #define SCB_CPUID_IMPLEMENTER_Pos          24U                                            /*!< SCB 
 374:Generated_Source\PSoC6\pdl\cmsis/include/core_cm0plus.h **** #define SCB_CPUID_IMPLEMENTER_Msk          (0xFFUL << SCB_CPUID_IMPLEMENTER_Pos)          /*!< SCB 
 375:Generated_Source\PSoC6\pdl\cmsis/include/core_cm0plus.h **** 
 376:Generated_Source\PSoC6\pdl\cmsis/include/core_cm0plus.h **** #define SCB_CPUID_VARIANT_Pos              20U                                            /*!< SCB 
 377:Generated_Source\PSoC6\pdl\cmsis/include/core_cm0plus.h **** #define SCB_CPUID_VARIANT_Msk              (0xFUL << SCB_CPUID_VARIANT_Pos)               /*!< SCB 
 378:Generated_Source\PSoC6\pdl\cmsis/include/core_cm0plus.h **** 
 379:Generated_Source\PSoC6\pdl\cmsis/include/core_cm0plus.h **** #define SCB_CPUID_ARCHITECTURE_Pos         16U                                            /*!< SCB 
 380:Generated_Source\PSoC6\pdl\cmsis/include/core_cm0plus.h **** #define SCB_CPUID_ARCHITECTURE_Msk         (0xFUL << SCB_CPUID_ARCHITECTURE_Pos)          /*!< SCB 
 381:Generated_Source\PSoC6\pdl\cmsis/include/core_cm0plus.h **** 
 382:Generated_Source\PSoC6\pdl\cmsis/include/core_cm0plus.h **** #define SCB_CPUID_PARTNO_Pos                4U                                            /*!< SCB 
 383:Generated_Source\PSoC6\pdl\cmsis/include/core_cm0plus.h **** #define SCB_CPUID_PARTNO_Msk               (0xFFFUL << SCB_CPUID_PARTNO_Pos)              /*!< SCB 
 384:Generated_Source\PSoC6\pdl\cmsis/include/core_cm0plus.h **** 
 385:Generated_Source\PSoC6\pdl\cmsis/include/core_cm0plus.h **** #define SCB_CPUID_REVISION_Pos              0U                                            /*!< SCB 
 386:Generated_Source\PSoC6\pdl\cmsis/include/core_cm0plus.h **** #define SCB_CPUID_REVISION_Msk             (0xFUL /*<< SCB_CPUID_REVISION_Pos*/)          /*!< SCB 
 387:Generated_Source\PSoC6\pdl\cmsis/include/core_cm0plus.h **** 
 388:Generated_Source\PSoC6\pdl\cmsis/include/core_cm0plus.h **** /* SCB Interrupt Control State Register Definitions */
 389:Generated_Source\PSoC6\pdl\cmsis/include/core_cm0plus.h **** #define SCB_ICSR_NMIPENDSET_Pos            31U                                            /*!< SCB 
 390:Generated_Source\PSoC6\pdl\cmsis/include/core_cm0plus.h **** #define SCB_ICSR_NMIPENDSET_Msk            (1UL << SCB_ICSR_NMIPENDSET_Pos)               /*!< SCB 
 391:Generated_Source\PSoC6\pdl\cmsis/include/core_cm0plus.h **** 
 392:Generated_Source\PSoC6\pdl\cmsis/include/core_cm0plus.h **** #define SCB_ICSR_PENDSVSET_Pos             28U                                            /*!< SCB 
 393:Generated_Source\PSoC6\pdl\cmsis/include/core_cm0plus.h **** #define SCB_ICSR_PENDSVSET_Msk             (1UL << SCB_ICSR_PENDSVSET_Pos)                /*!< SCB 
 394:Generated_Source\PSoC6\pdl\cmsis/include/core_cm0plus.h **** 
 395:Generated_Source\PSoC6\pdl\cmsis/include/core_cm0plus.h **** #define SCB_ICSR_PENDSVCLR_Pos             27U                                            /*!< SCB 
 396:Generated_Source\PSoC6\pdl\cmsis/include/core_cm0plus.h **** #define SCB_ICSR_PENDSVCLR_Msk             (1UL << SCB_ICSR_PENDSVCLR_Pos)                /*!< SCB 
 397:Generated_Source\PSoC6\pdl\cmsis/include/core_cm0plus.h **** 
 398:Generated_Source\PSoC6\pdl\cmsis/include/core_cm0plus.h **** #define SCB_ICSR_PENDSTSET_Pos             26U                                            /*!< SCB 
ARM GAS  C:\Users\YOUSEF~1\AppData\Local\Temp\ccQanZ98.s 			page 24


 399:Generated_Source\PSoC6\pdl\cmsis/include/core_cm0plus.h **** #define SCB_ICSR_PENDSTSET_Msk             (1UL << SCB_ICSR_PENDSTSET_Pos)                /*!< SCB 
 400:Generated_Source\PSoC6\pdl\cmsis/include/core_cm0plus.h **** 
 401:Generated_Source\PSoC6\pdl\cmsis/include/core_cm0plus.h **** #define SCB_ICSR_PENDSTCLR_Pos             25U                                            /*!< SCB 
 402:Generated_Source\PSoC6\pdl\cmsis/include/core_cm0plus.h **** #define SCB_ICSR_PENDSTCLR_Msk             (1UL << SCB_ICSR_PENDSTCLR_Pos)                /*!< SCB 
 403:Generated_Source\PSoC6\pdl\cmsis/include/core_cm0plus.h **** 
 404:Generated_Source\PSoC6\pdl\cmsis/include/core_cm0plus.h **** #define SCB_ICSR_ISRPREEMPT_Pos            23U                                            /*!< SCB 
 405:Generated_Source\PSoC6\pdl\cmsis/include/core_cm0plus.h **** #define SCB_ICSR_ISRPREEMPT_Msk            (1UL << SCB_ICSR_ISRPREEMPT_Pos)               /*!< SCB 
 406:Generated_Source\PSoC6\pdl\cmsis/include/core_cm0plus.h **** 
 407:Generated_Source\PSoC6\pdl\cmsis/include/core_cm0plus.h **** #define SCB_ICSR_ISRPENDING_Pos            22U                                            /*!< SCB 
 408:Generated_Source\PSoC6\pdl\cmsis/include/core_cm0plus.h **** #define SCB_ICSR_ISRPENDING_Msk            (1UL << SCB_ICSR_ISRPENDING_Pos)               /*!< SCB 
 409:Generated_Source\PSoC6\pdl\cmsis/include/core_cm0plus.h **** 
 410:Generated_Source\PSoC6\pdl\cmsis/include/core_cm0plus.h **** #define SCB_ICSR_VECTPENDING_Pos           12U                                            /*!< SCB 
 411:Generated_Source\PSoC6\pdl\cmsis/include/core_cm0plus.h **** #define SCB_ICSR_VECTPENDING_Msk           (0x1FFUL << SCB_ICSR_VECTPENDING_Pos)          /*!< SCB 
 412:Generated_Source\PSoC6\pdl\cmsis/include/core_cm0plus.h **** 
 413:Generated_Source\PSoC6\pdl\cmsis/include/core_cm0plus.h **** #define SCB_ICSR_VECTACTIVE_Pos             0U                                            /*!< SCB 
 414:Generated_Source\PSoC6\pdl\cmsis/include/core_cm0plus.h **** #define SCB_ICSR_VECTACTIVE_Msk            (0x1FFUL /*<< SCB_ICSR_VECTACTIVE_Pos*/)       /*!< SCB 
 415:Generated_Source\PSoC6\pdl\cmsis/include/core_cm0plus.h **** 
 416:Generated_Source\PSoC6\pdl\cmsis/include/core_cm0plus.h **** #if defined (__VTOR_PRESENT) && (__VTOR_PRESENT == 1U)
 417:Generated_Source\PSoC6\pdl\cmsis/include/core_cm0plus.h **** /* SCB Interrupt Control State Register Definitions */
 418:Generated_Source\PSoC6\pdl\cmsis/include/core_cm0plus.h **** #define SCB_VTOR_TBLOFF_Pos                 8U                                            /*!< SCB 
 419:Generated_Source\PSoC6\pdl\cmsis/include/core_cm0plus.h **** #define SCB_VTOR_TBLOFF_Msk                (0xFFFFFFUL << SCB_VTOR_TBLOFF_Pos)            /*!< SCB 
 420:Generated_Source\PSoC6\pdl\cmsis/include/core_cm0plus.h **** #endif
 421:Generated_Source\PSoC6\pdl\cmsis/include/core_cm0plus.h **** 
 422:Generated_Source\PSoC6\pdl\cmsis/include/core_cm0plus.h **** /* SCB Application Interrupt and Reset Control Register Definitions */
 423:Generated_Source\PSoC6\pdl\cmsis/include/core_cm0plus.h **** #define SCB_AIRCR_VECTKEY_Pos              16U                                            /*!< SCB 
 424:Generated_Source\PSoC6\pdl\cmsis/include/core_cm0plus.h **** #define SCB_AIRCR_VECTKEY_Msk              (0xFFFFUL << SCB_AIRCR_VECTKEY_Pos)            /*!< SCB 
 425:Generated_Source\PSoC6\pdl\cmsis/include/core_cm0plus.h **** 
 426:Generated_Source\PSoC6\pdl\cmsis/include/core_cm0plus.h **** #define SCB_AIRCR_VECTKEYSTAT_Pos          16U                                            /*!< SCB 
 427:Generated_Source\PSoC6\pdl\cmsis/include/core_cm0plus.h **** #define SCB_AIRCR_VECTKEYSTAT_Msk          (0xFFFFUL << SCB_AIRCR_VECTKEYSTAT_Pos)        /*!< SCB 
 428:Generated_Source\PSoC6\pdl\cmsis/include/core_cm0plus.h **** 
 429:Generated_Source\PSoC6\pdl\cmsis/include/core_cm0plus.h **** #define SCB_AIRCR_ENDIANESS_Pos            15U                                            /*!< SCB 
 430:Generated_Source\PSoC6\pdl\cmsis/include/core_cm0plus.h **** #define SCB_AIRCR_ENDIANESS_Msk            (1UL << SCB_AIRCR_ENDIANESS_Pos)               /*!< SCB 
 431:Generated_Source\PSoC6\pdl\cmsis/include/core_cm0plus.h **** 
 432:Generated_Source\PSoC6\pdl\cmsis/include/core_cm0plus.h **** #define SCB_AIRCR_SYSRESETREQ_Pos           2U                                            /*!< SCB 
 433:Generated_Source\PSoC6\pdl\cmsis/include/core_cm0plus.h **** #define SCB_AIRCR_SYSRESETREQ_Msk          (1UL << SCB_AIRCR_SYSRESETREQ_Pos)             /*!< SCB 
 434:Generated_Source\PSoC6\pdl\cmsis/include/core_cm0plus.h **** 
 435:Generated_Source\PSoC6\pdl\cmsis/include/core_cm0plus.h **** #define SCB_AIRCR_VECTCLRACTIVE_Pos         1U                                            /*!< SCB 
 436:Generated_Source\PSoC6\pdl\cmsis/include/core_cm0plus.h **** #define SCB_AIRCR_VECTCLRACTIVE_Msk        (1UL << SCB_AIRCR_VECTCLRACTIVE_Pos)           /*!< SCB 
 437:Generated_Source\PSoC6\pdl\cmsis/include/core_cm0plus.h **** 
 438:Generated_Source\PSoC6\pdl\cmsis/include/core_cm0plus.h **** /* SCB System Control Register Definitions */
 439:Generated_Source\PSoC6\pdl\cmsis/include/core_cm0plus.h **** #define SCB_SCR_SEVONPEND_Pos               4U                                            /*!< SCB 
 440:Generated_Source\PSoC6\pdl\cmsis/include/core_cm0plus.h **** #define SCB_SCR_SEVONPEND_Msk              (1UL << SCB_SCR_SEVONPEND_Pos)                 /*!< SCB 
 441:Generated_Source\PSoC6\pdl\cmsis/include/core_cm0plus.h **** 
 442:Generated_Source\PSoC6\pdl\cmsis/include/core_cm0plus.h **** #define SCB_SCR_SLEEPDEEP_Pos               2U                                            /*!< SCB 
 443:Generated_Source\PSoC6\pdl\cmsis/include/core_cm0plus.h **** #define SCB_SCR_SLEEPDEEP_Msk              (1UL << SCB_SCR_SLEEPDEEP_Pos)                 /*!< SCB 
 444:Generated_Source\PSoC6\pdl\cmsis/include/core_cm0plus.h **** 
 445:Generated_Source\PSoC6\pdl\cmsis/include/core_cm0plus.h **** #define SCB_SCR_SLEEPONEXIT_Pos             1U                                            /*!< SCB 
 446:Generated_Source\PSoC6\pdl\cmsis/include/core_cm0plus.h **** #define SCB_SCR_SLEEPONEXIT_Msk            (1UL << SCB_SCR_SLEEPONEXIT_Pos)               /*!< SCB 
 447:Generated_Source\PSoC6\pdl\cmsis/include/core_cm0plus.h **** 
 448:Generated_Source\PSoC6\pdl\cmsis/include/core_cm0plus.h **** /* SCB Configuration Control Register Definitions */
 449:Generated_Source\PSoC6\pdl\cmsis/include/core_cm0plus.h **** #define SCB_CCR_STKALIGN_Pos                9U                                            /*!< SCB 
 450:Generated_Source\PSoC6\pdl\cmsis/include/core_cm0plus.h **** #define SCB_CCR_STKALIGN_Msk               (1UL << SCB_CCR_STKALIGN_Pos)                  /*!< SCB 
 451:Generated_Source\PSoC6\pdl\cmsis/include/core_cm0plus.h **** 
 452:Generated_Source\PSoC6\pdl\cmsis/include/core_cm0plus.h **** #define SCB_CCR_UNALIGN_TRP_Pos             3U                                            /*!< SCB 
 453:Generated_Source\PSoC6\pdl\cmsis/include/core_cm0plus.h **** #define SCB_CCR_UNALIGN_TRP_Msk            (1UL << SCB_CCR_UNALIGN_TRP_Pos)               /*!< SCB 
 454:Generated_Source\PSoC6\pdl\cmsis/include/core_cm0plus.h **** 
 455:Generated_Source\PSoC6\pdl\cmsis/include/core_cm0plus.h **** /* SCB System Handler Control and State Register Definitions */
ARM GAS  C:\Users\YOUSEF~1\AppData\Local\Temp\ccQanZ98.s 			page 25


 456:Generated_Source\PSoC6\pdl\cmsis/include/core_cm0plus.h **** #define SCB_SHCSR_SVCALLPENDED_Pos         15U                                            /*!< SCB 
 457:Generated_Source\PSoC6\pdl\cmsis/include/core_cm0plus.h **** #define SCB_SHCSR_SVCALLPENDED_Msk         (1UL << SCB_SHCSR_SVCALLPENDED_Pos)            /*!< SCB 
 458:Generated_Source\PSoC6\pdl\cmsis/include/core_cm0plus.h **** 
 459:Generated_Source\PSoC6\pdl\cmsis/include/core_cm0plus.h **** /*@} end of group CMSIS_SCB */
 460:Generated_Source\PSoC6\pdl\cmsis/include/core_cm0plus.h **** 
 461:Generated_Source\PSoC6\pdl\cmsis/include/core_cm0plus.h **** 
 462:Generated_Source\PSoC6\pdl\cmsis/include/core_cm0plus.h **** /**
 463:Generated_Source\PSoC6\pdl\cmsis/include/core_cm0plus.h ****   \ingroup  CMSIS_core_register
 464:Generated_Source\PSoC6\pdl\cmsis/include/core_cm0plus.h ****   \defgroup CMSIS_SysTick     System Tick Timer (SysTick)
 465:Generated_Source\PSoC6\pdl\cmsis/include/core_cm0plus.h ****   \brief    Type definitions for the System Timer Registers.
 466:Generated_Source\PSoC6\pdl\cmsis/include/core_cm0plus.h ****   @{
 467:Generated_Source\PSoC6\pdl\cmsis/include/core_cm0plus.h ****  */
 468:Generated_Source\PSoC6\pdl\cmsis/include/core_cm0plus.h **** 
 469:Generated_Source\PSoC6\pdl\cmsis/include/core_cm0plus.h **** /**
 470:Generated_Source\PSoC6\pdl\cmsis/include/core_cm0plus.h ****   \brief  Structure type to access the System Timer (SysTick).
 471:Generated_Source\PSoC6\pdl\cmsis/include/core_cm0plus.h ****  */
 472:Generated_Source\PSoC6\pdl\cmsis/include/core_cm0plus.h **** typedef struct
 473:Generated_Source\PSoC6\pdl\cmsis/include/core_cm0plus.h **** {
 474:Generated_Source\PSoC6\pdl\cmsis/include/core_cm0plus.h ****   __IOM uint32_t CTRL;                   /*!< Offset: 0x000 (R/W)  SysTick Control and Status Regis
 475:Generated_Source\PSoC6\pdl\cmsis/include/core_cm0plus.h ****   __IOM uint32_t LOAD;                   /*!< Offset: 0x004 (R/W)  SysTick Reload Value Register */
 476:Generated_Source\PSoC6\pdl\cmsis/include/core_cm0plus.h ****   __IOM uint32_t VAL;                    /*!< Offset: 0x008 (R/W)  SysTick Current Value Register *
 477:Generated_Source\PSoC6\pdl\cmsis/include/core_cm0plus.h ****   __IM  uint32_t CALIB;                  /*!< Offset: 0x00C (R/ )  SysTick Calibration Register */
 478:Generated_Source\PSoC6\pdl\cmsis/include/core_cm0plus.h **** } SysTick_Type;
 479:Generated_Source\PSoC6\pdl\cmsis/include/core_cm0plus.h **** 
 480:Generated_Source\PSoC6\pdl\cmsis/include/core_cm0plus.h **** /* SysTick Control / Status Register Definitions */
 481:Generated_Source\PSoC6\pdl\cmsis/include/core_cm0plus.h **** #define SysTick_CTRL_COUNTFLAG_Pos         16U                                            /*!< SysT
 482:Generated_Source\PSoC6\pdl\cmsis/include/core_cm0plus.h **** #define SysTick_CTRL_COUNTFLAG_Msk         (1UL << SysTick_CTRL_COUNTFLAG_Pos)            /*!< SysT
 483:Generated_Source\PSoC6\pdl\cmsis/include/core_cm0plus.h **** 
 484:Generated_Source\PSoC6\pdl\cmsis/include/core_cm0plus.h **** #define SysTick_CTRL_CLKSOURCE_Pos          2U                                            /*!< SysT
 485:Generated_Source\PSoC6\pdl\cmsis/include/core_cm0plus.h **** #define SysTick_CTRL_CLKSOURCE_Msk         (1UL << SysTick_CTRL_CLKSOURCE_Pos)            /*!< SysT
 486:Generated_Source\PSoC6\pdl\cmsis/include/core_cm0plus.h **** 
 487:Generated_Source\PSoC6\pdl\cmsis/include/core_cm0plus.h **** #define SysTick_CTRL_TICKINT_Pos            1U                                            /*!< SysT
 488:Generated_Source\PSoC6\pdl\cmsis/include/core_cm0plus.h **** #define SysTick_CTRL_TICKINT_Msk           (1UL << SysTick_CTRL_TICKINT_Pos)              /*!< SysT
 489:Generated_Source\PSoC6\pdl\cmsis/include/core_cm0plus.h **** 
 490:Generated_Source\PSoC6\pdl\cmsis/include/core_cm0plus.h **** #define SysTick_CTRL_ENABLE_Pos             0U                                            /*!< SysT
 491:Generated_Source\PSoC6\pdl\cmsis/include/core_cm0plus.h **** #define SysTick_CTRL_ENABLE_Msk            (1UL /*<< SysTick_CTRL_ENABLE_Pos*/)           /*!< SysT
 492:Generated_Source\PSoC6\pdl\cmsis/include/core_cm0plus.h **** 
 493:Generated_Source\PSoC6\pdl\cmsis/include/core_cm0plus.h **** /* SysTick Reload Register Definitions */
 494:Generated_Source\PSoC6\pdl\cmsis/include/core_cm0plus.h **** #define SysTick_LOAD_RELOAD_Pos             0U                                            /*!< SysT
 495:Generated_Source\PSoC6\pdl\cmsis/include/core_cm0plus.h **** #define SysTick_LOAD_RELOAD_Msk            (0xFFFFFFUL /*<< SysTick_LOAD_RELOAD_Pos*/)    /*!< SysT
 496:Generated_Source\PSoC6\pdl\cmsis/include/core_cm0plus.h **** 
 497:Generated_Source\PSoC6\pdl\cmsis/include/core_cm0plus.h **** /* SysTick Current Register Definitions */
 498:Generated_Source\PSoC6\pdl\cmsis/include/core_cm0plus.h **** #define SysTick_VAL_CURRENT_Pos             0U                                            /*!< SysT
 499:Generated_Source\PSoC6\pdl\cmsis/include/core_cm0plus.h **** #define SysTick_VAL_CURRENT_Msk            (0xFFFFFFUL /*<< SysTick_VAL_CURRENT_Pos*/)    /*!< SysT
 500:Generated_Source\PSoC6\pdl\cmsis/include/core_cm0plus.h **** 
 501:Generated_Source\PSoC6\pdl\cmsis/include/core_cm0plus.h **** /* SysTick Calibration Register Definitions */
 502:Generated_Source\PSoC6\pdl\cmsis/include/core_cm0plus.h **** #define SysTick_CALIB_NOREF_Pos            31U                                            /*!< SysT
 503:Generated_Source\PSoC6\pdl\cmsis/include/core_cm0plus.h **** #define SysTick_CALIB_NOREF_Msk            (1UL << SysTick_CALIB_NOREF_Pos)               /*!< SysT
 504:Generated_Source\PSoC6\pdl\cmsis/include/core_cm0plus.h **** 
 505:Generated_Source\PSoC6\pdl\cmsis/include/core_cm0plus.h **** #define SysTick_CALIB_SKEW_Pos             30U                                            /*!< SysT
 506:Generated_Source\PSoC6\pdl\cmsis/include/core_cm0plus.h **** #define SysTick_CALIB_SKEW_Msk             (1UL << SysTick_CALIB_SKEW_Pos)                /*!< SysT
 507:Generated_Source\PSoC6\pdl\cmsis/include/core_cm0plus.h **** 
 508:Generated_Source\PSoC6\pdl\cmsis/include/core_cm0plus.h **** #define SysTick_CALIB_TENMS_Pos             0U                                            /*!< SysT
 509:Generated_Source\PSoC6\pdl\cmsis/include/core_cm0plus.h **** #define SysTick_CALIB_TENMS_Msk            (0xFFFFFFUL /*<< SysTick_CALIB_TENMS_Pos*/)    /*!< SysT
 510:Generated_Source\PSoC6\pdl\cmsis/include/core_cm0plus.h **** 
 511:Generated_Source\PSoC6\pdl\cmsis/include/core_cm0plus.h **** /*@} end of group CMSIS_SysTick */
 512:Generated_Source\PSoC6\pdl\cmsis/include/core_cm0plus.h **** 
ARM GAS  C:\Users\YOUSEF~1\AppData\Local\Temp\ccQanZ98.s 			page 26


 513:Generated_Source\PSoC6\pdl\cmsis/include/core_cm0plus.h **** #if defined (__MPU_PRESENT) && (__MPU_PRESENT == 1U)
 514:Generated_Source\PSoC6\pdl\cmsis/include/core_cm0plus.h **** /**
 515:Generated_Source\PSoC6\pdl\cmsis/include/core_cm0plus.h ****   \ingroup  CMSIS_core_register
 516:Generated_Source\PSoC6\pdl\cmsis/include/core_cm0plus.h ****   \defgroup CMSIS_MPU     Memory Protection Unit (MPU)
 517:Generated_Source\PSoC6\pdl\cmsis/include/core_cm0plus.h ****   \brief    Type definitions for the Memory Protection Unit (MPU)
 518:Generated_Source\PSoC6\pdl\cmsis/include/core_cm0plus.h ****   @{
 519:Generated_Source\PSoC6\pdl\cmsis/include/core_cm0plus.h ****  */
 520:Generated_Source\PSoC6\pdl\cmsis/include/core_cm0plus.h **** 
 521:Generated_Source\PSoC6\pdl\cmsis/include/core_cm0plus.h **** /**
 522:Generated_Source\PSoC6\pdl\cmsis/include/core_cm0plus.h ****   \brief  Structure type to access the Memory Protection Unit (MPU).
 523:Generated_Source\PSoC6\pdl\cmsis/include/core_cm0plus.h ****  */
 524:Generated_Source\PSoC6\pdl\cmsis/include/core_cm0plus.h **** typedef struct
 525:Generated_Source\PSoC6\pdl\cmsis/include/core_cm0plus.h **** {
 526:Generated_Source\PSoC6\pdl\cmsis/include/core_cm0plus.h ****   __IM  uint32_t TYPE;                   /*!< Offset: 0x000 (R/ )  MPU Type Register */
 527:Generated_Source\PSoC6\pdl\cmsis/include/core_cm0plus.h ****   __IOM uint32_t CTRL;                   /*!< Offset: 0x004 (R/W)  MPU Control Register */
 528:Generated_Source\PSoC6\pdl\cmsis/include/core_cm0plus.h ****   __IOM uint32_t RNR;                    /*!< Offset: 0x008 (R/W)  MPU Region RNRber Register */
 529:Generated_Source\PSoC6\pdl\cmsis/include/core_cm0plus.h ****   __IOM uint32_t RBAR;                   /*!< Offset: 0x00C (R/W)  MPU Region Base Address Register
 530:Generated_Source\PSoC6\pdl\cmsis/include/core_cm0plus.h ****   __IOM uint32_t RASR;                   /*!< Offset: 0x010 (R/W)  MPU Region Attribute and Size Re
 531:Generated_Source\PSoC6\pdl\cmsis/include/core_cm0plus.h **** } MPU_Type;
 532:Generated_Source\PSoC6\pdl\cmsis/include/core_cm0plus.h **** 
 533:Generated_Source\PSoC6\pdl\cmsis/include/core_cm0plus.h **** #define MPU_TYPE_RALIASES                  1U
 534:Generated_Source\PSoC6\pdl\cmsis/include/core_cm0plus.h **** 
 535:Generated_Source\PSoC6\pdl\cmsis/include/core_cm0plus.h **** /* MPU Type Register Definitions */
 536:Generated_Source\PSoC6\pdl\cmsis/include/core_cm0plus.h **** #define MPU_TYPE_IREGION_Pos               16U                                            /*!< MPU 
 537:Generated_Source\PSoC6\pdl\cmsis/include/core_cm0plus.h **** #define MPU_TYPE_IREGION_Msk               (0xFFUL << MPU_TYPE_IREGION_Pos)               /*!< MPU 
 538:Generated_Source\PSoC6\pdl\cmsis/include/core_cm0plus.h **** 
 539:Generated_Source\PSoC6\pdl\cmsis/include/core_cm0plus.h **** #define MPU_TYPE_DREGION_Pos                8U                                            /*!< MPU 
 540:Generated_Source\PSoC6\pdl\cmsis/include/core_cm0plus.h **** #define MPU_TYPE_DREGION_Msk               (0xFFUL << MPU_TYPE_DREGION_Pos)               /*!< MPU 
 541:Generated_Source\PSoC6\pdl\cmsis/include/core_cm0plus.h **** 
 542:Generated_Source\PSoC6\pdl\cmsis/include/core_cm0plus.h **** #define MPU_TYPE_SEPARATE_Pos               0U                                            /*!< MPU 
 543:Generated_Source\PSoC6\pdl\cmsis/include/core_cm0plus.h **** #define MPU_TYPE_SEPARATE_Msk              (1UL /*<< MPU_TYPE_SEPARATE_Pos*/)             /*!< MPU 
 544:Generated_Source\PSoC6\pdl\cmsis/include/core_cm0plus.h **** 
 545:Generated_Source\PSoC6\pdl\cmsis/include/core_cm0plus.h **** /* MPU Control Register Definitions */
 546:Generated_Source\PSoC6\pdl\cmsis/include/core_cm0plus.h **** #define MPU_CTRL_PRIVDEFENA_Pos             2U                                            /*!< MPU 
 547:Generated_Source\PSoC6\pdl\cmsis/include/core_cm0plus.h **** #define MPU_CTRL_PRIVDEFENA_Msk            (1UL << MPU_CTRL_PRIVDEFENA_Pos)               /*!< MPU 
 548:Generated_Source\PSoC6\pdl\cmsis/include/core_cm0plus.h **** 
 549:Generated_Source\PSoC6\pdl\cmsis/include/core_cm0plus.h **** #define MPU_CTRL_HFNMIENA_Pos               1U                                            /*!< MPU 
 550:Generated_Source\PSoC6\pdl\cmsis/include/core_cm0plus.h **** #define MPU_CTRL_HFNMIENA_Msk              (1UL << MPU_CTRL_HFNMIENA_Pos)                 /*!< MPU 
 551:Generated_Source\PSoC6\pdl\cmsis/include/core_cm0plus.h **** 
 552:Generated_Source\PSoC6\pdl\cmsis/include/core_cm0plus.h **** #define MPU_CTRL_ENABLE_Pos                 0U                                            /*!< MPU 
 553:Generated_Source\PSoC6\pdl\cmsis/include/core_cm0plus.h **** #define MPU_CTRL_ENABLE_Msk                (1UL /*<< MPU_CTRL_ENABLE_Pos*/)               /*!< MPU 
 554:Generated_Source\PSoC6\pdl\cmsis/include/core_cm0plus.h **** 
 555:Generated_Source\PSoC6\pdl\cmsis/include/core_cm0plus.h **** /* MPU Region Number Register Definitions */
 556:Generated_Source\PSoC6\pdl\cmsis/include/core_cm0plus.h **** #define MPU_RNR_REGION_Pos                  0U                                            /*!< MPU 
 557:Generated_Source\PSoC6\pdl\cmsis/include/core_cm0plus.h **** #define MPU_RNR_REGION_Msk                 (0xFFUL /*<< MPU_RNR_REGION_Pos*/)             /*!< MPU 
 558:Generated_Source\PSoC6\pdl\cmsis/include/core_cm0plus.h **** 
 559:Generated_Source\PSoC6\pdl\cmsis/include/core_cm0plus.h **** /* MPU Region Base Address Register Definitions */
 560:Generated_Source\PSoC6\pdl\cmsis/include/core_cm0plus.h **** #define MPU_RBAR_ADDR_Pos                   8U                                            /*!< MPU 
 561:Generated_Source\PSoC6\pdl\cmsis/include/core_cm0plus.h **** #define MPU_RBAR_ADDR_Msk                  (0xFFFFFFUL << MPU_RBAR_ADDR_Pos)              /*!< MPU 
 562:Generated_Source\PSoC6\pdl\cmsis/include/core_cm0plus.h **** 
 563:Generated_Source\PSoC6\pdl\cmsis/include/core_cm0plus.h **** #define MPU_RBAR_VALID_Pos                  4U                                            /*!< MPU 
 564:Generated_Source\PSoC6\pdl\cmsis/include/core_cm0plus.h **** #define MPU_RBAR_VALID_Msk                 (1UL << MPU_RBAR_VALID_Pos)                    /*!< MPU 
 565:Generated_Source\PSoC6\pdl\cmsis/include/core_cm0plus.h **** 
 566:Generated_Source\PSoC6\pdl\cmsis/include/core_cm0plus.h **** #define MPU_RBAR_REGION_Pos                 0U                                            /*!< MPU 
 567:Generated_Source\PSoC6\pdl\cmsis/include/core_cm0plus.h **** #define MPU_RBAR_REGION_Msk                (0xFUL /*<< MPU_RBAR_REGION_Pos*/)             /*!< MPU 
 568:Generated_Source\PSoC6\pdl\cmsis/include/core_cm0plus.h **** 
 569:Generated_Source\PSoC6\pdl\cmsis/include/core_cm0plus.h **** /* MPU Region Attribute and Size Register Definitions */
ARM GAS  C:\Users\YOUSEF~1\AppData\Local\Temp\ccQanZ98.s 			page 27


 570:Generated_Source\PSoC6\pdl\cmsis/include/core_cm0plus.h **** #define MPU_RASR_ATTRS_Pos                 16U                                            /*!< MPU 
 571:Generated_Source\PSoC6\pdl\cmsis/include/core_cm0plus.h **** #define MPU_RASR_ATTRS_Msk                 (0xFFFFUL << MPU_RASR_ATTRS_Pos)               /*!< MPU 
 572:Generated_Source\PSoC6\pdl\cmsis/include/core_cm0plus.h **** 
 573:Generated_Source\PSoC6\pdl\cmsis/include/core_cm0plus.h **** #define MPU_RASR_XN_Pos                    28U                                            /*!< MPU 
 574:Generated_Source\PSoC6\pdl\cmsis/include/core_cm0plus.h **** #define MPU_RASR_XN_Msk                    (1UL << MPU_RASR_XN_Pos)                       /*!< MPU 
 575:Generated_Source\PSoC6\pdl\cmsis/include/core_cm0plus.h **** 
 576:Generated_Source\PSoC6\pdl\cmsis/include/core_cm0plus.h **** #define MPU_RASR_AP_Pos                    24U                                            /*!< MPU 
 577:Generated_Source\PSoC6\pdl\cmsis/include/core_cm0plus.h **** #define MPU_RASR_AP_Msk                    (0x7UL << MPU_RASR_AP_Pos)                     /*!< MPU 
 578:Generated_Source\PSoC6\pdl\cmsis/include/core_cm0plus.h **** 
 579:Generated_Source\PSoC6\pdl\cmsis/include/core_cm0plus.h **** #define MPU_RASR_TEX_Pos                   19U                                            /*!< MPU 
 580:Generated_Source\PSoC6\pdl\cmsis/include/core_cm0plus.h **** #define MPU_RASR_TEX_Msk                   (0x7UL << MPU_RASR_TEX_Pos)                    /*!< MPU 
 581:Generated_Source\PSoC6\pdl\cmsis/include/core_cm0plus.h **** 
 582:Generated_Source\PSoC6\pdl\cmsis/include/core_cm0plus.h **** #define MPU_RASR_S_Pos                     18U                                            /*!< MPU 
 583:Generated_Source\PSoC6\pdl\cmsis/include/core_cm0plus.h **** #define MPU_RASR_S_Msk                     (1UL << MPU_RASR_S_Pos)                        /*!< MPU 
 584:Generated_Source\PSoC6\pdl\cmsis/include/core_cm0plus.h **** 
 585:Generated_Source\PSoC6\pdl\cmsis/include/core_cm0plus.h **** #define MPU_RASR_C_Pos                     17U                                            /*!< MPU 
 586:Generated_Source\PSoC6\pdl\cmsis/include/core_cm0plus.h **** #define MPU_RASR_C_Msk                     (1UL << MPU_RASR_C_Pos)                        /*!< MPU 
 587:Generated_Source\PSoC6\pdl\cmsis/include/core_cm0plus.h **** 
 588:Generated_Source\PSoC6\pdl\cmsis/include/core_cm0plus.h **** #define MPU_RASR_B_Pos                     16U                                            /*!< MPU 
 589:Generated_Source\PSoC6\pdl\cmsis/include/core_cm0plus.h **** #define MPU_RASR_B_Msk                     (1UL << MPU_RASR_B_Pos)                        /*!< MPU 
 590:Generated_Source\PSoC6\pdl\cmsis/include/core_cm0plus.h **** 
 591:Generated_Source\PSoC6\pdl\cmsis/include/core_cm0plus.h **** #define MPU_RASR_SRD_Pos                    8U                                            /*!< MPU 
 592:Generated_Source\PSoC6\pdl\cmsis/include/core_cm0plus.h **** #define MPU_RASR_SRD_Msk                   (0xFFUL << MPU_RASR_SRD_Pos)                   /*!< MPU 
 593:Generated_Source\PSoC6\pdl\cmsis/include/core_cm0plus.h **** 
 594:Generated_Source\PSoC6\pdl\cmsis/include/core_cm0plus.h **** #define MPU_RASR_SIZE_Pos                   1U                                            /*!< MPU 
 595:Generated_Source\PSoC6\pdl\cmsis/include/core_cm0plus.h **** #define MPU_RASR_SIZE_Msk                  (0x1FUL << MPU_RASR_SIZE_Pos)                  /*!< MPU 
 596:Generated_Source\PSoC6\pdl\cmsis/include/core_cm0plus.h **** 
 597:Generated_Source\PSoC6\pdl\cmsis/include/core_cm0plus.h **** #define MPU_RASR_ENABLE_Pos                 0U                                            /*!< MPU 
 598:Generated_Source\PSoC6\pdl\cmsis/include/core_cm0plus.h **** #define MPU_RASR_ENABLE_Msk                (1UL /*<< MPU_RASR_ENABLE_Pos*/)               /*!< MPU 
 599:Generated_Source\PSoC6\pdl\cmsis/include/core_cm0plus.h **** 
 600:Generated_Source\PSoC6\pdl\cmsis/include/core_cm0plus.h **** /*@} end of group CMSIS_MPU */
 601:Generated_Source\PSoC6\pdl\cmsis/include/core_cm0plus.h **** #endif
 602:Generated_Source\PSoC6\pdl\cmsis/include/core_cm0plus.h **** 
 603:Generated_Source\PSoC6\pdl\cmsis/include/core_cm0plus.h **** 
 604:Generated_Source\PSoC6\pdl\cmsis/include/core_cm0plus.h **** /**
 605:Generated_Source\PSoC6\pdl\cmsis/include/core_cm0plus.h ****   \ingroup  CMSIS_core_register
 606:Generated_Source\PSoC6\pdl\cmsis/include/core_cm0plus.h ****   \defgroup CMSIS_CoreDebug       Core Debug Registers (CoreDebug)
 607:Generated_Source\PSoC6\pdl\cmsis/include/core_cm0plus.h ****   \brief    Cortex-M0+ Core Debug Registers (DCB registers, SHCSR, and DFSR) are only accessible ov
 608:Generated_Source\PSoC6\pdl\cmsis/include/core_cm0plus.h ****             Therefore they are not covered by the Cortex-M0+ header file.
 609:Generated_Source\PSoC6\pdl\cmsis/include/core_cm0plus.h ****   @{
 610:Generated_Source\PSoC6\pdl\cmsis/include/core_cm0plus.h ****  */
 611:Generated_Source\PSoC6\pdl\cmsis/include/core_cm0plus.h **** /*@} end of group CMSIS_CoreDebug */
 612:Generated_Source\PSoC6\pdl\cmsis/include/core_cm0plus.h **** 
 613:Generated_Source\PSoC6\pdl\cmsis/include/core_cm0plus.h **** 
 614:Generated_Source\PSoC6\pdl\cmsis/include/core_cm0plus.h **** /**
 615:Generated_Source\PSoC6\pdl\cmsis/include/core_cm0plus.h ****   \ingroup    CMSIS_core_register
 616:Generated_Source\PSoC6\pdl\cmsis/include/core_cm0plus.h ****   \defgroup   CMSIS_core_bitfield     Core register bit field macros
 617:Generated_Source\PSoC6\pdl\cmsis/include/core_cm0plus.h ****   \brief      Macros for use with bit field definitions (xxx_Pos, xxx_Msk).
 618:Generated_Source\PSoC6\pdl\cmsis/include/core_cm0plus.h ****   @{
 619:Generated_Source\PSoC6\pdl\cmsis/include/core_cm0plus.h ****  */
 620:Generated_Source\PSoC6\pdl\cmsis/include/core_cm0plus.h **** 
 621:Generated_Source\PSoC6\pdl\cmsis/include/core_cm0plus.h **** /**
 622:Generated_Source\PSoC6\pdl\cmsis/include/core_cm0plus.h ****   \brief   Mask and shift a bit field value for use in a register bit range.
 623:Generated_Source\PSoC6\pdl\cmsis/include/core_cm0plus.h ****   \param[in] field  Name of the register bit field.
 624:Generated_Source\PSoC6\pdl\cmsis/include/core_cm0plus.h ****   \param[in] value  Value of the bit field. This parameter is interpreted as an uint32_t type.
 625:Generated_Source\PSoC6\pdl\cmsis/include/core_cm0plus.h ****   \return           Masked and shifted value.
 626:Generated_Source\PSoC6\pdl\cmsis/include/core_cm0plus.h **** */
ARM GAS  C:\Users\YOUSEF~1\AppData\Local\Temp\ccQanZ98.s 			page 28


 627:Generated_Source\PSoC6\pdl\cmsis/include/core_cm0plus.h **** #define _VAL2FLD(field, value)    (((uint32_t)(value) << field ## _Pos) & field ## _Msk)
 628:Generated_Source\PSoC6\pdl\cmsis/include/core_cm0plus.h **** 
 629:Generated_Source\PSoC6\pdl\cmsis/include/core_cm0plus.h **** /**
 630:Generated_Source\PSoC6\pdl\cmsis/include/core_cm0plus.h ****   \brief     Mask and shift a register value to extract a bit filed value.
 631:Generated_Source\PSoC6\pdl\cmsis/include/core_cm0plus.h ****   \param[in] field  Name of the register bit field.
 632:Generated_Source\PSoC6\pdl\cmsis/include/core_cm0plus.h ****   \param[in] value  Value of register. This parameter is interpreted as an uint32_t type.
 633:Generated_Source\PSoC6\pdl\cmsis/include/core_cm0plus.h ****   \return           Masked and shifted bit field value.
 634:Generated_Source\PSoC6\pdl\cmsis/include/core_cm0plus.h **** */
 635:Generated_Source\PSoC6\pdl\cmsis/include/core_cm0plus.h **** #define _FLD2VAL(field, value)    (((uint32_t)(value) & field ## _Msk) >> field ## _Pos)
 636:Generated_Source\PSoC6\pdl\cmsis/include/core_cm0plus.h **** 
 637:Generated_Source\PSoC6\pdl\cmsis/include/core_cm0plus.h **** /*@} end of group CMSIS_core_bitfield */
 638:Generated_Source\PSoC6\pdl\cmsis/include/core_cm0plus.h **** 
 639:Generated_Source\PSoC6\pdl\cmsis/include/core_cm0plus.h **** 
 640:Generated_Source\PSoC6\pdl\cmsis/include/core_cm0plus.h **** /**
 641:Generated_Source\PSoC6\pdl\cmsis/include/core_cm0plus.h ****   \ingroup    CMSIS_core_register
 642:Generated_Source\PSoC6\pdl\cmsis/include/core_cm0plus.h ****   \defgroup   CMSIS_core_base     Core Definitions
 643:Generated_Source\PSoC6\pdl\cmsis/include/core_cm0plus.h ****   \brief      Definitions for base addresses, unions, and structures.
 644:Generated_Source\PSoC6\pdl\cmsis/include/core_cm0plus.h ****   @{
 645:Generated_Source\PSoC6\pdl\cmsis/include/core_cm0plus.h ****  */
 646:Generated_Source\PSoC6\pdl\cmsis/include/core_cm0plus.h **** 
 647:Generated_Source\PSoC6\pdl\cmsis/include/core_cm0plus.h **** /* Memory mapping of Core Hardware */
 648:Generated_Source\PSoC6\pdl\cmsis/include/core_cm0plus.h **** #define SCS_BASE            (0xE000E000UL)                            /*!< System Control Space Bas
 649:Generated_Source\PSoC6\pdl\cmsis/include/core_cm0plus.h **** #define SysTick_BASE        (SCS_BASE +  0x0010UL)                    /*!< SysTick Base Address */
 650:Generated_Source\PSoC6\pdl\cmsis/include/core_cm0plus.h **** #define NVIC_BASE           (SCS_BASE +  0x0100UL)                    /*!< NVIC Base Address */
 651:Generated_Source\PSoC6\pdl\cmsis/include/core_cm0plus.h **** #define SCB_BASE            (SCS_BASE +  0x0D00UL)                    /*!< System Control Block Bas
 652:Generated_Source\PSoC6\pdl\cmsis/include/core_cm0plus.h **** 
 653:Generated_Source\PSoC6\pdl\cmsis/include/core_cm0plus.h **** #define SCB                 ((SCB_Type       *)     SCB_BASE      )   /*!< SCB configuration struct
 654:Generated_Source\PSoC6\pdl\cmsis/include/core_cm0plus.h **** #define SysTick             ((SysTick_Type   *)     SysTick_BASE  )   /*!< SysTick configuration st
 655:Generated_Source\PSoC6\pdl\cmsis/include/core_cm0plus.h **** #define NVIC                ((NVIC_Type      *)     NVIC_BASE     )   /*!< NVIC configuration struc
 656:Generated_Source\PSoC6\pdl\cmsis/include/core_cm0plus.h **** 
 657:Generated_Source\PSoC6\pdl\cmsis/include/core_cm0plus.h **** #if defined (__MPU_PRESENT) && (__MPU_PRESENT == 1U)
 658:Generated_Source\PSoC6\pdl\cmsis/include/core_cm0plus.h ****   #define MPU_BASE          (SCS_BASE +  0x0D90UL)                    /*!< Memory Protection Unit *
 659:Generated_Source\PSoC6\pdl\cmsis/include/core_cm0plus.h ****   #define MPU               ((MPU_Type       *)     MPU_BASE      )   /*!< Memory Protection Unit *
 660:Generated_Source\PSoC6\pdl\cmsis/include/core_cm0plus.h **** #endif
 661:Generated_Source\PSoC6\pdl\cmsis/include/core_cm0plus.h **** 
 662:Generated_Source\PSoC6\pdl\cmsis/include/core_cm0plus.h **** /*@} */
 663:Generated_Source\PSoC6\pdl\cmsis/include/core_cm0plus.h **** 
 664:Generated_Source\PSoC6\pdl\cmsis/include/core_cm0plus.h **** 
 665:Generated_Source\PSoC6\pdl\cmsis/include/core_cm0plus.h **** 
 666:Generated_Source\PSoC6\pdl\cmsis/include/core_cm0plus.h **** /*******************************************************************************
 667:Generated_Source\PSoC6\pdl\cmsis/include/core_cm0plus.h ****  *                Hardware Abstraction Layer
 668:Generated_Source\PSoC6\pdl\cmsis/include/core_cm0plus.h ****   Core Function Interface contains:
 669:Generated_Source\PSoC6\pdl\cmsis/include/core_cm0plus.h ****   - Core NVIC Functions
 670:Generated_Source\PSoC6\pdl\cmsis/include/core_cm0plus.h ****   - Core SysTick Functions
 671:Generated_Source\PSoC6\pdl\cmsis/include/core_cm0plus.h ****   - Core Register Access Functions
 672:Generated_Source\PSoC6\pdl\cmsis/include/core_cm0plus.h ****  ******************************************************************************/
 673:Generated_Source\PSoC6\pdl\cmsis/include/core_cm0plus.h **** /**
 674:Generated_Source\PSoC6\pdl\cmsis/include/core_cm0plus.h ****   \defgroup CMSIS_Core_FunctionInterface Functions and Instructions Reference
 675:Generated_Source\PSoC6\pdl\cmsis/include/core_cm0plus.h **** */
 676:Generated_Source\PSoC6\pdl\cmsis/include/core_cm0plus.h **** 
 677:Generated_Source\PSoC6\pdl\cmsis/include/core_cm0plus.h **** 
 678:Generated_Source\PSoC6\pdl\cmsis/include/core_cm0plus.h **** 
 679:Generated_Source\PSoC6\pdl\cmsis/include/core_cm0plus.h **** /* ##########################   NVIC functions  #################################### */
 680:Generated_Source\PSoC6\pdl\cmsis/include/core_cm0plus.h **** /**
 681:Generated_Source\PSoC6\pdl\cmsis/include/core_cm0plus.h ****   \ingroup  CMSIS_Core_FunctionInterface
 682:Generated_Source\PSoC6\pdl\cmsis/include/core_cm0plus.h ****   \defgroup CMSIS_Core_NVICFunctions NVIC Functions
 683:Generated_Source\PSoC6\pdl\cmsis/include/core_cm0plus.h ****   \brief    Functions that manage interrupts and exceptions via the NVIC.
ARM GAS  C:\Users\YOUSEF~1\AppData\Local\Temp\ccQanZ98.s 			page 29


 684:Generated_Source\PSoC6\pdl\cmsis/include/core_cm0plus.h ****   @{
 685:Generated_Source\PSoC6\pdl\cmsis/include/core_cm0plus.h ****  */
 686:Generated_Source\PSoC6\pdl\cmsis/include/core_cm0plus.h **** 
 687:Generated_Source\PSoC6\pdl\cmsis/include/core_cm0plus.h **** #ifdef CMSIS_NVIC_VIRTUAL
 688:Generated_Source\PSoC6\pdl\cmsis/include/core_cm0plus.h ****   #ifndef CMSIS_NVIC_VIRTUAL_HEADER_FILE
 689:Generated_Source\PSoC6\pdl\cmsis/include/core_cm0plus.h ****     #define CMSIS_NVIC_VIRTUAL_HEADER_FILE "cmsis_nvic_virtual.h"
 690:Generated_Source\PSoC6\pdl\cmsis/include/core_cm0plus.h ****   #endif
 691:Generated_Source\PSoC6\pdl\cmsis/include/core_cm0plus.h ****   #include CMSIS_NVIC_VIRTUAL_HEADER_FILE
 692:Generated_Source\PSoC6\pdl\cmsis/include/core_cm0plus.h **** #else
 693:Generated_Source\PSoC6\pdl\cmsis/include/core_cm0plus.h **** /*#define NVIC_SetPriorityGrouping    __NVIC_SetPriorityGrouping   not available for Cortex-M0+ */
 694:Generated_Source\PSoC6\pdl\cmsis/include/core_cm0plus.h **** /*#define NVIC_GetPriorityGrouping    __NVIC_GetPriorityGrouping   not available for Cortex-M0+ */
 695:Generated_Source\PSoC6\pdl\cmsis/include/core_cm0plus.h ****   #define NVIC_EnableIRQ              __NVIC_EnableIRQ
 696:Generated_Source\PSoC6\pdl\cmsis/include/core_cm0plus.h ****   #define NVIC_GetEnableIRQ           __NVIC_GetEnableIRQ
 697:Generated_Source\PSoC6\pdl\cmsis/include/core_cm0plus.h ****   #define NVIC_DisableIRQ             __NVIC_DisableIRQ
 698:Generated_Source\PSoC6\pdl\cmsis/include/core_cm0plus.h ****   #define NVIC_GetPendingIRQ          __NVIC_GetPendingIRQ
 699:Generated_Source\PSoC6\pdl\cmsis/include/core_cm0plus.h ****   #define NVIC_SetPendingIRQ          __NVIC_SetPendingIRQ
 700:Generated_Source\PSoC6\pdl\cmsis/include/core_cm0plus.h ****   #define NVIC_ClearPendingIRQ        __NVIC_ClearPendingIRQ
 701:Generated_Source\PSoC6\pdl\cmsis/include/core_cm0plus.h **** /*#define NVIC_GetActive              __NVIC_GetActive             not available for Cortex-M0+ */
 702:Generated_Source\PSoC6\pdl\cmsis/include/core_cm0plus.h ****   #define NVIC_SetPriority            __NVIC_SetPriority
 703:Generated_Source\PSoC6\pdl\cmsis/include/core_cm0plus.h ****   #define NVIC_GetPriority            __NVIC_GetPriority
 704:Generated_Source\PSoC6\pdl\cmsis/include/core_cm0plus.h ****   #define NVIC_SystemReset            __NVIC_SystemReset
 705:Generated_Source\PSoC6\pdl\cmsis/include/core_cm0plus.h **** #endif /* CMSIS_NVIC_VIRTUAL */
 706:Generated_Source\PSoC6\pdl\cmsis/include/core_cm0plus.h **** 
 707:Generated_Source\PSoC6\pdl\cmsis/include/core_cm0plus.h **** #ifdef CMSIS_VECTAB_VIRTUAL
 708:Generated_Source\PSoC6\pdl\cmsis/include/core_cm0plus.h ****   #ifndef CMSIS_VECTAB_VIRTUAL_HEADER_FILE
 709:Generated_Source\PSoC6\pdl\cmsis/include/core_cm0plus.h ****     #define CMSIS_VECTAB_VIRTUAL_HEADER_FILE "cmsis_vectab_virtual.h"
 710:Generated_Source\PSoC6\pdl\cmsis/include/core_cm0plus.h ****   #endif
 711:Generated_Source\PSoC6\pdl\cmsis/include/core_cm0plus.h ****   #include CMSIS_VECTAB_VIRTUAL_HEADER_FILE
 712:Generated_Source\PSoC6\pdl\cmsis/include/core_cm0plus.h **** #else
 713:Generated_Source\PSoC6\pdl\cmsis/include/core_cm0plus.h ****   #define NVIC_SetVector              __NVIC_SetVector
 714:Generated_Source\PSoC6\pdl\cmsis/include/core_cm0plus.h ****   #define NVIC_GetVector              __NVIC_GetVector
 715:Generated_Source\PSoC6\pdl\cmsis/include/core_cm0plus.h **** #endif  /* (CMSIS_VECTAB_VIRTUAL) */
 716:Generated_Source\PSoC6\pdl\cmsis/include/core_cm0plus.h **** 
 717:Generated_Source\PSoC6\pdl\cmsis/include/core_cm0plus.h **** #define NVIC_USER_IRQ_OFFSET          16
 718:Generated_Source\PSoC6\pdl\cmsis/include/core_cm0plus.h **** 
 719:Generated_Source\PSoC6\pdl\cmsis/include/core_cm0plus.h **** 
 720:Generated_Source\PSoC6\pdl\cmsis/include/core_cm0plus.h **** /* Interrupt Priorities are WORD accessible only under Armv6-M                  */
 721:Generated_Source\PSoC6\pdl\cmsis/include/core_cm0plus.h **** /* The following MACROS handle generation of the register offset and byte masks */
 722:Generated_Source\PSoC6\pdl\cmsis/include/core_cm0plus.h **** #define _BIT_SHIFT(IRQn)         (  ((((uint32_t)(int32_t)(IRQn))         )      &  0x03UL) * 8UL)
 723:Generated_Source\PSoC6\pdl\cmsis/include/core_cm0plus.h **** #define _SHP_IDX(IRQn)           ( (((((uint32_t)(int32_t)(IRQn)) & 0x0FUL)-8UL) >>    2UL)      )
 724:Generated_Source\PSoC6\pdl\cmsis/include/core_cm0plus.h **** #define _IP_IDX(IRQn)            (   (((uint32_t)(int32_t)(IRQn))                >>    2UL)      )
 725:Generated_Source\PSoC6\pdl\cmsis/include/core_cm0plus.h **** 
 726:Generated_Source\PSoC6\pdl\cmsis/include/core_cm0plus.h **** 
 727:Generated_Source\PSoC6\pdl\cmsis/include/core_cm0plus.h **** /**
 728:Generated_Source\PSoC6\pdl\cmsis/include/core_cm0plus.h ****   \brief   Enable Interrupt
 729:Generated_Source\PSoC6\pdl\cmsis/include/core_cm0plus.h ****   \details Enables a device specific interrupt in the NVIC interrupt controller.
 730:Generated_Source\PSoC6\pdl\cmsis/include/core_cm0plus.h ****   \param [in]      IRQn  Device specific interrupt number.
 731:Generated_Source\PSoC6\pdl\cmsis/include/core_cm0plus.h ****   \note    IRQn must not be negative.
 732:Generated_Source\PSoC6\pdl\cmsis/include/core_cm0plus.h ****  */
 733:Generated_Source\PSoC6\pdl\cmsis/include/core_cm0plus.h **** __STATIC_INLINE void __NVIC_EnableIRQ(IRQn_Type IRQn)
 734:Generated_Source\PSoC6\pdl\cmsis/include/core_cm0plus.h **** {
 735:Generated_Source\PSoC6\pdl\cmsis/include/core_cm0plus.h ****   if ((int32_t)(IRQn) >= 0)
  97              		.loc 3 735 0
  98 0028 002A     		cmp	r2, #0
  99 002a 05DB     		blt	.L6
 736:Generated_Source\PSoC6\pdl\cmsis/include/core_cm0plus.h ****   {
 737:Generated_Source\PSoC6\pdl\cmsis/include/core_cm0plus.h ****     NVIC->ISER[0U] = (uint32_t)(1UL << (((uint32_t)IRQn) & 0x1FUL));
ARM GAS  C:\Users\YOUSEF~1\AppData\Local\Temp\ccQanZ98.s 			page 30


 100              		.loc 3 737 0
 101 002c 1F23     		movs	r3, #31
 102 002e 1A40     		ands	r2, r3
 103              	.LVL4:
 104 0030 1E3B     		subs	r3, r3, #30
 105 0032 9340     		lsls	r3, r3, r2
 106 0034 0A4A     		ldr	r2, .L7+24
 107 0036 1360     		str	r3, [r2]
 108              	.L6:
 109              	.LVL5:
 110              	.LBE7:
 111              	.LBE6:
 112              	.LBB8:
 113              	.LBB9:
 114              		.file 4 "Generated_Source\\PSoC6\\pdl\\drivers/peripheral/scb/cy_scb_uart.h"
   1:Generated_Source\PSoC6\pdl\drivers/peripheral/scb/cy_scb_uart.h **** /***************************************************************************//**
   2:Generated_Source\PSoC6\pdl\drivers/peripheral/scb/cy_scb_uart.h **** * \file cy_scb_uart.h
   3:Generated_Source\PSoC6\pdl\drivers/peripheral/scb/cy_scb_uart.h **** * \version 2.20
   4:Generated_Source\PSoC6\pdl\drivers/peripheral/scb/cy_scb_uart.h **** *
   5:Generated_Source\PSoC6\pdl\drivers/peripheral/scb/cy_scb_uart.h **** * Provides UART API declarations of the SCB driver.
   6:Generated_Source\PSoC6\pdl\drivers/peripheral/scb/cy_scb_uart.h **** *
   7:Generated_Source\PSoC6\pdl\drivers/peripheral/scb/cy_scb_uart.h **** ********************************************************************************
   8:Generated_Source\PSoC6\pdl\drivers/peripheral/scb/cy_scb_uart.h **** * \copyright
   9:Generated_Source\PSoC6\pdl\drivers/peripheral/scb/cy_scb_uart.h **** * Copyright 2016-2018, Cypress Semiconductor Corporation.  All rights reserved.
  10:Generated_Source\PSoC6\pdl\drivers/peripheral/scb/cy_scb_uart.h **** * You may use this file only in accordance with the license, terms, conditions,
  11:Generated_Source\PSoC6\pdl\drivers/peripheral/scb/cy_scb_uart.h **** * disclaimers, and limitations in the end user license agreement accompanying
  12:Generated_Source\PSoC6\pdl\drivers/peripheral/scb/cy_scb_uart.h **** * the software package with which this file was provided.
  13:Generated_Source\PSoC6\pdl\drivers/peripheral/scb/cy_scb_uart.h **** *******************************************************************************/
  14:Generated_Source\PSoC6\pdl\drivers/peripheral/scb/cy_scb_uart.h **** 
  15:Generated_Source\PSoC6\pdl\drivers/peripheral/scb/cy_scb_uart.h **** /**
  16:Generated_Source\PSoC6\pdl\drivers/peripheral/scb/cy_scb_uart.h **** * \addtogroup group_scb_uart
  17:Generated_Source\PSoC6\pdl\drivers/peripheral/scb/cy_scb_uart.h **** * \{
  18:Generated_Source\PSoC6\pdl\drivers/peripheral/scb/cy_scb_uart.h **** * Driver API for UART
  19:Generated_Source\PSoC6\pdl\drivers/peripheral/scb/cy_scb_uart.h **** *
  20:Generated_Source\PSoC6\pdl\drivers/peripheral/scb/cy_scb_uart.h **** * The functions and other declarations used in this part of the driver are in 
  21:Generated_Source\PSoC6\pdl\drivers/peripheral/scb/cy_scb_uart.h **** * cy_scb_uart.h. You can also include cy_pdl.h (ModusToolbox only) to get access 
  22:Generated_Source\PSoC6\pdl\drivers/peripheral/scb/cy_scb_uart.h **** * to all functions and declarations in the PDL.
  23:Generated_Source\PSoC6\pdl\drivers/peripheral/scb/cy_scb_uart.h **** *
  24:Generated_Source\PSoC6\pdl\drivers/peripheral/scb/cy_scb_uart.h **** * The Universal Asynchronous Receiver/Transmitter (UART) protocol is an 
  25:Generated_Source\PSoC6\pdl\drivers/peripheral/scb/cy_scb_uart.h **** * asynchronous serial interface protocol. UART communication is typically 
  26:Generated_Source\PSoC6\pdl\drivers/peripheral/scb/cy_scb_uart.h **** * point-to-point. The UART interface consists of two signals:
  27:Generated_Source\PSoC6\pdl\drivers/peripheral/scb/cy_scb_uart.h **** * * TX: Transmitter output
  28:Generated_Source\PSoC6\pdl\drivers/peripheral/scb/cy_scb_uart.h **** * * RX: Receiver input
  29:Generated_Source\PSoC6\pdl\drivers/peripheral/scb/cy_scb_uart.h **** *
  30:Generated_Source\PSoC6\pdl\drivers/peripheral/scb/cy_scb_uart.h **** * Additionally, two side-band signals are used to implement flow control in 
  31:Generated_Source\PSoC6\pdl\drivers/peripheral/scb/cy_scb_uart.h **** * UART. Note that the flow control applies only to TX functionality.
  32:Generated_Source\PSoC6\pdl\drivers/peripheral/scb/cy_scb_uart.h **** * * Clear to Send (CTS): This is an input signal to the transmitter. 
  33:Generated_Source\PSoC6\pdl\drivers/peripheral/scb/cy_scb_uart.h **** *   When active, it indicates that the slave is ready for the master to 
  34:Generated_Source\PSoC6\pdl\drivers/peripheral/scb/cy_scb_uart.h **** *   transmit data.
  35:Generated_Source\PSoC6\pdl\drivers/peripheral/scb/cy_scb_uart.h **** * * Ready to Send (RTS): This is an output signal from the receiver. When 
  36:Generated_Source\PSoC6\pdl\drivers/peripheral/scb/cy_scb_uart.h **** *   active, it indicates that the receiver is ready to receive data
  37:Generated_Source\PSoC6\pdl\drivers/peripheral/scb/cy_scb_uart.h **** *
  38:Generated_Source\PSoC6\pdl\drivers/peripheral/scb/cy_scb_uart.h **** * Features:
  39:Generated_Source\PSoC6\pdl\drivers/peripheral/scb/cy_scb_uart.h **** * * Supports UART protocol
  40:Generated_Source\PSoC6\pdl\drivers/peripheral/scb/cy_scb_uart.h **** *   * Standard UART
  41:Generated_Source\PSoC6\pdl\drivers/peripheral/scb/cy_scb_uart.h **** *   * Multi-processor mode
  42:Generated_Source\PSoC6\pdl\drivers/peripheral/scb/cy_scb_uart.h **** * * SmartCard (ISO7816) reader
ARM GAS  C:\Users\YOUSEF~1\AppData\Local\Temp\ccQanZ98.s 			page 31


  43:Generated_Source\PSoC6\pdl\drivers/peripheral/scb/cy_scb_uart.h **** * * IrDA
  44:Generated_Source\PSoC6\pdl\drivers/peripheral/scb/cy_scb_uart.h **** * * Data frame size programmable from 4 to 16 bits
  45:Generated_Source\PSoC6\pdl\drivers/peripheral/scb/cy_scb_uart.h **** * * Programmable number of STOP bits, which can be set in terms of half bit 
  46:Generated_Source\PSoC6\pdl\drivers/peripheral/scb/cy_scb_uart.h **** *   periods between 1 and 4
  47:Generated_Source\PSoC6\pdl\drivers/peripheral/scb/cy_scb_uart.h **** * * Parity support (odd and even parity)
  48:Generated_Source\PSoC6\pdl\drivers/peripheral/scb/cy_scb_uart.h **** * * Median filter on Rx input
  49:Generated_Source\PSoC6\pdl\drivers/peripheral/scb/cy_scb_uart.h **** * * Programmable oversampling
  50:Generated_Source\PSoC6\pdl\drivers/peripheral/scb/cy_scb_uart.h **** * * Start skipping
  51:Generated_Source\PSoC6\pdl\drivers/peripheral/scb/cy_scb_uart.h **** *
  52:Generated_Source\PSoC6\pdl\drivers/peripheral/scb/cy_scb_uart.h **** ********************************************************************************
  53:Generated_Source\PSoC6\pdl\drivers/peripheral/scb/cy_scb_uart.h **** * \section group_scb_uart_configuration Configuration Considerations
  54:Generated_Source\PSoC6\pdl\drivers/peripheral/scb/cy_scb_uart.h **** ********************************************************************************
  55:Generated_Source\PSoC6\pdl\drivers/peripheral/scb/cy_scb_uart.h **** * The UART driver configuration can be divided to number of sequential
  56:Generated_Source\PSoC6\pdl\drivers/peripheral/scb/cy_scb_uart.h **** * steps listed below:
  57:Generated_Source\PSoC6\pdl\drivers/peripheral/scb/cy_scb_uart.h **** * * \ref group_scb_uart_config
  58:Generated_Source\PSoC6\pdl\drivers/peripheral/scb/cy_scb_uart.h **** * * \ref group_scb_uart_pins
  59:Generated_Source\PSoC6\pdl\drivers/peripheral/scb/cy_scb_uart.h **** * * \ref group_scb_uart_clock
  60:Generated_Source\PSoC6\pdl\drivers/peripheral/scb/cy_scb_uart.h **** * * \ref group_scb_uart_data_rate
  61:Generated_Source\PSoC6\pdl\drivers/peripheral/scb/cy_scb_uart.h **** * * \ref group_scb_uart_intr
  62:Generated_Source\PSoC6\pdl\drivers/peripheral/scb/cy_scb_uart.h **** * * \ref group_scb_uart_enable
  63:Generated_Source\PSoC6\pdl\drivers/peripheral/scb/cy_scb_uart.h **** *
  64:Generated_Source\PSoC6\pdl\drivers/peripheral/scb/cy_scb_uart.h **** * \note
  65:Generated_Source\PSoC6\pdl\drivers/peripheral/scb/cy_scb_uart.h **** * UART driver is built on top of the SCB hardware block. The SCB5 instance is
  66:Generated_Source\PSoC6\pdl\drivers/peripheral/scb/cy_scb_uart.h **** * used as an example for all code snippets. Modify the code to match your
  67:Generated_Source\PSoC6\pdl\drivers/peripheral/scb/cy_scb_uart.h **** * design.
  68:Generated_Source\PSoC6\pdl\drivers/peripheral/scb/cy_scb_uart.h **** *
  69:Generated_Source\PSoC6\pdl\drivers/peripheral/scb/cy_scb_uart.h **** ********************************************************************************
  70:Generated_Source\PSoC6\pdl\drivers/peripheral/scb/cy_scb_uart.h **** * \subsection group_scb_uart_config Configure UART
  71:Generated_Source\PSoC6\pdl\drivers/peripheral/scb/cy_scb_uart.h **** ********************************************************************************
  72:Generated_Source\PSoC6\pdl\drivers/peripheral/scb/cy_scb_uart.h **** * To set up the UART driver, provide the configuration parameters in the
  73:Generated_Source\PSoC6\pdl\drivers/peripheral/scb/cy_scb_uart.h **** * \ref cy_stc_scb_uart_config_t structure. For example: provide uartMode,
  74:Generated_Source\PSoC6\pdl\drivers/peripheral/scb/cy_scb_uart.h **** * oversample, dataWidth, enableMsbFirst, parity, and stopBits. The other
  75:Generated_Source\PSoC6\pdl\drivers/peripheral/scb/cy_scb_uart.h **** * parameters are optional. To initialize the driver, call \ref Cy_SCB_UART_Init 
  76:Generated_Source\PSoC6\pdl\drivers/peripheral/scb/cy_scb_uart.h **** * function providing a pointer to the populated \ref cy_stc_scb_uart_config_t 
  77:Generated_Source\PSoC6\pdl\drivers/peripheral/scb/cy_scb_uart.h **** * structure and the allocated \ref cy_stc_scb_uart_context_t structure.
  78:Generated_Source\PSoC6\pdl\drivers/peripheral/scb/cy_scb_uart.h **** *
  79:Generated_Source\PSoC6\pdl\drivers/peripheral/scb/cy_scb_uart.h **** * \snippet SCB_CompDatasheet_sut_01_revA.cydsn\uart_snippets.c UART_CFG
  80:Generated_Source\PSoC6\pdl\drivers/peripheral/scb/cy_scb_uart.h **** *
  81:Generated_Source\PSoC6\pdl\drivers/peripheral/scb/cy_scb_uart.h **** ********************************************************************************
  82:Generated_Source\PSoC6\pdl\drivers/peripheral/scb/cy_scb_uart.h **** * \subsection group_scb_uart_pins Assign and Configure Pins
  83:Generated_Source\PSoC6\pdl\drivers/peripheral/scb/cy_scb_uart.h **** ********************************************************************************
  84:Generated_Source\PSoC6\pdl\drivers/peripheral/scb/cy_scb_uart.h **** * Only dedicated SCB pins can be used for UART operation. The HSIOM
  85:Generated_Source\PSoC6\pdl\drivers/peripheral/scb/cy_scb_uart.h **** * register must be configured to connect dedicated SCB UART pins to the 
  86:Generated_Source\PSoC6\pdl\drivers/peripheral/scb/cy_scb_uart.h **** * SCB block. Also, the UART output pins must be configured in Strong Drive 
  87:Generated_Source\PSoC6\pdl\drivers/peripheral/scb/cy_scb_uart.h **** * Input Off mode and UART input pins in Digital High-Z:
  88:Generated_Source\PSoC6\pdl\drivers/peripheral/scb/cy_scb_uart.h **** *
  89:Generated_Source\PSoC6\pdl\drivers/peripheral/scb/cy_scb_uart.h **** * \snippet SCB_CompDatasheet_sut_01_revA.cydsn\uart_snippets.c UART_CFG_PINS
  90:Generated_Source\PSoC6\pdl\drivers/peripheral/scb/cy_scb_uart.h **** *
  91:Generated_Source\PSoC6\pdl\drivers/peripheral/scb/cy_scb_uart.h **** ********************************************************************************
  92:Generated_Source\PSoC6\pdl\drivers/peripheral/scb/cy_scb_uart.h **** * \subsection group_scb_uart_clock Assign Clock Divider
  93:Generated_Source\PSoC6\pdl\drivers/peripheral/scb/cy_scb_uart.h **** ********************************************************************************
  94:Generated_Source\PSoC6\pdl\drivers/peripheral/scb/cy_scb_uart.h **** * A clock source must be connected to the SCB block to oversample input and
  95:Generated_Source\PSoC6\pdl\drivers/peripheral/scb/cy_scb_uart.h **** * output signals, in this document this clock will be referred as clk_scb.
  96:Generated_Source\PSoC6\pdl\drivers/peripheral/scb/cy_scb_uart.h **** * You must use one of available integer or fractional dividers. Use the 
  97:Generated_Source\PSoC6\pdl\drivers/peripheral/scb/cy_scb_uart.h **** * \ref group_sysclk driver API to do this.
  98:Generated_Source\PSoC6\pdl\drivers/peripheral/scb/cy_scb_uart.h **** *
  99:Generated_Source\PSoC6\pdl\drivers/peripheral/scb/cy_scb_uart.h **** * \snippet SCB_CompDatasheet_sut_01_revA.cydsn\uart_snippets.c UART_CFG_ASSIGN_CLOCK
ARM GAS  C:\Users\YOUSEF~1\AppData\Local\Temp\ccQanZ98.s 			page 32


 100:Generated_Source\PSoC6\pdl\drivers/peripheral/scb/cy_scb_uart.h **** *
 101:Generated_Source\PSoC6\pdl\drivers/peripheral/scb/cy_scb_uart.h **** ********************************************************************************
 102:Generated_Source\PSoC6\pdl\drivers/peripheral/scb/cy_scb_uart.h **** * \subsection group_scb_uart_data_rate Configure Baud Rate
 103:Generated_Source\PSoC6\pdl\drivers/peripheral/scb/cy_scb_uart.h **** ********************************************************************************
 104:Generated_Source\PSoC6\pdl\drivers/peripheral/scb/cy_scb_uart.h **** * To get the UART to operate with the desired baud rate, the clk_scb frequency
 105:Generated_Source\PSoC6\pdl\drivers/peripheral/scb/cy_scb_uart.h **** * and the oversample must be configured. Use the \ref group_sysclk driver API
 106:Generated_Source\PSoC6\pdl\drivers/peripheral/scb/cy_scb_uart.h **** * to configure clk_scb frequency. Set the <em><b>oversample parameter
 107:Generated_Source\PSoC6\pdl\drivers/peripheral/scb/cy_scb_uart.h **** * in configuration structure</b></em> to define the number of the SCB clocks
 108:Generated_Source\PSoC6\pdl\drivers/peripheral/scb/cy_scb_uart.h **** * within one UART bit-time.
 109:Generated_Source\PSoC6\pdl\drivers/peripheral/scb/cy_scb_uart.h **** *
 110:Generated_Source\PSoC6\pdl\drivers/peripheral/scb/cy_scb_uart.h **** * \snippet SCB_CompDatasheet_sut_01_revA.cydsn\uart_snippets.c UART_CFG_DATA_RATE
 111:Generated_Source\PSoC6\pdl\drivers/peripheral/scb/cy_scb_uart.h **** *
 112:Generated_Source\PSoC6\pdl\drivers/peripheral/scb/cy_scb_uart.h **** * <b>Refer to the technical reference manual (TRM) section UART sub-section
 113:Generated_Source\PSoC6\pdl\drivers/peripheral/scb/cy_scb_uart.h **** * Clocking and Oversampling to get information about how to configure the UART to run with
 114:Generated_Source\PSoC6\pdl\drivers/peripheral/scb/cy_scb_uart.h **** * desired baud rate.</b>
 115:Generated_Source\PSoC6\pdl\drivers/peripheral/scb/cy_scb_uart.h **** *
 116:Generated_Source\PSoC6\pdl\drivers/peripheral/scb/cy_scb_uart.h **** ********************************************************************************
 117:Generated_Source\PSoC6\pdl\drivers/peripheral/scb/cy_scb_uart.h **** * \subsection group_scb_uart_intr Configure Interrupt
 118:Generated_Source\PSoC6\pdl\drivers/peripheral/scb/cy_scb_uart.h **** ********************************************************************************
 119:Generated_Source\PSoC6\pdl\drivers/peripheral/scb/cy_scb_uart.h **** * The interrupt is optional for the UART operation. To configure interrupt
 120:Generated_Source\PSoC6\pdl\drivers/peripheral/scb/cy_scb_uart.h **** * the \ref Cy_SCB_UART_Interrupt function must be called in the interrupt
 121:Generated_Source\PSoC6\pdl\drivers/peripheral/scb/cy_scb_uart.h **** * handler for the selected SCB instance. Also, this interrupt must be enabled
 122:Generated_Source\PSoC6\pdl\drivers/peripheral/scb/cy_scb_uart.h **** * in the NVIC.
 123:Generated_Source\PSoC6\pdl\drivers/peripheral/scb/cy_scb_uart.h **** * The interrupt must be configured when \ref group_scb_uart_hl will be used.
 124:Generated_Source\PSoC6\pdl\drivers/peripheral/scb/cy_scb_uart.h **** *
 125:Generated_Source\PSoC6\pdl\drivers/peripheral/scb/cy_scb_uart.h **** * \snippet SCB_CompDatasheet_sut_01_revA.cydsn\uart_snippets.c UART_INTR_A
 126:Generated_Source\PSoC6\pdl\drivers/peripheral/scb/cy_scb_uart.h **** * \snippet SCB_CompDatasheet_sut_01_revA.cydsn\uart_snippets.c UART_INTR_B
 127:Generated_Source\PSoC6\pdl\drivers/peripheral/scb/cy_scb_uart.h **** *
 128:Generated_Source\PSoC6\pdl\drivers/peripheral/scb/cy_scb_uart.h **** ********************************************************************************
 129:Generated_Source\PSoC6\pdl\drivers/peripheral/scb/cy_scb_uart.h **** * \subsection group_scb_uart_enable Enable UART
 130:Generated_Source\PSoC6\pdl\drivers/peripheral/scb/cy_scb_uart.h **** ********************************************************************************
 131:Generated_Source\PSoC6\pdl\drivers/peripheral/scb/cy_scb_uart.h **** * Finally, enable the UART operation by calling \ref Cy_SCB_UART_Enable.
 132:Generated_Source\PSoC6\pdl\drivers/peripheral/scb/cy_scb_uart.h **** *
 133:Generated_Source\PSoC6\pdl\drivers/peripheral/scb/cy_scb_uart.h **** * \snippet SCB_CompDatasheet_sut_01_revA.cydsn\uart_snippets.c UART_ENABLE
 134:Generated_Source\PSoC6\pdl\drivers/peripheral/scb/cy_scb_uart.h **** *
 135:Generated_Source\PSoC6\pdl\drivers/peripheral/scb/cy_scb_uart.h **** ********************************************************************************
 136:Generated_Source\PSoC6\pdl\drivers/peripheral/scb/cy_scb_uart.h **** * \section group_scb_uart_use_cases Common Use Cases
 137:Generated_Source\PSoC6\pdl\drivers/peripheral/scb/cy_scb_uart.h **** ********************************************************************************
 138:Generated_Source\PSoC6\pdl\drivers/peripheral/scb/cy_scb_uart.h **** * The UART API is divided into two categories: \ref group_scb_uart_low_level_functions
 139:Generated_Source\PSoC6\pdl\drivers/peripheral/scb/cy_scb_uart.h **** * and \ref group_scb_uart_high_level_functions. \n
 140:Generated_Source\PSoC6\pdl\drivers/peripheral/scb/cy_scb_uart.h **** * <em>Do not mix <b>High-Level</b> and <b>Low-Level</b> API because a Low-Level
 141:Generated_Source\PSoC6\pdl\drivers/peripheral/scb/cy_scb_uart.h **** * API can adversely affect the operation of a High-Level API.</em>
 142:Generated_Source\PSoC6\pdl\drivers/peripheral/scb/cy_scb_uart.h **** *
 143:Generated_Source\PSoC6\pdl\drivers/peripheral/scb/cy_scb_uart.h **** ********************************************************************************
 144:Generated_Source\PSoC6\pdl\drivers/peripheral/scb/cy_scb_uart.h **** * \subsection group_scb_uart_ll Low-Level API
 145:Generated_Source\PSoC6\pdl\drivers/peripheral/scb/cy_scb_uart.h **** ********************************************************************************
 146:Generated_Source\PSoC6\pdl\drivers/peripheral/scb/cy_scb_uart.h **** * The \ref group_scb_uart_low_level_functions functions allow
 147:Generated_Source\PSoC6\pdl\drivers/peripheral/scb/cy_scb_uart.h **** * interacting directly with the hardware and do not use \ref Cy_SCB_UART_Interrupt.
 148:Generated_Source\PSoC6\pdl\drivers/peripheral/scb/cy_scb_uart.h **** * These functions do not require context for operation. Thus, NULL can be
 149:Generated_Source\PSoC6\pdl\drivers/peripheral/scb/cy_scb_uart.h **** * passed for context parameter in \ref Cy_SCB_UART_Init and \ref Cy_SCB_UART_Disable 
 150:Generated_Source\PSoC6\pdl\drivers/peripheral/scb/cy_scb_uart.h **** * instead of a pointer to the context structure.
 151:Generated_Source\PSoC6\pdl\drivers/peripheral/scb/cy_scb_uart.h **** *
 152:Generated_Source\PSoC6\pdl\drivers/peripheral/scb/cy_scb_uart.h **** * * To write data into the TX FIFO, use one of the provided functions:
 153:Generated_Source\PSoC6\pdl\drivers/peripheral/scb/cy_scb_uart.h **** *   \ref Cy_SCB_UART_Put, \ref Cy_SCB_UART_PutArray,
 154:Generated_Source\PSoC6\pdl\drivers/peripheral/scb/cy_scb_uart.h **** *   \ref Cy_SCB_UART_PutArrayBlocking or \ref Cy_SCB_UART_PutString.
 155:Generated_Source\PSoC6\pdl\drivers/peripheral/scb/cy_scb_uart.h **** *   Note that putting data into the TX FIFO starts data transfer.
 156:Generated_Source\PSoC6\pdl\drivers/peripheral/scb/cy_scb_uart.h **** *
ARM GAS  C:\Users\YOUSEF~1\AppData\Local\Temp\ccQanZ98.s 			page 33


 157:Generated_Source\PSoC6\pdl\drivers/peripheral/scb/cy_scb_uart.h **** * * To read data from the RX FIFO, use one of the provided functions:
 158:Generated_Source\PSoC6\pdl\drivers/peripheral/scb/cy_scb_uart.h **** *   \ref Cy_SCB_UART_Get, \ref Cy_SCB_UART_GetArray or
 159:Generated_Source\PSoC6\pdl\drivers/peripheral/scb/cy_scb_uart.h **** *   \ref Cy_SCB_UART_GetArrayBlocking.
 160:Generated_Source\PSoC6\pdl\drivers/peripheral/scb/cy_scb_uart.h **** *
 161:Generated_Source\PSoC6\pdl\drivers/peripheral/scb/cy_scb_uart.h **** * * The statuses can be polled using: \ref Cy_SCB_UART_GetRxFifoStatus and
 162:Generated_Source\PSoC6\pdl\drivers/peripheral/scb/cy_scb_uart.h **** *   \ref Cy_SCB_UART_GetTxFifoStatus.
 163:Generated_Source\PSoC6\pdl\drivers/peripheral/scb/cy_scb_uart.h **** *   <em>The statuses are <b>W1C (Write 1 to Clear)</b> and after a status
 164:Generated_Source\PSoC6\pdl\drivers/peripheral/scb/cy_scb_uart.h **** *   is set, it must be cleared.</em> Note that there are statuses evaluated as level.
 165:Generated_Source\PSoC6\pdl\drivers/peripheral/scb/cy_scb_uart.h **** *   These statuses remain set until an event is true. Therefore, after the clear
 166:Generated_Source\PSoC6\pdl\drivers/peripheral/scb/cy_scb_uart.h **** *   operation, the status is cleared but then it is restored (if event is still
 167:Generated_Source\PSoC6\pdl\drivers/peripheral/scb/cy_scb_uart.h **** *   true).
 168:Generated_Source\PSoC6\pdl\drivers/peripheral/scb/cy_scb_uart.h **** *   Also, the following functions can be used for polling as well
 169:Generated_Source\PSoC6\pdl\drivers/peripheral/scb/cy_scb_uart.h **** *   \ref Cy_SCB_UART_IsTxComplete, \ref Cy_SCB_UART_GetNumInRxFifo and
 170:Generated_Source\PSoC6\pdl\drivers/peripheral/scb/cy_scb_uart.h **** *   \ref Cy_SCB_UART_GetNumInTxFifo.
 171:Generated_Source\PSoC6\pdl\drivers/peripheral/scb/cy_scb_uart.h **** *
 172:Generated_Source\PSoC6\pdl\drivers/peripheral/scb/cy_scb_uart.h **** * \snippet SCB_CompDatasheet_sut_01_revA.cydsn\uart_snippets.c UART_TRANSMIT_DATA_LL
 173:Generated_Source\PSoC6\pdl\drivers/peripheral/scb/cy_scb_uart.h **** *
 174:Generated_Source\PSoC6\pdl\drivers/peripheral/scb/cy_scb_uart.h **** ********************************************************************************
 175:Generated_Source\PSoC6\pdl\drivers/peripheral/scb/cy_scb_uart.h **** * \subsection group_scb_uart_hl High-Level API
 176:Generated_Source\PSoC6\pdl\drivers/peripheral/scb/cy_scb_uart.h **** ********************************************************************************
 177:Generated_Source\PSoC6\pdl\drivers/peripheral/scb/cy_scb_uart.h **** * The \ref group_scb_uart_high_level_functions API use \ref Cy_SCB_UART_Interrupt
 178:Generated_Source\PSoC6\pdl\drivers/peripheral/scb/cy_scb_uart.h **** * to execute the transfer. Call \ref Cy_SCB_UART_Transmit to start transmission.
 179:Generated_Source\PSoC6\pdl\drivers/peripheral/scb/cy_scb_uart.h **** * Call \ref Cy_SCB_UART_Receive to start receive operation. After the
 180:Generated_Source\PSoC6\pdl\drivers/peripheral/scb/cy_scb_uart.h **** * operation is started the \ref Cy_SCB_UART_Interrupt handles the data
 181:Generated_Source\PSoC6\pdl\drivers/peripheral/scb/cy_scb_uart.h **** * transfer until its completion.
 182:Generated_Source\PSoC6\pdl\drivers/peripheral/scb/cy_scb_uart.h **** * Therefore \ref Cy_SCB_UART_Interrupt must be called inside the user 
 183:Generated_Source\PSoC6\pdl\drivers/peripheral/scb/cy_scb_uart.h **** * interrupt handler to make the High-Level API work. To monitor status
 184:Generated_Source\PSoC6\pdl\drivers/peripheral/scb/cy_scb_uart.h **** * of transmit operation, use \ref Cy_SCB_UART_GetTransmitStatus and
 185:Generated_Source\PSoC6\pdl\drivers/peripheral/scb/cy_scb_uart.h **** * \ref Cy_SCB_UART_GetReceiveStatus to monitor receive status appropriately.
 186:Generated_Source\PSoC6\pdl\drivers/peripheral/scb/cy_scb_uart.h **** * Alternatively use \ref Cy_SCB_UART_RegisterCallback to register callback
 187:Generated_Source\PSoC6\pdl\drivers/peripheral/scb/cy_scb_uart.h **** * function to be notified about \ref group_scb_uart_macros_callback_events.
 188:Generated_Source\PSoC6\pdl\drivers/peripheral/scb/cy_scb_uart.h **** *
 189:Generated_Source\PSoC6\pdl\drivers/peripheral/scb/cy_scb_uart.h **** * <b>Receive Operation</b>
 190:Generated_Source\PSoC6\pdl\drivers/peripheral/scb/cy_scb_uart.h **** * \snippet SCB_CompDatasheet_sut_01_revA.cydsn\uart_snippets.c UART_RECEIVE_DATA_HL
 191:Generated_Source\PSoC6\pdl\drivers/peripheral/scb/cy_scb_uart.h **** *
 192:Generated_Source\PSoC6\pdl\drivers/peripheral/scb/cy_scb_uart.h **** * <b>Transmit Operation</b>
 193:Generated_Source\PSoC6\pdl\drivers/peripheral/scb/cy_scb_uart.h **** * \snippet SCB_CompDatasheet_sut_01_revA.cydsn\uart_snippets.c UART_TRANSMIT_DATA_HL
 194:Generated_Source\PSoC6\pdl\drivers/peripheral/scb/cy_scb_uart.h **** *
 195:Generated_Source\PSoC6\pdl\drivers/peripheral/scb/cy_scb_uart.h **** * There is also capability to insert a receive ring buffer that operates between
 196:Generated_Source\PSoC6\pdl\drivers/peripheral/scb/cy_scb_uart.h **** * the RX FIFO and the user buffer. The received data is copied into the ring
 197:Generated_Source\PSoC6\pdl\drivers/peripheral/scb/cy_scb_uart.h **** * buffer from the RX FIFO. This process runs in the background after the ring
 198:Generated_Source\PSoC6\pdl\drivers/peripheral/scb/cy_scb_uart.h **** * buffer operation is started by \ref Cy_SCB_UART_StartRingBuffer.
 199:Generated_Source\PSoC6\pdl\drivers/peripheral/scb/cy_scb_uart.h **** * When \ref Cy_SCB_UART_Receive is called, it first reads data from the ring
 200:Generated_Source\PSoC6\pdl\drivers/peripheral/scb/cy_scb_uart.h **** * buffer and then sets up an interrupt to receive more data if the required
 201:Generated_Source\PSoC6\pdl\drivers/peripheral/scb/cy_scb_uart.h **** * amount has not yet been read.
 202:Generated_Source\PSoC6\pdl\drivers/peripheral/scb/cy_scb_uart.h **** *
 203:Generated_Source\PSoC6\pdl\drivers/peripheral/scb/cy_scb_uart.h **** ********************************************************************************
 204:Generated_Source\PSoC6\pdl\drivers/peripheral/scb/cy_scb_uart.h **** * \section group_scb_uart_dma_trig DMA Trigger
 205:Generated_Source\PSoC6\pdl\drivers/peripheral/scb/cy_scb_uart.h **** ********************************************************************************
 206:Generated_Source\PSoC6\pdl\drivers/peripheral/scb/cy_scb_uart.h **** * The SCB provides TX and RX output trigger signals that can be routed to the
 207:Generated_Source\PSoC6\pdl\drivers/peripheral/scb/cy_scb_uart.h **** * DMA controller inputs. These signals are assigned based on the data availability
 208:Generated_Source\PSoC6\pdl\drivers/peripheral/scb/cy_scb_uart.h **** * in the TX and RX FIFOs appropriately.
 209:Generated_Source\PSoC6\pdl\drivers/peripheral/scb/cy_scb_uart.h **** *
 210:Generated_Source\PSoC6\pdl\drivers/peripheral/scb/cy_scb_uart.h **** * * The RX trigger signal is active while the number of data
 211:Generated_Source\PSoC6\pdl\drivers/peripheral/scb/cy_scb_uart.h **** *   elements in the RX FIFO is greater than the value of RX FIFO level. Use
 212:Generated_Source\PSoC6\pdl\drivers/peripheral/scb/cy_scb_uart.h **** *   function \ref Cy_SCB_SetRxFifoLevel or set configuration structure
 213:Generated_Source\PSoC6\pdl\drivers/peripheral/scb/cy_scb_uart.h **** *   rxFifoTriggerLevel parameter to configure RX FIFO level value. \n
ARM GAS  C:\Users\YOUSEF~1\AppData\Local\Temp\ccQanZ98.s 			page 34


 214:Generated_Source\PSoC6\pdl\drivers/peripheral/scb/cy_scb_uart.h **** *   <em>For example, the RX FIFO has 8 data elements and the RX FIFO level is 0.
 215:Generated_Source\PSoC6\pdl\drivers/peripheral/scb/cy_scb_uart.h **** *   The RX trigger signal is active until DMA reads all data from
 216:Generated_Source\PSoC6\pdl\drivers/peripheral/scb/cy_scb_uart.h **** *   the RX FIFO.</em>
 217:Generated_Source\PSoC6\pdl\drivers/peripheral/scb/cy_scb_uart.h **** *
 218:Generated_Source\PSoC6\pdl\drivers/peripheral/scb/cy_scb_uart.h **** * * The TX trigger signal is active while the number of data elements
 219:Generated_Source\PSoC6\pdl\drivers/peripheral/scb/cy_scb_uart.h **** *   in the TX FIFO is less than the value of TX FIFO level. Use function
 220:Generated_Source\PSoC6\pdl\drivers/peripheral/scb/cy_scb_uart.h **** *   \ref Cy_SCB_SetTxFifoLevel or set configuration structure txFifoTriggerLevel
 221:Generated_Source\PSoC6\pdl\drivers/peripheral/scb/cy_scb_uart.h **** *   parameter to configure TX FIFO level value. \n
 222:Generated_Source\PSoC6\pdl\drivers/peripheral/scb/cy_scb_uart.h **** *   <em>For example, the TX FIFO has 0 data elements (empty) and the TX FIFO level
 223:Generated_Source\PSoC6\pdl\drivers/peripheral/scb/cy_scb_uart.h **** *   is 7. The TX trigger signal is active until DMA loads TX FIFO
 224:Generated_Source\PSoC6\pdl\drivers/peripheral/scb/cy_scb_uart.h **** *   with 8 data elements (note that after the first TX load operation, the data 
 225:Generated_Source\PSoC6\pdl\drivers/peripheral/scb/cy_scb_uart.h **** *   element goes to the shift register and TX FIFO is empty).</em>
 226:Generated_Source\PSoC6\pdl\drivers/peripheral/scb/cy_scb_uart.h **** *
 227:Generated_Source\PSoC6\pdl\drivers/peripheral/scb/cy_scb_uart.h **** * To route SCB TX or RX trigger signals to DMA controller use \ref group_trigmux
 228:Generated_Source\PSoC6\pdl\drivers/peripheral/scb/cy_scb_uart.h **** * driver API.
 229:Generated_Source\PSoC6\pdl\drivers/peripheral/scb/cy_scb_uart.h **** *
 230:Generated_Source\PSoC6\pdl\drivers/peripheral/scb/cy_scb_uart.h **** * \note
 231:Generated_Source\PSoC6\pdl\drivers/peripheral/scb/cy_scb_uart.h **** * To properly handle DMA level request signal activation and de-activation from the SCB
 232:Generated_Source\PSoC6\pdl\drivers/peripheral/scb/cy_scb_uart.h **** * peripheral block the DMA Descriptor typically must be configured to re-trigger
 233:Generated_Source\PSoC6\pdl\drivers/peripheral/scb/cy_scb_uart.h **** * after 16 Clk_Slow cycles.
 234:Generated_Source\PSoC6\pdl\drivers/peripheral/scb/cy_scb_uart.h **** *
 235:Generated_Source\PSoC6\pdl\drivers/peripheral/scb/cy_scb_uart.h **** ********************************************************************************
 236:Generated_Source\PSoC6\pdl\drivers/peripheral/scb/cy_scb_uart.h **** * \section group_scb_uart_lp Low Power Support
 237:Generated_Source\PSoC6\pdl\drivers/peripheral/scb/cy_scb_uart.h **** ********************************************************************************
 238:Generated_Source\PSoC6\pdl\drivers/peripheral/scb/cy_scb_uart.h **** * The UART driver provides callback functions to handle power mode
 239:Generated_Source\PSoC6\pdl\drivers/peripheral/scb/cy_scb_uart.h **** * transition. The callback \ref Cy_SCB_UART_DeepSleepCallback must be called
 240:Generated_Source\PSoC6\pdl\drivers/peripheral/scb/cy_scb_uart.h **** * during execution of \ref Cy_SysPm_CpuEnterDeepSleep \ref Cy_SCB_UART_HibernateCallback
 241:Generated_Source\PSoC6\pdl\drivers/peripheral/scb/cy_scb_uart.h **** * must be called during execution of \ref Cy_SysPm_SystemEnterHibernate. To trigger the
 242:Generated_Source\PSoC6\pdl\drivers/peripheral/scb/cy_scb_uart.h **** * callback execution, the callback must be registered before calling the
 243:Generated_Source\PSoC6\pdl\drivers/peripheral/scb/cy_scb_uart.h **** * power mode transition function. Refer to \ref group_syspm driver for more
 244:Generated_Source\PSoC6\pdl\drivers/peripheral/scb/cy_scb_uart.h **** * information about power mode transitions and callback registration.
 245:Generated_Source\PSoC6\pdl\drivers/peripheral/scb/cy_scb_uart.h **** *
 246:Generated_Source\PSoC6\pdl\drivers/peripheral/scb/cy_scb_uart.h **** * The UART is disabled during Deep Sleep and Hibernate and stops driving 
 247:Generated_Source\PSoC6\pdl\drivers/peripheral/scb/cy_scb_uart.h **** * the output pins. The state of the UART output pins TX and RTS is High-Z, 
 248:Generated_Source\PSoC6\pdl\drivers/peripheral/scb/cy_scb_uart.h **** * which can cause unexpected behavior of the UART receiver due to possible
 249:Generated_Source\PSoC6\pdl\drivers/peripheral/scb/cy_scb_uart.h **** * glitches on these lines. These pins must be set to the inactive state before 
 250:Generated_Source\PSoC6\pdl\drivers/peripheral/scb/cy_scb_uart.h **** * entering Deep Sleep or Hibernate mode.
 251:Generated_Source\PSoC6\pdl\drivers/peripheral/scb/cy_scb_uart.h **** * These pins must keep the inactive level (the same state 
 252:Generated_Source\PSoC6\pdl\drivers/peripheral/scb/cy_scb_uart.h **** * when UART TX is enabled and does not transfer data) before entering Deep 
 253:Generated_Source\PSoC6\pdl\drivers/peripheral/scb/cy_scb_uart.h **** * Sleep or Hibernate mode. To do that, write the GPIO data register of each pin 
 254:Generated_Source\PSoC6\pdl\drivers/peripheral/scb/cy_scb_uart.h **** * to the inactive level for each output pin. Then configure High-Speed Input 
 255:Generated_Source\PSoC6\pdl\drivers/peripheral/scb/cy_scb_uart.h **** * Output Multiplexer (HSIOM) of each pin to be controlled by the GPIO (use 
 256:Generated_Source\PSoC6\pdl\drivers/peripheral/scb/cy_scb_uart.h **** * \ref group_gpio driver API). After exiting Deep Sleep mode the UART 
 257:Generated_Source\PSoC6\pdl\drivers/peripheral/scb/cy_scb_uart.h **** * must be enabled and the pins configuration restored to return the 
 258:Generated_Source\PSoC6\pdl\drivers/peripheral/scb/cy_scb_uart.h **** * UART control of the pins (after exiting Hibernate mode, the 
 259:Generated_Source\PSoC6\pdl\drivers/peripheral/scb/cy_scb_uart.h **** * system initialization code does the same). Copy either or 
 260:Generated_Source\PSoC6\pdl\drivers/peripheral/scb/cy_scb_uart.h **** * both \ref Cy_SCB_UART_DeepSleepCallback and \ref Cy_SCB_UART_HibernateCallback 
 261:Generated_Source\PSoC6\pdl\drivers/peripheral/scb/cy_scb_uart.h **** * as appropriate, and make the changes described above inside the function.
 262:Generated_Source\PSoC6\pdl\drivers/peripheral/scb/cy_scb_uart.h **** * Alternately, external pull-up or pull-down resistors can be connected 
 263:Generated_Source\PSoC6\pdl\drivers/peripheral/scb/cy_scb_uart.h **** * to the appropriate UART lines to keep them inactive during Deep-Sleep or 
 264:Generated_Source\PSoC6\pdl\drivers/peripheral/scb/cy_scb_uart.h **** * Hibernate.
 265:Generated_Source\PSoC6\pdl\drivers/peripheral/scb/cy_scb_uart.h **** *
 266:Generated_Source\PSoC6\pdl\drivers/peripheral/scb/cy_scb_uart.h **** ********************************************************************************
 267:Generated_Source\PSoC6\pdl\drivers/peripheral/scb/cy_scb_uart.h **** * \section group_scb_uart_more_information More Information
 268:Generated_Source\PSoC6\pdl\drivers/peripheral/scb/cy_scb_uart.h **** ********************************************************************************
 269:Generated_Source\PSoC6\pdl\drivers/peripheral/scb/cy_scb_uart.h **** * For more information on the SCB peripheral, refer to the technical reference
 270:Generated_Source\PSoC6\pdl\drivers/peripheral/scb/cy_scb_uart.h **** * manual (TRM).
ARM GAS  C:\Users\YOUSEF~1\AppData\Local\Temp\ccQanZ98.s 			page 35


 271:Generated_Source\PSoC6\pdl\drivers/peripheral/scb/cy_scb_uart.h **** *
 272:Generated_Source\PSoC6\pdl\drivers/peripheral/scb/cy_scb_uart.h **** ********************************************************************************
 273:Generated_Source\PSoC6\pdl\drivers/peripheral/scb/cy_scb_uart.h **** * \section group_scb_uart_MISRA MISRA-C Compliance
 274:Generated_Source\PSoC6\pdl\drivers/peripheral/scb/cy_scb_uart.h **** ********************************************************************************
 275:Generated_Source\PSoC6\pdl\drivers/peripheral/scb/cy_scb_uart.h **** * <table class="doxtable">
 276:Generated_Source\PSoC6\pdl\drivers/peripheral/scb/cy_scb_uart.h **** *   <tr>
 277:Generated_Source\PSoC6\pdl\drivers/peripheral/scb/cy_scb_uart.h **** *     <th>MISRA Rule</th>
 278:Generated_Source\PSoC6\pdl\drivers/peripheral/scb/cy_scb_uart.h **** *     <th>Rule Class (Required/Advisory)</th>
 279:Generated_Source\PSoC6\pdl\drivers/peripheral/scb/cy_scb_uart.h **** *     <th>Rule Description</th>
 280:Generated_Source\PSoC6\pdl\drivers/peripheral/scb/cy_scb_uart.h **** *     <th>Description of Deviation(s)</th>
 281:Generated_Source\PSoC6\pdl\drivers/peripheral/scb/cy_scb_uart.h **** *   </tr>
 282:Generated_Source\PSoC6\pdl\drivers/peripheral/scb/cy_scb_uart.h **** *   <tr>
 283:Generated_Source\PSoC6\pdl\drivers/peripheral/scb/cy_scb_uart.h **** *     <td>11.4</td>
 284:Generated_Source\PSoC6\pdl\drivers/peripheral/scb/cy_scb_uart.h **** *     <td>A</td>
 285:Generated_Source\PSoC6\pdl\drivers/peripheral/scb/cy_scb_uart.h **** *     <td>A cast should not be performed between a pointer to object type and
 286:Generated_Source\PSoC6\pdl\drivers/peripheral/scb/cy_scb_uart.h **** *         a different pointer to object type.</td>
 287:Generated_Source\PSoC6\pdl\drivers/peripheral/scb/cy_scb_uart.h **** *     <td>
 288:Generated_Source\PSoC6\pdl\drivers/peripheral/scb/cy_scb_uart.h **** *         * The pointer to the buffer memory is void to allow handling different
 289:Generated_Source\PSoC6\pdl\drivers/peripheral/scb/cy_scb_uart.h **** *         different data types: uint8_t (4-8 bits) or uint16_t (9-16 bits).
 290:Generated_Source\PSoC6\pdl\drivers/peripheral/scb/cy_scb_uart.h **** *         The cast operation is safe because the configuration is verified
 291:Generated_Source\PSoC6\pdl\drivers/peripheral/scb/cy_scb_uart.h **** *         before operation is performed.
 292:Generated_Source\PSoC6\pdl\drivers/peripheral/scb/cy_scb_uart.h **** *         * The functions \ref Cy_SCB_UART_DeepSleepCallback and
 293:Generated_Source\PSoC6\pdl\drivers/peripheral/scb/cy_scb_uart.h **** *         \ref Cy_SCB_UART_HibernateCallback are callback of
 294:Generated_Source\PSoC6\pdl\drivers/peripheral/scb/cy_scb_uart.h **** *         \ref cy_en_syspm_status_t type. The cast operation safety in these
 295:Generated_Source\PSoC6\pdl\drivers/peripheral/scb/cy_scb_uart.h **** *         functions becomes the user's responsibility because pointers are
 296:Generated_Source\PSoC6\pdl\drivers/peripheral/scb/cy_scb_uart.h **** *         initialized when callback is registered in SysPm driver.</td>
 297:Generated_Source\PSoC6\pdl\drivers/peripheral/scb/cy_scb_uart.h **** *   </tr>
 298:Generated_Source\PSoC6\pdl\drivers/peripheral/scb/cy_scb_uart.h **** *   <tr>
 299:Generated_Source\PSoC6\pdl\drivers/peripheral/scb/cy_scb_uart.h **** *     <td>14.2</td>
 300:Generated_Source\PSoC6\pdl\drivers/peripheral/scb/cy_scb_uart.h **** *     <td>R</td>
 301:Generated_Source\PSoC6\pdl\drivers/peripheral/scb/cy_scb_uart.h **** *     <td>All non-null statements shall either: a) have at least one side-effect
 302:Generated_Source\PSoC6\pdl\drivers/peripheral/scb/cy_scb_uart.h **** *         however executed, or b) cause control flow to change.</td>
 303:Generated_Source\PSoC6\pdl\drivers/peripheral/scb/cy_scb_uart.h **** *     <td>The unused function parameters are cast to void. This statement
 304:Generated_Source\PSoC6\pdl\drivers/peripheral/scb/cy_scb_uart.h **** *         has no side-effect and is used to suppress a compiler warning.</td>
 305:Generated_Source\PSoC6\pdl\drivers/peripheral/scb/cy_scb_uart.h **** *   </tr>
 306:Generated_Source\PSoC6\pdl\drivers/peripheral/scb/cy_scb_uart.h **** *   <tr>
 307:Generated_Source\PSoC6\pdl\drivers/peripheral/scb/cy_scb_uart.h **** *     <td>14.7</td>
 308:Generated_Source\PSoC6\pdl\drivers/peripheral/scb/cy_scb_uart.h **** *     <td>R</td>
 309:Generated_Source\PSoC6\pdl\drivers/peripheral/scb/cy_scb_uart.h **** *     <td>A function shall have a single point of exit at the end of the
 310:Generated_Source\PSoC6\pdl\drivers/peripheral/scb/cy_scb_uart.h **** *         function.</td>
 311:Generated_Source\PSoC6\pdl\drivers/peripheral/scb/cy_scb_uart.h **** *     <td>The functions can return from several points. This is done to improve
 312:Generated_Source\PSoC6\pdl\drivers/peripheral/scb/cy_scb_uart.h **** *         code clarity when returning error status code if input parameters
 313:Generated_Source\PSoC6\pdl\drivers/peripheral/scb/cy_scb_uart.h **** *         validation fails.</td>
 314:Generated_Source\PSoC6\pdl\drivers/peripheral/scb/cy_scb_uart.h **** *   </tr>
 315:Generated_Source\PSoC6\pdl\drivers/peripheral/scb/cy_scb_uart.h **** * </table>
 316:Generated_Source\PSoC6\pdl\drivers/peripheral/scb/cy_scb_uart.h **** *
 317:Generated_Source\PSoC6\pdl\drivers/peripheral/scb/cy_scb_uart.h **** * \section group_scb_uart_changelog Changelog
 318:Generated_Source\PSoC6\pdl\drivers/peripheral/scb/cy_scb_uart.h **** * <table class="doxtable">
 319:Generated_Source\PSoC6\pdl\drivers/peripheral/scb/cy_scb_uart.h **** *   <tr><th>Version</th><th>Changes</th><th>Reason for Change</th></tr>
 320:Generated_Source\PSoC6\pdl\drivers/peripheral/scb/cy_scb_uart.h **** *   <tr>
 321:Generated_Source\PSoC6\pdl\drivers/peripheral/scb/cy_scb_uart.h **** *     <td rowspan="2">2.20</td>
 322:Generated_Source\PSoC6\pdl\drivers/peripheral/scb/cy_scb_uart.h **** *     <td>Flattened the organization of the driver source code into the single 
 323:Generated_Source\PSoC6\pdl\drivers/peripheral/scb/cy_scb_uart.h **** *         source directory and the single include directory.
 324:Generated_Source\PSoC6\pdl\drivers/peripheral/scb/cy_scb_uart.h **** *     </td>
 325:Generated_Source\PSoC6\pdl\drivers/peripheral/scb/cy_scb_uart.h **** *     <td>Driver library directory-structure simplification.</td>
 326:Generated_Source\PSoC6\pdl\drivers/peripheral/scb/cy_scb_uart.h **** *   </tr>
 327:Generated_Source\PSoC6\pdl\drivers/peripheral/scb/cy_scb_uart.h **** *   <tr>
ARM GAS  C:\Users\YOUSEF~1\AppData\Local\Temp\ccQanZ98.s 			page 36


 328:Generated_Source\PSoC6\pdl\drivers/peripheral/scb/cy_scb_uart.h **** *     <td>Added register access layer. Use register access macros instead
 329:Generated_Source\PSoC6\pdl\drivers/peripheral/scb/cy_scb_uart.h **** *         of direct register access using dereferenced pointers.</td>
 330:Generated_Source\PSoC6\pdl\drivers/peripheral/scb/cy_scb_uart.h **** *     <td>Makes register access device-independent, so that the PDL does 
 331:Generated_Source\PSoC6\pdl\drivers/peripheral/scb/cy_scb_uart.h **** *         not need to be recompiled for each supported part number.</td>
 332:Generated_Source\PSoC6\pdl\drivers/peripheral/scb/cy_scb_uart.h **** *   </tr>
 333:Generated_Source\PSoC6\pdl\drivers/peripheral/scb/cy_scb_uart.h **** *   <tr>
 334:Generated_Source\PSoC6\pdl\drivers/peripheral/scb/cy_scb_uart.h **** *     <td>2.10</td>
 335:Generated_Source\PSoC6\pdl\drivers/peripheral/scb/cy_scb_uart.h **** *     <td>None.</td>
 336:Generated_Source\PSoC6\pdl\drivers/peripheral/scb/cy_scb_uart.h **** *     <td>SCB I2C driver updated.</td>
 337:Generated_Source\PSoC6\pdl\drivers/peripheral/scb/cy_scb_uart.h **** *   </tr>
 338:Generated_Source\PSoC6\pdl\drivers/peripheral/scb/cy_scb_uart.h **** *   <tr>
 339:Generated_Source\PSoC6\pdl\drivers/peripheral/scb/cy_scb_uart.h **** *     <td rowspan="5">2.0</td>
 340:Generated_Source\PSoC6\pdl\drivers/peripheral/scb/cy_scb_uart.h **** *     <td>Added parameters validation for public API.</td>
 341:Generated_Source\PSoC6\pdl\drivers/peripheral/scb/cy_scb_uart.h **** *     <td></td>
 342:Generated_Source\PSoC6\pdl\drivers/peripheral/scb/cy_scb_uart.h **** *   </tr>
 343:Generated_Source\PSoC6\pdl\drivers/peripheral/scb/cy_scb_uart.h **** *   <tr>
 344:Generated_Source\PSoC6\pdl\drivers/peripheral/scb/cy_scb_uart.h **** *     <td>Replaced variables that have limited range of values with enumerated
 345:Generated_Source\PSoC6\pdl\drivers/peripheral/scb/cy_scb_uart.h **** *         types.</td>
 346:Generated_Source\PSoC6\pdl\drivers/peripheral/scb/cy_scb_uart.h **** *     <td></td>
 347:Generated_Source\PSoC6\pdl\drivers/peripheral/scb/cy_scb_uart.h **** *   </tr>
 348:Generated_Source\PSoC6\pdl\drivers/peripheral/scb/cy_scb_uart.h **** *   <tr>
 349:Generated_Source\PSoC6\pdl\drivers/peripheral/scb/cy_scb_uart.h **** *     <td>Added missing "cy_cb_" to the callback function type names.</td>
 350:Generated_Source\PSoC6\pdl\drivers/peripheral/scb/cy_scb_uart.h **** *     <td></td>
 351:Generated_Source\PSoC6\pdl\drivers/peripheral/scb/cy_scb_uart.h **** *   </tr>
 352:Generated_Source\PSoC6\pdl\drivers/peripheral/scb/cy_scb_uart.h **** *   <tr>
 353:Generated_Source\PSoC6\pdl\drivers/peripheral/scb/cy_scb_uart.h **** *     <td>Added function \ref Cy_SCB_UART_SendBreakBlocking for break condition
 354:Generated_Source\PSoC6\pdl\drivers/peripheral/scb/cy_scb_uart.h **** *         generation.</td>
 355:Generated_Source\PSoC6\pdl\drivers/peripheral/scb/cy_scb_uart.h **** *     <td></td>
 356:Generated_Source\PSoC6\pdl\drivers/peripheral/scb/cy_scb_uart.h **** *   </tr>
 357:Generated_Source\PSoC6\pdl\drivers/peripheral/scb/cy_scb_uart.h **** *   <tr>
 358:Generated_Source\PSoC6\pdl\drivers/peripheral/scb/cy_scb_uart.h **** *     <td>Fixed low power callbacks \ref Cy_SCB_UART_DeepSleepCallback and
 359:Generated_Source\PSoC6\pdl\drivers/peripheral/scb/cy_scb_uart.h **** *         \ref Cy_SCB_UART_HibernateCallback to prevent the device from entering
 360:Generated_Source\PSoC6\pdl\drivers/peripheral/scb/cy_scb_uart.h **** *         low power mode when RX FIFO is not empty.</td>
 361:Generated_Source\PSoC6\pdl\drivers/peripheral/scb/cy_scb_uart.h **** *     <td>The callbacks allowed entering device into low power mode when RX FIFO
 362:Generated_Source\PSoC6\pdl\drivers/peripheral/scb/cy_scb_uart.h **** *         had data.</td>
 363:Generated_Source\PSoC6\pdl\drivers/peripheral/scb/cy_scb_uart.h **** *   </tr>
 364:Generated_Source\PSoC6\pdl\drivers/peripheral/scb/cy_scb_uart.h **** *   <tr>
 365:Generated_Source\PSoC6\pdl\drivers/peripheral/scb/cy_scb_uart.h **** *     <td>1.0</td>
 366:Generated_Source\PSoC6\pdl\drivers/peripheral/scb/cy_scb_uart.h **** *     <td>Initial version.</td>
 367:Generated_Source\PSoC6\pdl\drivers/peripheral/scb/cy_scb_uart.h **** *     <td></td>
 368:Generated_Source\PSoC6\pdl\drivers/peripheral/scb/cy_scb_uart.h **** *   </tr>
 369:Generated_Source\PSoC6\pdl\drivers/peripheral/scb/cy_scb_uart.h **** * </table>
 370:Generated_Source\PSoC6\pdl\drivers/peripheral/scb/cy_scb_uart.h **** *
 371:Generated_Source\PSoC6\pdl\drivers/peripheral/scb/cy_scb_uart.h **** * \defgroup group_scb_uart_macros Macros
 372:Generated_Source\PSoC6\pdl\drivers/peripheral/scb/cy_scb_uart.h **** * \defgroup group_scb_uart_functions Functions
 373:Generated_Source\PSoC6\pdl\drivers/peripheral/scb/cy_scb_uart.h **** * \{
 374:Generated_Source\PSoC6\pdl\drivers/peripheral/scb/cy_scb_uart.h **** * \defgroup group_scb_uart_general_functions General
 375:Generated_Source\PSoC6\pdl\drivers/peripheral/scb/cy_scb_uart.h **** * \defgroup group_scb_uart_high_level_functions High-Level
 376:Generated_Source\PSoC6\pdl\drivers/peripheral/scb/cy_scb_uart.h **** * \defgroup group_scb_uart_low_level_functions Low-Level
 377:Generated_Source\PSoC6\pdl\drivers/peripheral/scb/cy_scb_uart.h **** * \defgroup group_scb_uart_interrupt_functions Interrupt
 378:Generated_Source\PSoC6\pdl\drivers/peripheral/scb/cy_scb_uart.h **** * \defgroup group_scb_uart_low_power_functions Low Power Callbacks
 379:Generated_Source\PSoC6\pdl\drivers/peripheral/scb/cy_scb_uart.h **** * \}
 380:Generated_Source\PSoC6\pdl\drivers/peripheral/scb/cy_scb_uart.h **** * \defgroup group_scb_uart_data_structures Data Structures
 381:Generated_Source\PSoC6\pdl\drivers/peripheral/scb/cy_scb_uart.h **** * \defgroup group_scb_uart_enums Enumerated Types
 382:Generated_Source\PSoC6\pdl\drivers/peripheral/scb/cy_scb_uart.h **** */
 383:Generated_Source\PSoC6\pdl\drivers/peripheral/scb/cy_scb_uart.h **** 
 384:Generated_Source\PSoC6\pdl\drivers/peripheral/scb/cy_scb_uart.h **** #if !defined(CY_SCB_UART_H)
ARM GAS  C:\Users\YOUSEF~1\AppData\Local\Temp\ccQanZ98.s 			page 37


 385:Generated_Source\PSoC6\pdl\drivers/peripheral/scb/cy_scb_uart.h **** #define CY_SCB_UART_H
 386:Generated_Source\PSoC6\pdl\drivers/peripheral/scb/cy_scb_uart.h **** 
 387:Generated_Source\PSoC6\pdl\drivers/peripheral/scb/cy_scb_uart.h **** #include "cy_scb_common.h"
 388:Generated_Source\PSoC6\pdl\drivers/peripheral/scb/cy_scb_uart.h **** 
 389:Generated_Source\PSoC6\pdl\drivers/peripheral/scb/cy_scb_uart.h **** #if defined(__cplusplus)
 390:Generated_Source\PSoC6\pdl\drivers/peripheral/scb/cy_scb_uart.h **** extern "C" {
 391:Generated_Source\PSoC6\pdl\drivers/peripheral/scb/cy_scb_uart.h **** #endif
 392:Generated_Source\PSoC6\pdl\drivers/peripheral/scb/cy_scb_uart.h **** 
 393:Generated_Source\PSoC6\pdl\drivers/peripheral/scb/cy_scb_uart.h **** /***************************************
 394:Generated_Source\PSoC6\pdl\drivers/peripheral/scb/cy_scb_uart.h **** *          Enumerated Types
 395:Generated_Source\PSoC6\pdl\drivers/peripheral/scb/cy_scb_uart.h **** ***************************************/
 396:Generated_Source\PSoC6\pdl\drivers/peripheral/scb/cy_scb_uart.h **** 
 397:Generated_Source\PSoC6\pdl\drivers/peripheral/scb/cy_scb_uart.h **** /**
 398:Generated_Source\PSoC6\pdl\drivers/peripheral/scb/cy_scb_uart.h **** * \addtogroup group_scb_uart_enums
 399:Generated_Source\PSoC6\pdl\drivers/peripheral/scb/cy_scb_uart.h **** * \{
 400:Generated_Source\PSoC6\pdl\drivers/peripheral/scb/cy_scb_uart.h **** */
 401:Generated_Source\PSoC6\pdl\drivers/peripheral/scb/cy_scb_uart.h **** 
 402:Generated_Source\PSoC6\pdl\drivers/peripheral/scb/cy_scb_uart.h **** /** UART status codes */
 403:Generated_Source\PSoC6\pdl\drivers/peripheral/scb/cy_scb_uart.h **** typedef enum
 404:Generated_Source\PSoC6\pdl\drivers/peripheral/scb/cy_scb_uart.h **** {
 405:Generated_Source\PSoC6\pdl\drivers/peripheral/scb/cy_scb_uart.h ****     /** Operation completed successfully */
 406:Generated_Source\PSoC6\pdl\drivers/peripheral/scb/cy_scb_uart.h ****     CY_SCB_UART_SUCCESS = 0U,
 407:Generated_Source\PSoC6\pdl\drivers/peripheral/scb/cy_scb_uart.h **** 
 408:Generated_Source\PSoC6\pdl\drivers/peripheral/scb/cy_scb_uart.h ****     /** One or more of input parameters are invalid */
 409:Generated_Source\PSoC6\pdl\drivers/peripheral/scb/cy_scb_uart.h ****     CY_SCB_UART_BAD_PARAM = (CY_SCB_ID | CY_PDL_STATUS_ERROR | CY_SCB_UART_ID | 1U),
 410:Generated_Source\PSoC6\pdl\drivers/peripheral/scb/cy_scb_uart.h **** 
 411:Generated_Source\PSoC6\pdl\drivers/peripheral/scb/cy_scb_uart.h ****     /**
 412:Generated_Source\PSoC6\pdl\drivers/peripheral/scb/cy_scb_uart.h ****     * The UART is busy processing a receive operation.
 413:Generated_Source\PSoC6\pdl\drivers/peripheral/scb/cy_scb_uart.h ****     */
 414:Generated_Source\PSoC6\pdl\drivers/peripheral/scb/cy_scb_uart.h ****     CY_SCB_UART_RECEIVE_BUSY = (CY_SCB_ID | CY_PDL_STATUS_ERROR | CY_SCB_UART_ID | 2U),
 415:Generated_Source\PSoC6\pdl\drivers/peripheral/scb/cy_scb_uart.h **** 
 416:Generated_Source\PSoC6\pdl\drivers/peripheral/scb/cy_scb_uart.h ****     /**
 417:Generated_Source\PSoC6\pdl\drivers/peripheral/scb/cy_scb_uart.h ****     * The UART is busy processing a transmit operation.
 418:Generated_Source\PSoC6\pdl\drivers/peripheral/scb/cy_scb_uart.h ****     */
 419:Generated_Source\PSoC6\pdl\drivers/peripheral/scb/cy_scb_uart.h ****     CY_SCB_UART_TRANSMIT_BUSY = (CY_SCB_ID | CY_PDL_STATUS_ERROR | CY_SCB_UART_ID | 3U)
 420:Generated_Source\PSoC6\pdl\drivers/peripheral/scb/cy_scb_uart.h **** } cy_en_scb_uart_status_t;
 421:Generated_Source\PSoC6\pdl\drivers/peripheral/scb/cy_scb_uart.h **** 
 422:Generated_Source\PSoC6\pdl\drivers/peripheral/scb/cy_scb_uart.h **** /** UART Mode */
 423:Generated_Source\PSoC6\pdl\drivers/peripheral/scb/cy_scb_uart.h **** typedef enum
 424:Generated_Source\PSoC6\pdl\drivers/peripheral/scb/cy_scb_uart.h **** {
 425:Generated_Source\PSoC6\pdl\drivers/peripheral/scb/cy_scb_uart.h ****     CY_SCB_UART_STANDARD  = 0U, /**< Configures the SCB for Standard UART operation */
 426:Generated_Source\PSoC6\pdl\drivers/peripheral/scb/cy_scb_uart.h ****     CY_SCB_UART_SMARTCARD = 1U, /**< Configures the SCB for SmartCard operation */
 427:Generated_Source\PSoC6\pdl\drivers/peripheral/scb/cy_scb_uart.h ****     CY_SCB_UART_IRDA      = 2U, /**< Configures the SCB for IrDA operation */
 428:Generated_Source\PSoC6\pdl\drivers/peripheral/scb/cy_scb_uart.h **** } cy_en_scb_uart_mode_t;
 429:Generated_Source\PSoC6\pdl\drivers/peripheral/scb/cy_scb_uart.h **** 
 430:Generated_Source\PSoC6\pdl\drivers/peripheral/scb/cy_scb_uart.h **** /** UART Stop Bits */
 431:Generated_Source\PSoC6\pdl\drivers/peripheral/scb/cy_scb_uart.h **** typedef enum
 432:Generated_Source\PSoC6\pdl\drivers/peripheral/scb/cy_scb_uart.h **** {
 433:Generated_Source\PSoC6\pdl\drivers/peripheral/scb/cy_scb_uart.h ****     CY_SCB_UART_STOP_BITS_1   = 2U,  /**< UART looks for 1 Stop Bit    */
 434:Generated_Source\PSoC6\pdl\drivers/peripheral/scb/cy_scb_uart.h ****     CY_SCB_UART_STOP_BITS_1_5 = 3U,  /**< UART looks for 1.5 Stop Bits */
 435:Generated_Source\PSoC6\pdl\drivers/peripheral/scb/cy_scb_uart.h ****     CY_SCB_UART_STOP_BITS_2   = 4U,  /**< UART looks for 2 Stop Bits   */
 436:Generated_Source\PSoC6\pdl\drivers/peripheral/scb/cy_scb_uart.h ****     CY_SCB_UART_STOP_BITS_2_5 = 5U,  /**< UART looks for 2.5 Stop Bits */
 437:Generated_Source\PSoC6\pdl\drivers/peripheral/scb/cy_scb_uart.h ****     CY_SCB_UART_STOP_BITS_3   = 6U,  /**< UART looks for 3 Stop Bits   */
 438:Generated_Source\PSoC6\pdl\drivers/peripheral/scb/cy_scb_uart.h ****     CY_SCB_UART_STOP_BITS_3_5 = 7U,  /**< UART looks for 3.5 Stop Bits */
 439:Generated_Source\PSoC6\pdl\drivers/peripheral/scb/cy_scb_uart.h ****     CY_SCB_UART_STOP_BITS_4   = 8U,  /**< UART looks for 4 Stop Bits   */
 440:Generated_Source\PSoC6\pdl\drivers/peripheral/scb/cy_scb_uart.h **** } cy_en_scb_uart_stop_bits_t;
 441:Generated_Source\PSoC6\pdl\drivers/peripheral/scb/cy_scb_uart.h **** 
ARM GAS  C:\Users\YOUSEF~1\AppData\Local\Temp\ccQanZ98.s 			page 38


 442:Generated_Source\PSoC6\pdl\drivers/peripheral/scb/cy_scb_uart.h **** /** UART Parity */
 443:Generated_Source\PSoC6\pdl\drivers/peripheral/scb/cy_scb_uart.h **** typedef enum
 444:Generated_Source\PSoC6\pdl\drivers/peripheral/scb/cy_scb_uart.h **** {
 445:Generated_Source\PSoC6\pdl\drivers/peripheral/scb/cy_scb_uart.h ****     CY_SCB_UART_PARITY_NONE = 0U,    /**< UART has no parity check   */
 446:Generated_Source\PSoC6\pdl\drivers/peripheral/scb/cy_scb_uart.h ****     CY_SCB_UART_PARITY_EVEN = 2U,    /**< UART has even parity check */
 447:Generated_Source\PSoC6\pdl\drivers/peripheral/scb/cy_scb_uart.h ****     CY_SCB_UART_PARITY_ODD  = 3U,    /**< UART has odd parity check  */
 448:Generated_Source\PSoC6\pdl\drivers/peripheral/scb/cy_scb_uart.h **** } cy_en_scb_uart_parity_t;
 449:Generated_Source\PSoC6\pdl\drivers/peripheral/scb/cy_scb_uart.h **** 
 450:Generated_Source\PSoC6\pdl\drivers/peripheral/scb/cy_scb_uart.h **** /** UART Polarity */
 451:Generated_Source\PSoC6\pdl\drivers/peripheral/scb/cy_scb_uart.h **** typedef enum
 452:Generated_Source\PSoC6\pdl\drivers/peripheral/scb/cy_scb_uart.h **** {
 453:Generated_Source\PSoC6\pdl\drivers/peripheral/scb/cy_scb_uart.h ****     CY_SCB_UART_ACTIVE_LOW  = 0U,   /**< Signal is active low */
 454:Generated_Source\PSoC6\pdl\drivers/peripheral/scb/cy_scb_uart.h ****     CY_SCB_UART_ACTIVE_HIGH = 1U,   /**< Signal is active high */
 455:Generated_Source\PSoC6\pdl\drivers/peripheral/scb/cy_scb_uart.h **** } cy_en_scb_uart_polarity_t;
 456:Generated_Source\PSoC6\pdl\drivers/peripheral/scb/cy_scb_uart.h **** /** \} group_scb_uart_enums */
 457:Generated_Source\PSoC6\pdl\drivers/peripheral/scb/cy_scb_uart.h **** 
 458:Generated_Source\PSoC6\pdl\drivers/peripheral/scb/cy_scb_uart.h **** 
 459:Generated_Source\PSoC6\pdl\drivers/peripheral/scb/cy_scb_uart.h **** /*******************************************************************************
 460:Generated_Source\PSoC6\pdl\drivers/peripheral/scb/cy_scb_uart.h **** *                           Type Definitions
 461:Generated_Source\PSoC6\pdl\drivers/peripheral/scb/cy_scb_uart.h **** *******************************************************************************/
 462:Generated_Source\PSoC6\pdl\drivers/peripheral/scb/cy_scb_uart.h **** 
 463:Generated_Source\PSoC6\pdl\drivers/peripheral/scb/cy_scb_uart.h **** /**
 464:Generated_Source\PSoC6\pdl\drivers/peripheral/scb/cy_scb_uart.h **** * \addtogroup group_scb_uart_data_structures
 465:Generated_Source\PSoC6\pdl\drivers/peripheral/scb/cy_scb_uart.h **** * \{
 466:Generated_Source\PSoC6\pdl\drivers/peripheral/scb/cy_scb_uart.h **** */
 467:Generated_Source\PSoC6\pdl\drivers/peripheral/scb/cy_scb_uart.h **** 
 468:Generated_Source\PSoC6\pdl\drivers/peripheral/scb/cy_scb_uart.h **** /**
 469:Generated_Source\PSoC6\pdl\drivers/peripheral/scb/cy_scb_uart.h **** * Provides the typedef for the callback function called in the
 470:Generated_Source\PSoC6\pdl\drivers/peripheral/scb/cy_scb_uart.h **** * \ref Cy_SCB_UART_Interrupt to notify the user about occurrences of
 471:Generated_Source\PSoC6\pdl\drivers/peripheral/scb/cy_scb_uart.h **** * \ref group_scb_uart_macros_callback_events.
 472:Generated_Source\PSoC6\pdl\drivers/peripheral/scb/cy_scb_uart.h **** */
 473:Generated_Source\PSoC6\pdl\drivers/peripheral/scb/cy_scb_uart.h **** typedef void (* cy_cb_scb_uart_handle_events_t)(uint32_t event);
 474:Generated_Source\PSoC6\pdl\drivers/peripheral/scb/cy_scb_uart.h **** 
 475:Generated_Source\PSoC6\pdl\drivers/peripheral/scb/cy_scb_uart.h **** /** UART configuration structure */
 476:Generated_Source\PSoC6\pdl\drivers/peripheral/scb/cy_scb_uart.h **** typedef struct stc_scb_uart_config
 477:Generated_Source\PSoC6\pdl\drivers/peripheral/scb/cy_scb_uart.h **** {
 478:Generated_Source\PSoC6\pdl\drivers/peripheral/scb/cy_scb_uart.h ****     /** Specifies the UART's mode of operation */
 479:Generated_Source\PSoC6\pdl\drivers/peripheral/scb/cy_scb_uart.h ****     cy_en_scb_uart_mode_t    uartMode;
 480:Generated_Source\PSoC6\pdl\drivers/peripheral/scb/cy_scb_uart.h **** 
 481:Generated_Source\PSoC6\pdl\drivers/peripheral/scb/cy_scb_uart.h ****     /**
 482:Generated_Source\PSoC6\pdl\drivers/peripheral/scb/cy_scb_uart.h ****     * Oversample factor for UART.
 483:Generated_Source\PSoC6\pdl\drivers/peripheral/scb/cy_scb_uart.h ****     * * The UART baud rate is the SCB Clock frequency / oversample
 484:Generated_Source\PSoC6\pdl\drivers/peripheral/scb/cy_scb_uart.h ****     *  (valid range is 8-16).
 485:Generated_Source\PSoC6\pdl\drivers/peripheral/scb/cy_scb_uart.h ****     * * For IrDA, the oversample is always 16, unless
 486:Generated_Source\PSoC6\pdl\drivers/peripheral/scb/cy_scb_uart.h ****     * \ref irdaEnableLowPowerReceiver is enabled. Then the oversample is
 487:Generated_Source\PSoC6\pdl\drivers/peripheral/scb/cy_scb_uart.h ****     * reduced to the \ref group_scb_uart_macros_irda_lp_ovs set.
 488:Generated_Source\PSoC6\pdl\drivers/peripheral/scb/cy_scb_uart.h ****     */
 489:Generated_Source\PSoC6\pdl\drivers/peripheral/scb/cy_scb_uart.h ****     uint32_t    oversample;
 490:Generated_Source\PSoC6\pdl\drivers/peripheral/scb/cy_scb_uart.h **** 
 491:Generated_Source\PSoC6\pdl\drivers/peripheral/scb/cy_scb_uart.h ****     /** The width of UART data (valid range is 5 to 9) */
 492:Generated_Source\PSoC6\pdl\drivers/peripheral/scb/cy_scb_uart.h ****     uint32_t    dataWidth;
 493:Generated_Source\PSoC6\pdl\drivers/peripheral/scb/cy_scb_uart.h **** 
 494:Generated_Source\PSoC6\pdl\drivers/peripheral/scb/cy_scb_uart.h ****     /**
 495:Generated_Source\PSoC6\pdl\drivers/peripheral/scb/cy_scb_uart.h ****     * Enables the hardware to shift out data element MSB first; otherwise,
 496:Generated_Source\PSoC6\pdl\drivers/peripheral/scb/cy_scb_uart.h ****     * LSB first
 497:Generated_Source\PSoC6\pdl\drivers/peripheral/scb/cy_scb_uart.h ****     */
 498:Generated_Source\PSoC6\pdl\drivers/peripheral/scb/cy_scb_uart.h ****     bool        enableMsbFirst;
ARM GAS  C:\Users\YOUSEF~1\AppData\Local\Temp\ccQanZ98.s 			page 39


 499:Generated_Source\PSoC6\pdl\drivers/peripheral/scb/cy_scb_uart.h **** 
 500:Generated_Source\PSoC6\pdl\drivers/peripheral/scb/cy_scb_uart.h ****     /**
 501:Generated_Source\PSoC6\pdl\drivers/peripheral/scb/cy_scb_uart.h ****     * Specifies the number of stop bits in the UART transaction, in half-bit
 502:Generated_Source\PSoC6\pdl\drivers/peripheral/scb/cy_scb_uart.h ****     * increments
 503:Generated_Source\PSoC6\pdl\drivers/peripheral/scb/cy_scb_uart.h ****     */
 504:Generated_Source\PSoC6\pdl\drivers/peripheral/scb/cy_scb_uart.h ****     cy_en_scb_uart_stop_bits_t    stopBits;
 505:Generated_Source\PSoC6\pdl\drivers/peripheral/scb/cy_scb_uart.h **** 
 506:Generated_Source\PSoC6\pdl\drivers/peripheral/scb/cy_scb_uart.h ****     /** Configures the UART parity */
 507:Generated_Source\PSoC6\pdl\drivers/peripheral/scb/cy_scb_uart.h ****     cy_en_scb_uart_parity_t    parity;
 508:Generated_Source\PSoC6\pdl\drivers/peripheral/scb/cy_scb_uart.h **** 
 509:Generated_Source\PSoC6\pdl\drivers/peripheral/scb/cy_scb_uart.h ****     /**
 510:Generated_Source\PSoC6\pdl\drivers/peripheral/scb/cy_scb_uart.h ****     * Enables a digital 3-tap median filter (2 out of 3 voting) to be applied 
 511:Generated_Source\PSoC6\pdl\drivers/peripheral/scb/cy_scb_uart.h ****     * to the input of the RX FIFO to filter glitches on the line (for IrDA, 
 512:Generated_Source\PSoC6\pdl\drivers/peripheral/scb/cy_scb_uart.h ****     * this parameter is ignored)
 513:Generated_Source\PSoC6\pdl\drivers/peripheral/scb/cy_scb_uart.h ****     *
 514:Generated_Source\PSoC6\pdl\drivers/peripheral/scb/cy_scb_uart.h ****     */
 515:Generated_Source\PSoC6\pdl\drivers/peripheral/scb/cy_scb_uart.h ****     bool        enableInputFilter;
 516:Generated_Source\PSoC6\pdl\drivers/peripheral/scb/cy_scb_uart.h **** 
 517:Generated_Source\PSoC6\pdl\drivers/peripheral/scb/cy_scb_uart.h ****     /**
 518:Generated_Source\PSoC6\pdl\drivers/peripheral/scb/cy_scb_uart.h ****     * Enables the hardware to drop data in the RX FIFO when a parity error is
 519:Generated_Source\PSoC6\pdl\drivers/peripheral/scb/cy_scb_uart.h ****     * detected
 520:Generated_Source\PSoC6\pdl\drivers/peripheral/scb/cy_scb_uart.h ****     */
 521:Generated_Source\PSoC6\pdl\drivers/peripheral/scb/cy_scb_uart.h ****     bool        dropOnParityError;
 522:Generated_Source\PSoC6\pdl\drivers/peripheral/scb/cy_scb_uart.h **** 
 523:Generated_Source\PSoC6\pdl\drivers/peripheral/scb/cy_scb_uart.h ****     /**
 524:Generated_Source\PSoC6\pdl\drivers/peripheral/scb/cy_scb_uart.h ****     * Enables the hardware to drop data in the RX FIFO when a frame error is
 525:Generated_Source\PSoC6\pdl\drivers/peripheral/scb/cy_scb_uart.h ****     * detected
 526:Generated_Source\PSoC6\pdl\drivers/peripheral/scb/cy_scb_uart.h ****     */
 527:Generated_Source\PSoC6\pdl\drivers/peripheral/scb/cy_scb_uart.h ****     bool        dropOnFrameError;
 528:Generated_Source\PSoC6\pdl\drivers/peripheral/scb/cy_scb_uart.h **** 
 529:Generated_Source\PSoC6\pdl\drivers/peripheral/scb/cy_scb_uart.h ****     /**
 530:Generated_Source\PSoC6\pdl\drivers/peripheral/scb/cy_scb_uart.h ****     * Enables the UART operation in Multi-Processor mode which requires
 531:Generated_Source\PSoC6\pdl\drivers/peripheral/scb/cy_scb_uart.h ****     * dataWidth to be 9 bits (the 9th bit is used to indicate address byte)
 532:Generated_Source\PSoC6\pdl\drivers/peripheral/scb/cy_scb_uart.h ****     */
 533:Generated_Source\PSoC6\pdl\drivers/peripheral/scb/cy_scb_uart.h ****     bool        enableMutliProcessorMode;
 534:Generated_Source\PSoC6\pdl\drivers/peripheral/scb/cy_scb_uart.h **** 
 535:Generated_Source\PSoC6\pdl\drivers/peripheral/scb/cy_scb_uart.h ****     /**
 536:Generated_Source\PSoC6\pdl\drivers/peripheral/scb/cy_scb_uart.h ****     * If Multi Processor mode is enabled, this is the address of the RX
 537:Generated_Source\PSoC6\pdl\drivers/peripheral/scb/cy_scb_uart.h ****     * FIFO. If the address matches, data is accepted into the FIFO. If
 538:Generated_Source\PSoC6\pdl\drivers/peripheral/scb/cy_scb_uart.h ****     * it does not match, the data is ignored.
 539:Generated_Source\PSoC6\pdl\drivers/peripheral/scb/cy_scb_uart.h ****     */
 540:Generated_Source\PSoC6\pdl\drivers/peripheral/scb/cy_scb_uart.h ****     uint32_t    receiverAddress;
 541:Generated_Source\PSoC6\pdl\drivers/peripheral/scb/cy_scb_uart.h **** 
 542:Generated_Source\PSoC6\pdl\drivers/peripheral/scb/cy_scb_uart.h ****     /**
 543:Generated_Source\PSoC6\pdl\drivers/peripheral/scb/cy_scb_uart.h ****     * This is the address mask for the Multi Processor address. 1 indicates
 544:Generated_Source\PSoC6\pdl\drivers/peripheral/scb/cy_scb_uart.h ****     * that the incoming address must match the corresponding bit in the slave
 545:Generated_Source\PSoC6\pdl\drivers/peripheral/scb/cy_scb_uart.h ****     * address. A 0 in the mask indicates that the incoming address does
 546:Generated_Source\PSoC6\pdl\drivers/peripheral/scb/cy_scb_uart.h ****     * not need to match.
 547:Generated_Source\PSoC6\pdl\drivers/peripheral/scb/cy_scb_uart.h ****     */
 548:Generated_Source\PSoC6\pdl\drivers/peripheral/scb/cy_scb_uart.h ****     uint32_t    receiverAddressMask;
 549:Generated_Source\PSoC6\pdl\drivers/peripheral/scb/cy_scb_uart.h **** 
 550:Generated_Source\PSoC6\pdl\drivers/peripheral/scb/cy_scb_uart.h ****     /**
 551:Generated_Source\PSoC6\pdl\drivers/peripheral/scb/cy_scb_uart.h ****     * Enables the hardware to accept the matching address in the RX FIFO.
 552:Generated_Source\PSoC6\pdl\drivers/peripheral/scb/cy_scb_uart.h ****     * This is useful when the device supports more than one address.
 553:Generated_Source\PSoC6\pdl\drivers/peripheral/scb/cy_scb_uart.h ****     */
 554:Generated_Source\PSoC6\pdl\drivers/peripheral/scb/cy_scb_uart.h ****     bool        acceptAddrInFifo;
 555:Generated_Source\PSoC6\pdl\drivers/peripheral/scb/cy_scb_uart.h **** 
ARM GAS  C:\Users\YOUSEF~1\AppData\Local\Temp\ccQanZ98.s 			page 40


 556:Generated_Source\PSoC6\pdl\drivers/peripheral/scb/cy_scb_uart.h ****     /** Inverts the IrDA RX input */
 557:Generated_Source\PSoC6\pdl\drivers/peripheral/scb/cy_scb_uart.h ****     bool        irdaInvertRx;
 558:Generated_Source\PSoC6\pdl\drivers/peripheral/scb/cy_scb_uart.h **** 
 559:Generated_Source\PSoC6\pdl\drivers/peripheral/scb/cy_scb_uart.h ****     /**
 560:Generated_Source\PSoC6\pdl\drivers/peripheral/scb/cy_scb_uart.h ****     * Enables the low-power receive for IrDA mode.
 561:Generated_Source\PSoC6\pdl\drivers/peripheral/scb/cy_scb_uart.h ****     * Note that the transmission must be disabled if this mode is enabled.
 562:Generated_Source\PSoC6\pdl\drivers/peripheral/scb/cy_scb_uart.h ****     */
 563:Generated_Source\PSoC6\pdl\drivers/peripheral/scb/cy_scb_uart.h ****     bool        irdaEnableLowPowerReceiver;
 564:Generated_Source\PSoC6\pdl\drivers/peripheral/scb/cy_scb_uart.h **** 
 565:Generated_Source\PSoC6\pdl\drivers/peripheral/scb/cy_scb_uart.h ****     /**
 566:Generated_Source\PSoC6\pdl\drivers/peripheral/scb/cy_scb_uart.h ****     * Enables retransmission of the frame placed in the TX FIFO when
 567:Generated_Source\PSoC6\pdl\drivers/peripheral/scb/cy_scb_uart.h ****     * NACK is received in SmartCard mode (for Standard and IrDA , this parameter
 568:Generated_Source\PSoC6\pdl\drivers/peripheral/scb/cy_scb_uart.h ****     * is ignored)
 569:Generated_Source\PSoC6\pdl\drivers/peripheral/scb/cy_scb_uart.h ****     */
 570:Generated_Source\PSoC6\pdl\drivers/peripheral/scb/cy_scb_uart.h ****     bool        smartCardRetryOnNack;
 571:Generated_Source\PSoC6\pdl\drivers/peripheral/scb/cy_scb_uart.h **** 
 572:Generated_Source\PSoC6\pdl\drivers/peripheral/scb/cy_scb_uart.h ****     /**
 573:Generated_Source\PSoC6\pdl\drivers/peripheral/scb/cy_scb_uart.h ****     * Enables the usage of the CTS input signal for the transmitter. The
 574:Generated_Source\PSoC6\pdl\drivers/peripheral/scb/cy_scb_uart.h ****     * transmitter waits for CTS to be active before sending data
 575:Generated_Source\PSoC6\pdl\drivers/peripheral/scb/cy_scb_uart.h ****     */
 576:Generated_Source\PSoC6\pdl\drivers/peripheral/scb/cy_scb_uart.h ****     bool        enableCts;
 577:Generated_Source\PSoC6\pdl\drivers/peripheral/scb/cy_scb_uart.h **** 
 578:Generated_Source\PSoC6\pdl\drivers/peripheral/scb/cy_scb_uart.h ****     /** Sets the CTS Polarity */
 579:Generated_Source\PSoC6\pdl\drivers/peripheral/scb/cy_scb_uart.h ****     cy_en_scb_uart_polarity_t    ctsPolarity;
 580:Generated_Source\PSoC6\pdl\drivers/peripheral/scb/cy_scb_uart.h **** 
 581:Generated_Source\PSoC6\pdl\drivers/peripheral/scb/cy_scb_uart.h ****     /**
 582:Generated_Source\PSoC6\pdl\drivers/peripheral/scb/cy_scb_uart.h ****     * When the RX FIFO has fewer entries than rtsRxFifoLevel, the
 583:Generated_Source\PSoC6\pdl\drivers/peripheral/scb/cy_scb_uart.h ****     * RTS signal is active (note to disable RTS, set this field to zero)
 584:Generated_Source\PSoC6\pdl\drivers/peripheral/scb/cy_scb_uart.h ****     */
 585:Generated_Source\PSoC6\pdl\drivers/peripheral/scb/cy_scb_uart.h ****     uint32_t    rtsRxFifoLevel;
 586:Generated_Source\PSoC6\pdl\drivers/peripheral/scb/cy_scb_uart.h **** 
 587:Generated_Source\PSoC6\pdl\drivers/peripheral/scb/cy_scb_uart.h ****     /** Sets the RTS Polarity */
 588:Generated_Source\PSoC6\pdl\drivers/peripheral/scb/cy_scb_uart.h ****     cy_en_scb_uart_polarity_t    rtsPolarity;
 589:Generated_Source\PSoC6\pdl\drivers/peripheral/scb/cy_scb_uart.h **** 
 590:Generated_Source\PSoC6\pdl\drivers/peripheral/scb/cy_scb_uart.h ****     /** Specifies the number of bits to detect a break condition */
 591:Generated_Source\PSoC6\pdl\drivers/peripheral/scb/cy_scb_uart.h ****     uint32_t    breakWidth;
 592:Generated_Source\PSoC6\pdl\drivers/peripheral/scb/cy_scb_uart.h **** 
 593:Generated_Source\PSoC6\pdl\drivers/peripheral/scb/cy_scb_uart.h ****     /**
 594:Generated_Source\PSoC6\pdl\drivers/peripheral/scb/cy_scb_uart.h ****     * When there are more entries in the RX FIFO than this level
 595:Generated_Source\PSoC6\pdl\drivers/peripheral/scb/cy_scb_uart.h ****     * the RX trigger output goes high. This output can be connected
 596:Generated_Source\PSoC6\pdl\drivers/peripheral/scb/cy_scb_uart.h ****     * to a DMA channel through a trigger mux.
 597:Generated_Source\PSoC6\pdl\drivers/peripheral/scb/cy_scb_uart.h ****     * Also, it controls the \ref CY_SCB_UART_RX_TRIGGER interrupt source.
 598:Generated_Source\PSoC6\pdl\drivers/peripheral/scb/cy_scb_uart.h ****     */
 599:Generated_Source\PSoC6\pdl\drivers/peripheral/scb/cy_scb_uart.h ****     uint32_t    rxFifoTriggerLevel;
 600:Generated_Source\PSoC6\pdl\drivers/peripheral/scb/cy_scb_uart.h **** 
 601:Generated_Source\PSoC6\pdl\drivers/peripheral/scb/cy_scb_uart.h ****     /**
 602:Generated_Source\PSoC6\pdl\drivers/peripheral/scb/cy_scb_uart.h ****     * The bits set in this mask allow the event to cause an interrupt
 603:Generated_Source\PSoC6\pdl\drivers/peripheral/scb/cy_scb_uart.h ****     * (See \ref group_scb_uart_macros_rx_fifo_status for the set of constants)
 604:Generated_Source\PSoC6\pdl\drivers/peripheral/scb/cy_scb_uart.h ****     */
 605:Generated_Source\PSoC6\pdl\drivers/peripheral/scb/cy_scb_uart.h ****     uint32_t    rxFifoIntEnableMask;
 606:Generated_Source\PSoC6\pdl\drivers/peripheral/scb/cy_scb_uart.h **** 
 607:Generated_Source\PSoC6\pdl\drivers/peripheral/scb/cy_scb_uart.h ****     /**
 608:Generated_Source\PSoC6\pdl\drivers/peripheral/scb/cy_scb_uart.h ****     * When there are fewer entries in the TX FIFO then this level
 609:Generated_Source\PSoC6\pdl\drivers/peripheral/scb/cy_scb_uart.h ****     * the TX trigger output goes high. This output can be connected
 610:Generated_Source\PSoC6\pdl\drivers/peripheral/scb/cy_scb_uart.h ****     * to a DMA channel through a trigger mux.
 611:Generated_Source\PSoC6\pdl\drivers/peripheral/scb/cy_scb_uart.h ****     * Also, it controls \ref CY_SCB_UART_TX_TRIGGER interrupt source.
 612:Generated_Source\PSoC6\pdl\drivers/peripheral/scb/cy_scb_uart.h ****     */
ARM GAS  C:\Users\YOUSEF~1\AppData\Local\Temp\ccQanZ98.s 			page 41


 613:Generated_Source\PSoC6\pdl\drivers/peripheral/scb/cy_scb_uart.h ****     uint32_t    txFifoTriggerLevel;
 614:Generated_Source\PSoC6\pdl\drivers/peripheral/scb/cy_scb_uart.h **** 
 615:Generated_Source\PSoC6\pdl\drivers/peripheral/scb/cy_scb_uart.h ****     /**
 616:Generated_Source\PSoC6\pdl\drivers/peripheral/scb/cy_scb_uart.h ****     * Bits set in this mask allows the event to cause an interrupt
 617:Generated_Source\PSoC6\pdl\drivers/peripheral/scb/cy_scb_uart.h ****     * (See \ref group_scb_uart_macros_tx_fifo_status for the set of constants)
 618:Generated_Source\PSoC6\pdl\drivers/peripheral/scb/cy_scb_uart.h ****     */
 619:Generated_Source\PSoC6\pdl\drivers/peripheral/scb/cy_scb_uart.h ****     uint32_t    txFifoIntEnableMask;
 620:Generated_Source\PSoC6\pdl\drivers/peripheral/scb/cy_scb_uart.h **** } cy_stc_scb_uart_config_t;
 621:Generated_Source\PSoC6\pdl\drivers/peripheral/scb/cy_scb_uart.h **** 
 622:Generated_Source\PSoC6\pdl\drivers/peripheral/scb/cy_scb_uart.h **** /** UART context structure.
 623:Generated_Source\PSoC6\pdl\drivers/peripheral/scb/cy_scb_uart.h **** * All fields for the context structure are internal. Firmware never reads or
 624:Generated_Source\PSoC6\pdl\drivers/peripheral/scb/cy_scb_uart.h **** * writes these values. Firmware allocates the structure and provides the
 625:Generated_Source\PSoC6\pdl\drivers/peripheral/scb/cy_scb_uart.h **** * address of the structure to the driver in function calls. Firmware must
 626:Generated_Source\PSoC6\pdl\drivers/peripheral/scb/cy_scb_uart.h **** * ensure that the defined instance of this structure remains in scope
 627:Generated_Source\PSoC6\pdl\drivers/peripheral/scb/cy_scb_uart.h **** * while the drive is in use.
 628:Generated_Source\PSoC6\pdl\drivers/peripheral/scb/cy_scb_uart.h **** */
 629:Generated_Source\PSoC6\pdl\drivers/peripheral/scb/cy_scb_uart.h **** typedef struct cy_stc_scb_uart_context
 630:Generated_Source\PSoC6\pdl\drivers/peripheral/scb/cy_scb_uart.h **** {
 631:Generated_Source\PSoC6\pdl\drivers/peripheral/scb/cy_scb_uart.h ****     /** \cond INTERNAL */
 632:Generated_Source\PSoC6\pdl\drivers/peripheral/scb/cy_scb_uart.h ****     uint32_t volatile txStatus;         /**< The transmit status */
 633:Generated_Source\PSoC6\pdl\drivers/peripheral/scb/cy_scb_uart.h ****     uint32_t volatile rxStatus;         /**< The receive status */
 634:Generated_Source\PSoC6\pdl\drivers/peripheral/scb/cy_scb_uart.h **** 
 635:Generated_Source\PSoC6\pdl\drivers/peripheral/scb/cy_scb_uart.h ****     void     *rxRingBuf;                /**< The pointer to the ring buffer */
 636:Generated_Source\PSoC6\pdl\drivers/peripheral/scb/cy_scb_uart.h ****     uint32_t  rxRingBufSize;            /**< The ring buffer size */
 637:Generated_Source\PSoC6\pdl\drivers/peripheral/scb/cy_scb_uart.h ****     uint32_t volatile rxRingBufHead;    /**< The ring buffer head index */
 638:Generated_Source\PSoC6\pdl\drivers/peripheral/scb/cy_scb_uart.h ****     uint32_t volatile rxRingBufTail;    /**< The ring buffer tail index */
 639:Generated_Source\PSoC6\pdl\drivers/peripheral/scb/cy_scb_uart.h **** 
 640:Generated_Source\PSoC6\pdl\drivers/peripheral/scb/cy_scb_uart.h ****     void     *rxBuf;                    /**< The pointer to the receive buffer */
 641:Generated_Source\PSoC6\pdl\drivers/peripheral/scb/cy_scb_uart.h ****     uint32_t  rxBufSize;                /**< The receive buffer size */
 642:Generated_Source\PSoC6\pdl\drivers/peripheral/scb/cy_scb_uart.h ****     uint32_t volatile rxBufIdx;         /**< The current location in the receive buffer */
 643:Generated_Source\PSoC6\pdl\drivers/peripheral/scb/cy_scb_uart.h **** 
 644:Generated_Source\PSoC6\pdl\drivers/peripheral/scb/cy_scb_uart.h ****     void     *txBuf;                    /**< The pointer to the transmit buffer */
 645:Generated_Source\PSoC6\pdl\drivers/peripheral/scb/cy_scb_uart.h ****     uint32_t  txBufSize;                /**< The transmit buffer size */
 646:Generated_Source\PSoC6\pdl\drivers/peripheral/scb/cy_scb_uart.h ****     uint32_t volatile txLeftToTransmit; /**< The number of data elements left to be transmitted */
 647:Generated_Source\PSoC6\pdl\drivers/peripheral/scb/cy_scb_uart.h **** 
 648:Generated_Source\PSoC6\pdl\drivers/peripheral/scb/cy_scb_uart.h ****     /** The pointer to an event callback that is called when any of
 649:Generated_Source\PSoC6\pdl\drivers/peripheral/scb/cy_scb_uart.h ****     * \ref group_scb_uart_macros_callback_events occurs
 650:Generated_Source\PSoC6\pdl\drivers/peripheral/scb/cy_scb_uart.h ****     */
 651:Generated_Source\PSoC6\pdl\drivers/peripheral/scb/cy_scb_uart.h ****     cy_cb_scb_uart_handle_events_t cbEvents;
 652:Generated_Source\PSoC6\pdl\drivers/peripheral/scb/cy_scb_uart.h **** 
 653:Generated_Source\PSoC6\pdl\drivers/peripheral/scb/cy_scb_uart.h **** #if !defined(NDEBUG)
 654:Generated_Source\PSoC6\pdl\drivers/peripheral/scb/cy_scb_uart.h ****     uint32_t initKey;               /**< Tracks the context initialization */
 655:Generated_Source\PSoC6\pdl\drivers/peripheral/scb/cy_scb_uart.h **** #endif /* !(NDEBUG) */
 656:Generated_Source\PSoC6\pdl\drivers/peripheral/scb/cy_scb_uart.h ****     /** \endcond */
 657:Generated_Source\PSoC6\pdl\drivers/peripheral/scb/cy_scb_uart.h **** } cy_stc_scb_uart_context_t;
 658:Generated_Source\PSoC6\pdl\drivers/peripheral/scb/cy_scb_uart.h **** /** \} group_scb_uart_data_structures */
 659:Generated_Source\PSoC6\pdl\drivers/peripheral/scb/cy_scb_uart.h **** 
 660:Generated_Source\PSoC6\pdl\drivers/peripheral/scb/cy_scb_uart.h **** 
 661:Generated_Source\PSoC6\pdl\drivers/peripheral/scb/cy_scb_uart.h **** /*******************************************************************************
 662:Generated_Source\PSoC6\pdl\drivers/peripheral/scb/cy_scb_uart.h **** *                           Function Prototypes
 663:Generated_Source\PSoC6\pdl\drivers/peripheral/scb/cy_scb_uart.h **** *******************************************************************************/
 664:Generated_Source\PSoC6\pdl\drivers/peripheral/scb/cy_scb_uart.h **** 
 665:Generated_Source\PSoC6\pdl\drivers/peripheral/scb/cy_scb_uart.h **** /**
 666:Generated_Source\PSoC6\pdl\drivers/peripheral/scb/cy_scb_uart.h **** * \addtogroup group_scb_uart_general_functions
 667:Generated_Source\PSoC6\pdl\drivers/peripheral/scb/cy_scb_uart.h **** * \{
 668:Generated_Source\PSoC6\pdl\drivers/peripheral/scb/cy_scb_uart.h **** */
 669:Generated_Source\PSoC6\pdl\drivers/peripheral/scb/cy_scb_uart.h **** cy_en_scb_uart_status_t Cy_SCB_UART_Init(CySCB_Type *base, cy_stc_scb_uart_config_t const *config,
ARM GAS  C:\Users\YOUSEF~1\AppData\Local\Temp\ccQanZ98.s 			page 42


 670:Generated_Source\PSoC6\pdl\drivers/peripheral/scb/cy_scb_uart.h ****                                          cy_stc_scb_uart_context_t *context);
 671:Generated_Source\PSoC6\pdl\drivers/peripheral/scb/cy_scb_uart.h **** void Cy_SCB_UART_DeInit (CySCB_Type *base);
 672:Generated_Source\PSoC6\pdl\drivers/peripheral/scb/cy_scb_uart.h **** __STATIC_INLINE void Cy_SCB_UART_Enable(CySCB_Type *base);
 673:Generated_Source\PSoC6\pdl\drivers/peripheral/scb/cy_scb_uart.h **** void Cy_SCB_UART_Disable(CySCB_Type *base, cy_stc_scb_uart_context_t *context);
 674:Generated_Source\PSoC6\pdl\drivers/peripheral/scb/cy_scb_uart.h **** 
 675:Generated_Source\PSoC6\pdl\drivers/peripheral/scb/cy_scb_uart.h **** __STATIC_INLINE void     Cy_SCB_UART_EnableCts      (CySCB_Type *base);
 676:Generated_Source\PSoC6\pdl\drivers/peripheral/scb/cy_scb_uart.h **** __STATIC_INLINE void     Cy_SCB_UART_DisableCts     (CySCB_Type *base);
 677:Generated_Source\PSoC6\pdl\drivers/peripheral/scb/cy_scb_uart.h **** __STATIC_INLINE void     Cy_SCB_UART_SetRtsFifoLevel(CySCB_Type *base, uint32_t level);
 678:Generated_Source\PSoC6\pdl\drivers/peripheral/scb/cy_scb_uart.h **** __STATIC_INLINE uint32_t Cy_SCB_UART_GetRtsFifoLevel(CySCB_Type const *base);
 679:Generated_Source\PSoC6\pdl\drivers/peripheral/scb/cy_scb_uart.h **** 
 680:Generated_Source\PSoC6\pdl\drivers/peripheral/scb/cy_scb_uart.h **** __STATIC_INLINE void Cy_SCB_UART_EnableSkipStart (CySCB_Type *base);
 681:Generated_Source\PSoC6\pdl\drivers/peripheral/scb/cy_scb_uart.h **** __STATIC_INLINE void Cy_SCB_UART_DisableSkipStart(CySCB_Type *base);
 682:Generated_Source\PSoC6\pdl\drivers/peripheral/scb/cy_scb_uart.h **** /** \} group_scb_uart_general_functions */
 683:Generated_Source\PSoC6\pdl\drivers/peripheral/scb/cy_scb_uart.h **** 
 684:Generated_Source\PSoC6\pdl\drivers/peripheral/scb/cy_scb_uart.h **** /**
 685:Generated_Source\PSoC6\pdl\drivers/peripheral/scb/cy_scb_uart.h **** * \addtogroup group_scb_uart_high_level_functions
 686:Generated_Source\PSoC6\pdl\drivers/peripheral/scb/cy_scb_uart.h **** * \{
 687:Generated_Source\PSoC6\pdl\drivers/peripheral/scb/cy_scb_uart.h **** */
 688:Generated_Source\PSoC6\pdl\drivers/peripheral/scb/cy_scb_uart.h **** void     Cy_SCB_UART_StartRingBuffer   (CySCB_Type *base, void *buffer, uint32_t size,
 689:Generated_Source\PSoC6\pdl\drivers/peripheral/scb/cy_scb_uart.h ****                                         cy_stc_scb_uart_context_t *context);
 690:Generated_Source\PSoC6\pdl\drivers/peripheral/scb/cy_scb_uart.h **** void     Cy_SCB_UART_StopRingBuffer    (CySCB_Type *base, cy_stc_scb_uart_context_t *context);
 691:Generated_Source\PSoC6\pdl\drivers/peripheral/scb/cy_scb_uart.h **** uint32_t Cy_SCB_UART_GetNumInRingBuffer(CySCB_Type const *base, cy_stc_scb_uart_context_t const *co
 692:Generated_Source\PSoC6\pdl\drivers/peripheral/scb/cy_scb_uart.h **** void     Cy_SCB_UART_ClearRingBuffer   (CySCB_Type const *base, cy_stc_scb_uart_context_t *context)
 693:Generated_Source\PSoC6\pdl\drivers/peripheral/scb/cy_scb_uart.h **** 
 694:Generated_Source\PSoC6\pdl\drivers/peripheral/scb/cy_scb_uart.h **** cy_en_scb_uart_status_t Cy_SCB_UART_Receive(CySCB_Type *base, void *buffer, uint32_t size,
 695:Generated_Source\PSoC6\pdl\drivers/peripheral/scb/cy_scb_uart.h ****                                             cy_stc_scb_uart_context_t *context);
 696:Generated_Source\PSoC6\pdl\drivers/peripheral/scb/cy_scb_uart.h **** void     Cy_SCB_UART_AbortReceive    (CySCB_Type *base, cy_stc_scb_uart_context_t *context);
 697:Generated_Source\PSoC6\pdl\drivers/peripheral/scb/cy_scb_uart.h **** uint32_t Cy_SCB_UART_GetReceiveStatus(CySCB_Type const *base, cy_stc_scb_uart_context_t const *cont
 698:Generated_Source\PSoC6\pdl\drivers/peripheral/scb/cy_scb_uart.h **** uint32_t Cy_SCB_UART_GetNumReceived  (CySCB_Type const *base, cy_stc_scb_uart_context_t const *cont
 699:Generated_Source\PSoC6\pdl\drivers/peripheral/scb/cy_scb_uart.h **** 
 700:Generated_Source\PSoC6\pdl\drivers/peripheral/scb/cy_scb_uart.h **** cy_en_scb_uart_status_t Cy_SCB_UART_Transmit(CySCB_Type *base, void *buffer, uint32_t size,
 701:Generated_Source\PSoC6\pdl\drivers/peripheral/scb/cy_scb_uart.h ****                                              cy_stc_scb_uart_context_t *context);
 702:Generated_Source\PSoC6\pdl\drivers/peripheral/scb/cy_scb_uart.h **** void     Cy_SCB_UART_AbortTransmit       (CySCB_Type *base, cy_stc_scb_uart_context_t *context);
 703:Generated_Source\PSoC6\pdl\drivers/peripheral/scb/cy_scb_uart.h **** uint32_t Cy_SCB_UART_GetTransmitStatus   (CySCB_Type const *base, cy_stc_scb_uart_context_t const *
 704:Generated_Source\PSoC6\pdl\drivers/peripheral/scb/cy_scb_uart.h **** uint32_t Cy_SCB_UART_GetNumLeftToTransmit(CySCB_Type const *base, cy_stc_scb_uart_context_t const *
 705:Generated_Source\PSoC6\pdl\drivers/peripheral/scb/cy_scb_uart.h **** /** \} group_scb_uart_high_level_functions */
 706:Generated_Source\PSoC6\pdl\drivers/peripheral/scb/cy_scb_uart.h **** 
 707:Generated_Source\PSoC6\pdl\drivers/peripheral/scb/cy_scb_uart.h **** /**
 708:Generated_Source\PSoC6\pdl\drivers/peripheral/scb/cy_scb_uart.h **** * \addtogroup group_scb_uart_low_level_functions
 709:Generated_Source\PSoC6\pdl\drivers/peripheral/scb/cy_scb_uart.h **** * \{
 710:Generated_Source\PSoC6\pdl\drivers/peripheral/scb/cy_scb_uart.h **** */
 711:Generated_Source\PSoC6\pdl\drivers/peripheral/scb/cy_scb_uart.h **** __STATIC_INLINE uint32_t Cy_SCB_UART_Put             (CySCB_Type *base, uint32_t data);
 712:Generated_Source\PSoC6\pdl\drivers/peripheral/scb/cy_scb_uart.h **** __STATIC_INLINE uint32_t Cy_SCB_UART_PutArray        (CySCB_Type *base, void *buffer, uint32_t size
 713:Generated_Source\PSoC6\pdl\drivers/peripheral/scb/cy_scb_uart.h **** __STATIC_INLINE void     Cy_SCB_UART_PutArrayBlocking(CySCB_Type *base, void *buffer, uint32_t size
 714:Generated_Source\PSoC6\pdl\drivers/peripheral/scb/cy_scb_uart.h **** __STATIC_INLINE void     Cy_SCB_UART_PutString       (CySCB_Type *base, char_t const string[]);
 715:Generated_Source\PSoC6\pdl\drivers/peripheral/scb/cy_scb_uart.h **** void Cy_SCB_UART_SendBreakBlocking(CySCB_Type *base, uint32_t breakWidth);
 716:Generated_Source\PSoC6\pdl\drivers/peripheral/scb/cy_scb_uart.h **** 
 717:Generated_Source\PSoC6\pdl\drivers/peripheral/scb/cy_scb_uart.h **** __STATIC_INLINE uint32_t Cy_SCB_UART_Get             (CySCB_Type const *base);
 718:Generated_Source\PSoC6\pdl\drivers/peripheral/scb/cy_scb_uart.h **** __STATIC_INLINE uint32_t Cy_SCB_UART_GetArray        (CySCB_Type const *base, void *buffer, uint32_
 719:Generated_Source\PSoC6\pdl\drivers/peripheral/scb/cy_scb_uart.h **** __STATIC_INLINE void     Cy_SCB_UART_GetArrayBlocking(CySCB_Type const *base, void *buffer, uint32_
 720:Generated_Source\PSoC6\pdl\drivers/peripheral/scb/cy_scb_uart.h **** 
 721:Generated_Source\PSoC6\pdl\drivers/peripheral/scb/cy_scb_uart.h **** __STATIC_INLINE uint32_t Cy_SCB_UART_GetTxFifoStatus  (CySCB_Type const *base);
 722:Generated_Source\PSoC6\pdl\drivers/peripheral/scb/cy_scb_uart.h **** __STATIC_INLINE void     Cy_SCB_UART_ClearTxFifoStatus(CySCB_Type *base, uint32_t clearMask);
 723:Generated_Source\PSoC6\pdl\drivers/peripheral/scb/cy_scb_uart.h **** 
 724:Generated_Source\PSoC6\pdl\drivers/peripheral/scb/cy_scb_uart.h **** __STATIC_INLINE uint32_t Cy_SCB_UART_GetRxFifoStatus  (CySCB_Type const *base);
 725:Generated_Source\PSoC6\pdl\drivers/peripheral/scb/cy_scb_uart.h **** __STATIC_INLINE void     Cy_SCB_UART_ClearRxFifoStatus(CySCB_Type *base, uint32_t clearMask);
 726:Generated_Source\PSoC6\pdl\drivers/peripheral/scb/cy_scb_uart.h **** 
ARM GAS  C:\Users\YOUSEF~1\AppData\Local\Temp\ccQanZ98.s 			page 43


 727:Generated_Source\PSoC6\pdl\drivers/peripheral/scb/cy_scb_uart.h **** __STATIC_INLINE uint32_t Cy_SCB_UART_GetNumInTxFifo   (CySCB_Type const *base);
 728:Generated_Source\PSoC6\pdl\drivers/peripheral/scb/cy_scb_uart.h **** __STATIC_INLINE bool     Cy_SCB_UART_IsTxComplete     (CySCB_Type const *base);
 729:Generated_Source\PSoC6\pdl\drivers/peripheral/scb/cy_scb_uart.h **** 
 730:Generated_Source\PSoC6\pdl\drivers/peripheral/scb/cy_scb_uart.h **** __STATIC_INLINE uint32_t Cy_SCB_UART_GetNumInRxFifo   (CySCB_Type const *base);
 731:Generated_Source\PSoC6\pdl\drivers/peripheral/scb/cy_scb_uart.h **** 
 732:Generated_Source\PSoC6\pdl\drivers/peripheral/scb/cy_scb_uart.h **** __STATIC_INLINE void     Cy_SCB_UART_ClearRxFifo      (CySCB_Type *base);
 733:Generated_Source\PSoC6\pdl\drivers/peripheral/scb/cy_scb_uart.h **** __STATIC_INLINE void     Cy_SCB_UART_ClearTxFifo      (CySCB_Type *base);
 734:Generated_Source\PSoC6\pdl\drivers/peripheral/scb/cy_scb_uart.h **** /** \} group_scb_uart_low_level_functions */
 735:Generated_Source\PSoC6\pdl\drivers/peripheral/scb/cy_scb_uart.h **** 
 736:Generated_Source\PSoC6\pdl\drivers/peripheral/scb/cy_scb_uart.h **** /**
 737:Generated_Source\PSoC6\pdl\drivers/peripheral/scb/cy_scb_uart.h **** * \addtogroup group_scb_uart_interrupt_functions
 738:Generated_Source\PSoC6\pdl\drivers/peripheral/scb/cy_scb_uart.h **** * \{
 739:Generated_Source\PSoC6\pdl\drivers/peripheral/scb/cy_scb_uart.h **** */
 740:Generated_Source\PSoC6\pdl\drivers/peripheral/scb/cy_scb_uart.h **** void Cy_SCB_UART_Interrupt(CySCB_Type *base, cy_stc_scb_uart_context_t *context);
 741:Generated_Source\PSoC6\pdl\drivers/peripheral/scb/cy_scb_uart.h **** 
 742:Generated_Source\PSoC6\pdl\drivers/peripheral/scb/cy_scb_uart.h **** __STATIC_INLINE void Cy_SCB_UART_RegisterCallback(CySCB_Type const *base, cy_cb_scb_uart_handle_eve
 743:Generated_Source\PSoC6\pdl\drivers/peripheral/scb/cy_scb_uart.h ****                                                   cy_stc_scb_uart_context_t *context);
 744:Generated_Source\PSoC6\pdl\drivers/peripheral/scb/cy_scb_uart.h **** /** \} group_scb_uart_interrupt_functions */
 745:Generated_Source\PSoC6\pdl\drivers/peripheral/scb/cy_scb_uart.h **** 
 746:Generated_Source\PSoC6\pdl\drivers/peripheral/scb/cy_scb_uart.h **** /**
 747:Generated_Source\PSoC6\pdl\drivers/peripheral/scb/cy_scb_uart.h **** * \addtogroup group_scb_uart_low_power_functions
 748:Generated_Source\PSoC6\pdl\drivers/peripheral/scb/cy_scb_uart.h **** * \{
 749:Generated_Source\PSoC6\pdl\drivers/peripheral/scb/cy_scb_uart.h **** */
 750:Generated_Source\PSoC6\pdl\drivers/peripheral/scb/cy_scb_uart.h **** cy_en_syspm_status_t Cy_SCB_UART_DeepSleepCallback(cy_stc_syspm_callback_params_t *callbackParams, 
 751:Generated_Source\PSoC6\pdl\drivers/peripheral/scb/cy_scb_uart.h **** cy_en_syspm_status_t Cy_SCB_UART_HibernateCallback(cy_stc_syspm_callback_params_t *callbackParams, 
 752:Generated_Source\PSoC6\pdl\drivers/peripheral/scb/cy_scb_uart.h **** /** \} group_scb_uart_low_power_functions */
 753:Generated_Source\PSoC6\pdl\drivers/peripheral/scb/cy_scb_uart.h **** 
 754:Generated_Source\PSoC6\pdl\drivers/peripheral/scb/cy_scb_uart.h **** 
 755:Generated_Source\PSoC6\pdl\drivers/peripheral/scb/cy_scb_uart.h **** /*******************************************************************************
 756:Generated_Source\PSoC6\pdl\drivers/peripheral/scb/cy_scb_uart.h **** *                               API Constants
 757:Generated_Source\PSoC6\pdl\drivers/peripheral/scb/cy_scb_uart.h **** *******************************************************************************/
 758:Generated_Source\PSoC6\pdl\drivers/peripheral/scb/cy_scb_uart.h **** 
 759:Generated_Source\PSoC6\pdl\drivers/peripheral/scb/cy_scb_uart.h **** /**
 760:Generated_Source\PSoC6\pdl\drivers/peripheral/scb/cy_scb_uart.h **** * \addtogroup group_scb_uart_macros
 761:Generated_Source\PSoC6\pdl\drivers/peripheral/scb/cy_scb_uart.h **** * \{
 762:Generated_Source\PSoC6\pdl\drivers/peripheral/scb/cy_scb_uart.h **** */
 763:Generated_Source\PSoC6\pdl\drivers/peripheral/scb/cy_scb_uart.h **** 
 764:Generated_Source\PSoC6\pdl\drivers/peripheral/scb/cy_scb_uart.h **** /**
 765:Generated_Source\PSoC6\pdl\drivers/peripheral/scb/cy_scb_uart.h **** * \defgroup group_scb_uart_macros_irda_lp_ovs UART IRDA Low Power Oversample factors
 766:Generated_Source\PSoC6\pdl\drivers/peripheral/scb/cy_scb_uart.h **** * \{
 767:Generated_Source\PSoC6\pdl\drivers/peripheral/scb/cy_scb_uart.h **** */
 768:Generated_Source\PSoC6\pdl\drivers/peripheral/scb/cy_scb_uart.h **** #define CY_SCB_UART_IRDA_LP_OVS16      (1UL)   /**< IrDA in low-power mode oversampled by 16   */
 769:Generated_Source\PSoC6\pdl\drivers/peripheral/scb/cy_scb_uart.h **** #define CY_SCB_UART_IRDA_LP_OVS32      (2UL)   /**< IrDA in low-power mode oversampled by 32   */
 770:Generated_Source\PSoC6\pdl\drivers/peripheral/scb/cy_scb_uart.h **** #define CY_SCB_UART_IRDA_LP_OVS48      (3UL)   /**< IrDA in low-power mode oversampled by 48   */
 771:Generated_Source\PSoC6\pdl\drivers/peripheral/scb/cy_scb_uart.h **** #define CY_SCB_UART_IRDA_LP_OVS96      (4UL)   /**< IrDA in low-power mode oversampled by 96   */
 772:Generated_Source\PSoC6\pdl\drivers/peripheral/scb/cy_scb_uart.h **** #define CY_SCB_UART_IRDA_LP_OVS192     (5UL)   /**< IrDA in low-power mode oversampled by 192  */
 773:Generated_Source\PSoC6\pdl\drivers/peripheral/scb/cy_scb_uart.h **** #define CY_SCB_UART_IRDA_LP_OVS768     (6UL)   /**< IrDA in low-power mode oversampled by 768  */
 774:Generated_Source\PSoC6\pdl\drivers/peripheral/scb/cy_scb_uart.h **** #define CY_SCB_UART_IRDA_LP_OVS1536    (7UL)   /**< IrDA in low-power mode oversampled by 1536 */
 775:Generated_Source\PSoC6\pdl\drivers/peripheral/scb/cy_scb_uart.h **** /** \} group_scb_uart_macros_irda_lp_ovs */
 776:Generated_Source\PSoC6\pdl\drivers/peripheral/scb/cy_scb_uart.h **** 
 777:Generated_Source\PSoC6\pdl\drivers/peripheral/scb/cy_scb_uart.h **** /**
 778:Generated_Source\PSoC6\pdl\drivers/peripheral/scb/cy_scb_uart.h **** * \defgroup group_scb_uart_macros_rx_fifo_status UART RX FIFO status.
 779:Generated_Source\PSoC6\pdl\drivers/peripheral/scb/cy_scb_uart.h **** * \{
 780:Generated_Source\PSoC6\pdl\drivers/peripheral/scb/cy_scb_uart.h **** * Macros to check UART RX FIFO status returned by \ref Cy_SCB_UART_GetRxFifoStatus
 781:Generated_Source\PSoC6\pdl\drivers/peripheral/scb/cy_scb_uart.h **** * function or assign mask for \ref Cy_SCB_UART_ClearRxFifoStatus function.
 782:Generated_Source\PSoC6\pdl\drivers/peripheral/scb/cy_scb_uart.h **** * Each UART RX FIFO status is encoded in a separate bit, therefore multiple
 783:Generated_Source\PSoC6\pdl\drivers/peripheral/scb/cy_scb_uart.h **** * bits may be set to indicate the current status.
ARM GAS  C:\Users\YOUSEF~1\AppData\Local\Temp\ccQanZ98.s 			page 44


 784:Generated_Source\PSoC6\pdl\drivers/peripheral/scb/cy_scb_uart.h **** */
 785:Generated_Source\PSoC6\pdl\drivers/peripheral/scb/cy_scb_uart.h **** 
 786:Generated_Source\PSoC6\pdl\drivers/peripheral/scb/cy_scb_uart.h **** /** The number of entries in the RX FIFO is more than the RX FIFO trigger level
 787:Generated_Source\PSoC6\pdl\drivers/peripheral/scb/cy_scb_uart.h **** * value
 788:Generated_Source\PSoC6\pdl\drivers/peripheral/scb/cy_scb_uart.h **** */
 789:Generated_Source\PSoC6\pdl\drivers/peripheral/scb/cy_scb_uart.h **** #define CY_SCB_UART_RX_TRIGGER         (SCB_INTR_RX_TRIGGER_Msk)
 790:Generated_Source\PSoC6\pdl\drivers/peripheral/scb/cy_scb_uart.h **** 
 791:Generated_Source\PSoC6\pdl\drivers/peripheral/scb/cy_scb_uart.h **** /** The RX FIFO is not empty, there is data to read */
 792:Generated_Source\PSoC6\pdl\drivers/peripheral/scb/cy_scb_uart.h **** #define CY_SCB_UART_RX_NOT_EMPTY       (SCB_INTR_RX_NOT_EMPTY_Msk)
 793:Generated_Source\PSoC6\pdl\drivers/peripheral/scb/cy_scb_uart.h **** 
 794:Generated_Source\PSoC6\pdl\drivers/peripheral/scb/cy_scb_uart.h **** /**
 795:Generated_Source\PSoC6\pdl\drivers/peripheral/scb/cy_scb_uart.h **** * The RX FIFO is full, there is no more space for additional data, and
 796:Generated_Source\PSoC6\pdl\drivers/peripheral/scb/cy_scb_uart.h **** * any additional data will be dropped
 797:Generated_Source\PSoC6\pdl\drivers/peripheral/scb/cy_scb_uart.h **** */
 798:Generated_Source\PSoC6\pdl\drivers/peripheral/scb/cy_scb_uart.h **** #define CY_SCB_UART_RX_FULL            (SCB_INTR_RX_FULL_Msk)
 799:Generated_Source\PSoC6\pdl\drivers/peripheral/scb/cy_scb_uart.h **** 
 800:Generated_Source\PSoC6\pdl\drivers/peripheral/scb/cy_scb_uart.h **** /**
 801:Generated_Source\PSoC6\pdl\drivers/peripheral/scb/cy_scb_uart.h **** * The RX FIFO was full and there was an attempt to write to it.
 802:Generated_Source\PSoC6\pdl\drivers/peripheral/scb/cy_scb_uart.h **** * That additional data was dropped.
 803:Generated_Source\PSoC6\pdl\drivers/peripheral/scb/cy_scb_uart.h **** */
 804:Generated_Source\PSoC6\pdl\drivers/peripheral/scb/cy_scb_uart.h **** #define CY_SCB_UART_RX_OVERFLOW        (SCB_INTR_RX_OVERFLOW_Msk)
 805:Generated_Source\PSoC6\pdl\drivers/peripheral/scb/cy_scb_uart.h **** 
 806:Generated_Source\PSoC6\pdl\drivers/peripheral/scb/cy_scb_uart.h **** /** An attempt to read from an empty RX FIFO */
 807:Generated_Source\PSoC6\pdl\drivers/peripheral/scb/cy_scb_uart.h **** #define CY_SCB_UART_RX_UNDERFLOW       (SCB_INTR_RX_UNDERFLOW_Msk)
 808:Generated_Source\PSoC6\pdl\drivers/peripheral/scb/cy_scb_uart.h **** 
 809:Generated_Source\PSoC6\pdl\drivers/peripheral/scb/cy_scb_uart.h **** /** The RX FIFO detected a frame error, either a stop or stop-bit error */
 810:Generated_Source\PSoC6\pdl\drivers/peripheral/scb/cy_scb_uart.h **** #define CY_SCB_UART_RX_ERR_FRAME       (SCB_INTR_RX_FRAME_ERROR_Msk)
 811:Generated_Source\PSoC6\pdl\drivers/peripheral/scb/cy_scb_uart.h **** 
 812:Generated_Source\PSoC6\pdl\drivers/peripheral/scb/cy_scb_uart.h **** /** The RX FIFO detected a parity error */
 813:Generated_Source\PSoC6\pdl\drivers/peripheral/scb/cy_scb_uart.h **** #define CY_SCB_UART_RX_ERR_PARITY      (SCB_INTR_RX_PARITY_ERROR_Msk)
 814:Generated_Source\PSoC6\pdl\drivers/peripheral/scb/cy_scb_uart.h **** 
 815:Generated_Source\PSoC6\pdl\drivers/peripheral/scb/cy_scb_uart.h **** /** The RX FIFO detected a break transmission from the transmitter */
 816:Generated_Source\PSoC6\pdl\drivers/peripheral/scb/cy_scb_uart.h **** #define CY_SCB_UART_RX_BREAK_DETECT    (SCB_INTR_RX_BREAK_DETECT_Msk)
 817:Generated_Source\PSoC6\pdl\drivers/peripheral/scb/cy_scb_uart.h **** /** \} group_scb_uart_macros_rx_fifo_status */
 818:Generated_Source\PSoC6\pdl\drivers/peripheral/scb/cy_scb_uart.h **** 
 819:Generated_Source\PSoC6\pdl\drivers/peripheral/scb/cy_scb_uart.h **** /**
 820:Generated_Source\PSoC6\pdl\drivers/peripheral/scb/cy_scb_uart.h **** * \defgroup group_scb_uart_macros_tx_fifo_status UART TX FIFO Statuses
 821:Generated_Source\PSoC6\pdl\drivers/peripheral/scb/cy_scb_uart.h **** * \{
 822:Generated_Source\PSoC6\pdl\drivers/peripheral/scb/cy_scb_uart.h **** * Macros to check UART TX FIFO status returned by \ref Cy_SCB_UART_GetTxFifoStatus
 823:Generated_Source\PSoC6\pdl\drivers/peripheral/scb/cy_scb_uart.h **** * function or assign mask for \ref Cy_SCB_UART_ClearTxFifoStatus function.
 824:Generated_Source\PSoC6\pdl\drivers/peripheral/scb/cy_scb_uart.h **** * Each UART TX FIFO status is encoded in a separate bit, therefore multiple bits
