ARM GAS  C:\Users\ASUS\AppData\Local\Temp\cczm8cZa.s 			page 1


   1              		.syntax unified
   2              		.cpu cortex-m0plus
   3              		.fpu softvfp
   4              		.eabi_attribute 20, 1
   5              		.eabi_attribute 21, 1
   6              		.eabi_attribute 23, 3
   7              		.eabi_attribute 24, 1
   8              		.eabi_attribute 25, 1
   9              		.eabi_attribute 26, 1
  10              		.eabi_attribute 30, 1
  11              		.eabi_attribute 34, 0
  12              		.eabi_attribute 18, 4
  13              		.thumb
  14              		.syntax unified
  15              		.file	"cy_ble.c"
  16              		.text
  17              	.Ltext0:
  18              		.cfi_sections	.debug_frame
  19              		.section	.text.Cy_BLE_DeepSleepCallback,"ax",%progbits
  20              		.align	2
  21              		.global	Cy_BLE_DeepSleepCallback
  22              		.code	16
  23              		.thumb_func
  24              		.type	Cy_BLE_DeepSleepCallback, %function
  25              	Cy_BLE_DeepSleepCallback:
  26              	.LFB175:
  27              		.file 1 "Generated_Source\\PSoC6\\pdl\\middleware\\ble\\cy_ble.c"
   1:Generated_Source\PSoC6\pdl\middleware\ble/cy_ble.c **** /***************************************************************************//**
   2:Generated_Source\PSoC6\pdl\middleware\ble/cy_ble.c **** * \file cy_ble.c
   3:Generated_Source\PSoC6\pdl\middleware\ble/cy_ble.c **** * \version 2.30
   4:Generated_Source\PSoC6\pdl\middleware\ble/cy_ble.c **** *
   5:Generated_Source\PSoC6\pdl\middleware\ble/cy_ble.c **** * \brief
   6:Generated_Source\PSoC6\pdl\middleware\ble/cy_ble.c **** *  This file contains the source code for the API of the BLE Middleware.
   7:Generated_Source\PSoC6\pdl\middleware\ble/cy_ble.c **** *
   8:Generated_Source\PSoC6\pdl\middleware\ble/cy_ble.c **** ********************************************************************************
   9:Generated_Source\PSoC6\pdl\middleware\ble/cy_ble.c **** * \copyright
  10:Generated_Source\PSoC6\pdl\middleware\ble/cy_ble.c **** * Copyright 2017-2018, Cypress Semiconductor Corporation.  All rights reserved.
  11:Generated_Source\PSoC6\pdl\middleware\ble/cy_ble.c **** * You may use this file only in accordance with the license, terms, conditions,
  12:Generated_Source\PSoC6\pdl\middleware\ble/cy_ble.c **** * disclaimers, and limitations in the end user license agreement accompanying
  13:Generated_Source\PSoC6\pdl\middleware\ble/cy_ble.c **** * the software package with which this file was provided.
  14:Generated_Source\PSoC6\pdl\middleware\ble/cy_ble.c **** *******************************************************************************/
  15:Generated_Source\PSoC6\pdl\middleware\ble/cy_ble.c **** 
  16:Generated_Source\PSoC6\pdl\middleware\ble/cy_ble.c **** #include "cy_ble_event_handler.h"
  17:Generated_Source\PSoC6\pdl\middleware\ble/cy_ble.c **** #include "cy_ble_hal_pvt.h"
  18:Generated_Source\PSoC6\pdl\middleware\ble/cy_ble.c **** #include "ipc/cy_ipc_sema.h"
  19:Generated_Source\PSoC6\pdl\middleware\ble/cy_ble.c **** #include <stdlib.h>
  20:Generated_Source\PSoC6\pdl\middleware\ble/cy_ble.c **** 
  21:Generated_Source\PSoC6\pdl\middleware\ble/cy_ble.c **** /* C binding of definitions if building with C++ compiler */
  22:Generated_Source\PSoC6\pdl\middleware\ble/cy_ble.c **** #ifdef __cplusplus
  23:Generated_Source\PSoC6\pdl\middleware\ble/cy_ble.c **** extern "C" {
  24:Generated_Source\PSoC6\pdl\middleware\ble/cy_ble.c **** #endif /* __cplusplus */
  25:Generated_Source\PSoC6\pdl\middleware\ble/cy_ble.c **** 
  26:Generated_Source\PSoC6\pdl\middleware\ble/cy_ble.c **** #if (CY_BLE_HOST_CONTR_CORE)
  27:Generated_Source\PSoC6\pdl\middleware\ble/cy_ble.c **** 
  28:Generated_Source\PSoC6\pdl\middleware\ble/cy_ble.c **** /***************************************
  29:Generated_Source\PSoC6\pdl\middleware\ble/cy_ble.c **** * Global Variables
  30:Generated_Source\PSoC6\pdl\middleware\ble/cy_ble.c **** ***************************************/
ARM GAS  C:\Users\ASUS\AppData\Local\Temp\cczm8cZa.s 			page 2


  31:Generated_Source\PSoC6\pdl\middleware\ble/cy_ble.c **** 
  32:Generated_Source\PSoC6\pdl\middleware\ble/cy_ble.c **** /* Allocate RAM memory for the stack. This buffer can be reused by the application when
  33:Generated_Source\PSoC6\pdl\middleware\ble/cy_ble.c ****  * the BLE Middleware is stopped. For the export mode, the buffer is allocated in a heap.
  34:Generated_Source\PSoC6\pdl\middleware\ble/cy_ble.c ****  */
  35:Generated_Source\PSoC6\pdl\middleware\ble/cy_ble.c **** #if (CY_BLE_SHARING_MODE_EXPORT)
  36:Generated_Source\PSoC6\pdl\middleware\ble/cy_ble.c **** uint8_t *cy_ble_stackMemoryRam = NULL;
  37:Generated_Source\PSoC6\pdl\middleware\ble/cy_ble.c **** #else
  38:Generated_Source\PSoC6\pdl\middleware\ble/cy_ble.c **** CY_ALIGN(sizeof(uint32_t)) CY_NOINIT uint8_t cy_ble_stackMemoryRam[CY_BLE_STACK_RAM_SIZE];
  39:Generated_Source\PSoC6\pdl\middleware\ble/cy_ble.c **** #endif  /* CY_BLE_SHARING_MODE_EXPORT */
  40:Generated_Source\PSoC6\pdl\middleware\ble/cy_ble.c **** 
  41:Generated_Source\PSoC6\pdl\middleware\ble/cy_ble.c **** #if (CY_BLE_MODE_PROFILE)
  42:Generated_Source\PSoC6\pdl\middleware\ble/cy_ble.c **** /** An application layer event callback function to receive service events from the BLE Middleware.
  43:Generated_Source\PSoC6\pdl\middleware\ble/cy_ble.c **** cy_ble_callback_t Cy_BLE_ApplCallback = NULL;
  44:Generated_Source\PSoC6\pdl\middleware\ble/cy_ble.c ****     
  45:Generated_Source\PSoC6\pdl\middleware\ble/cy_ble.c **** /* BLE application IPC notification handler */
  46:Generated_Source\PSoC6\pdl\middleware\ble/cy_ble.c **** cy_ble_app_notify_callback_t Cy_BLE_HostRegisteredCallback = NULL;     
  47:Generated_Source\PSoC6\pdl\middleware\ble/cy_ble.c **** #endif  /* (CY_BLE_MODE_PROFILE) */
  48:Generated_Source\PSoC6\pdl\middleware\ble/cy_ble.c **** 
  49:Generated_Source\PSoC6\pdl\middleware\ble/cy_ble.c **** #if(CY_BLE_SHARING_MODE != CY_BLE_SHARING_IMPORT)
  50:Generated_Source\PSoC6\pdl\middleware\ble/cy_ble.c **** /** Pointer to the global BLE Config structures */
  51:Generated_Source\PSoC6\pdl\middleware\ble/cy_ble.c **** cy_stc_ble_config_t *cy_ble_configPtr = NULL;
  52:Generated_Source\PSoC6\pdl\middleware\ble/cy_ble.c **** #endif /* CY_BLE_SHARING_MODE != CY_BLE_SHARING_IMPORT */
  53:Generated_Source\PSoC6\pdl\middleware\ble/cy_ble.c **** 
  54:Generated_Source\PSoC6\pdl\middleware\ble/cy_ble.c **** #if (CY_BLE_USE_DEEP_SLEEP != 0u)
  55:Generated_Source\PSoC6\pdl\middleware\ble/cy_ble.c ****   /* Structure with the syspm callback parameters for BLE deep-sleep */
  56:Generated_Source\PSoC6\pdl\middleware\ble/cy_ble.c ****   static cy_stc_syspm_callback_params_t bleDeepSleepCallbackParams = { .base = NULL};
  57:Generated_Source\PSoC6\pdl\middleware\ble/cy_ble.c ****   static cy_stc_syspm_callback_t bleDeepSleepCallback =
  58:Generated_Source\PSoC6\pdl\middleware\ble/cy_ble.c ****   {
  59:Generated_Source\PSoC6\pdl\middleware\ble/cy_ble.c ****     .callback = &Cy_BLE_DeepSleepCallback,
  60:Generated_Source\PSoC6\pdl\middleware\ble/cy_ble.c ****     .type = CY_SYSPM_DEEPSLEEP,
  61:Generated_Source\PSoC6\pdl\middleware\ble/cy_ble.c ****     .skipMode = CY_SYSPM_SKIP_BEFORE_TRANSITION | CY_SYSPM_SKIP_CHECK_FAIL,
  62:Generated_Source\PSoC6\pdl\middleware\ble/cy_ble.c ****     .callbackParams = &bleDeepSleepCallbackParams
  63:Generated_Source\PSoC6\pdl\middleware\ble/cy_ble.c ****   };
  64:Generated_Source\PSoC6\pdl\middleware\ble/cy_ble.c **** 
  65:Generated_Source\PSoC6\pdl\middleware\ble/cy_ble.c ****   /* Structure with the syspm callback parameters for BLE sleep */
  66:Generated_Source\PSoC6\pdl\middleware\ble/cy_ble.c **** #if(CY_BLE_STACK_MODE_HOST_IPC)
  67:Generated_Source\PSoC6\pdl\middleware\ble/cy_ble.c ****   static cy_stc_syspm_callback_params_t bleSleepCallbackParams = { .base = NULL};
  68:Generated_Source\PSoC6\pdl\middleware\ble/cy_ble.c ****   static cy_stc_syspm_callback_t bleSleepCallback =
  69:Generated_Source\PSoC6\pdl\middleware\ble/cy_ble.c ****   {
  70:Generated_Source\PSoC6\pdl\middleware\ble/cy_ble.c ****     .callback = &Cy_BLE_SleepCallback,
  71:Generated_Source\PSoC6\pdl\middleware\ble/cy_ble.c ****     .type = CY_SYSPM_SLEEP,
  72:Generated_Source\PSoC6\pdl\middleware\ble/cy_ble.c ****     .skipMode = CY_SYSPM_SKIP_BEFORE_TRANSITION | CY_SYSPM_SKIP_CHECK_FAIL,
  73:Generated_Source\PSoC6\pdl\middleware\ble/cy_ble.c ****     .callbackParams = &bleSleepCallbackParams
  74:Generated_Source\PSoC6\pdl\middleware\ble/cy_ble.c ****   };
  75:Generated_Source\PSoC6\pdl\middleware\ble/cy_ble.c **** #endif /* CY_BLE_STACK_MODE_HOST_IPC */
  76:Generated_Source\PSoC6\pdl\middleware\ble/cy_ble.c **** #endif  /* (CY_BLE_USE_DEEP_SLEEP != 0u) */
  77:Generated_Source\PSoC6\pdl\middleware\ble/cy_ble.c **** 
  78:Generated_Source\PSoC6\pdl\middleware\ble/cy_ble.c **** #if (CY_BLE_INTR_NOTIFY_FEATURE_ENABLED) && (CY_BLE_MODE_PROFILE)
  79:Generated_Source\PSoC6\pdl\middleware\ble/cy_ble.c **** /** BLE interrupt notification structure */
  80:Generated_Source\PSoC6\pdl\middleware\ble/cy_ble.c **** cy_stc_ble_intr_notify_t intrNotify = 
  81:Generated_Source\PSoC6\pdl\middleware\ble/cy_ble.c **** {
  82:Generated_Source\PSoC6\pdl\middleware\ble/cy_ble.c ****     .clientID = CY_BLE_CYPIPE_MSG_INTR_NOTIFY_ID,
  83:Generated_Source\PSoC6\pdl\middleware\ble/cy_ble.c ****     .pktType  = 0xFFu
  84:Generated_Source\PSoC6\pdl\middleware\ble/cy_ble.c **** };
  85:Generated_Source\PSoC6\pdl\middleware\ble/cy_ble.c **** #endif /*(CY_BLE_INTR_NOTIFY_FEATURE_ENABLED) && (CY_BLE_MODE_PROFILE) */
  86:Generated_Source\PSoC6\pdl\middleware\ble/cy_ble.c **** 
  87:Generated_Source\PSoC6\pdl\middleware\ble/cy_ble.c **** 
ARM GAS  C:\Users\ASUS\AppData\Local\Temp\cczm8cZa.s 			page 3


  88:Generated_Source\PSoC6\pdl\middleware\ble/cy_ble.c **** /******************************************************************************
  89:Generated_Source\PSoC6\pdl\middleware\ble/cy_ble.c **** * Function Name: Cy_BLE_UnregisterHostPMCallbacks
  90:Generated_Source\PSoC6\pdl\middleware\ble/cy_ble.c **** ***************************************************************************//**
  91:Generated_Source\PSoC6\pdl\middleware\ble/cy_ble.c **** *
  92:Generated_Source\PSoC6\pdl\middleware\ble/cy_ble.c **** *  Unregister BLE callback for Deepsleep/Sleep
  93:Generated_Source\PSoC6\pdl\middleware\ble/cy_ble.c **** *
  94:Generated_Source\PSoC6\pdl\middleware\ble/cy_ble.c **** ******************************************************************************/
  95:Generated_Source\PSoC6\pdl\middleware\ble/cy_ble.c **** void Cy_BLE_UnregisterHostPMCallbacks(void)
  96:Generated_Source\PSoC6\pdl\middleware\ble/cy_ble.c **** {
  97:Generated_Source\PSoC6\pdl\middleware\ble/cy_ble.c ****     #if (CY_BLE_USE_DEEP_SLEEP != 0u)
  98:Generated_Source\PSoC6\pdl\middleware\ble/cy_ble.c ****         /* Unregister BLE callback for Deepsleep support */
  99:Generated_Source\PSoC6\pdl\middleware\ble/cy_ble.c ****         (void)Cy_SysPm_UnregisterCallback(&bleDeepSleepCallback);
 100:Generated_Source\PSoC6\pdl\middleware\ble/cy_ble.c ****         
 101:Generated_Source\PSoC6\pdl\middleware\ble/cy_ble.c ****         /* Unregister sleep mode callback only in dual core mode for the host core */
 102:Generated_Source\PSoC6\pdl\middleware\ble/cy_ble.c ****         #if(CY_BLE_STACK_MODE_HOST_IPC)
 103:Generated_Source\PSoC6\pdl\middleware\ble/cy_ble.c ****             /* Unregister BLE callback for Sleep support */
 104:Generated_Source\PSoC6\pdl\middleware\ble/cy_ble.c ****             (void)Cy_SysPm_UnregisterCallback(&bleSleepCallback);
 105:Generated_Source\PSoC6\pdl\middleware\ble/cy_ble.c ****         #endif /* ( CY_BLE_STACK_MODE_HOST_IPC) */
 106:Generated_Source\PSoC6\pdl\middleware\ble/cy_ble.c ****     #endif /* (CY_BLE_USE_DEEP_SLEEP != 0u) */
 107:Generated_Source\PSoC6\pdl\middleware\ble/cy_ble.c **** }
 108:Generated_Source\PSoC6\pdl\middleware\ble/cy_ble.c **** 
 109:Generated_Source\PSoC6\pdl\middleware\ble/cy_ble.c **** /**
 110:Generated_Source\PSoC6\pdl\middleware\ble/cy_ble.c ****  * \addtogroup group_ble_common_api_functions
 111:Generated_Source\PSoC6\pdl\middleware\ble/cy_ble.c ****  * @{
 112:Generated_Source\PSoC6\pdl\middleware\ble/cy_ble.c ****  */
 113:Generated_Source\PSoC6\pdl\middleware\ble/cy_ble.c **** 
 114:Generated_Source\PSoC6\pdl\middleware\ble/cy_ble.c **** /******************************************************************************
 115:Generated_Source\PSoC6\pdl\middleware\ble/cy_ble.c **** * Function Name: Cy_BLE_Init
 116:Generated_Source\PSoC6\pdl\middleware\ble/cy_ble.c **** ***************************************************************************//**
 117:Generated_Source\PSoC6\pdl\middleware\ble/cy_ble.c **** *
 118:Generated_Source\PSoC6\pdl\middleware\ble/cy_ble.c **** *  Initializes the BLE Middleware.
 119:Generated_Source\PSoC6\pdl\middleware\ble/cy_ble.c **** *  
 120:Generated_Source\PSoC6\pdl\middleware\ble/cy_ble.c **** *
 121:Generated_Source\PSoC6\pdl\middleware\ble/cy_ble.c **** *  \param config: The configuration structure for the BLE Middleware.
 122:Generated_Source\PSoC6\pdl\middleware\ble/cy_ble.c **** *
 123:Generated_Source\PSoC6\pdl\middleware\ble/cy_ble.c **** * \return
 124:Generated_Source\PSoC6\pdl\middleware\ble/cy_ble.c **** * \ref cy_en_ble_api_result_t : Return value indicates if the function succeeded or
 125:Generated_Source\PSoC6\pdl\middleware\ble/cy_ble.c **** *  failed. The following are possible error codes.
 126:Generated_Source\PSoC6\pdl\middleware\ble/cy_ble.c **** *
 127:Generated_Source\PSoC6\pdl\middleware\ble/cy_ble.c **** *   Error codes                     | Description
 128:Generated_Source\PSoC6\pdl\middleware\ble/cy_ble.c **** *   ------------                    | -----------
 129:Generated_Source\PSoC6\pdl\middleware\ble/cy_ble.c **** *   CY_BLE_SUCCESS                  | The function completed successfully.
 130:Generated_Source\PSoC6\pdl\middleware\ble/cy_ble.c **** *   CY_BLE_ERROR_INVALID_PARAMETER  | On specifying NULL as the input parameter.
 131:Generated_Source\PSoC6\pdl\middleware\ble/cy_ble.c **** *
 132:Generated_Source\PSoC6\pdl\middleware\ble/cy_ble.c **** ******************************************************************************/
 133:Generated_Source\PSoC6\pdl\middleware\ble/cy_ble.c **** cy_en_ble_api_result_t Cy_BLE_Init(cy_stc_ble_config_t *config)
 134:Generated_Source\PSoC6\pdl\middleware\ble/cy_ble.c **** {
 135:Generated_Source\PSoC6\pdl\middleware\ble/cy_ble.c ****     cy_en_ble_api_result_t apiResult = CY_BLE_SUCCESS;
 136:Generated_Source\PSoC6\pdl\middleware\ble/cy_ble.c **** 
 137:Generated_Source\PSoC6\pdl\middleware\ble/cy_ble.c ****     if(config == NULL)
 138:Generated_Source\PSoC6\pdl\middleware\ble/cy_ble.c ****     {
 139:Generated_Source\PSoC6\pdl\middleware\ble/cy_ble.c ****         apiResult = CY_BLE_ERROR_INVALID_PARAMETER;
 140:Generated_Source\PSoC6\pdl\middleware\ble/cy_ble.c ****     }
 141:Generated_Source\PSoC6\pdl\middleware\ble/cy_ble.c ****     else
 142:Generated_Source\PSoC6\pdl\middleware\ble/cy_ble.c ****     {
 143:Generated_Source\PSoC6\pdl\middleware\ble/cy_ble.c ****         /* Register a pointer to the config structure */
 144:Generated_Source\PSoC6\pdl\middleware\ble/cy_ble.c ****         cy_ble_configPtr = config;
ARM GAS  C:\Users\ASUS\AppData\Local\Temp\cczm8cZa.s 			page 4


 145:Generated_Source\PSoC6\pdl\middleware\ble/cy_ble.c **** 
 146:Generated_Source\PSoC6\pdl\middleware\ble/cy_ble.c ****     #if (CY_BLE_MODE_PROFILE)
 147:Generated_Source\PSoC6\pdl\middleware\ble/cy_ble.c ****         /* Register a callback function via the config structure */
 148:Generated_Source\PSoC6\pdl\middleware\ble/cy_ble.c ****         if(cy_ble_configPtr->callbackFunc != NULL)
 149:Generated_Source\PSoC6\pdl\middleware\ble/cy_ble.c ****         {
 150:Generated_Source\PSoC6\pdl\middleware\ble/cy_ble.c ****             Cy_BLE_ApplCallback = cy_ble_configPtr->callbackFunc;
 151:Generated_Source\PSoC6\pdl\middleware\ble/cy_ble.c ****         }
 152:Generated_Source\PSoC6\pdl\middleware\ble/cy_ble.c ****         cy_ble_eventHandlerFlag = 0u;
 153:Generated_Source\PSoC6\pdl\middleware\ble/cy_ble.c ****         (void)memset((uint8_t*)&cy_ble_busyStatus, 0, sizeof(cy_ble_busyStatus));
 154:Generated_Source\PSoC6\pdl\middleware\ble/cy_ble.c **** 
 155:Generated_Source\PSoC6\pdl\middleware\ble/cy_ble.c ****         cy_ble_cmdStatus = 0u;
 156:Generated_Source\PSoC6\pdl\middleware\ble/cy_ble.c ****         
 157:Generated_Source\PSoC6\pdl\middleware\ble/cy_ble.c ****         #if (CY_BLE_GATT_ROLE_CLIENT)
 158:Generated_Source\PSoC6\pdl\middleware\ble/cy_ble.c ****         {
 159:Generated_Source\PSoC6\pdl\middleware\ble/cy_ble.c ****             uint32_t idx;
 160:Generated_Source\PSoC6\pdl\middleware\ble/cy_ble.c ****             (void)memset(&cy_ble_serverInfo, 0, sizeof(cy_ble_serverInfo));
 161:Generated_Source\PSoC6\pdl\middleware\ble/cy_ble.c ****             (void)memset(cy_ble_connHandle, -1, sizeof(cy_ble_connHandle));
 162:Generated_Source\PSoC6\pdl\middleware\ble/cy_ble.c ****             (void)memset(&cy_ble_discovery, 0, sizeof(cy_ble_discovery));
 163:Generated_Source\PSoC6\pdl\middleware\ble/cy_ble.c **** 
 164:Generated_Source\PSoC6\pdl\middleware\ble/cy_ble.c ****             /* Update cy_ble_discovery[].connIndex with init values (CY_BLE_INVALID_CONN_HANDLE_VAL
 165:Generated_Source\PSoC6\pdl\middleware\ble/cy_ble.c ****             for(idx = 0u; idx < CY_BLE_GATTC_COUNT; idx++)
 166:Generated_Source\PSoC6\pdl\middleware\ble/cy_ble.c ****             {
 167:Generated_Source\PSoC6\pdl\middleware\ble/cy_ble.c ****                 cy_ble_discovery[idx].connIndex = CY_BLE_INVALID_CONN_HANDLE_VALUE;
 168:Generated_Source\PSoC6\pdl\middleware\ble/cy_ble.c ****             }
 169:Generated_Source\PSoC6\pdl\middleware\ble/cy_ble.c ****         }
 170:Generated_Source\PSoC6\pdl\middleware\ble/cy_ble.c ****         #endif /* CY_BLE_GATT_ROLE_CLIENT */
 171:Generated_Source\PSoC6\pdl\middleware\ble/cy_ble.c **** 
 172:Generated_Source\PSoC6\pdl\middleware\ble/cy_ble.c ****         #if (CY_BLE_GAP_ROLE_PERIPHERAL || CY_BLE_GAP_ROLE_BROADCASTER)
 173:Generated_Source\PSoC6\pdl\middleware\ble/cy_ble.c ****         cy_ble_advertisingIntervalType = CY_BLE_ADVERTISING_FAST;
 174:Generated_Source\PSoC6\pdl\middleware\ble/cy_ble.c ****         #endif /* (CY_BLE_GAP_ROLE_PERIPHERAL || CY_BLE_GAP_ROLE_BROADCASTER)  */
 175:Generated_Source\PSoC6\pdl\middleware\ble/cy_ble.c **** 
 176:Generated_Source\PSoC6\pdl\middleware\ble/cy_ble.c ****         #if (CY_BLE_GAP_ROLE_CENTRAL || CY_BLE_GAP_ROLE_OBSERVER)
 177:Generated_Source\PSoC6\pdl\middleware\ble/cy_ble.c ****         cy_ble_scanningIntervalType = CY_BLE_SCANNING_FAST;
 178:Generated_Source\PSoC6\pdl\middleware\ble/cy_ble.c ****         #endif /* (CY_BLE_GAP_ROLE_CENTRAL || CY_BLE_GAP_ROLE_OBSERVER) */
 179:Generated_Source\PSoC6\pdl\middleware\ble/cy_ble.c **** 
 180:Generated_Source\PSoC6\pdl\middleware\ble/cy_ble.c ****         Cy_BLE_ServiceInit();
 181:Generated_Source\PSoC6\pdl\middleware\ble/cy_ble.c **** 
 182:Generated_Source\PSoC6\pdl\middleware\ble/cy_ble.c ****         #if ((CY_BLE_GAP_ROLE_PERIPHERAL || CY_BLE_GAP_ROLE_CENTRAL) && (CY_BLE_BONDING_REQUIREMENT
 183:Generated_Source\PSoC6\pdl\middleware\ble/cy_ble.c ****         cy_ble_pendingFlashWrite = 0u;
 184:Generated_Source\PSoC6\pdl\middleware\ble/cy_ble.c ****         (void)memset(cy_ble_peerBonding, (int8_t)CY_BLE_GAP_BONDING_NONE, sizeof(cy_ble_peerBonding
 185:Generated_Source\PSoC6\pdl\middleware\ble/cy_ble.c ****         #endif /* (CY_BLE_BONDING_REQUIREMENT == CY_BLE_BONDING_YES) */
 186:Generated_Source\PSoC6\pdl\middleware\ble/cy_ble.c ****     #endif     /* (CY_BLE_MODE_PROFILE) */
 187:Generated_Source\PSoC6\pdl\middleware\ble/cy_ble.c ****     }
 188:Generated_Source\PSoC6\pdl\middleware\ble/cy_ble.c ****             
 189:Generated_Source\PSoC6\pdl\middleware\ble/cy_ble.c ****     return(apiResult);
 190:Generated_Source\PSoC6\pdl\middleware\ble/cy_ble.c **** }
 191:Generated_Source\PSoC6\pdl\middleware\ble/cy_ble.c **** /** @} */
 192:Generated_Source\PSoC6\pdl\middleware\ble/cy_ble.c **** 
 193:Generated_Source\PSoC6\pdl\middleware\ble/cy_ble.c **** /******************************************************************************
 194:Generated_Source\PSoC6\pdl\middleware\ble/cy_ble.c **** * Function Name: Cy_BLE_Enable
 195:Generated_Source\PSoC6\pdl\middleware\ble/cy_ble.c **** ***************************************************************************//**
 196:Generated_Source\PSoC6\pdl\middleware\ble/cy_ble.c **** *
 197:Generated_Source\PSoC6\pdl\middleware\ble/cy_ble.c **** *  Initializes and starts the BLE Stack.
 198:Generated_Source\PSoC6\pdl\middleware\ble/cy_ble.c **** *
 199:Generated_Source\PSoC6\pdl\middleware\ble/cy_ble.c **** *  Calling this function results in generation of a #CY_BLE_EVT_STACK_ON event
 200:Generated_Source\PSoC6\pdl\middleware\ble/cy_ble.c **** *  on successful initialization of the BLE Stack.
 201:Generated_Source\PSoC6\pdl\middleware\ble/cy_ble.c **** *
ARM GAS  C:\Users\ASUS\AppData\Local\Temp\cczm8cZa.s 			page 5


 202:Generated_Source\PSoC6\pdl\middleware\ble/cy_ble.c **** *  BLE Stack enables the BLE ECO clock automatically with the default
 203:Generated_Source\PSoC6\pdl\middleware\ble/cy_ble.c **** *  parameters:
 204:Generated_Source\PSoC6\pdl\middleware\ble/cy_ble.c **** *     Parameter            | Value
 205:Generated_Source\PSoC6\pdl\middleware\ble/cy_ble.c **** *     -------------------- | -----------
 206:Generated_Source\PSoC6\pdl\middleware\ble/cy_ble.c **** *     ECO Frequency        | CY_BLE_DEFAULT_ECO_FREQ
 207:Generated_Source\PSoC6\pdl\middleware\ble/cy_ble.c **** *     Divider              | CY_BLE_DEFAULT_ECO_DIV
 208:Generated_Source\PSoC6\pdl\middleware\ble/cy_ble.c **** *     Startup time         | CY_BLE_DEFAULT_OSC_STARTUP_DELAY_LF
 209:Generated_Source\PSoC6\pdl\middleware\ble/cy_ble.c **** *     Load cap             | CY_BLE_DEFAULT_CAP_TRIM_VALUE
 210:Generated_Source\PSoC6\pdl\middleware\ble/cy_ble.c **** *
 211:Generated_Source\PSoC6\pdl\middleware\ble/cy_ble.c **** *  If there is a need to start the BLE with non-default ECO parameters, 
 212:Generated_Source\PSoC6\pdl\middleware\ble/cy_ble.c **** *  call the Cy_BLE_EcoStart() function with the custom configuration each 
 213:Generated_Source\PSoC6\pdl\middleware\ble/cy_ble.c **** *  time before calling the Cy_BLE_Enable() function.
 214:Generated_Source\PSoC6\pdl\middleware\ble/cy_ble.c **** *
 215:Generated_Source\PSoC6\pdl\middleware\ble/cy_ble.c **** *  This function initializes the BLE Stack which consists of the BLE Stack 
 216:Generated_Source\PSoC6\pdl\middleware\ble/cy_ble.c **** *  Manager, BLE Controller, and BLE Host modules. It takes care of initializing
 217:Generated_Source\PSoC6\pdl\middleware\ble/cy_ble.c **** *  the Profile layer, schedulers, Timer and other platform-related resources
 218:Generated_Source\PSoC6\pdl\middleware\ble/cy_ble.c **** *  required for the BLE Middleware. It also registers the callback function for
 219:Generated_Source\PSoC6\pdl\middleware\ble/cy_ble.c **** *  BLE events that will be registered in the BLE stack.
 220:Generated_Source\PSoC6\pdl\middleware\ble/cy_ble.c **** *
 221:Generated_Source\PSoC6\pdl\middleware\ble/cy_ble.c **** *  Note that this function does not reset the BLE Stack.
 222:Generated_Source\PSoC6\pdl\middleware\ble/cy_ble.c **** * 
 223:Generated_Source\PSoC6\pdl\middleware\ble/cy_ble.c **** *  For the HCI-Mode of operation, this function will not initialize the BLE Host 
 224:Generated_Source\PSoC6\pdl\middleware\ble/cy_ble.c **** *  module.
 225:Generated_Source\PSoC6\pdl\middleware\ble/cy_ble.c **** *
 226:Generated_Source\PSoC6\pdl\middleware\ble/cy_ble.c **** *  Calling this function results in generation of a #CY_BLE_EVT_STACK_ON event
 227:Generated_Source\PSoC6\pdl\middleware\ble/cy_ble.c **** *  on successful initialization of the BLE Stack.
 228:Generated_Source\PSoC6\pdl\middleware\ble/cy_ble.c **** *
 229:Generated_Source\PSoC6\pdl\middleware\ble/cy_ble.c **** *  In the Dual Core mode, this function should be called on both cores in the 
 230:Generated_Source\PSoC6\pdl\middleware\ble/cy_ble.c **** *  following sequence:
 231:Generated_Source\PSoC6\pdl\middleware\ble/cy_ble.c **** *   - call this function on CM0+ core to initialize the Controller.
 232:Generated_Source\PSoC6\pdl\middleware\ble/cy_ble.c **** *   - start CM4 core by calling Cy_SysEnableCM4() function.
 233:Generated_Source\PSoC6\pdl\middleware\ble/cy_ble.c **** *   - call this function on CM4 core to initialize the Host and Profiles.
 234:Generated_Source\PSoC6\pdl\middleware\ble/cy_ble.c **** *
 235:Generated_Source\PSoC6\pdl\middleware\ble/cy_ble.c **** *   BLE requires a call to Cy_IPC_SystemSemaInit() and Cy_IPC_SystemPipeInit() functions
 236:Generated_Source\PSoC6\pdl\middleware\ble/cy_ble.c **** *    before use.
 237:Generated_Source\PSoC6\pdl\middleware\ble/cy_ble.c **** *   
 238:Generated_Source\PSoC6\pdl\middleware\ble/cy_ble.c **** *    This function is called in the SystemInit() function, for proper flash write
 239:Generated_Source\PSoC6\pdl\middleware\ble/cy_ble.c **** *    and erase operations. If the default startup file is not used, or the function
 240:Generated_Source\PSoC6\pdl\middleware\ble/cy_ble.c **** *    SystemInit() is not called in your project, call the following functions:
 241:Generated_Source\PSoC6\pdl\middleware\ble/cy_ble.c **** *    -# Cy_IPC_SystemSemaInit()
 242:Generated_Source\PSoC6\pdl\middleware\ble/cy_ble.c **** *    -# Cy_IPC_SystemPipeInit()
 243:Generated_Source\PSoC6\pdl\middleware\ble/cy_ble.c **** *
 244:Generated_Source\PSoC6\pdl\middleware\ble/cy_ble.c **** * \return
 245:Generated_Source\PSoC6\pdl\middleware\ble/cy_ble.c **** * \ref cy_en_ble_api_result_t : Return value indicates if the function succeeded
 246:Generated_Source\PSoC6\pdl\middleware\ble/cy_ble.c **** *      or failed. The following are possible error codes.
 247:Generated_Source\PSoC6\pdl\middleware\ble/cy_ble.c **** *
 248:Generated_Source\PSoC6\pdl\middleware\ble/cy_ble.c **** *  <table>
 249:Generated_Source\PSoC6\pdl\middleware\ble/cy_ble.c **** *    <tr>
 250:Generated_Source\PSoC6\pdl\middleware\ble/cy_ble.c **** *      <th>Error codes</th>
 251:Generated_Source\PSoC6\pdl\middleware\ble/cy_ble.c **** *      <th>Description</th>
 252:Generated_Source\PSoC6\pdl\middleware\ble/cy_ble.c **** *    </tr>
 253:Generated_Source\PSoC6\pdl\middleware\ble/cy_ble.c **** *    <tr>
 254:Generated_Source\PSoC6\pdl\middleware\ble/cy_ble.c **** *      <td>CY_BLE_SUCCESS</td>
 255:Generated_Source\PSoC6\pdl\middleware\ble/cy_ble.c **** *      <td>On successful operation.</td>
 256:Generated_Source\PSoC6\pdl\middleware\ble/cy_ble.c **** *    </tr>
 257:Generated_Source\PSoC6\pdl\middleware\ble/cy_ble.c **** *    <tr>
 258:Generated_Source\PSoC6\pdl\middleware\ble/cy_ble.c **** *      <td>CY_BLE_ERROR_REPEATED_ATTEMPTS</td>
ARM GAS  C:\Users\ASUS\AppData\Local\Temp\cczm8cZa.s 			page 6


 259:Generated_Source\PSoC6\pdl\middleware\ble/cy_ble.c **** *      <td>On invoking this function more than once without calling 
 260:Generated_Source\PSoC6\pdl\middleware\ble/cy_ble.c **** *          Cy_BLE_Disable() function between calls to this function.</td>
 261:Generated_Source\PSoC6\pdl\middleware\ble/cy_ble.c **** *    </tr>
 262:Generated_Source\PSoC6\pdl\middleware\ble/cy_ble.c **** *    <tr>
 263:Generated_Source\PSoC6\pdl\middleware\ble/cy_ble.c **** *      <td>CY_BLE_ERROR_MEMORY_ALLOCATION_FAILED</td>
 264:Generated_Source\PSoC6\pdl\middleware\ble/cy_ble.c **** *      <td>There is insufficient memory available.</td>
 265:Generated_Source\PSoC6\pdl\middleware\ble/cy_ble.c **** *    </tr>
 266:Generated_Source\PSoC6\pdl\middleware\ble/cy_ble.c **** *  </table>
 267:Generated_Source\PSoC6\pdl\middleware\ble/cy_ble.c **** *
 268:Generated_Source\PSoC6\pdl\middleware\ble/cy_ble.c **** ******************************************************************************/
 269:Generated_Source\PSoC6\pdl\middleware\ble/cy_ble.c **** cy_en_ble_api_result_t Cy_BLE_Enable(void)
 270:Generated_Source\PSoC6\pdl\middleware\ble/cy_ble.c **** {
 271:Generated_Source\PSoC6\pdl\middleware\ble/cy_ble.c ****     cy_en_ble_api_result_t apiResult = CY_BLE_SUCCESS;
 272:Generated_Source\PSoC6\pdl\middleware\ble/cy_ble.c **** 
 273:Generated_Source\PSoC6\pdl\middleware\ble/cy_ble.c **** #if (CY_BLE_MODE_PROFILE)
 274:Generated_Source\PSoC6\pdl\middleware\ble/cy_ble.c ****     cy_stc_ble_stk_app_data_buff_t cy_ble_stackDataBuff[CY_BLE_STACK_APP_MIN_POOL] =
 275:Generated_Source\PSoC6\pdl\middleware\ble/cy_ble.c ****     {
 276:Generated_Source\PSoC6\pdl\middleware\ble/cy_ble.c ****         { CY_BLE_GATT_MTU_PLUS_L2CAP_MEM_EXT,   CY_BLE_GATT_MTU_BUFF_COUNT              },
 277:Generated_Source\PSoC6\pdl\middleware\ble/cy_ble.c ****         { CY_BLE_L2CAP_PSM_PLUS_L2CAP_MEM_EXT,  CY_BLE_L2CAP_PSM_COUNT                  },
 278:Generated_Source\PSoC6\pdl\middleware\ble/cy_ble.c ****         { CY_BLE_L2CAP_CBFC_PLUS_L2CAP_MEM_EXT, 2u * CY_BLE_L2CAP_LOGICAL_CHANNEL_COUNT },
 279:Generated_Source\PSoC6\pdl\middleware\ble/cy_ble.c ****         { CY_BLE_L2CAP_MTU_PLUS_L2CAP_MEM_EXT,  2u * CY_BLE_L2CAP_LOGICAL_CHANNEL_COUNT }
 280:Generated_Source\PSoC6\pdl\middleware\ble/cy_ble.c ****     };
 281:Generated_Source\PSoC6\pdl\middleware\ble/cy_ble.c **** #endif  /* (CY_BLE_MODE_PROFILE) */
 282:Generated_Source\PSoC6\pdl\middleware\ble/cy_ble.c ****     
 283:Generated_Source\PSoC6\pdl\middleware\ble/cy_ble.c ****     cy_stc_ble_stack_init_info_t stackInitParam =
 284:Generated_Source\PSoC6\pdl\middleware\ble/cy_ble.c ****     {
 285:Generated_Source\PSoC6\pdl\middleware\ble/cy_ble.c ****     #if (CY_BLE_MODE_PROFILE)
 286:Generated_Source\PSoC6\pdl\middleware\ble/cy_ble.c ****         .CyBleAppCbFunc                      = (cy_ble_app_ev_cb_t)&Cy_BLE_EventHandler,
 287:Generated_Source\PSoC6\pdl\middleware\ble/cy_ble.c ****     #endif /* CY_BLE_MODE_PROFILE */
 288:Generated_Source\PSoC6\pdl\middleware\ble/cy_ble.c ****         .memParam                            =
 289:Generated_Source\PSoC6\pdl\middleware\ble/cy_ble.c ****         {
 290:Generated_Source\PSoC6\pdl\middleware\ble/cy_ble.c ****     #if (CY_BLE_MODE_PROFILE)
 291:Generated_Source\PSoC6\pdl\middleware\ble/cy_ble.c ****             .totalHeapSz                     = (uint16_t)(CY_BLE_STACK_RAM_SIZE - CY_BLE_GATT_PREPA
 292:Generated_Source\PSoC6\pdl\middleware\ble/cy_ble.c ****             .dataBuff                        = cy_ble_stackDataBuff,
 293:Generated_Source\PSoC6\pdl\middleware\ble/cy_ble.c ****             .totalDataBufferPools            = CY_BLE_STACK_APP_MIN_POOL,
 294:Generated_Source\PSoC6\pdl\middleware\ble/cy_ble.c **** 
 295:Generated_Source\PSoC6\pdl\middleware\ble/cy_ble.c ****         #if (CY_BLE_BONDING_REQUIREMENT == CY_BLE_BONDING_YES)
 296:Generated_Source\PSoC6\pdl\middleware\ble/cy_ble.c ****             .bleStackFlashPointer            = (const uint8_t*)cy_ble_configPtr->flashStorage->stac
 297:Generated_Source\PSoC6\pdl\middleware\ble/cy_ble.c ****             .bleStackFlashSize               = CY_BLE_STACK_FLASH_SIZE,
 298:Generated_Source\PSoC6\pdl\middleware\ble/cy_ble.c ****         #endif  /* CY_BLE_BONDING_REQUIREMENT == CY_BLE_BONDING_YES */
 299:Generated_Source\PSoC6\pdl\middleware\ble/cy_ble.c ****     #else
 300:Generated_Source\PSoC6\pdl\middleware\ble/cy_ble.c ****             .totalHeapSz                     = CY_BLE_STACK_RAM_SIZE,
 301:Generated_Source\PSoC6\pdl\middleware\ble/cy_ble.c ****     #endif /* CY_BLE_MODE_PROFILE */
 302:Generated_Source\PSoC6\pdl\middleware\ble/cy_ble.c ****         },
 303:Generated_Source\PSoC6\pdl\middleware\ble/cy_ble.c ****         .stackConfig                         =
 304:Generated_Source\PSoC6\pdl\middleware\ble/cy_ble.c ****         {
 305:Generated_Source\PSoC6\pdl\middleware\ble/cy_ble.c ****             /* Configure DLE */
 306:Generated_Source\PSoC6\pdl\middleware\ble/cy_ble.c ****             .dleConfig.dleMaxTxCapability    = CY_BLE_LL_MAX_TX_PAYLOAD_SIZE,
 307:Generated_Source\PSoC6\pdl\middleware\ble/cy_ble.c ****             .dleConfig.dleMaxRxCapability    = CY_BLE_LL_MAX_RX_PAYLOAD_SIZE,
 308:Generated_Source\PSoC6\pdl\middleware\ble/cy_ble.c ****             .dleConfig.dleNumTxBuffer        = CY_BLE_LL_DEFAULT_NUM_ACL_TX_PACKETS,
 309:Generated_Source\PSoC6\pdl\middleware\ble/cy_ble.c ****             .dleConfig.dleNumRxBuffer        = CY_BLE_LL_DEFAULT_NUM_ACL_RX_PACKETS,
 310:Generated_Source\PSoC6\pdl\middleware\ble/cy_ble.c **** 
 311:Generated_Source\PSoC6\pdl\middleware\ble/cy_ble.c ****         #if (CY_BLE_MODE_PROFILE)
 312:Generated_Source\PSoC6\pdl\middleware\ble/cy_ble.c ****             /* Configure queue */
 313:Generated_Source\PSoC6\pdl\middleware\ble/cy_ble.c ****             .l2capConfig.l2capBufferPerConn  = CY_BLE_L2CAP_Q_DEPTH_PER_CONN,
 314:Generated_Source\PSoC6\pdl\middleware\ble/cy_ble.c ****         #endif /* (CY_BLE_MODE_PROFILE) */
 315:Generated_Source\PSoC6\pdl\middleware\ble/cy_ble.c **** 
ARM GAS  C:\Users\ASUS\AppData\Local\Temp\cczm8cZa.s 			page 7


 316:Generated_Source\PSoC6\pdl\middleware\ble/cy_ble.c ****             /* Configure LL Privacy */
 317:Generated_Source\PSoC6\pdl\middleware\ble/cy_ble.c ****             .privacyConfig.resolvingListSize = CY_BLE_MAX_RESOLVABLE_DEVICES,
 318:Generated_Source\PSoC6\pdl\middleware\ble/cy_ble.c **** 
 319:Generated_Source\PSoC6\pdl\middleware\ble/cy_ble.c ****             /* Configure bonded device list */
 320:Generated_Source\PSoC6\pdl\middleware\ble/cy_ble.c ****             .bondListConfig.bondListSize     = CY_BLE_MAX_BONDED_DEVICES,
 321:Generated_Source\PSoC6\pdl\middleware\ble/cy_ble.c **** 
 322:Generated_Source\PSoC6\pdl\middleware\ble/cy_ble.c ****             /* Configure white list */
 323:Generated_Source\PSoC6\pdl\middleware\ble/cy_ble.c ****             .whiteListConfig.whiteListSize   = CY_BLE_MAX_WHITE_LIST_SIZE,
 324:Generated_Source\PSoC6\pdl\middleware\ble/cy_ble.c **** 
 325:Generated_Source\PSoC6\pdl\middleware\ble/cy_ble.c ****             .featureMask                     = (CY_BLE_DLE_FEATURE | CY_BLE_LL_PRIVACY_FEATURE | 
 326:Generated_Source\PSoC6\pdl\middleware\ble/cy_ble.c ****                                                 CY_BLE_SECURE_CONN_FEATURE | CY_BLE_PHY_UPDATE_FEAT
 327:Generated_Source\PSoC6\pdl\middleware\ble/cy_ble.c ****                                                 CY_BLE_STORE_BONDLIST_FEATURE | CY_BLE_STORE_RESOLV
 328:Generated_Source\PSoC6\pdl\middleware\ble/cy_ble.c ****                                                 CY_BLE_STORE_WHITELIST_FEATURE | CY_BLE_TX_POWER_CA
 329:Generated_Source\PSoC6\pdl\middleware\ble/cy_ble.c ****             .maxBleConnections               = CY_BLE_CONN_COUNT
 330:Generated_Source\PSoC6\pdl\middleware\ble/cy_ble.c ****         }
 331:Generated_Source\PSoC6\pdl\middleware\ble/cy_ble.c ****     };
 332:Generated_Source\PSoC6\pdl\middleware\ble/cy_ble.c **** 
 333:Generated_Source\PSoC6\pdl\middleware\ble/cy_ble.c **** #if (CY_BLE_USE_DEEP_SLEEP != 0u)
 334:Generated_Source\PSoC6\pdl\middleware\ble/cy_ble.c ****     /* Register BLE callback for Deepsleep support */
 335:Generated_Source\PSoC6\pdl\middleware\ble/cy_ble.c ****     (void)Cy_SysPm_RegisterCallback(&bleDeepSleepCallback);
 336:Generated_Source\PSoC6\pdl\middleware\ble/cy_ble.c ****     
 337:Generated_Source\PSoC6\pdl\middleware\ble/cy_ble.c ****     /* Register Sleep mode callback only in dual core mode for the host core */
 338:Generated_Source\PSoC6\pdl\middleware\ble/cy_ble.c ****     #if(CY_BLE_STACK_MODE_HOST_IPC)
 339:Generated_Source\PSoC6\pdl\middleware\ble/cy_ble.c ****     {
 340:Generated_Source\PSoC6\pdl\middleware\ble/cy_ble.c ****         /* Register BLE callback for Sleep support */
 341:Generated_Source\PSoC6\pdl\middleware\ble/cy_ble.c ****         (void)Cy_SysPm_RegisterCallback(&bleSleepCallback);
 342:Generated_Source\PSoC6\pdl\middleware\ble/cy_ble.c ****     }
 343:Generated_Source\PSoC6\pdl\middleware\ble/cy_ble.c ****     #endif /* (CY_BLE_STACK_MODE_HOST_IPC) */
 344:Generated_Source\PSoC6\pdl\middleware\ble/cy_ble.c **** #endif  /* (CY_BLE_USE_DEEP_SLEEP != 0u) */
 345:Generated_Source\PSoC6\pdl\middleware\ble/cy_ble.c ****     
 346:Generated_Source\PSoC6\pdl\middleware\ble/cy_ble.c **** #if(CY_BLE_SHARING_MODE_EXPORT)
 347:Generated_Source\PSoC6\pdl\middleware\ble/cy_ble.c ****     if(cy_ble_stackMemoryRam == NULL)
 348:Generated_Source\PSoC6\pdl\middleware\ble/cy_ble.c ****     {
 349:Generated_Source\PSoC6\pdl\middleware\ble/cy_ble.c ****         cy_ble_stackMemoryRam = (uint8 *)malloc(CY_BLE_STACK_RAM_SIZE);
 350:Generated_Source\PSoC6\pdl\middleware\ble/cy_ble.c ****         if(cy_ble_stackMemoryRam == NULL)
 351:Generated_Source\PSoC6\pdl\middleware\ble/cy_ble.c ****         {
 352:Generated_Source\PSoC6\pdl\middleware\ble/cy_ble.c ****             apiResult = CY_BLE_ERROR_MEMORY_ALLOCATION_FAILED;
 353:Generated_Source\PSoC6\pdl\middleware\ble/cy_ble.c ****         }
 354:Generated_Source\PSoC6\pdl\middleware\ble/cy_ble.c ****     }
 355:Generated_Source\PSoC6\pdl\middleware\ble/cy_ble.c **** #endif /* CY_BLE_SHARING_MODE_EXPORT */
 356:Generated_Source\PSoC6\pdl\middleware\ble/cy_ble.c ****     
 357:Generated_Source\PSoC6\pdl\middleware\ble/cy_ble.c ****     if(apiResult == CY_BLE_SUCCESS)
 358:Generated_Source\PSoC6\pdl\middleware\ble/cy_ble.c ****     {
 359:Generated_Source\PSoC6\pdl\middleware\ble/cy_ble.c ****     #if (CY_BLE_DLE_FEATURE_ENABLED)
 360:Generated_Source\PSoC6\pdl\middleware\ble/cy_ble.c ****         Cy_BLE_EnableDleFeature();              /* Enable DLE code in the stack */
 361:Generated_Source\PSoC6\pdl\middleware\ble/cy_ble.c ****     #endif /* CY_BLE_DLE_FEATURE_ENABLED */
 362:Generated_Source\PSoC6\pdl\middleware\ble/cy_ble.c **** 
 363:Generated_Source\PSoC6\pdl\middleware\ble/cy_ble.c ****     #if (CY_BLE_LL_PRIVACY_FEATURE_ENABLED)
 364:Generated_Source\PSoC6\pdl\middleware\ble/cy_ble.c ****         Cy_BLE_EnablePrivacyFeature();          /* Enable LL Privacy code in the stack */
 365:Generated_Source\PSoC6\pdl\middleware\ble/cy_ble.c ****     #endif /* CY_BLE_LL_PRIVACY_FEATURE_ENABLED */
 366:Generated_Source\PSoC6\pdl\middleware\ble/cy_ble.c **** 
 367:Generated_Source\PSoC6\pdl\middleware\ble/cy_ble.c ****     #if (CY_BLE_PHY_UPDATE_FEATURE_ENABLED)
 368:Generated_Source\PSoC6\pdl\middleware\ble/cy_ble.c ****         Cy_BLE_EnablePhyUpdateFeature();        /* Enable PHY Update code in the stack */
 369:Generated_Source\PSoC6\pdl\middleware\ble/cy_ble.c ****     #endif /* CY_BLE_PHY_UPDATE_FEATURE_ENABLED */
 370:Generated_Source\PSoC6\pdl\middleware\ble/cy_ble.c **** 
 371:Generated_Source\PSoC6\pdl\middleware\ble/cy_ble.c ****         apiResult = Cy_BLE_StackSetFeatureConfig(&stackInitParam.stackConfig);
 372:Generated_Source\PSoC6\pdl\middleware\ble/cy_ble.c ****     }
ARM GAS  C:\Users\ASUS\AppData\Local\Temp\cczm8cZa.s 			page 8


 373:Generated_Source\PSoC6\pdl\middleware\ble/cy_ble.c ****     
 374:Generated_Source\PSoC6\pdl\middleware\ble/cy_ble.c ****     if(apiResult == CY_BLE_SUCCESS)
 375:Generated_Source\PSoC6\pdl\middleware\ble/cy_ble.c ****     {
 376:Generated_Source\PSoC6\pdl\middleware\ble/cy_ble.c ****         stackInitParam.memParam.memoryHeapPtr = cy_ble_stackMemoryRam;
 377:Generated_Source\PSoC6\pdl\middleware\ble/cy_ble.c **** 
 378:Generated_Source\PSoC6\pdl\middleware\ble/cy_ble.c ****         /* Configure parameter for Radio PA calibration */
 379:Generated_Source\PSoC6\pdl\middleware\ble/cy_ble.c ****         if(cy_ble_configPtr->paCalConfig != NULL)
 380:Generated_Source\PSoC6\pdl\middleware\ble/cy_ble.c ****         {
 381:Generated_Source\PSoC6\pdl\middleware\ble/cy_ble.c ****             stackInitParam.stackConfig.paCalConfig = *cy_ble_configPtr->paCalConfig;
 382:Generated_Source\PSoC6\pdl\middleware\ble/cy_ble.c ****         }
 383:Generated_Source\PSoC6\pdl\middleware\ble/cy_ble.c ****         
 384:Generated_Source\PSoC6\pdl\middleware\ble/cy_ble.c ****         /* Initialize the BLE Stack */
 385:Generated_Source\PSoC6\pdl\middleware\ble/cy_ble.c ****         apiResult = Cy_BLE_StackInit(&stackInitParam);
 386:Generated_Source\PSoC6\pdl\middleware\ble/cy_ble.c **** 
 387:Generated_Source\PSoC6\pdl\middleware\ble/cy_ble.c ****     #if (CY_BLE_MODE_PROFILE)
 388:Generated_Source\PSoC6\pdl\middleware\ble/cy_ble.c ****         if(apiResult == CY_BLE_SUCCESS)
 389:Generated_Source\PSoC6\pdl\middleware\ble/cy_ble.c ****         {
 390:Generated_Source\PSoC6\pdl\middleware\ble/cy_ble.c ****             Cy_BLE_SetState(CY_BLE_STATE_INITIALIZING);
 391:Generated_Source\PSoC6\pdl\middleware\ble/cy_ble.c **** 
 392:Generated_Source\PSoC6\pdl\middleware\ble/cy_ble.c ****         #if (CY_BLE_GAP_ROLE_CENTRAL || CY_BLE_GAP_ROLE_PERIPHERAL)
 393:Generated_Source\PSoC6\pdl\middleware\ble/cy_ble.c ****             (void)memset(&cy_ble_connState, 0, sizeof(cy_ble_connState));
 394:Generated_Source\PSoC6\pdl\middleware\ble/cy_ble.c ****         #endif /* (CY_BLE_GAP_ROLE_CENTRAL || CY_BLE_GAP_ROLE_PERIPHERAL) */
 395:Generated_Source\PSoC6\pdl\middleware\ble/cy_ble.c **** 
 396:Generated_Source\PSoC6\pdl\middleware\ble/cy_ble.c ****         #if (CY_BLE_GAP_ROLE_PERIPHERAL || CY_BLE_GAP_ROLE_BROADCASTER)
 397:Generated_Source\PSoC6\pdl\middleware\ble/cy_ble.c ****             Cy_BLE_SetAdvertisementState(CY_BLE_ADV_STATE_STOPPED);
 398:Generated_Source\PSoC6\pdl\middleware\ble/cy_ble.c ****         #endif  /* (CY_BLE_GAP_ROLE_PERIPHERAL || CY_BLE_GAP_ROLE_BROADCASTER) */
 399:Generated_Source\PSoC6\pdl\middleware\ble/cy_ble.c **** 
 400:Generated_Source\PSoC6\pdl\middleware\ble/cy_ble.c ****         #if (CY_BLE_GAP_ROLE_CENTRAL || CY_BLE_GAP_ROLE_OBSERVER)
 401:Generated_Source\PSoC6\pdl\middleware\ble/cy_ble.c ****             Cy_BLE_SetScanState(CY_BLE_SCAN_STATE_STOPPED);
 402:Generated_Source\PSoC6\pdl\middleware\ble/cy_ble.c ****         #endif /* (CY_BLE_GAP_ROLE_CENTRAL || CY_BLE_GAP_ROLE_OBSERVER) */
 403:Generated_Source\PSoC6\pdl\middleware\ble/cy_ble.c **** 
 404:Generated_Source\PSoC6\pdl\middleware\ble/cy_ble.c ****         #if (CY_BLE_GATT_ROLE_SERVER)
 405:Generated_Source\PSoC6\pdl\middleware\ble/cy_ble.c ****             {
 406:Generated_Source\PSoC6\pdl\middleware\ble/cy_ble.c ****                 cy_stc_ble_gatts_db_info_t dbInfoParam =
 407:Generated_Source\PSoC6\pdl\middleware\ble/cy_ble.c ****                 {
 408:Generated_Source\PSoC6\pdl\middleware\ble/cy_ble.c ****                     .gattDbPtr          = (const cy_stc_ble_gatts_db_t*)cy_ble_configPtr->gattDB,
 409:Generated_Source\PSoC6\pdl\middleware\ble/cy_ble.c ****                     .gattDbTotalEntries = cy_ble_configPtr->params->gattDbIndexCount,
 410:Generated_Source\PSoC6\pdl\middleware\ble/cy_ble.c ****                     .gattDbMaxValue     = CY_BLE_GATT_DB_MAX_VALUE_LEN
 411:Generated_Source\PSoC6\pdl\middleware\ble/cy_ble.c ****                 };
 412:Generated_Source\PSoC6\pdl\middleware\ble/cy_ble.c **** 
 413:Generated_Source\PSoC6\pdl\middleware\ble/cy_ble.c ****                 apiResult = Cy_BLE_GATTS_DbRegister(&dbInfoParam);
 414:Generated_Source\PSoC6\pdl\middleware\ble/cy_ble.c ****             }
 415:Generated_Source\PSoC6\pdl\middleware\ble/cy_ble.c ****         #endif /* CY_BLE_GATT_ROLE_SERVER */
 416:Generated_Source\PSoC6\pdl\middleware\ble/cy_ble.c ****         }
 417:Generated_Source\PSoC6\pdl\middleware\ble/cy_ble.c ****         cy_ble_cmdStatus = 0u;
 418:Generated_Source\PSoC6\pdl\middleware\ble/cy_ble.c ****     #endif /* (CY_BLE_MODE_PROFILE) */
 419:Generated_Source\PSoC6\pdl\middleware\ble/cy_ble.c ****     }
 420:Generated_Source\PSoC6\pdl\middleware\ble/cy_ble.c **** 
 421:Generated_Source\PSoC6\pdl\middleware\ble/cy_ble.c ****     return(apiResult);
 422:Generated_Source\PSoC6\pdl\middleware\ble/cy_ble.c **** }
 423:Generated_Source\PSoC6\pdl\middleware\ble/cy_ble.c **** 
 424:Generated_Source\PSoC6\pdl\middleware\ble/cy_ble.c **** 
 425:Generated_Source\PSoC6\pdl\middleware\ble/cy_ble.c **** /******************************************************************************
 426:Generated_Source\PSoC6\pdl\middleware\ble/cy_ble.c **** * Function Name: Cy_BLE_Disable
 427:Generated_Source\PSoC6\pdl\middleware\ble/cy_ble.c **** ***************************************************************************//**
 428:Generated_Source\PSoC6\pdl\middleware\ble/cy_ble.c **** *
 429:Generated_Source\PSoC6\pdl\middleware\ble/cy_ble.c **** *  This function stops any ongoing operation in the BLE Stack and forces the
ARM GAS  C:\Users\ASUS\AppData\Local\Temp\cczm8cZa.s 			page 9


 430:Generated_Source\PSoC6\pdl\middleware\ble/cy_ble.c **** *  BLE Stack to shut down.
 431:Generated_Source\PSoC6\pdl\middleware\ble/cy_ble.c **** *
 432:Generated_Source\PSoC6\pdl\middleware\ble/cy_ble.c **** *  Calling this function results in generation of a 
 433:Generated_Source\PSoC6\pdl\middleware\ble/cy_ble.c **** *  #CY_BLE_EVT_STACK_SHUTDOWN_COMPLETE event on a successful stack shutdown.
 434:Generated_Source\PSoC6\pdl\middleware\ble/cy_ble.c **** *
 435:Generated_Source\PSoC6\pdl\middleware\ble/cy_ble.c **** *  For HCI mode:
 436:Generated_Source\PSoC6\pdl\middleware\ble/cy_ble.c **** *  This is a blocking function and no event is generated.
 437:Generated_Source\PSoC6\pdl\middleware\ble/cy_ble.c **** *  Only #CY_BLE_SUCCESS will be returned and other error codes are not applicable.
 438:Generated_Source\PSoC6\pdl\middleware\ble/cy_ble.c **** *  UART interface will be stopped and UART data will not be processed by stack
 439:Generated_Source\PSoC6\pdl\middleware\ble/cy_ble.c **** *  until Cy_BLE_Enable() is invoked.
 440:Generated_Source\PSoC6\pdl\middleware\ble/cy_ble.c **** *
 441:Generated_Source\PSoC6\pdl\middleware\ble/cy_ble.c **** * \return
 442:Generated_Source\PSoC6\pdl\middleware\ble/cy_ble.c **** * \ref cy_en_ble_api_result_t : Return value indicates if the function succeeded or
 443:Generated_Source\PSoC6\pdl\middleware\ble/cy_ble.c **** *  failed. The following are possible error codes.
 444:Generated_Source\PSoC6\pdl\middleware\ble/cy_ble.c **** *
 445:Generated_Source\PSoC6\pdl\middleware\ble/cy_ble.c **** *  <table>
 446:Generated_Source\PSoC6\pdl\middleware\ble/cy_ble.c **** *    <tr>
 447:Generated_Source\PSoC6\pdl\middleware\ble/cy_ble.c **** *      <th>Error codes</th>
 448:Generated_Source\PSoC6\pdl\middleware\ble/cy_ble.c **** *      <th>Description</th>
 449:Generated_Source\PSoC6\pdl\middleware\ble/cy_ble.c **** *    </tr>
 450:Generated_Source\PSoC6\pdl\middleware\ble/cy_ble.c **** *    <tr>
 451:Generated_Source\PSoC6\pdl\middleware\ble/cy_ble.c **** *      <td>CY_BLE_SUCCESS</td>
 452:Generated_Source\PSoC6\pdl\middleware\ble/cy_ble.c **** *      <td>On successful operation.</td>
 453:Generated_Source\PSoC6\pdl\middleware\ble/cy_ble.c **** *    </tr>
 454:Generated_Source\PSoC6\pdl\middleware\ble/cy_ble.c **** *    <tr>
 455:Generated_Source\PSoC6\pdl\middleware\ble/cy_ble.c **** *      <td>CY_BLE_ERROR_INVALID_OPERATION</td>
 456:Generated_Source\PSoC6\pdl\middleware\ble/cy_ble.c **** *      <td>On calling Cy_BLE_Disable before calling Cy_BLE_Enable() 
 457:Generated_Source\PSoC6\pdl\middleware\ble/cy_ble.c **** *          or on Controller core.</td>
 458:Generated_Source\PSoC6\pdl\middleware\ble/cy_ble.c **** *    </tr>
 459:Generated_Source\PSoC6\pdl\middleware\ble/cy_ble.c **** *  </table>
 460:Generated_Source\PSoC6\pdl\middleware\ble/cy_ble.c **** *
 461:Generated_Source\PSoC6\pdl\middleware\ble/cy_ble.c **** ******************************************************************************/
 462:Generated_Source\PSoC6\pdl\middleware\ble/cy_ble.c **** cy_en_ble_api_result_t Cy_BLE_Disable(void)
 463:Generated_Source\PSoC6\pdl\middleware\ble/cy_ble.c **** {
 464:Generated_Source\PSoC6\pdl\middleware\ble/cy_ble.c ****     cy_en_ble_api_result_t apiResult;
 465:Generated_Source\PSoC6\pdl\middleware\ble/cy_ble.c **** 
 466:Generated_Source\PSoC6\pdl\middleware\ble/cy_ble.c **** #if (CY_BLE_STACK_IPC_CONTR_CORE)
 467:Generated_Source\PSoC6\pdl\middleware\ble/cy_ble.c ****     /* To stop Controller call Cy_BLE_Disable() function on Host core */
 468:Generated_Source\PSoC6\pdl\middleware\ble/cy_ble.c ****     apiResult = CY_BLE_SUCCESS;             
 469:Generated_Source\PSoC6\pdl\middleware\ble/cy_ble.c **** #else
 470:Generated_Source\PSoC6\pdl\middleware\ble/cy_ble.c ****     /* Stops all ongoing activities */
 471:Generated_Source\PSoC6\pdl\middleware\ble/cy_ble.c ****     apiResult = Cy_BLE_StackShutdown();
 472:Generated_Source\PSoC6\pdl\middleware\ble/cy_ble.c ****     
 473:Generated_Source\PSoC6\pdl\middleware\ble/cy_ble.c ****     #if (CY_BLE_SHARING_MODE_EXPORT)
 474:Generated_Source\PSoC6\pdl\middleware\ble/cy_ble.c ****     if(cy_ble_stackMemoryRam != NULL)
 475:Generated_Source\PSoC6\pdl\middleware\ble/cy_ble.c ****     {
 476:Generated_Source\PSoC6\pdl\middleware\ble/cy_ble.c ****         free(cy_ble_stackMemoryRam);
 477:Generated_Source\PSoC6\pdl\middleware\ble/cy_ble.c ****     }
 478:Generated_Source\PSoC6\pdl\middleware\ble/cy_ble.c ****     #endif /* CY_BLE_SHARING_MODE_EXPORT */
 479:Generated_Source\PSoC6\pdl\middleware\ble/cy_ble.c **** #endif     /* CY_BLE_STACK_IPC_CONTR_CORE */
 480:Generated_Source\PSoC6\pdl\middleware\ble/cy_ble.c **** 
 481:Generated_Source\PSoC6\pdl\middleware\ble/cy_ble.c ****     return(apiResult);
 482:Generated_Source\PSoC6\pdl\middleware\ble/cy_ble.c **** }
 483:Generated_Source\PSoC6\pdl\middleware\ble/cy_ble.c **** 
 484:Generated_Source\PSoC6\pdl\middleware\ble/cy_ble.c **** 
 485:Generated_Source\PSoC6\pdl\middleware\ble/cy_ble.c **** /*******************************************************************************
 486:Generated_Source\PSoC6\pdl\middleware\ble/cy_ble.c **** * Function Name: Cy_BLE_ConfigureExtPA
ARM GAS  C:\Users\ASUS\AppData\Local\Temp\cczm8cZa.s 			page 10


 487:Generated_Source\PSoC6\pdl\middleware\ble/cy_ble.c **** ****************************************************************************//**
 488:Generated_Source\PSoC6\pdl\middleware\ble/cy_ble.c **** *
 489:Generated_Source\PSoC6\pdl\middleware\ble/cy_ble.c **** *  This function controls the external Power Amplifier and Low Noise Amplifier
 490:Generated_Source\PSoC6\pdl\middleware\ble/cy_ble.c **** *  outputs.
 491:Generated_Source\PSoC6\pdl\middleware\ble/cy_ble.c **** *
 492:Generated_Source\PSoC6\pdl\middleware\ble/cy_ble.c **** * \param controlValue Enables and controls polarity of the outputs.
 493:Generated_Source\PSoC6\pdl\middleware\ble/cy_ble.c **** *   To control external PA and LNA, the following mask defines are used:
 494:Generated_Source\PSoC6\pdl\middleware\ble/cy_ble.c **** *
 495:Generated_Source\PSoC6\pdl\middleware\ble/cy_ble.c **** *   - BLE_BLESS_EXT_PA_LNA_CTRL_ENABLE_EXT_PA_LNA_Msk - When set to 1, enables
 496:Generated_Source\PSoC6\pdl\middleware\ble/cy_ble.c **** *       the external PA & LNA and BLESS power profile for energy profiler
 497:Generated_Source\PSoC6\pdl\middleware\ble/cy_ble.c **** *   - BLE_BLESS_EXT_PA_LNA_CTRL_CHIP_EN_POL_Msk - Controls the polarity of the 
 498:Generated_Source\PSoC6\pdl\middleware\ble/cy_ble.c **** *       chip-enable control signal:
 499:Generated_Source\PSoC6\pdl\middleware\ble/cy_ble.c **** *       * 0 - High enable, Low disable
 500:Generated_Source\PSoC6\pdl\middleware\ble/cy_ble.c **** *       * 1 - Low enable, High disable, Incorrect power profile
 501:Generated_Source\PSoC6\pdl\middleware\ble/cy_ble.c **** *   - BLE_BLESS_EXT_PA_LNA_CTRL_PA_CTRL_POL_Msk - Controls the polarity of the PA
 502:Generated_Source\PSoC6\pdl\middleware\ble/cy_ble.c **** *       control signal:
 503:Generated_Source\PSoC6\pdl\middleware\ble/cy_ble.c **** *       * 0 - High enable, Low disable
 504:Generated_Source\PSoC6\pdl\middleware\ble/cy_ble.c **** *       * 1 - Low enable, High disable, Incorrect power profile
 505:Generated_Source\PSoC6\pdl\middleware\ble/cy_ble.c **** *   - BLE_BLESS_EXT_PA_LNA_CTRL_LNA_CTRL_POL_Msk - Controls the polarity of the LNA
 506:Generated_Source\PSoC6\pdl\middleware\ble/cy_ble.c **** *       control signal:
 507:Generated_Source\PSoC6\pdl\middleware\ble/cy_ble.c **** *       * 0 - High enable, Low disable
 508:Generated_Source\PSoC6\pdl\middleware\ble/cy_ble.c **** *       * 1 - Low enable, High disable, Incorrect power profile
 509:Generated_Source\PSoC6\pdl\middleware\ble/cy_ble.c **** *   - BLE_BLESS_EXT_PA_LNA_CTRL_OUT_EN_DRIVE_VAL_Msk  - Configures the drive value
 510:Generated_Source\PSoC6\pdl\middleware\ble/cy_ble.c **** *       on the output enables of PA, LNA and CHI_EN signals
 511:Generated_Source\PSoC6\pdl\middleware\ble/cy_ble.c **** *       * 0 - drive 0 on the output enable signals
 512:Generated_Source\PSoC6\pdl\middleware\ble/cy_ble.c **** *       * 1 - drive 1 on the output enable signals
 513:Generated_Source\PSoC6\pdl\middleware\ble/cy_ble.c **** *
 514:Generated_Source\PSoC6\pdl\middleware\ble/cy_ble.c **** * \return
 515:Generated_Source\PSoC6\pdl\middleware\ble/cy_ble.c **** *  None
 516:Generated_Source\PSoC6\pdl\middleware\ble/cy_ble.c **** *
 517:Generated_Source\PSoC6\pdl\middleware\ble/cy_ble.c **** *******************************************************************************/
 518:Generated_Source\PSoC6\pdl\middleware\ble/cy_ble.c **** void Cy_BLE_ConfigureExtPA(uint32_t controlValue)
 519:Generated_Source\PSoC6\pdl\middleware\ble/cy_ble.c **** {
 520:Generated_Source\PSoC6\pdl\middleware\ble/cy_ble.c ****     BLE->BLESS.EXT_PA_LNA_CTRL = controlValue;
 521:Generated_Source\PSoC6\pdl\middleware\ble/cy_ble.c **** }
 522:Generated_Source\PSoC6\pdl\middleware\ble/cy_ble.c **** 
 523:Generated_Source\PSoC6\pdl\middleware\ble/cy_ble.c **** #if (CY_BLE_INTR_NOTIFY_FEATURE_ENABLED) && (CY_BLE_HOST_CORE)
 524:Generated_Source\PSoC6\pdl\middleware\ble/cy_ble.c **** /*******************************************************************************
 525:Generated_Source\PSoC6\pdl\middleware\ble/cy_ble.c **** * Function Name: Cy_BLE_RegisterInterruptCallback
 526:Generated_Source\PSoC6\pdl\middleware\ble/cy_ble.c **** ****************************************************************************//**
 527:Generated_Source\PSoC6\pdl\middleware\ble/cy_ble.c **** *
 528:Generated_Source\PSoC6\pdl\middleware\ble/cy_ble.c **** *  This function registers a callback to expose BLE interrupt notifications to an 
 529:Generated_Source\PSoC6\pdl\middleware\ble/cy_ble.c **** *  application that indicates a different link layer and radio state transition
 530:Generated_Source\PSoC6\pdl\middleware\ble/cy_ble.c **** *  to the user from the BLESS interrupt context. This callback is triggered at 
 531:Generated_Source\PSoC6\pdl\middleware\ble/cy_ble.c **** *  the beginning of a received BLESS interrupt (based on the registered 
 532:Generated_Source\PSoC6\pdl\middleware\ble/cy_ble.c **** *  interrupt mask).
 533:Generated_Source\PSoC6\pdl\middleware\ble/cy_ble.c **** *
 534:Generated_Source\PSoC6\pdl\middleware\ble/cy_ble.c **** *  An application can use an interrupt callback to know when: 
 535:Generated_Source\PSoC6\pdl\middleware\ble/cy_ble.c **** *  * the RF activity is about to begin/end; 
 536:Generated_Source\PSoC6\pdl\middleware\ble/cy_ble.c **** *  * the BLE device changes its state from advertising to connected; 
 537:Generated_Source\PSoC6\pdl\middleware\ble/cy_ble.c **** *  * BLESS transits between active and low-power modes.
 538:Generated_Source\PSoC6\pdl\middleware\ble/cy_ble.c **** *    
 539:Generated_Source\PSoC6\pdl\middleware\ble/cy_ble.c **** *  These BLESS real-time states can be used to synchronize
 540:Generated_Source\PSoC6\pdl\middleware\ble/cy_ble.c **** *  an application with the BLESS or prevent radio interference with other 
 541:Generated_Source\PSoC6\pdl\middleware\ble/cy_ble.c **** *  peripherals, etc.
 542:Generated_Source\PSoC6\pdl\middleware\ble/cy_ble.c **** *    
 543:Generated_Source\PSoC6\pdl\middleware\ble/cy_ble.c **** *  BLE interrupt notifications feature enables via define in cy_ble_config.h:
ARM GAS  C:\Users\ASUS\AppData\Local\Temp\cczm8cZa.s 			page 11


 544:Generated_Source\PSoC6\pdl\middleware\ble/cy_ble.c **** *  \code   
 545:Generated_Source\PSoC6\pdl\middleware\ble/cy_ble.c **** *  #define CY_BLE_INTR_NOTIFY_FEATURE_ENABLE       (1u)
 546:Generated_Source\PSoC6\pdl\middleware\ble/cy_ble.c **** *  \endcode    
 547:Generated_Source\PSoC6\pdl\middleware\ble/cy_ble.c **** *
 548:Generated_Source\PSoC6\pdl\middleware\ble/cy_ble.c **** *  BLE Dual mode requires an additional define IPC channel and IPC Interrupt 
 549:Generated_Source\PSoC6\pdl\middleware\ble/cy_ble.c **** *  structure to send notifications from the controller core to host core. 
 550:Generated_Source\PSoC6\pdl\middleware\ble/cy_ble.c **** *  Use the following defines:
 551:Generated_Source\PSoC6\pdl\middleware\ble/cy_ble.c **** *  \code    
 552:Generated_Source\PSoC6\pdl\middleware\ble/cy_ble.c **** *  #define CY_BLE_INTR_NOTIFY_IPC_CHAN             (9..15)
 553:Generated_Source\PSoC6\pdl\middleware\ble/cy_ble.c **** *  #define CY_BLE_INTR_NOTIFY_IPC_INTR             (9..15)
 554:Generated_Source\PSoC6\pdl\middleware\ble/cy_ble.c **** *  #define CY_BLE_INTR_NOTIFY_IPC_INTR_PRIOR       (0..7)  
 555:Generated_Source\PSoC6\pdl\middleware\ble/cy_ble.c **** *  \endcode
 556:Generated_Source\PSoC6\pdl\middleware\ble/cy_ble.c **** *    
 557:Generated_Source\PSoC6\pdl\middleware\ble/cy_ble.c **** *  \param intrMask
 558:Generated_Source\PSoC6\pdl\middleware\ble/cy_ble.c **** *  All interrupts masks are specified in the #cy_en_ble_interrupt_callback_feature_t
 559:Generated_Source\PSoC6\pdl\middleware\ble/cy_ble.c **** *  enumeration.
 560:Generated_Source\PSoC6\pdl\middleware\ble/cy_ble.c **** *    
 561:Generated_Source\PSoC6\pdl\middleware\ble/cy_ble.c **** *  \param CallBack
 562:Generated_Source\PSoC6\pdl\middleware\ble/cy_ble.c **** *  The pointer to an application notify callback.
 563:Generated_Source\PSoC6\pdl\middleware\ble/cy_ble.c **** *
 564:Generated_Source\PSoC6\pdl\middleware\ble/cy_ble.c **** * \return
 565:Generated_Source\PSoC6\pdl\middleware\ble/cy_ble.c **** * \ref cy_en_ble_api_result_t : The return value indicates if the function succeeded or
 566:Generated_Source\PSoC6\pdl\middleware\ble/cy_ble.c **** *  failed. The possible error codes:
 567:Generated_Source\PSoC6\pdl\middleware\ble/cy_ble.c **** *
 568:Generated_Source\PSoC6\pdl\middleware\ble/cy_ble.c **** *    Errors codes                   | Description
 569:Generated_Source\PSoC6\pdl\middleware\ble/cy_ble.c **** *    ------------                   | -----------
 570:Generated_Source\PSoC6\pdl\middleware\ble/cy_ble.c **** *    CY_BLE_SUCCESS                 | The callback is registered successfully.
 571:Generated_Source\PSoC6\pdl\middleware\ble/cy_ble.c **** *    CY_BLE_ERROR_INVALID_PARAMETER | Validation of the input parameters failed.
 572:Generated_Source\PSoC6\pdl\middleware\ble/cy_ble.c **** *    CY_BLE_ERROR_INVALID_OPERATION | The IPC channel is busy (Dual core mode only).
 573:Generated_Source\PSoC6\pdl\middleware\ble/cy_ble.c **** *
 574:Generated_Source\PSoC6\pdl\middleware\ble/cy_ble.c **** *******************************************************************************/   
 575:Generated_Source\PSoC6\pdl\middleware\ble/cy_ble.c **** cy_en_ble_api_result_t Cy_BLE_RegisterInterruptCallback(uint32_t intrMask, cy_ble_intr_callback_t C
 576:Generated_Source\PSoC6\pdl\middleware\ble/cy_ble.c **** { 
 577:Generated_Source\PSoC6\pdl\middleware\ble/cy_ble.c ****     cy_en_ble_api_result_t apiResult = CY_BLE_SUCCESS;
 578:Generated_Source\PSoC6\pdl\middleware\ble/cy_ble.c ****     
 579:Generated_Source\PSoC6\pdl\middleware\ble/cy_ble.c ****     if(CallBack != NULL)
 580:Generated_Source\PSoC6\pdl\middleware\ble/cy_ble.c ****     {
 581:Generated_Source\PSoC6\pdl\middleware\ble/cy_ble.c ****         /* Store the application callback and interrupt mask */
 582:Generated_Source\PSoC6\pdl\middleware\ble/cy_ble.c ****         Cy_BLE_InterruptCallback = CallBack;
 583:Generated_Source\PSoC6\pdl\middleware\ble/cy_ble.c ****         intrNotify.mask = intrMask;
 584:Generated_Source\PSoC6\pdl\middleware\ble/cy_ble.c ****         
 585:Generated_Source\PSoC6\pdl\middleware\ble/cy_ble.c ****         /* Set up the IPC for Dual Stack mode */
 586:Generated_Source\PSoC6\pdl\middleware\ble/cy_ble.c ****         #if(CY_BLE_STACK_MODE_HOST_IPC)
 587:Generated_Source\PSoC6\pdl\middleware\ble/cy_ble.c ****         {  
 588:Generated_Source\PSoC6\pdl\middleware\ble/cy_ble.c ****             if(!intrNotify.configFlag)
 589:Generated_Source\PSoC6\pdl\middleware\ble/cy_ble.c ****             {
 590:Generated_Source\PSoC6\pdl\middleware\ble/cy_ble.c ****                 uint32_t rTimeout = 2000u; /* us */
 591:Generated_Source\PSoC6\pdl\middleware\ble/cy_ble.c ****                 cy_en_ipc_pipe_status_t ipcStatus;
 592:Generated_Source\PSoC6\pdl\middleware\ble/cy_ble.c ****                 cy_stc_sysint_t intrConfig =
 593:Generated_Source\PSoC6\pdl\middleware\ble/cy_ble.c ****                 {
 594:Generated_Source\PSoC6\pdl\middleware\ble/cy_ble.c ****                     .intrPriority = (uint32_t)CY_BLE_INTR_NOTIFY_IPC_INTR_PRIOR,
 595:Generated_Source\PSoC6\pdl\middleware\ble/cy_ble.c ****                     .intrSrc      = (IRQn_Type)CY_IPC_INTR_NUM_TO_VECT((int32_t)CY_BLE_INTR_NOTIFY_
 596:Generated_Source\PSoC6\pdl\middleware\ble/cy_ble.c ****                 };
 597:Generated_Source\PSoC6\pdl\middleware\ble/cy_ble.c ****             
 598:Generated_Source\PSoC6\pdl\middleware\ble/cy_ble.c ****                 /* Initialize the interrupt controller for CM4 and IPC Interrupt */
 599:Generated_Source\PSoC6\pdl\middleware\ble/cy_ble.c ****                 (void)Cy_SysInt_Init(&intrConfig, &Cy_BLE_HAL_IntrNotifyIpcHandler);
 600:Generated_Source\PSoC6\pdl\middleware\ble/cy_ble.c ****                 NVIC_EnableIRQ(intrConfig.intrSrc);
ARM GAS  C:\Users\ASUS\AppData\Local\Temp\cczm8cZa.s 			page 12


 601:Generated_Source\PSoC6\pdl\middleware\ble/cy_ble.c ****         
 602:Generated_Source\PSoC6\pdl\middleware\ble/cy_ble.c ****                 /* Do not bring up an IPC release interrupt here, only set up a notify interrupt */
 603:Generated_Source\PSoC6\pdl\middleware\ble/cy_ble.c ****                 Cy_IPC_Drv_SetInterruptMask(Cy_IPC_Drv_GetIntrBaseAddr(CY_BLE_INTR_NOTIFY_IPC_INTR)
 604:Generated_Source\PSoC6\pdl\middleware\ble/cy_ble.c ****                                             CY_IPC_NO_NOTIFICATION, (1uL << CY_BLE_INTR_NOTIFY_IPC_
 605:Generated_Source\PSoC6\pdl\middleware\ble/cy_ble.c ****                 
 606:Generated_Source\PSoC6\pdl\middleware\ble/cy_ble.c ****                 /* 
 607:Generated_Source\PSoC6\pdl\middleware\ble/cy_ble.c ****                  * Send the address of the intrNotify structure to the controller core via CyPipe
 608:Generated_Source\PSoC6\pdl\middleware\ble/cy_ble.c ****                  * The IPC Pipe can be busy, then try sending a message during 2 ms. 
 609:Generated_Source\PSoC6\pdl\middleware\ble/cy_ble.c ****                  */
 610:Generated_Source\PSoC6\pdl\middleware\ble/cy_ble.c ****                 do
 611:Generated_Source\PSoC6\pdl\middleware\ble/cy_ble.c ****                 {
 612:Generated_Source\PSoC6\pdl\middleware\ble/cy_ble.c ****                     ipcStatus = Cy_IPC_Pipe_SendMessage(CY_BLE_IPC_CONTROLLER_ADDR, CY_BLE_IPC_HOST
 613:Generated_Source\PSoC6\pdl\middleware\ble/cy_ble.c ****                                                         (void *)&intrNotify, NULL);
 614:Generated_Source\PSoC6\pdl\middleware\ble/cy_ble.c ****                     Cy_SysLib_DelayUs(1u);
 615:Generated_Source\PSoC6\pdl\middleware\ble/cy_ble.c ****                     rTimeout--;
 616:Generated_Source\PSoC6\pdl\middleware\ble/cy_ble.c ****                 }while((ipcStatus != CY_IPC_PIPE_SUCCESS) && (rTimeout != 0u));
 617:Generated_Source\PSoC6\pdl\middleware\ble/cy_ble.c ****               
 618:Generated_Source\PSoC6\pdl\middleware\ble/cy_ble.c ****                 if(ipcStatus != CY_IPC_PIPE_SUCCESS)
 619:Generated_Source\PSoC6\pdl\middleware\ble/cy_ble.c ****                 {
 620:Generated_Source\PSoC6\pdl\middleware\ble/cy_ble.c ****                     apiResult = CY_BLE_ERROR_INVALID_OPERATION;
 621:Generated_Source\PSoC6\pdl\middleware\ble/cy_ble.c ****                 }
 622:Generated_Source\PSoC6\pdl\middleware\ble/cy_ble.c ****             }
 623:Generated_Source\PSoC6\pdl\middleware\ble/cy_ble.c ****         }
 624:Generated_Source\PSoC6\pdl\middleware\ble/cy_ble.c ****         #else 
 625:Generated_Source\PSoC6\pdl\middleware\ble/cy_ble.c ****             intrNotifyPtr = &intrNotify; 
 626:Generated_Source\PSoC6\pdl\middleware\ble/cy_ble.c ****         #endif /* CY_BLE_STACK_MODE_HOST_IPC */
 627:Generated_Source\PSoC6\pdl\middleware\ble/cy_ble.c ****        
 628:Generated_Source\PSoC6\pdl\middleware\ble/cy_ble.c ****     }
 629:Generated_Source\PSoC6\pdl\middleware\ble/cy_ble.c ****     else
 630:Generated_Source\PSoC6\pdl\middleware\ble/cy_ble.c ****     {
 631:Generated_Source\PSoC6\pdl\middleware\ble/cy_ble.c ****         apiResult = CY_BLE_ERROR_INVALID_PARAMETER;
 632:Generated_Source\PSoC6\pdl\middleware\ble/cy_ble.c ****     }
 633:Generated_Source\PSoC6\pdl\middleware\ble/cy_ble.c ****     return apiResult; 
 634:Generated_Source\PSoC6\pdl\middleware\ble/cy_ble.c **** }
 635:Generated_Source\PSoC6\pdl\middleware\ble/cy_ble.c **** 
 636:Generated_Source\PSoC6\pdl\middleware\ble/cy_ble.c **** 
 637:Generated_Source\PSoC6\pdl\middleware\ble/cy_ble.c **** /*******************************************************************************
 638:Generated_Source\PSoC6\pdl\middleware\ble/cy_ble.c **** * Function Name: Cy_BLE_UnRegisterInterruptCallback
 639:Generated_Source\PSoC6\pdl\middleware\ble/cy_ble.c **** ****************************************************************************//**
 640:Generated_Source\PSoC6\pdl\middleware\ble/cy_ble.c **** *
 641:Generated_Source\PSoC6\pdl\middleware\ble/cy_ble.c **** *  This function un-registers callback which exposed BLE interrupt 
 642:Generated_Source\PSoC6\pdl\middleware\ble/cy_ble.c **** *  notifications to the application. 
 643:Generated_Source\PSoC6\pdl\middleware\ble/cy_ble.c **** *
 644:Generated_Source\PSoC6\pdl\middleware\ble/cy_ble.c **** * \return
 645:Generated_Source\PSoC6\pdl\middleware\ble/cy_ble.c **** * \ref cy_en_ble_api_result_t : Return value indicates if the function succeeded or
 646:Generated_Source\PSoC6\pdl\middleware\ble/cy_ble.c **** *  failed. The following are possible error codes.
 647:Generated_Source\PSoC6\pdl\middleware\ble/cy_ble.c **** *    
 648:Generated_Source\PSoC6\pdl\middleware\ble/cy_ble.c **** *    Errors codes                   | Description
 649:Generated_Source\PSoC6\pdl\middleware\ble/cy_ble.c **** *    ------------                   | -----------
 650:Generated_Source\PSoC6\pdl\middleware\ble/cy_ble.c **** *    CY_BLE_SUCCESS                 | The callback is registered successfully.
 651:Generated_Source\PSoC6\pdl\middleware\ble/cy_ble.c **** *    CY_BLE_ERROR_INVALID_OPERATION | The IPC channel is busy (Dual core mode only).
 652:Generated_Source\PSoC6\pdl\middleware\ble/cy_ble.c **** *
 653:Generated_Source\PSoC6\pdl\middleware\ble/cy_ble.c **** *******************************************************************************/
 654:Generated_Source\PSoC6\pdl\middleware\ble/cy_ble.c **** cy_en_ble_api_result_t Cy_BLE_UnRegisterInterruptCallback(void)
 655:Generated_Source\PSoC6\pdl\middleware\ble/cy_ble.c **** {
 656:Generated_Source\PSoC6\pdl\middleware\ble/cy_ble.c ****     cy_en_ble_api_result_t apiResult = CY_BLE_SUCCESS;
 657:Generated_Source\PSoC6\pdl\middleware\ble/cy_ble.c ****     if(Cy_BLE_InterruptCallback != NULL)
ARM GAS  C:\Users\ASUS\AppData\Local\Temp\cczm8cZa.s 			page 13


 658:Generated_Source\PSoC6\pdl\middleware\ble/cy_ble.c ****     {
 659:Generated_Source\PSoC6\pdl\middleware\ble/cy_ble.c ****         /* Clean interrupt mask */
 660:Generated_Source\PSoC6\pdl\middleware\ble/cy_ble.c ****         apiResult = Cy_BLE_RegisterInterruptCallback((uint32_t)CY_BLE_INTR_CALLBACK_NONE, 
 661:Generated_Source\PSoC6\pdl\middleware\ble/cy_ble.c ****                                                      Cy_BLE_InterruptCallback);
 662:Generated_Source\PSoC6\pdl\middleware\ble/cy_ble.c ****         if(apiResult == CY_BLE_SUCCESS)
 663:Generated_Source\PSoC6\pdl\middleware\ble/cy_ble.c ****         {
 664:Generated_Source\PSoC6\pdl\middleware\ble/cy_ble.c ****             /* Clean callback pointer */
 665:Generated_Source\PSoC6\pdl\middleware\ble/cy_ble.c ****             Cy_BLE_InterruptCallback = NULL;
 666:Generated_Source\PSoC6\pdl\middleware\ble/cy_ble.c ****         }
 667:Generated_Source\PSoC6\pdl\middleware\ble/cy_ble.c ****     }
 668:Generated_Source\PSoC6\pdl\middleware\ble/cy_ble.c ****     return(apiResult);    
 669:Generated_Source\PSoC6\pdl\middleware\ble/cy_ble.c **** }
 670:Generated_Source\PSoC6\pdl\middleware\ble/cy_ble.c **** 
 671:Generated_Source\PSoC6\pdl\middleware\ble/cy_ble.c **** #endif /* (CY_BLE_INTR_NOTIFY_FEATURE_ENABLED) && (CY_BLE_HOST_CORE) */
 672:Generated_Source\PSoC6\pdl\middleware\ble/cy_ble.c **** 
 673:Generated_Source\PSoC6\pdl\middleware\ble/cy_ble.c **** 
 674:Generated_Source\PSoC6\pdl\middleware\ble/cy_ble.c **** #if (CY_BLE_MODE_PROFILE)
 675:Generated_Source\PSoC6\pdl\middleware\ble/cy_ble.c **** 
 676:Generated_Source\PSoC6\pdl\middleware\ble/cy_ble.c **** /*******************************************************************************
 677:Generated_Source\PSoC6\pdl\middleware\ble/cy_ble.c **** * Function Name: Cy_BLE_RegisterAppHostCallback
 678:Generated_Source\PSoC6\pdl\middleware\ble/cy_ble.c **** ****************************************************************************//**
 679:Generated_Source\PSoC6\pdl\middleware\ble/cy_ble.c **** *
 680:Generated_Source\PSoC6\pdl\middleware\ble/cy_ble.c **** * This function registers an application Host callback (BLE RTOS hook). 
 681:Generated_Source\PSoC6\pdl\middleware\ble/cy_ble.c **** * The user can trigger an RTOS BLE task if the application Host callback was
 682:Generated_Source\PSoC6\pdl\middleware\ble/cy_ble.c **** * called.
 683:Generated_Source\PSoC6\pdl\middleware\ble/cy_ble.c **** * 
 684:Generated_Source\PSoC6\pdl\middleware\ble/cy_ble.c **** * Theory of operation:
 685:Generated_Source\PSoC6\pdl\middleware\ble/cy_ble.c **** * The BLE Middleware triggers this callback when the BLE Stack controller needs
 686:Generated_Source\PSoC6\pdl\middleware\ble/cy_ble.c **** * to process pending Stack events (by calling Cy_BLE_ProcessEvents()). This
 687:Generated_Source\PSoC6\pdl\middleware\ble/cy_ble.c **** * callback executes from within an ISR and must be very short.  
 688:Generated_Source\PSoC6\pdl\middleware\ble/cy_ble.c **** *    
 689:Generated_Source\PSoC6\pdl\middleware\ble/cy_ble.c **** * \note The application Host callback is called from the context of a high-
 690:Generated_Source\PSoC6\pdl\middleware\ble/cy_ble.c **** * priority ISR. Some RTOS (e.g. FreeRTOS) have restrictions on calling the RTOS
 691:Generated_Source\PSoC6\pdl\middleware\ble/cy_ble.c **** * functions from a high-priority ISR. The user application is responsible for
 692:Generated_Source\PSoC6\pdl\middleware\ble/cy_ble.c **** * integration of the BLE RTOS hook and RTOS functions and must insure that RTOS 
 693:Generated_Source\PSoC6\pdl\middleware\ble/cy_ble.c **** * allows to call RTOS API from BLE interrupt context.  
 694:Generated_Source\PSoC6\pdl\middleware\ble/cy_ble.c **** * If direct call is forbidden one of the possible solutions is to trig a 
 695:Generated_Source\PSoC6\pdl\middleware\ble/cy_ble.c **** * low-priority interrupt from the application Host callback and then call the
 696:Generated_Source\PSoC6\pdl\middleware\ble/cy_ble.c **** * RTOS functions from a low-priority interrupt. For details refer to specific
 697:Generated_Source\PSoC6\pdl\middleware\ble/cy_ble.c **** * RTOS documentation.
 698:Generated_Source\PSoC6\pdl\middleware\ble/cy_ble.c **** *   
 699:Generated_Source\PSoC6\pdl\middleware\ble/cy_ble.c **** * \param CallBack
 700:Generated_Source\PSoC6\pdl\middleware\ble/cy_ble.c **** * The pointer to the application Host callback.
 701:Generated_Source\PSoC6\pdl\middleware\ble/cy_ble.c **** *
 702:Generated_Source\PSoC6\pdl\middleware\ble/cy_ble.c **** * \return
 703:Generated_Source\PSoC6\pdl\middleware\ble/cy_ble.c **** *  Error Codes                        | Description
 704:Generated_Source\PSoC6\pdl\middleware\ble/cy_ble.c **** *  ------------                       | -----------
 705:Generated_Source\PSoC6\pdl\middleware\ble/cy_ble.c **** *   CY_BLE_SUCCESS                    | The callback was registered successfully.
 706:Generated_Source\PSoC6\pdl\middleware\ble/cy_ble.c **** *   CY_BLE_ERROR_INVALID_PARAMETER    | On specifying NULL as the input parameter.
 707:Generated_Source\PSoC6\pdl\middleware\ble/cy_ble.c **** *
 708:Generated_Source\PSoC6\pdl\middleware\ble/cy_ble.c **** *******************************************************************************/
 709:Generated_Source\PSoC6\pdl\middleware\ble/cy_ble.c **** cy_en_ble_api_result_t Cy_BLE_RegisterAppHostCallback(cy_ble_app_notify_callback_t CallBack)
 710:Generated_Source\PSoC6\pdl\middleware\ble/cy_ble.c **** {
 711:Generated_Source\PSoC6\pdl\middleware\ble/cy_ble.c ****     cy_en_ble_api_result_t apiResult = CY_BLE_SUCCESS;
 712:Generated_Source\PSoC6\pdl\middleware\ble/cy_ble.c ****     
 713:Generated_Source\PSoC6\pdl\middleware\ble/cy_ble.c ****     if(CallBack != NULL)
 714:Generated_Source\PSoC6\pdl\middleware\ble/cy_ble.c ****     {
ARM GAS  C:\Users\ASUS\AppData\Local\Temp\cczm8cZa.s 			page 14


 715:Generated_Source\PSoC6\pdl\middleware\ble/cy_ble.c ****         Cy_BLE_HostRegisteredCallback = CallBack;
 716:Generated_Source\PSoC6\pdl\middleware\ble/cy_ble.c ****     }
 717:Generated_Source\PSoC6\pdl\middleware\ble/cy_ble.c ****     else
 718:Generated_Source\PSoC6\pdl\middleware\ble/cy_ble.c ****     {
 719:Generated_Source\PSoC6\pdl\middleware\ble/cy_ble.c ****         apiResult = CY_BLE_ERROR_INVALID_PARAMETER;
 720:Generated_Source\PSoC6\pdl\middleware\ble/cy_ble.c ****     }   
 721:Generated_Source\PSoC6\pdl\middleware\ble/cy_ble.c ****     return apiResult;
 722:Generated_Source\PSoC6\pdl\middleware\ble/cy_ble.c **** }
 723:Generated_Source\PSoC6\pdl\middleware\ble/cy_ble.c **** 
 724:Generated_Source\PSoC6\pdl\middleware\ble/cy_ble.c **** /*******************************************************************************
 725:Generated_Source\PSoC6\pdl\middleware\ble/cy_ble.c **** * Function Name: Cy_BLE_UnRegisterAppHostCallback
 726:Generated_Source\PSoC6\pdl\middleware\ble/cy_ble.c **** ****************************************************************************//**
 727:Generated_Source\PSoC6\pdl\middleware\ble/cy_ble.c **** *
 728:Generated_Source\PSoC6\pdl\middleware\ble/cy_ble.c **** * This function un-registers an application Host callback (BLE RTOS hook). 
 729:Generated_Source\PSoC6\pdl\middleware\ble/cy_ble.c **** *
 730:Generated_Source\PSoC6\pdl\middleware\ble/cy_ble.c **** *******************************************************************************/
 731:Generated_Source\PSoC6\pdl\middleware\ble/cy_ble.c **** void Cy_BLE_UnRegisterAppHostCallback(void)
 732:Generated_Source\PSoC6\pdl\middleware\ble/cy_ble.c **** {
 733:Generated_Source\PSoC6\pdl\middleware\ble/cy_ble.c ****     Cy_BLE_HostRegisteredCallback = NULL;
 734:Generated_Source\PSoC6\pdl\middleware\ble/cy_ble.c **** }
 735:Generated_Source\PSoC6\pdl\middleware\ble/cy_ble.c **** #endif /* (CY_BLE_MODE_PROFILE) */
 736:Generated_Source\PSoC6\pdl\middleware\ble/cy_ble.c **** 
 737:Generated_Source\PSoC6\pdl\middleware\ble/cy_ble.c **** 
 738:Generated_Source\PSoC6\pdl\middleware\ble/cy_ble.c **** #if (CY_BLE_USE_DEEP_SLEEP != 0u)
 739:Generated_Source\PSoC6\pdl\middleware\ble/cy_ble.c **** /*******************************************************************************
 740:Generated_Source\PSoC6\pdl\middleware\ble/cy_ble.c **** * Function Name: Cy_BLE_DeepSleepCallback
 741:Generated_Source\PSoC6\pdl\middleware\ble/cy_ble.c **** ****************************************************************************//**
 742:Generated_Source\PSoC6\pdl\middleware\ble/cy_ble.c **** *
 743:Generated_Source\PSoC6\pdl\middleware\ble/cy_ble.c **** * This function requests the BLE Stack to put Bluetooth Low Energy Sub-System
 744:Generated_Source\PSoC6\pdl\middleware\ble/cy_ble.c **** * (BLESS) to DeepSleep mode.
 745:Generated_Source\PSoC6\pdl\middleware\ble/cy_ble.c **** *
 746:Generated_Source\PSoC6\pdl\middleware\ble/cy_ble.c **** * It is registered to the system power mode by Cy_SysPm_RegisterCallback()
 747:Generated_Source\PSoC6\pdl\middleware\ble/cy_ble.c **** * function with CY_SYSPM_DEEPSLEEP type. After registration it is called by
 748:Generated_Source\PSoC6\pdl\middleware\ble/cy_ble.c **** * Cy_SysPm_DeepSleep() function prior entering the core into the Deep Sleep
 749:Generated_Source\PSoC6\pdl\middleware\ble/cy_ble.c **** * power mode.
 750:Generated_Source\PSoC6\pdl\middleware\ble/cy_ble.c **** *
 751:Generated_Source\PSoC6\pdl\middleware\ble/cy_ble.c **** * When it is called with the enMode parameter set to CY_SYSPM_CHECK_READY,
 752:Generated_Source\PSoC6\pdl\middleware\ble/cy_ble.c **** * function enters BLESS to CY_BLE_BLESS_DEEPSLEEP mode. It also checks the
 753:Generated_Source\PSoC6\pdl\middleware\ble/cy_ble.c **** * BLE Subsystem's current operational mode. When the
 754:Generated_Source\PSoC6\pdl\middleware\ble/cy_ble.c **** * Cy_BLE_StackGetBleSsState() function returns CY_BLE_BLESS_STATE_ECO_ON or
 755:Generated_Source\PSoC6\pdl\middleware\ble/cy_ble.c **** * CY_BLE_BLESS_STATE_DEEPSLEEP state, this function returns CY_SYSPM_PASS and
 756:Generated_Source\PSoC6\pdl\middleware\ble/cy_ble.c **** * allows to put the core into the Deep Sleep power mode.
 757:Generated_Source\PSoC6\pdl\middleware\ble/cy_ble.c **** * At all other times, the function tries to enter core into sleep mode.
 758:Generated_Source\PSoC6\pdl\middleware\ble/cy_ble.c **** *
 759:Generated_Source\PSoC6\pdl\middleware\ble/cy_ble.c **** * This function is available only when BLE low power mode is enabled in the
 760:Generated_Source\PSoC6\pdl\middleware\ble/cy_ble.c **** * Advanced tab of customizer.
 761:Generated_Source\PSoC6\pdl\middleware\ble/cy_ble.c **** *
 762:Generated_Source\PSoC6\pdl\middleware\ble/cy_ble.c **** * \param
 763:Generated_Source\PSoC6\pdl\middleware\ble/cy_ble.c **** * callbackParams  pointer to the structure with the syspm callback parameters
 764:Generated_Source\PSoC6\pdl\middleware\ble/cy_ble.c **** *                 callbackParams->mode - the callback mode, see description 
 765:Generated_Source\PSoC6\pdl\middleware\ble/cy_ble.c **** *                 of the cy_en_syspm_callback_mode_t type.
 766:Generated_Source\PSoC6\pdl\middleware\ble/cy_ble.c **** *
 767:Generated_Source\PSoC6\pdl\middleware\ble/cy_ble.c **** * \return
 768:Generated_Source\PSoC6\pdl\middleware\ble/cy_ble.c **** * * CY_SYSPM_SUCCESS  - Entered and exited from DeepSleep
 769:Generated_Source\PSoC6\pdl\middleware\ble/cy_ble.c **** * * CY_SYSPM_FAIL     - DeepSleep not entered.
 770:Generated_Source\PSoC6\pdl\middleware\ble/cy_ble.c **** *
 771:Generated_Source\PSoC6\pdl\middleware\ble/cy_ble.c **** *******************************************************************************/
ARM GAS  C:\Users\ASUS\AppData\Local\Temp\cczm8cZa.s 			page 15


 772:Generated_Source\PSoC6\pdl\middleware\ble/cy_ble.c **** #if (CY_SYSPM_DRV_VERSION_MAJOR < 4)
 773:Generated_Source\PSoC6\pdl\middleware\ble/cy_ble.c **** cy_en_syspm_status_t Cy_BLE_DeepSleepCallback(cy_stc_syspm_callback_params_t *callbackParams)
 774:Generated_Source\PSoC6\pdl\middleware\ble/cy_ble.c **** #else
 775:Generated_Source\PSoC6\pdl\middleware\ble/cy_ble.c **** cy_en_syspm_status_t Cy_BLE_DeepSleepCallback(cy_stc_syspm_callback_params_t *callbackParams,
 776:Generated_Source\PSoC6\pdl\middleware\ble/cy_ble.c ****                                               cy_en_syspm_callback_mode_t mode)
 777:Generated_Source\PSoC6\pdl\middleware\ble/cy_ble.c **** #endif /* (CY_SYSPM_DRV_VERSION_MAJOR < 4) */
 778:Generated_Source\PSoC6\pdl\middleware\ble/cy_ble.c **** 
 779:Generated_Source\PSoC6\pdl\middleware\ble/cy_ble.c **** {
  28              		.loc 1 779 0
  29              		.cfi_startproc
  30              		@ args = 0, pretend = 0, frame = 0
  31              		@ frame_needed = 0, uses_anonymous_args = 0
  32              	.LVL0:
  33 0000 70B5     		push	{r4, r5, r6, lr}
  34              		.cfi_def_cfa_offset 16
  35              		.cfi_offset 4, -16
  36              		.cfi_offset 5, -12
  37              		.cfi_offset 6, -8
  38              		.cfi_offset 14, -4
 780:Generated_Source\PSoC6\pdl\middleware\ble/cy_ble.c ****     cy_en_syspm_status_t retVal;
 781:Generated_Source\PSoC6\pdl\middleware\ble/cy_ble.c ****     static uint32_t interruptState = 0u;
 782:Generated_Source\PSoC6\pdl\middleware\ble/cy_ble.c ****     cy_en_ble_bless_state_t blessState;
 783:Generated_Source\PSoC6\pdl\middleware\ble/cy_ble.c ****     
 784:Generated_Source\PSoC6\pdl\middleware\ble/cy_ble.c ****     /* Local variable to store the status of BLESS Hardware block */
 785:Generated_Source\PSoC6\pdl\middleware\ble/cy_ble.c ****     cy_en_ble_lp_mode_t sleepMode;
 786:Generated_Source\PSoC6\pdl\middleware\ble/cy_ble.c **** 
 787:Generated_Source\PSoC6\pdl\middleware\ble/cy_ble.c **** #if (CY_SYSPM_DRV_VERSION_MAJOR < 4)
 788:Generated_Source\PSoC6\pdl\middleware\ble/cy_ble.c ****     switch(callbackParams->mode)
 789:Generated_Source\PSoC6\pdl\middleware\ble/cy_ble.c **** #else
 790:Generated_Source\PSoC6\pdl\middleware\ble/cy_ble.c ****     switch(mode)
  39              		.loc 1 790 0
  40 0002 0129     		cmp	r1, #1
  41 0004 02D0     		beq	.L3
  42 0006 0829     		cmp	r1, #8
  43 0008 44D0     		beq	.L4
  44 000a 49E0     		b	.L17
  45              	.L3:
 791:Generated_Source\PSoC6\pdl\middleware\ble/cy_ble.c **** #endif /* (CY_SYSPM_DRV_VERSION_MAJOR < 4) */
 792:Generated_Source\PSoC6\pdl\middleware\ble/cy_ble.c ****     {
 793:Generated_Source\PSoC6\pdl\middleware\ble/cy_ble.c ****         case (CY_SYSPM_CHECK_READY):
 794:Generated_Source\PSoC6\pdl\middleware\ble/cy_ble.c ****         #if (CY_BLE_MODE_PROFILE)
 795:Generated_Source\PSoC6\pdl\middleware\ble/cy_ble.c ****             if(Cy_BLE_GetState() == CY_BLE_STATE_INITIALIZING)
  46              		.loc 1 795 0
  47 000c 294B     		ldr	r3, .L18
  48 000e 1B78     		ldrb	r3, [r3]
  49 0010 012B     		cmp	r3, #1
  50 0012 47D0     		beq	.L9
 796:Generated_Source\PSoC6\pdl\middleware\ble/cy_ble.c ****             {
 797:Generated_Source\PSoC6\pdl\middleware\ble/cy_ble.c ****                 retVal = CY_SYSPM_FAIL;
 798:Generated_Source\PSoC6\pdl\middleware\ble/cy_ble.c ****             }
 799:Generated_Source\PSoC6\pdl\middleware\ble/cy_ble.c ****             else
 800:Generated_Source\PSoC6\pdl\middleware\ble/cy_ble.c ****         #endif  /*(CY_BLE_MODE_PROFILE) */
 801:Generated_Source\PSoC6\pdl\middleware\ble/cy_ble.c ****             
 802:Generated_Source\PSoC6\pdl\middleware\ble/cy_ble.c ****             if(Cy_IPC_Sema_Status(CY_BLE_SEMA) == CY_IPC_SEMA_STATUS_LOCKED)
  51              		.loc 1 802 0
  52 0014 0320     		movs	r0, #3
  53              	.LVL1:
ARM GAS  C:\Users\ASUS\AppData\Local\Temp\cczm8cZa.s 			page 16


  54 0016 FFF7FEFF 		bl	Cy_IPC_Sema_Status
  55              	.LVL2:
  56 001a 274B     		ldr	r3, .L18+4
  57 001c 9842     		cmp	r0, r3
  58 001e 43D0     		beq	.L10
 803:Generated_Source\PSoC6\pdl\middleware\ble/cy_ble.c ****             {
 804:Generated_Source\PSoC6\pdl\middleware\ble/cy_ble.c ****                 /* System do not enter deepsleep if BLE Host start write operation */
 805:Generated_Source\PSoC6\pdl\middleware\ble/cy_ble.c ****                 retVal = CY_SYSPM_FAIL;
 806:Generated_Source\PSoC6\pdl\middleware\ble/cy_ble.c ****             }
 807:Generated_Source\PSoC6\pdl\middleware\ble/cy_ble.c ****             else
 808:Generated_Source\PSoC6\pdl\middleware\ble/cy_ble.c **** 
 809:Generated_Source\PSoC6\pdl\middleware\ble/cy_ble.c ****         #if(CY_BLE_STACK_CONTR_CORE)       
 810:Generated_Source\PSoC6\pdl\middleware\ble/cy_ble.c ****             if (Cy_BLE_HAL_IsEcoCpuClockSrc() == 1u)
  59              		.loc 1 810 0
  60 0020 FFF7FEFF 		bl	Cy_BLE_HAL_IsEcoCpuClockSrc
  61              	.LVL3:
  62 0024 0128     		cmp	r0, #1
  63 0026 41D0     		beq	.L11
  64              	.LBB5:
 811:Generated_Source\PSoC6\pdl\middleware\ble/cy_ble.c ****             {            
 812:Generated_Source\PSoC6\pdl\middleware\ble/cy_ble.c ****                 /* System never enters deepsleep if BLE ECO is CPU source */
 813:Generated_Source\PSoC6\pdl\middleware\ble/cy_ble.c ****                 retVal = CY_SYSPM_FAIL;
 814:Generated_Source\PSoC6\pdl\middleware\ble/cy_ble.c ****             }
 815:Generated_Source\PSoC6\pdl\middleware\ble/cy_ble.c ****             else
 816:Generated_Source\PSoC6\pdl\middleware\ble/cy_ble.c ****         #endif /* (CY_BLE_STACK_CONTR_CORE) */
 817:Generated_Source\PSoC6\pdl\middleware\ble/cy_ble.c ****             {        
 818:Generated_Source\PSoC6\pdl\middleware\ble/cy_ble.c ****         #if(!CY_BLE_STACK_MODE_HOST_IPC)
 819:Generated_Source\PSoC6\pdl\middleware\ble/cy_ble.c ****                 cy_en_ble_api_result_t retIsControllerActive;
 820:Generated_Source\PSoC6\pdl\middleware\ble/cy_ble.c ****         #endif /* !CY_BLE_STACK_MODE_HOST_IPC */   
 821:Generated_Source\PSoC6\pdl\middleware\ble/cy_ble.c ****         
 822:Generated_Source\PSoC6\pdl\middleware\ble/cy_ble.c ****         #if(CY_BLE_STACK_MODE_HOST_IPC)
 823:Generated_Source\PSoC6\pdl\middleware\ble/cy_ble.c ****                 /* Disable global interrupt to prevent changes from any other interrupt ISR */
 824:Generated_Source\PSoC6\pdl\middleware\ble/cy_ble.c ****                 interruptState = Cy_SysLib_EnterCriticalSection();
 825:Generated_Source\PSoC6\pdl\middleware\ble/cy_ble.c ****         #endif /* CY_BLE_STACK_MODE_HOST_IPC */
 826:Generated_Source\PSoC6\pdl\middleware\ble/cy_ble.c ****                
 827:Generated_Source\PSoC6\pdl\middleware\ble/cy_ble.c ****                 /* Put BLESS into Deep Sleep and check the return status */
 828:Generated_Source\PSoC6\pdl\middleware\ble/cy_ble.c ****                 sleepMode = Cy_BLE_StackEnterLPM(CY_BLE_BLESS_DEEPSLEEP);
  65              		.loc 1 828 0
  66 0028 0220     		movs	r0, #2
  67 002a FFF7FEFF 		bl	Cy_BLE_StackEnterLPM
  68              	.LVL4:
  69 002e 0500     		movs	r5, r0
  70              	.LVL5:
 829:Generated_Source\PSoC6\pdl\middleware\ble/cy_ble.c **** 
 830:Generated_Source\PSoC6\pdl\middleware\ble/cy_ble.c ****         #if(!CY_BLE_STACK_MODE_HOST_IPC)
 831:Generated_Source\PSoC6\pdl\middleware\ble/cy_ble.c ****                 /* Disable global interrupt to prevent changes from any other interrupt ISR */
 832:Generated_Source\PSoC6\pdl\middleware\ble/cy_ble.c ****                 interruptState = Cy_SysLib_EnterCriticalSection();
  71              		.loc 1 832 0
  72 0030 FFF7FEFF 		bl	Cy_SysLib_EnterCriticalSection
  73              	.LVL6:
  74 0034 214B     		ldr	r3, .L18+8
  75 0036 1860     		str	r0, [r3]
 833:Generated_Source\PSoC6\pdl\middleware\ble/cy_ble.c ****         #endif /* !CY_BLE_STACK_MODE_HOST_IPC */
 834:Generated_Source\PSoC6\pdl\middleware\ble/cy_ble.c **** 
 835:Generated_Source\PSoC6\pdl\middleware\ble/cy_ble.c ****                 /* Check the Status of BLESS */
 836:Generated_Source\PSoC6\pdl\middleware\ble/cy_ble.c ****                 blessState = Cy_BLE_StackGetBleSsState();
  76              		.loc 1 836 0
ARM GAS  C:\Users\ASUS\AppData\Local\Temp\cczm8cZa.s 			page 17


  77 0038 FFF7FEFF 		bl	Cy_BLE_StackGetBleSsState
  78              	.LVL7:
  79 003c 0400     		movs	r4, r0
  80              	.LVL8:
 837:Generated_Source\PSoC6\pdl\middleware\ble/cy_ble.c **** 
 838:Generated_Source\PSoC6\pdl\middleware\ble/cy_ble.c ****                 #if(!CY_BLE_STACK_MODE_HOST_IPC)
 839:Generated_Source\PSoC6\pdl\middleware\ble/cy_ble.c ****                 if(blessState == CY_BLE_BLESS_STATE_STOPPED)
  81              		.loc 1 839 0
  82 003e 0628     		cmp	r0, #6
  83 0040 17D0     		beq	.L12
 840:Generated_Source\PSoC6\pdl\middleware\ble/cy_ble.c ****                 {
 841:Generated_Source\PSoC6\pdl\middleware\ble/cy_ble.c ****                     retVal = CY_SYSPM_SUCCESS;
 842:Generated_Source\PSoC6\pdl\middleware\ble/cy_ble.c ****                 }
 843:Generated_Source\PSoC6\pdl\middleware\ble/cy_ble.c ****                 else
 844:Generated_Source\PSoC6\pdl\middleware\ble/cy_ble.c ****                 #endif /* (!CY_BLE_STACK_MODE_HOST_IPC)*/
 845:Generated_Source\PSoC6\pdl\middleware\ble/cy_ble.c ****                 if(sleepMode == CY_BLE_BLESS_DEEPSLEEP)
  84              		.loc 1 845 0
  85 0042 022D     		cmp	r5, #2
  86 0044 0AD1     		bne	.L6
 846:Generated_Source\PSoC6\pdl\middleware\ble/cy_ble.c ****                 {
 847:Generated_Source\PSoC6\pdl\middleware\ble/cy_ble.c **** 
 848:Generated_Source\PSoC6\pdl\middleware\ble/cy_ble.c ****                     #if(!CY_BLE_STACK_MODE_HOST_IPC)
 849:Generated_Source\PSoC6\pdl\middleware\ble/cy_ble.c ****                     retIsControllerActive = Cy_BLE_IsControllerActive(CY_BLE_CONTROLLER_SLEEP_MODE_
  87              		.loc 1 849 0
  88 0046 0220     		movs	r0, #2
  89              	.LVL9:
  90 0048 FFF7FEFF 		bl	Cy_BLE_IsControllerActive
  91              	.LVL10:
 850:Generated_Source\PSoC6\pdl\middleware\ble/cy_ble.c ****                     #endif /* !CY_BLE_STACK_MODE_HOST_IPC */
 851:Generated_Source\PSoC6\pdl\middleware\ble/cy_ble.c **** 
 852:Generated_Source\PSoC6\pdl\middleware\ble/cy_ble.c ****                     if(((blessState == CY_BLE_BLESS_STATE_ECO_ON) || (blessState == CY_BLE_BLESS_ST
  92              		.loc 1 852 0
  93 004c 032C     		cmp	r4, #3
  94 004e 01D0     		beq	.L7
  95              		.loc 1 852 0 is_stmt 0 discriminator 1
  96 0050 052C     		cmp	r4, #5
  97 0052 10D1     		bne	.L13
  98              	.L7:
 853:Generated_Source\PSoC6\pdl\middleware\ble/cy_ble.c ****                     #if(!CY_BLE_STACK_MODE_HOST_IPC)
 854:Generated_Source\PSoC6\pdl\middleware\ble/cy_ble.c ****                         && (retIsControllerActive == CY_BLE_SUCCESS)
  99              		.loc 1 854 0 is_stmt 1
 100 0054 0028     		cmp	r0, #0
 101 0056 10D0     		beq	.L14
 855:Generated_Source\PSoC6\pdl\middleware\ble/cy_ble.c ****                     #endif /* !CY_BLE_STACK_MODE_HOST_IPC */                    
 856:Generated_Source\PSoC6\pdl\middleware\ble/cy_ble.c ****                         )
 857:Generated_Source\PSoC6\pdl\middleware\ble/cy_ble.c ****                     {
 858:Generated_Source\PSoC6\pdl\middleware\ble/cy_ble.c ****                         /* Enter device deep sleep */
 859:Generated_Source\PSoC6\pdl\middleware\ble/cy_ble.c ****                         retVal = CY_SYSPM_SUCCESS;
 860:Generated_Source\PSoC6\pdl\middleware\ble/cy_ble.c ****                     }
 861:Generated_Source\PSoC6\pdl\middleware\ble/cy_ble.c ****                     else
 862:Generated_Source\PSoC6\pdl\middleware\ble/cy_ble.c ****                     {
 863:Generated_Source\PSoC6\pdl\middleware\ble/cy_ble.c ****                         /* The BLESS hardware block cannot go to Deep Sleep, try sleep mode */
 864:Generated_Source\PSoC6\pdl\middleware\ble/cy_ble.c ****                         retVal = CY_SYSPM_FAIL;
 102              		.loc 1 864 0
 103 0058 194C     		ldr	r4, .L18+12
 104              	.LVL11:
 105 005a 13E0     		b	.L5
ARM GAS  C:\Users\ASUS\AppData\Local\Temp\cczm8cZa.s 			page 18


 106              	.LVL12:
 107              	.L6:
 865:Generated_Source\PSoC6\pdl\middleware\ble/cy_ble.c ****                     }
 866:Generated_Source\PSoC6\pdl\middleware\ble/cy_ble.c ****                 }
 867:Generated_Source\PSoC6\pdl\middleware\ble/cy_ble.c ****                 else
 868:Generated_Source\PSoC6\pdl\middleware\ble/cy_ble.c ****                 {
 869:Generated_Source\PSoC6\pdl\middleware\ble/cy_ble.c ****                 #if(!CY_BLE_STACK_MODE_HOST_IPC)
 870:Generated_Source\PSoC6\pdl\middleware\ble/cy_ble.c ****                     retIsControllerActive = Cy_BLE_IsControllerActive(CY_BLE_CONTROLLER_SLEEP_MODE_
 108              		.loc 1 870 0
 109 005c 0120     		movs	r0, #1
 110              	.LVL13:
 111 005e FFF7FEFF 		bl	Cy_BLE_IsControllerActive
 112              	.LVL14:
 871:Generated_Source\PSoC6\pdl\middleware\ble/cy_ble.c **** 
 872:Generated_Source\PSoC6\pdl\middleware\ble/cy_ble.c ****                     if((blessState != CY_BLE_BLESS_STATE_EVENT_CLOSE) && 
 113              		.loc 1 872 0
 114 0062 022C     		cmp	r4, #2
 115 0064 0BD0     		beq	.L15
 116              		.loc 1 872 0 is_stmt 0 discriminator 1
 117 0066 0028     		cmp	r0, #0
 118 0068 0BD1     		bne	.L16
 873:Generated_Source\PSoC6\pdl\middleware\ble/cy_ble.c ****                        (retIsControllerActive == CY_BLE_SUCCESS))
 874:Generated_Source\PSoC6\pdl\middleware\ble/cy_ble.c ****                     {
 875:Generated_Source\PSoC6\pdl\middleware\ble/cy_ble.c ****                         /* If the BLESS hardware block cannot go to Deep Sleep and BLE Event has no
 876:Generated_Source\PSoC6\pdl\middleware\ble/cy_ble.c ****                          * closed yet, then place CPU to Sleep */
 877:Generated_Source\PSoC6\pdl\middleware\ble/cy_ble.c ****                         (void)Cy_SysPm_Sleep(CY_SYSPM_WAIT_FOR_INTERRUPT);
 119              		.loc 1 877 0 is_stmt 1
 120 006a FFF7FEFF 		bl	Cy_SysPm_CpuEnterSleep
 121              	.LVL15:
 878:Generated_Source\PSoC6\pdl\middleware\ble/cy_ble.c ****                     }
 879:Generated_Source\PSoC6\pdl\middleware\ble/cy_ble.c ****                 #endif /* !CY_BLE_STACK_MODE_HOST_IPC */
 880:Generated_Source\PSoC6\pdl\middleware\ble/cy_ble.c ****                     retVal = CY_SYSPM_FAIL;
 122              		.loc 1 880 0
 123 006e 144C     		ldr	r4, .L18+12
 124              	.LVL16:
 125 0070 08E0     		b	.L5
 126              	.LVL17:
 127              	.L12:
 841:Generated_Source\PSoC6\pdl\middleware\ble/cy_ble.c ****                 }
 128              		.loc 1 841 0
 129 0072 0024     		movs	r4, #0
 130 0074 06E0     		b	.L5
 131              	.LVL18:
 132              	.L13:
 864:Generated_Source\PSoC6\pdl\middleware\ble/cy_ble.c ****                     }
 133              		.loc 1 864 0
 134 0076 124C     		ldr	r4, .L18+12
 135              	.LVL19:
 136 0078 04E0     		b	.L5
 137              	.LVL20:
 138              	.L14:
 859:Generated_Source\PSoC6\pdl\middleware\ble/cy_ble.c ****                     }
 139              		.loc 1 859 0
 140 007a 0024     		movs	r4, #0
 141              	.LVL21:
 142 007c 02E0     		b	.L5
 143              	.LVL22:
ARM GAS  C:\Users\ASUS\AppData\Local\Temp\cczm8cZa.s 			page 19


 144              	.L15:
 145              		.loc 1 880 0
 146 007e 104C     		ldr	r4, .L18+12
 147              	.LVL23:
 148 0080 00E0     		b	.L5
 149              	.LVL24:
 150              	.L16:
 151 0082 0F4C     		ldr	r4, .L18+12
 152              	.LVL25:
 153              	.L5:
 881:Generated_Source\PSoC6\pdl\middleware\ble/cy_ble.c ****                 }
 882:Generated_Source\PSoC6\pdl\middleware\ble/cy_ble.c ****                 if(retVal == CY_SYSPM_FAIL)
 154              		.loc 1 882 0
 155 0084 0E4B     		ldr	r3, .L18+12
 156 0086 9C42     		cmp	r4, r3
 157 0088 11D1     		bne	.L2
 883:Generated_Source\PSoC6\pdl\middleware\ble/cy_ble.c ****                 {
 884:Generated_Source\PSoC6\pdl\middleware\ble/cy_ble.c ****                     /* Enable interrupts after failing check */
 885:Generated_Source\PSoC6\pdl\middleware\ble/cy_ble.c ****                     Cy_SysLib_ExitCriticalSection(interruptState);
 158              		.loc 1 885 0
 159 008a 0C4B     		ldr	r3, .L18+8
 160 008c 1868     		ldr	r0, [r3]
 161 008e FFF7FEFF 		bl	Cy_SysLib_ExitCriticalSection
 162              	.LVL26:
 163 0092 0CE0     		b	.L2
 164              	.LVL27:
 165              	.L4:
 166              	.LBE5:
 886:Generated_Source\PSoC6\pdl\middleware\ble/cy_ble.c ****                 }
 887:Generated_Source\PSoC6\pdl\middleware\ble/cy_ble.c ****             }
 888:Generated_Source\PSoC6\pdl\middleware\ble/cy_ble.c ****             break;
 889:Generated_Source\PSoC6\pdl\middleware\ble/cy_ble.c **** 
 890:Generated_Source\PSoC6\pdl\middleware\ble/cy_ble.c ****         /* Enable interrupts after wakeup */
 891:Generated_Source\PSoC6\pdl\middleware\ble/cy_ble.c ****         case (CY_SYSPM_AFTER_TRANSITION):
 892:Generated_Source\PSoC6\pdl\middleware\ble/cy_ble.c ****             Cy_SysLib_ExitCriticalSection(interruptState);
 167              		.loc 1 892 0
 168 0094 094B     		ldr	r3, .L18+8
 169 0096 1868     		ldr	r0, [r3]
 170              	.LVL28:
 171 0098 FFF7FEFF 		bl	Cy_SysLib_ExitCriticalSection
 172              	.LVL29:
 893:Generated_Source\PSoC6\pdl\middleware\ble/cy_ble.c ****             retVal = CY_SYSPM_SUCCESS;
 173              		.loc 1 893 0
 174 009c 0024     		movs	r4, #0
 894:Generated_Source\PSoC6\pdl\middleware\ble/cy_ble.c ****             break;
 175              		.loc 1 894 0
 176 009e 06E0     		b	.L2
 177              	.LVL30:
 178              	.L17:
 895:Generated_Source\PSoC6\pdl\middleware\ble/cy_ble.c **** 
 896:Generated_Source\PSoC6\pdl\middleware\ble/cy_ble.c ****         default:
 897:Generated_Source\PSoC6\pdl\middleware\ble/cy_ble.c ****             retVal = CY_SYSPM_FAIL;
 179              		.loc 1 897 0
 180 00a0 074C     		ldr	r4, .L18+12
 181 00a2 04E0     		b	.L2
 182              	.L9:
 797:Generated_Source\PSoC6\pdl\middleware\ble/cy_ble.c ****             }
ARM GAS  C:\Users\ASUS\AppData\Local\Temp\cczm8cZa.s 			page 20


 183              		.loc 1 797 0
 184 00a4 064C     		ldr	r4, .L18+12
 185 00a6 02E0     		b	.L2
 186              	.LVL31:
 187              	.L10:
 805:Generated_Source\PSoC6\pdl\middleware\ble/cy_ble.c ****             }
 188              		.loc 1 805 0
 189 00a8 054C     		ldr	r4, .L18+12
 190 00aa 00E0     		b	.L2
 191              	.L11:
 813:Generated_Source\PSoC6\pdl\middleware\ble/cy_ble.c ****             }
 192              		.loc 1 813 0
 193 00ac 044C     		ldr	r4, .L18+12
 194              	.L2:
 195              	.LVL32:
 898:Generated_Source\PSoC6\pdl\middleware\ble/cy_ble.c ****             break;
 899:Generated_Source\PSoC6\pdl\middleware\ble/cy_ble.c ****     }
 900:Generated_Source\PSoC6\pdl\middleware\ble/cy_ble.c **** 
 901:Generated_Source\PSoC6\pdl\middleware\ble/cy_ble.c ****     return(retVal);
 902:Generated_Source\PSoC6\pdl\middleware\ble/cy_ble.c **** }
 196              		.loc 1 902 0
 197 00ae 2000     		movs	r0, r4
 198              		@ sp needed
 199              	.LVL33:
 200 00b0 70BD     		pop	{r4, r5, r6, pc}
 201              	.L19:
 202 00b2 C046     		.align	2
 203              	.L18:
 204 00b4 00000000 		.word	cy_ble_state
 205 00b8 01018800 		.word	8913153
 206 00bc 00000000 		.word	.LANCHOR0
 207 00c0 FF004200 		.word	4325631
 208              		.cfi_endproc
 209              	.LFE175:
 210              		.size	Cy_BLE_DeepSleepCallback, .-Cy_BLE_DeepSleepCallback
 211              		.section	.text.Cy_BLE_UnregisterHostPMCallbacks,"ax",%progbits
 212              		.align	2
 213              		.global	Cy_BLE_UnregisterHostPMCallbacks
 214              		.code	16
 215              		.thumb_func
 216              		.type	Cy_BLE_UnregisterHostPMCallbacks, %function
 217              	Cy_BLE_UnregisterHostPMCallbacks:
 218              	.LFB168:
  96:Generated_Source\PSoC6\pdl\middleware\ble/cy_ble.c ****     #if (CY_BLE_USE_DEEP_SLEEP != 0u)
 219              		.loc 1 96 0
 220              		.cfi_startproc
 221              		@ args = 0, pretend = 0, frame = 0
 222              		@ frame_needed = 0, uses_anonymous_args = 0
 223 0000 10B5     		push	{r4, lr}
 224              		.cfi_def_cfa_offset 8
 225              		.cfi_offset 4, -8
 226              		.cfi_offset 14, -4
  99:Generated_Source\PSoC6\pdl\middleware\ble/cy_ble.c ****         
 227              		.loc 1 99 0
 228 0002 0248     		ldr	r0, .L21
 229 0004 FFF7FEFF 		bl	Cy_SysPm_UnregisterCallback
 230              	.LVL34:
ARM GAS  C:\Users\ASUS\AppData\Local\Temp\cczm8cZa.s 			page 21


 107:Generated_Source\PSoC6\pdl\middleware\ble/cy_ble.c **** 
 231              		.loc 1 107 0
 232              		@ sp needed
 233 0008 10BD     		pop	{r4, pc}
 234              	.L22:
 235 000a C046     		.align	2
 236              	.L21:
 237 000c 00000000 		.word	.LANCHOR1
 238              		.cfi_endproc
 239              	.LFE168:
 240              		.size	Cy_BLE_UnregisterHostPMCallbacks, .-Cy_BLE_UnregisterHostPMCallbacks
 241              		.section	.text.Cy_BLE_Init,"ax",%progbits
 242              		.align	2
 243              		.global	Cy_BLE_Init
 244              		.code	16
 245              		.thumb_func
 246              		.type	Cy_BLE_Init, %function
 247              	Cy_BLE_Init:
 248              	.LFB169:
 134:Generated_Source\PSoC6\pdl\middleware\ble/cy_ble.c ****     cy_en_ble_api_result_t apiResult = CY_BLE_SUCCESS;
 249              		.loc 1 134 0
 250              		.cfi_startproc
 251              		@ args = 0, pretend = 0, frame = 0
 252              		@ frame_needed = 0, uses_anonymous_args = 0
 253              	.LVL35:
 254 0000 10B5     		push	{r4, lr}
 255              		.cfi_def_cfa_offset 8
 256              		.cfi_offset 4, -8
 257              		.cfi_offset 14, -4
 258              	.LVL36:
 137:Generated_Source\PSoC6\pdl\middleware\ble/cy_ble.c ****     {
 259              		.loc 1 137 0
 260 0002 0028     		cmp	r0, #0
 261 0004 17D0     		beq	.L26
 144:Generated_Source\PSoC6\pdl\middleware\ble/cy_ble.c **** 
 262              		.loc 1 144 0
 263 0006 0D4B     		ldr	r3, .L27
 264 0008 5860     		str	r0, [r3, #4]
 148:Generated_Source\PSoC6\pdl\middleware\ble/cy_ble.c ****         {
 265              		.loc 1 148 0
 266 000a C36A     		ldr	r3, [r0, #44]
 267 000c 002B     		cmp	r3, #0
 268 000e 01D0     		beq	.L25
 150:Generated_Source\PSoC6\pdl\middleware\ble/cy_ble.c ****         }
 269              		.loc 1 150 0
 270 0010 0A4A     		ldr	r2, .L27
 271 0012 9360     		str	r3, [r2, #8]
 272              	.L25:
 152:Generated_Source\PSoC6\pdl\middleware\ble/cy_ble.c ****         (void)memset((uint8_t*)&cy_ble_busyStatus, 0, sizeof(cy_ble_busyStatus));
 273              		.loc 1 152 0
 274 0014 0024     		movs	r4, #0
 275 0016 0A4B     		ldr	r3, .L27+4
 276 0018 1C70     		strb	r4, [r3]
 153:Generated_Source\PSoC6\pdl\middleware\ble/cy_ble.c **** 
 277              		.loc 1 153 0
 278 001a 0A4B     		ldr	r3, .L27+8
 279 001c 1C70     		strb	r4, [r3]
ARM GAS  C:\Users\ASUS\AppData\Local\Temp\cczm8cZa.s 			page 22


 155:Generated_Source\PSoC6\pdl\middleware\ble/cy_ble.c ****         
 280              		.loc 1 155 0
 281 001e 0A4B     		ldr	r3, .L27+12
 282 0020 1C60     		str	r4, [r3]
 173:Generated_Source\PSoC6\pdl\middleware\ble/cy_ble.c ****         #endif /* (CY_BLE_GAP_ROLE_PERIPHERAL || CY_BLE_GAP_ROLE_BROADCASTER)  */
 283              		.loc 1 173 0
 284 0022 0A4B     		ldr	r3, .L27+16
 285 0024 1C70     		strb	r4, [r3]
 180:Generated_Source\PSoC6\pdl\middleware\ble/cy_ble.c **** 
 286              		.loc 1 180 0
 287 0026 FFF7FEFF 		bl	Cy_BLE_ServiceInit
 288              	.LVL37:
 183:Generated_Source\PSoC6\pdl\middleware\ble/cy_ble.c ****         (void)memset(cy_ble_peerBonding, (int8_t)CY_BLE_GAP_BONDING_NONE, sizeof(cy_ble_peerBonding
 289              		.loc 1 183 0
 290 002a 094B     		ldr	r3, .L27+20
 291 002c 1C70     		strb	r4, [r3]
 184:Generated_Source\PSoC6\pdl\middleware\ble/cy_ble.c ****         #endif /* (CY_BLE_BONDING_REQUIREMENT == CY_BLE_BONDING_YES) */
 292              		.loc 1 184 0
 293 002e 094B     		ldr	r3, .L27+24
 294 0030 1C70     		strb	r4, [r3]
 135:Generated_Source\PSoC6\pdl\middleware\ble/cy_ble.c **** 
 295              		.loc 1 135 0
 296 0032 0020     		movs	r0, #0
 297 0034 00E0     		b	.L24
 298              	.LVL38:
 299              	.L26:
 139:Generated_Source\PSoC6\pdl\middleware\ble/cy_ble.c ****     }
 300              		.loc 1 139 0
 301 0036 0848     		ldr	r0, .L27+28
 302              	.LVL39:
 303              	.L24:
 190:Generated_Source\PSoC6\pdl\middleware\ble/cy_ble.c **** /** @} */
 304              		.loc 1 190 0
 305              		@ sp needed
 306 0038 10BD     		pop	{r4, pc}
 307              	.L28:
 308 003a C046     		.align	2
 309              	.L27:
 310 003c 00000000 		.word	.LANCHOR0
 311 0040 00000000 		.word	cy_ble_eventHandlerFlag
 312 0044 00000000 		.word	cy_ble_busyStatus
 313 0048 00000000 		.word	cy_ble_cmdStatus
 314 004c 00000000 		.word	cy_ble_advertisingIntervalType
 315 0050 00000000 		.word	cy_ble_pendingFlashWrite
 316 0054 00000000 		.word	cy_ble_peerBonding
 317 0058 01001600 		.word	1441793
 318              		.cfi_endproc
 319              	.LFE169:
 320              		.size	Cy_BLE_Init, .-Cy_BLE_Init
 321              		.section	.text.Cy_BLE_Enable,"ax",%progbits
 322              		.align	2
 323              		.global	Cy_BLE_Enable
 324              		.code	16
 325              		.thumb_func
 326              		.type	Cy_BLE_Enable, %function
 327              	Cy_BLE_Enable:
 328              	.LFB170:
ARM GAS  C:\Users\ASUS\AppData\Local\Temp\cczm8cZa.s 			page 23


 270:Generated_Source\PSoC6\pdl\middleware\ble/cy_ble.c ****     cy_en_ble_api_result_t apiResult = CY_BLE_SUCCESS;
 329              		.loc 1 270 0
 330              		.cfi_startproc
 331              		@ args = 0, pretend = 0, frame = 96
 332              		@ frame_needed = 0, uses_anonymous_args = 0
 333 0000 70B5     		push	{r4, r5, r6, lr}
 334              		.cfi_def_cfa_offset 16
 335              		.cfi_offset 4, -16
 336              		.cfi_offset 5, -12
 337              		.cfi_offset 6, -8
 338              		.cfi_offset 14, -4
 339 0002 98B0     		sub	sp, sp, #96
 340              		.cfi_def_cfa_offset 112
 341              	.LVL40:
 274:Generated_Source\PSoC6\pdl\middleware\ble/cy_ble.c ****     {
 342              		.loc 1 274 0
 343 0004 14AE     		add	r6, sp, #80
 344 0006 1025     		movs	r5, #16
 345 0008 1022     		movs	r2, #16
 346 000a 2E49     		ldr	r1, .L33
 347 000c 3000     		movs	r0, r6
 348 000e FFF7FEFF 		bl	memcpy
 349              	.LVL41:
 283:Generated_Source\PSoC6\pdl\middleware\ble/cy_ble.c ****     {
 350              		.loc 1 283 0
 351 0012 03AC     		add	r4, sp, #12
 352 0014 4422     		movs	r2, #68
 353 0016 0021     		movs	r1, #0
 354 0018 2000     		movs	r0, r4
 355 001a FFF7FEFF 		bl	memset
 356              	.LVL42:
 357 001e 2A4B     		ldr	r3, .L33+4
 358 0020 0393     		str	r3, [sp, #12]
 359 0022 A660     		str	r6, [r4, #8]
 360 0024 294B     		ldr	r3, .L33+8
 361 0026 A381     		strh	r3, [r4, #12]
 362 0028 0423     		movs	r3, #4
 363 002a A373     		strb	r3, [r4, #14]
 296:Generated_Source\PSoC6\pdl\middleware\ble/cy_ble.c ****             .bleStackFlashSize               = CY_BLE_STACK_FLASH_SIZE,
 364              		.loc 1 296 0
 365 002c 284A     		ldr	r2, .L33+12
 366 002e 5268     		ldr	r2, [r2, #4]
 367 0030 1269     		ldr	r2, [r2, #16]
 368 0032 2261     		str	r2, [r4, #16]
 283:Generated_Source\PSoC6\pdl\middleware\ble/cy_ble.c ****     {
 369              		.loc 1 283 0
 370 0034 274A     		ldr	r2, .L33+16
 371 0036 6261     		str	r2, [r4, #20]
 372 0038 1B22     		movs	r2, #27
 373 003a 2283     		strh	r2, [r4, #24]
 374 003c 6283     		strh	r2, [r4, #26]
 375 003e 183A     		subs	r2, r2, #24
 376 0040 2277     		strb	r2, [r4, #28]
 377 0042 6377     		strb	r3, [r4, #29]
 378 0044 0233     		adds	r3, r3, #2
 379 0046 A377     		strb	r3, [r4, #30]
 380 0048 E577     		strb	r5, [r4, #31]
ARM GAS  C:\Users\ASUS\AppData\Local\Temp\cczm8cZa.s 			page 24


 381 004a 1A33     		adds	r3, r3, #26
 382 004c E554     		strb	r5, [r4, r3]
 383 004e 0133     		adds	r3, r3, #1
 384 0050 E554     		strb	r5, [r4, r3]
 385 0052 5133     		adds	r3, r3, #81
 386 0054 A387     		strh	r3, [r4, #60]
 387 0056 023A     		subs	r2, r2, #2
 388 0058 323B     		subs	r3, r3, #50
 389 005a E254     		strb	r2, [r4, r3]
 335:Generated_Source\PSoC6\pdl\middleware\ble/cy_ble.c ****     
 390              		.loc 1 335 0
 391 005c 1E48     		ldr	r0, .L33+20
 392 005e FFF7FEFF 		bl	Cy_SysPm_RegisterCallback
 393              	.LVL43:
 364:Generated_Source\PSoC6\pdl\middleware\ble/cy_ble.c ****     #endif /* CY_BLE_LL_PRIVACY_FEATURE_ENABLED */
 394              		.loc 1 364 0
 395 0062 FFF7FEFF 		bl	Cy_BLE_EnablePrivacyFeature
 396              	.LVL44:
 371:Generated_Source\PSoC6\pdl\middleware\ble/cy_ble.c ****     }
 397              		.loc 1 371 0
 398 0066 09A8     		add	r0, sp, #36
 399 0068 FFF7FEFF 		bl	Cy_BLE_StackSetFeatureConfig
 400              	.LVL45:
 374:Generated_Source\PSoC6\pdl\middleware\ble/cy_ble.c ****     {
 401              		.loc 1 374 0
 402 006c 0028     		cmp	r0, #0
 403 006e 27D1     		bne	.L30
 376:Generated_Source\PSoC6\pdl\middleware\ble/cy_ble.c **** 
 404              		.loc 1 376 0
 405 0070 1A4B     		ldr	r3, .L33+24
 406 0072 0493     		str	r3, [sp, #16]
 379:Generated_Source\PSoC6\pdl\middleware\ble/cy_ble.c ****         {
 407              		.loc 1 379 0
 408 0074 164B     		ldr	r3, .L33+12
 409 0076 5B68     		ldr	r3, [r3, #4]
 410 0078 996B     		ldr	r1, [r3, #56]
 411 007a 0029     		cmp	r1, #0
 412 007c 04D0     		beq	.L31
 381:Generated_Source\PSoC6\pdl\middleware\ble/cy_ble.c ****         }
 413              		.loc 1 381 0
 414 007e 1A22     		movs	r2, #26
 415 0080 2E30     		adds	r0, r0, #46
 416              	.LVL46:
 417 0082 6844     		add	r0, r0, sp
 418              	.LVL47:
 419 0084 FFF7FEFF 		bl	memcpy
 420              	.LVL48:
 421              	.L31:
 385:Generated_Source\PSoC6\pdl\middleware\ble/cy_ble.c **** 
 422              		.loc 1 385 0
 423 0088 03A8     		add	r0, sp, #12
 424 008a FFF7FEFF 		bl	Cy_BLE_StackInit
 425              	.LVL49:
 388:Generated_Source\PSoC6\pdl\middleware\ble/cy_ble.c ****         {
 426              		.loc 1 388 0
 427 008e 0028     		cmp	r0, #0
 428 0090 13D1     		bne	.L32
ARM GAS  C:\Users\ASUS\AppData\Local\Temp\cczm8cZa.s 			page 25


 390:Generated_Source\PSoC6\pdl\middleware\ble/cy_ble.c **** 
 429              		.loc 1 390 0
 430 0092 0122     		movs	r2, #1
 431 0094 124B     		ldr	r3, .L33+28
 432 0096 1A70     		strb	r2, [r3]
 393:Generated_Source\PSoC6\pdl\middleware\ble/cy_ble.c ****         #endif /* (CY_BLE_GAP_ROLE_CENTRAL || CY_BLE_GAP_ROLE_PERIPHERAL) */
 433              		.loc 1 393 0
 434 0098 0023     		movs	r3, #0
 435 009a 124A     		ldr	r2, .L33+32
 436 009c 1370     		strb	r3, [r2]
 437              	.LVL50:
 438              	.LBB6:
 439              	.LBB7:
 440              		.file 2 "Generated_Source\\PSoC6\\pdl\\middleware\\ble\\cy_ble_gap.h"
   1:Generated_Source\PSoC6\pdl\middleware\ble/cy_ble_gap.h **** /***************************************************************************//**
   2:Generated_Source\PSoC6\pdl\middleware\ble/cy_ble_gap.h **** * \file cy_ble_gap.h
   3:Generated_Source\PSoC6\pdl\middleware\ble/cy_ble_gap.h **** * \version 2.30
   4:Generated_Source\PSoC6\pdl\middleware\ble/cy_ble_gap.h **** *
   5:Generated_Source\PSoC6\pdl\middleware\ble/cy_ble_gap.h **** * \brief
   6:Generated_Source\PSoC6\pdl\middleware\ble/cy_ble_gap.h **** *  Contains the prototypes and constants used in the BLE GAP profile.
   7:Generated_Source\PSoC6\pdl\middleware\ble/cy_ble_gap.h **** *
   8:Generated_Source\PSoC6\pdl\middleware\ble/cy_ble_gap.h **** ********************************************************************************
   9:Generated_Source\PSoC6\pdl\middleware\ble/cy_ble_gap.h **** * \copyright
  10:Generated_Source\PSoC6\pdl\middleware\ble/cy_ble_gap.h **** * Copyright 2017-2018, Cypress Semiconductor Corporation.  All rights reserved.
  11:Generated_Source\PSoC6\pdl\middleware\ble/cy_ble_gap.h **** * You may use this file only in accordance with the license, terms, conditions,
  12:Generated_Source\PSoC6\pdl\middleware\ble/cy_ble_gap.h **** * disclaimers, and limitations in the end user license agreement accompanying
  13:Generated_Source\PSoC6\pdl\middleware\ble/cy_ble_gap.h **** * the software package with which this file was provided.
  14:Generated_Source\PSoC6\pdl\middleware\ble/cy_ble_gap.h **** *******************************************************************************/
  15:Generated_Source\PSoC6\pdl\middleware\ble/cy_ble_gap.h **** 
  16:Generated_Source\PSoC6\pdl\middleware\ble/cy_ble_gap.h **** 
  17:Generated_Source\PSoC6\pdl\middleware\ble/cy_ble_gap.h **** #ifndef CY_BLE_GAP_H
  18:Generated_Source\PSoC6\pdl\middleware\ble/cy_ble_gap.h **** #define CY_BLE_GAP_H
  19:Generated_Source\PSoC6\pdl\middleware\ble/cy_ble_gap.h ****     
  20:Generated_Source\PSoC6\pdl\middleware\ble/cy_ble_gap.h **** #include "cy_ble_config.h"
  21:Generated_Source\PSoC6\pdl\middleware\ble/cy_ble_gap.h **** 
  22:Generated_Source\PSoC6\pdl\middleware\ble/cy_ble_gap.h **** /***************************************
  23:Generated_Source\PSoC6\pdl\middleware\ble/cy_ble_gap.h **** * BLE Stack includes
  24:Generated_Source\PSoC6\pdl\middleware\ble/cy_ble_gap.h **** ***************************************/
  25:Generated_Source\PSoC6\pdl\middleware\ble/cy_ble_gap.h **** #include "cy_ble_stack_gatt.h"    
  26:Generated_Source\PSoC6\pdl\middleware\ble/cy_ble_gap.h **** #include "cy_ble_stack_gap.h"
  27:Generated_Source\PSoC6\pdl\middleware\ble/cy_ble_gap.h **** #include "cy_ble_stack_gap_central.h"
  28:Generated_Source\PSoC6\pdl\middleware\ble/cy_ble_gap.h **** #include "cy_ble_stack_gap_peripheral.h"
  29:Generated_Source\PSoC6\pdl\middleware\ble/cy_ble_gap.h **** 
  30:Generated_Source\PSoC6\pdl\middleware\ble/cy_ble_gap.h **** /* C binding of definitions if building with C++ compiler */
  31:Generated_Source\PSoC6\pdl\middleware\ble/cy_ble_gap.h **** #ifdef __cplusplus
  32:Generated_Source\PSoC6\pdl\middleware\ble/cy_ble_gap.h **** extern "C" {
  33:Generated_Source\PSoC6\pdl\middleware\ble/cy_ble_gap.h **** #endif /* __cplusplus */
  34:Generated_Source\PSoC6\pdl\middleware\ble/cy_ble_gap.h **** 
  35:Generated_Source\PSoC6\pdl\middleware\ble/cy_ble_gap.h **** /***************************************
  36:Generated_Source\PSoC6\pdl\middleware\ble/cy_ble_gap.h **** * Conditional Compilation Parameters
  37:Generated_Source\PSoC6\pdl\middleware\ble/cy_ble_gap.h **** ***************************************/
  38:Generated_Source\PSoC6\pdl\middleware\ble/cy_ble_gap.h **** /**
  39:Generated_Source\PSoC6\pdl\middleware\ble/cy_ble_gap.h ****  * The BLE operation mode.
  40:Generated_Source\PSoC6\pdl\middleware\ble/cy_ble_gap.h ****  */
  41:Generated_Source\PSoC6\pdl\middleware\ble/cy_ble_gap.h **** #define CY_BLE_MODE                          (CY_BLE_CONFIG_MODE)
  42:Generated_Source\PSoC6\pdl\middleware\ble/cy_ble_gap.h **** 
  43:Generated_Source\PSoC6\pdl\middleware\ble/cy_ble_gap.h **** /** 
ARM GAS  C:\Users\ASUS\AppData\Local\Temp\cczm8cZa.s 			page 26


  44:Generated_Source\PSoC6\pdl\middleware\ble/cy_ble_gap.h ****  * Maximum number of BLE connections
  45:Generated_Source\PSoC6\pdl\middleware\ble/cy_ble_gap.h ****  * This parameter displays how many BLE connections (both Central and 
  46:Generated_Source\PSoC6\pdl\middleware\ble/cy_ble_gap.h ****  * Peripheral) are allowed. Valid range is from 1 to 4.
  47:Generated_Source\PSoC6\pdl\middleware\ble/cy_ble_gap.h ****  */
  48:Generated_Source\PSoC6\pdl\middleware\ble/cy_ble_gap.h **** #define CY_BLE_CONN_COUNT                    (CY_BLE_CONFIG_CONN_COUNT)
  49:Generated_Source\PSoC6\pdl\middleware\ble/cy_ble_gap.h ****  
  50:Generated_Source\PSoC6\pdl\middleware\ble/cy_ble_gap.h **** /**
  51:Generated_Source\PSoC6\pdl\middleware\ble/cy_ble_gap.h ****  * The GAP Role 
  52:Generated_Source\PSoC6\pdl\middleware\ble/cy_ble_gap.h ****  * The following defined mask can be used:
  53:Generated_Source\PSoC6\pdl\middleware\ble/cy_ble_gap.h ****  * CY_BLE_GAP_PERIPHERAL  (0x01u) - device operates as peripheral.
  54:Generated_Source\PSoC6\pdl\middleware\ble/cy_ble_gap.h ****  * CY_BLE_GAP_CENTRAL     (0x02u) - device operates as central. 
  55:Generated_Source\PSoC6\pdl\middleware\ble/cy_ble_gap.h ****  * CY_BLE_GAP_BROADCASTER (0x04u) - device operates as broadcaster.
  56:Generated_Source\PSoC6\pdl\middleware\ble/cy_ble_gap.h ****  * CY_BLE_GAP_OBSERVER    (0x08u) - device operates as observer.
  57:Generated_Source\PSoC6\pdl\middleware\ble/cy_ble_gap.h ****  * CY_BLE_GAP_HCI         (0x00u) - used when BLE operates in HCI mode.
  58:Generated_Source\PSoC6\pdl\middleware\ble/cy_ble_gap.h ****  */ 
  59:Generated_Source\PSoC6\pdl\middleware\ble/cy_ble_gap.h **** #define CY_BLE_GAP_ROLE                       (CY_BLE_CONFIG_GAP_ROLE)
  60:Generated_Source\PSoC6\pdl\middleware\ble/cy_ble_gap.h **** 
  61:Generated_Source\PSoC6\pdl\middleware\ble/cy_ble_gap.h **** /** The number of GAP Peripheral configurations structures */
  62:Generated_Source\PSoC6\pdl\middleware\ble/cy_ble_gap.h **** #define CY_BLE_GAP_PERIPHERAL_COUNT           (CY_BLE_CONFIG_GAP_PERIPHERAL_COUNT)
  63:Generated_Source\PSoC6\pdl\middleware\ble/cy_ble_gap.h **** 
  64:Generated_Source\PSoC6\pdl\middleware\ble/cy_ble_gap.h **** /** The number of GAP Broadcaster configurations structures */
  65:Generated_Source\PSoC6\pdl\middleware\ble/cy_ble_gap.h **** #define CY_BLE_GAP_BROADCASTER_COUNT          (CY_BLE_CONFIG_GAP_BROADCASTER_COUNT)
  66:Generated_Source\PSoC6\pdl\middleware\ble/cy_ble_gap.h **** 
  67:Generated_Source\PSoC6\pdl\middleware\ble/cy_ble_gap.h **** /** The number of GAP Central configurations structures */
  68:Generated_Source\PSoC6\pdl\middleware\ble/cy_ble_gap.h **** #define CY_BLE_GAP_CENTRAL_COUNT              (CY_BLE_CONFIG_GAP_CENTRAL_COUNT)
  69:Generated_Source\PSoC6\pdl\middleware\ble/cy_ble_gap.h **** 
  70:Generated_Source\PSoC6\pdl\middleware\ble/cy_ble_gap.h **** /** The number of GAP Observer configurations structures */
  71:Generated_Source\PSoC6\pdl\middleware\ble/cy_ble_gap.h **** #define CY_BLE_GAP_OBSERVER_COUNT             (CY_BLE_CONFIG_GAP_OBSERVER_COUNT)
  72:Generated_Source\PSoC6\pdl\middleware\ble/cy_ble_gap.h **** 
  73:Generated_Source\PSoC6\pdl\middleware\ble/cy_ble_gap.h **** /** The number of Security configurations structures */
  74:Generated_Source\PSoC6\pdl\middleware\ble/cy_ble_gap.h **** #define CY_BLE_AUTH_INFO_COUNT                (CY_BLE_CONFIG_AUTH_INFO_COUNT)
  75:Generated_Source\PSoC6\pdl\middleware\ble/cy_ble_gap.h **** 
  76:Generated_Source\PSoC6\pdl\middleware\ble/cy_ble_gap.h **** /** The Bonding Requirement structures */
  77:Generated_Source\PSoC6\pdl\middleware\ble/cy_ble_gap.h **** #define CY_BLE_BONDING_REQUIREMENT            (CY_BLE_CONFIG_BONDING_REQUIREMENT)
  78:Generated_Source\PSoC6\pdl\middleware\ble/cy_ble_gap.h **** 
  79:Generated_Source\PSoC6\pdl\middleware\ble/cy_ble_gap.h **** /** The GAP Role defines */
  80:Generated_Source\PSoC6\pdl\middleware\ble/cy_ble_gap.h **** #define CY_BLE_GAP_ROLE_PERIPHERAL            (0u != (CY_BLE_GAP_ROLE & CY_BLE_GAP_PERIPHERAL))
  81:Generated_Source\PSoC6\pdl\middleware\ble/cy_ble_gap.h **** #define CY_BLE_GAP_ROLE_CENTRAL               (0u != (CY_BLE_GAP_ROLE & CY_BLE_GAP_CENTRAL))
  82:Generated_Source\PSoC6\pdl\middleware\ble/cy_ble_gap.h **** #define CY_BLE_GAP_ROLE_OBSERVER              (0u != (CY_BLE_GAP_ROLE & CY_BLE_GAP_OBSERVER))
  83:Generated_Source\PSoC6\pdl\middleware\ble/cy_ble_gap.h **** #define CY_BLE_GAP_ROLE_BROADCASTER           (0u != (CY_BLE_GAP_ROLE & CY_BLE_GAP_BROADCASTER))
  84:Generated_Source\PSoC6\pdl\middleware\ble/cy_ble_gap.h **** 
  85:Generated_Source\PSoC6\pdl\middleware\ble/cy_ble_gap.h **** #define CY_BLE_GAPP_CONF_COUNT                (CY_BLE_GAP_PERIPHERAL_COUNT + CY_BLE_GAP_BROADCASTER
  86:Generated_Source\PSoC6\pdl\middleware\ble/cy_ble_gap.h **** #define CY_BLE_GAPC_CONF_COUNT                (CY_BLE_GAP_CENTRAL_COUNT + CY_BLE_GAP_OBSERVER_COUNT
  87:Generated_Source\PSoC6\pdl\middleware\ble/cy_ble_gap.h **** 
  88:Generated_Source\PSoC6\pdl\middleware\ble/cy_ble_gap.h **** /***************************************
  89:Generated_Source\PSoC6\pdl\middleware\ble/cy_ble_gap.h **** * Type Definitions
  90:Generated_Source\PSoC6\pdl\middleware\ble/cy_ble_gap.h **** ***************************************/
  91:Generated_Source\PSoC6\pdl\middleware\ble/cy_ble_gap.h **** 
  92:Generated_Source\PSoC6\pdl\middleware\ble/cy_ble_gap.h **** #if (CY_BLE_MODE_PROFILE)
  93:Generated_Source\PSoC6\pdl\middleware\ble/cy_ble_gap.h **** 
  94:Generated_Source\PSoC6\pdl\middleware\ble/cy_ble_gap.h **** /***************************************
  95:Generated_Source\PSoC6\pdl\middleware\ble/cy_ble_gap.h **** * Enumerated Types and Structures
  96:Generated_Source\PSoC6\pdl\middleware\ble/cy_ble_gap.h **** ***************************************/
  97:Generated_Source\PSoC6\pdl\middleware\ble/cy_ble_gap.h **** 
  98:Generated_Source\PSoC6\pdl\middleware\ble/cy_ble_gap.h **** /**
  99:Generated_Source\PSoC6\pdl\middleware\ble/cy_ble_gap.h ****  * \addtogroup group_ble_common_api_gap_definitions
 100:Generated_Source\PSoC6\pdl\middleware\ble/cy_ble_gap.h ****  * @{
ARM GAS  C:\Users\ASUS\AppData\Local\Temp\cczm8cZa.s 			page 27


 101:Generated_Source\PSoC6\pdl\middleware\ble/cy_ble_gap.h ****  */
 102:Generated_Source\PSoC6\pdl\middleware\ble/cy_ble_gap.h **** 
 103:Generated_Source\PSoC6\pdl\middleware\ble/cy_ble_gap.h **** /** BLE state machine type */
 104:Generated_Source\PSoC6\pdl\middleware\ble/cy_ble_gap.h **** typedef enum
 105:Generated_Source\PSoC6\pdl\middleware\ble/cy_ble_gap.h **** {
 106:Generated_Source\PSoC6\pdl\middleware\ble/cy_ble_gap.h ****     CY_BLE_STATE_STOPPED,                             /**< BLE is turned off */
 107:Generated_Source\PSoC6\pdl\middleware\ble/cy_ble_gap.h ****     CY_BLE_STATE_INITIALIZING,                        /**< Initializing state */
 108:Generated_Source\PSoC6\pdl\middleware\ble/cy_ble_gap.h ****     CY_BLE_STATE_ON,                                  /**< BLE is turned on */
 109:Generated_Source\PSoC6\pdl\middleware\ble/cy_ble_gap.h **** #if (CY_BLE_GAP_ROLE_CENTRAL)
 110:Generated_Source\PSoC6\pdl\middleware\ble/cy_ble_gap.h ****     CY_BLE_STATE_CONNECTING,                          /**< Connecting */
 111:Generated_Source\PSoC6\pdl\middleware\ble/cy_ble_gap.h **** #endif /* CY_BLE_GAP_ROLE_CENTRAL */
 112:Generated_Source\PSoC6\pdl\middleware\ble/cy_ble_gap.h **** } cy_en_ble_state_t;
 113:Generated_Source\PSoC6\pdl\middleware\ble/cy_ble_gap.h **** 
 114:Generated_Source\PSoC6\pdl\middleware\ble/cy_ble_gap.h **** 
 115:Generated_Source\PSoC6\pdl\middleware\ble/cy_ble_gap.h **** /** Scanning state machine type */
 116:Generated_Source\PSoC6\pdl\middleware\ble/cy_ble_gap.h **** typedef enum
 117:Generated_Source\PSoC6\pdl\middleware\ble/cy_ble_gap.h **** {
 118:Generated_Source\PSoC6\pdl\middleware\ble/cy_ble_gap.h ****     CY_BLE_SCAN_STATE_STOPPED,                        /**< Scanning is stopped */
 119:Generated_Source\PSoC6\pdl\middleware\ble/cy_ble_gap.h ****     CY_BLE_SCAN_STATE_SCAN_INITIATED,                 /**< Scanning is initiated */
 120:Generated_Source\PSoC6\pdl\middleware\ble/cy_ble_gap.h ****     CY_BLE_SCAN_STATE_SCANNING,                       /**< Scanning process */
 121:Generated_Source\PSoC6\pdl\middleware\ble/cy_ble_gap.h ****     CY_BLE_SCAN_STATE_STOP_INITIATED                  /**< Stop scanning is initiated */
 122:Generated_Source\PSoC6\pdl\middleware\ble/cy_ble_gap.h **** } cy_en_ble_scan_state_t;
 123:Generated_Source\PSoC6\pdl\middleware\ble/cy_ble_gap.h **** 
 124:Generated_Source\PSoC6\pdl\middleware\ble/cy_ble_gap.h **** /** Advertising state machine type */
 125:Generated_Source\PSoC6\pdl\middleware\ble/cy_ble_gap.h **** typedef enum
 126:Generated_Source\PSoC6\pdl\middleware\ble/cy_ble_gap.h **** {
 127:Generated_Source\PSoC6\pdl\middleware\ble/cy_ble_gap.h ****     CY_BLE_ADV_STATE_STOPPED,                         /**< Advertising is stopped */
 128:Generated_Source\PSoC6\pdl\middleware\ble/cy_ble_gap.h ****     CY_BLE_ADV_STATE_ADV_INITIATED,                   /**< Advertising is initiated */
 129:Generated_Source\PSoC6\pdl\middleware\ble/cy_ble_gap.h ****     CY_BLE_ADV_STATE_ADVERTISING,                     /**< Advertising process */
 130:Generated_Source\PSoC6\pdl\middleware\ble/cy_ble_gap.h ****     CY_BLE_ADV_STATE_STOP_INITIATED                   /**< Stop advertising is initiated */
 131:Generated_Source\PSoC6\pdl\middleware\ble/cy_ble_gap.h **** } cy_en_ble_adv_state_t;
 132:Generated_Source\PSoC6\pdl\middleware\ble/cy_ble_gap.h **** 
 133:Generated_Source\PSoC6\pdl\middleware\ble/cy_ble_gap.h **** /** Connection state machine type */
 134:Generated_Source\PSoC6\pdl\middleware\ble/cy_ble_gap.h **** typedef enum
 135:Generated_Source\PSoC6\pdl\middleware\ble/cy_ble_gap.h **** {
 136:Generated_Source\PSoC6\pdl\middleware\ble/cy_ble_gap.h ****     CY_BLE_CONN_STATE_DISCONNECTED,                   /**< Essentially idle state */
 137:Generated_Source\PSoC6\pdl\middleware\ble/cy_ble_gap.h ****     CY_BLE_CONN_STATE_CLIENT_DISCONNECTED_DISCOVERED, /**< Server is disconnected but discovered */
 138:Generated_Source\PSoC6\pdl\middleware\ble/cy_ble_gap.h ****     CY_BLE_CONN_STATE_CONNECTED,                      /**< Peer device is connected for this and fo
 139:Generated_Source\PSoC6\pdl\middleware\ble/cy_ble_gap.h ****     CY_BLE_CONN_STATE_CLIENT_SRVC_DISCOVERING,        /**< Server services are being discovered */
 140:Generated_Source\PSoC6\pdl\middleware\ble/cy_ble_gap.h ****     CY_BLE_CONN_STATE_CLIENT_INCL_DISCOVERING,        /**< Server included services are being disco
 141:Generated_Source\PSoC6\pdl\middleware\ble/cy_ble_gap.h ****     CY_BLE_CONN_STATE_CLIENT_CHAR_DISCOVERING,        /**< Server characteristics are being discove
 142:Generated_Source\PSoC6\pdl\middleware\ble/cy_ble_gap.h ****     CY_BLE_CONN_STATE_CLIENT_DESCR_DISCOVERING,       /**< Server char. descriptors are being disco
 143:Generated_Source\PSoC6\pdl\middleware\ble/cy_ble_gap.h ****     CY_BLE_CONN_STATE_CLIENT_DISCOVERED               /**< Server is discovered */
 144:Generated_Source\PSoC6\pdl\middleware\ble/cy_ble_gap.h **** } cy_en_ble_conn_state_t;
 145:Generated_Source\PSoC6\pdl\middleware\ble/cy_ble_gap.h **** 
 146:Generated_Source\PSoC6\pdl\middleware\ble/cy_ble_gap.h **** /** Structure with Generic Access Profile Service (GAPS) attribute handles */
 147:Generated_Source\PSoC6\pdl\middleware\ble/cy_ble_gap.h **** typedef struct
 148:Generated_Source\PSoC6\pdl\middleware\ble/cy_ble_gap.h **** {
 149:Generated_Source\PSoC6\pdl\middleware\ble/cy_ble_gap.h ****     /** Service handle*/
 150:Generated_Source\PSoC6\pdl\middleware\ble/cy_ble_gap.h ****     cy_ble_gatt_db_attr_handle_t serviceHandle;
 151:Generated_Source\PSoC6\pdl\middleware\ble/cy_ble_gap.h **** 
 152:Generated_Source\PSoC6\pdl\middleware\ble/cy_ble_gap.h ****     /** Handle of the GAPS Device Name Characteristic */
 153:Generated_Source\PSoC6\pdl\middleware\ble/cy_ble_gap.h ****     cy_ble_gatt_db_attr_handle_t deviceNameCharHandle;
 154:Generated_Source\PSoC6\pdl\middleware\ble/cy_ble_gap.h **** 
 155:Generated_Source\PSoC6\pdl\middleware\ble/cy_ble_gap.h ****     /** Handle of the GAPS Appearance Characteristic */
 156:Generated_Source\PSoC6\pdl\middleware\ble/cy_ble_gap.h ****     cy_ble_gatt_db_attr_handle_t appearanceCharHandle;
 157:Generated_Source\PSoC6\pdl\middleware\ble/cy_ble_gap.h **** 
ARM GAS  C:\Users\ASUS\AppData\Local\Temp\cczm8cZa.s 			page 28


 158:Generated_Source\PSoC6\pdl\middleware\ble/cy_ble_gap.h ****     /** Handle of the GAPS Peripheral Preferred Connection Parameters Characteristic */
 159:Generated_Source\PSoC6\pdl\middleware\ble/cy_ble_gap.h ****     cy_ble_gatt_db_attr_handle_t prefConnParamCharHandle;
 160:Generated_Source\PSoC6\pdl\middleware\ble/cy_ble_gap.h **** 
 161:Generated_Source\PSoC6\pdl\middleware\ble/cy_ble_gap.h ****     /** Handle of the GAPS Central Address Resolution characteristic */
 162:Generated_Source\PSoC6\pdl\middleware\ble/cy_ble_gap.h ****     cy_ble_gatt_db_attr_handle_t centralAddrResolutionCharHandle;
 163:Generated_Source\PSoC6\pdl\middleware\ble/cy_ble_gap.h **** 
 164:Generated_Source\PSoC6\pdl\middleware\ble/cy_ble_gap.h ****     /** Handle of the GAPS Resolvable Private Address Only characteristic */
 165:Generated_Source\PSoC6\pdl\middleware\ble/cy_ble_gap.h ****     cy_ble_gatt_db_attr_handle_t resolvablePrivateAddressOnly;
 166:Generated_Source\PSoC6\pdl\middleware\ble/cy_ble_gap.h **** } cy_stc_ble_gaps_t;
 167:Generated_Source\PSoC6\pdl\middleware\ble/cy_ble_gap.h **** 
 168:Generated_Source\PSoC6\pdl\middleware\ble/cy_ble_gap.h **** /** GAP Service characteristics server's GATT DB handles structure type */
 169:Generated_Source\PSoC6\pdl\middleware\ble/cy_ble_gap.h **** typedef struct
 170:Generated_Source\PSoC6\pdl\middleware\ble/cy_ble_gap.h **** {
 171:Generated_Source\PSoC6\pdl\middleware\ble/cy_ble_gap.h ****     /** Handle of the GAPS Device Name Characteristic */
 172:Generated_Source\PSoC6\pdl\middleware\ble/cy_ble_gap.h ****     cy_ble_gatt_db_attr_handle_t deviceNameCharHandle;
 173:Generated_Source\PSoC6\pdl\middleware\ble/cy_ble_gap.h **** 
 174:Generated_Source\PSoC6\pdl\middleware\ble/cy_ble_gap.h ****     /** Handle of the GAPS Appearance Characteristic */
 175:Generated_Source\PSoC6\pdl\middleware\ble/cy_ble_gap.h ****     cy_ble_gatt_db_attr_handle_t appearanceCharHandle;
 176:Generated_Source\PSoC6\pdl\middleware\ble/cy_ble_gap.h **** 
 177:Generated_Source\PSoC6\pdl\middleware\ble/cy_ble_gap.h ****     /** Handle of the GAPS Peripheral Privacy Flag Parameters Characteristic */
 178:Generated_Source\PSoC6\pdl\middleware\ble/cy_ble_gap.h ****     cy_ble_gatt_db_attr_handle_t periphPrivacyCharHandle;
 179:Generated_Source\PSoC6\pdl\middleware\ble/cy_ble_gap.h **** 
 180:Generated_Source\PSoC6\pdl\middleware\ble/cy_ble_gap.h ****     /** Handle of the GAPS Reconnection Address Characteristic */
 181:Generated_Source\PSoC6\pdl\middleware\ble/cy_ble_gap.h ****     cy_ble_gatt_db_attr_handle_t reconnAddrCharHandle;
 182:Generated_Source\PSoC6\pdl\middleware\ble/cy_ble_gap.h **** 
 183:Generated_Source\PSoC6\pdl\middleware\ble/cy_ble_gap.h ****     /** Handle of the GAPS Peripheral Preferred Connection Parameters Characteristic */
 184:Generated_Source\PSoC6\pdl\middleware\ble/cy_ble_gap.h ****     cy_ble_gatt_db_attr_handle_t prefConnParamCharHandle;
 185:Generated_Source\PSoC6\pdl\middleware\ble/cy_ble_gap.h **** 
 186:Generated_Source\PSoC6\pdl\middleware\ble/cy_ble_gap.h ****     /** Handle of the GAPS Central Address Resolution characteristic */
 187:Generated_Source\PSoC6\pdl\middleware\ble/cy_ble_gap.h ****     cy_ble_gatt_db_attr_handle_t centralAddrResolutionCharHandle;
 188:Generated_Source\PSoC6\pdl\middleware\ble/cy_ble_gap.h **** 
 189:Generated_Source\PSoC6\pdl\middleware\ble/cy_ble_gap.h ****     /** Handle of the GAPS Resolvable Private Address Only characteristic */
 190:Generated_Source\PSoC6\pdl\middleware\ble/cy_ble_gap.h ****     cy_ble_gatt_db_attr_handle_t resolvablePrivateAddressOnly;
 191:Generated_Source\PSoC6\pdl\middleware\ble/cy_ble_gap.h **** }cy_stc_ble_gapc_t;
 192:Generated_Source\PSoC6\pdl\middleware\ble/cy_ble_gap.h **** 
 193:Generated_Source\PSoC6\pdl\middleware\ble/cy_ble_gap.h **** /* Stack mode defines */
 194:Generated_Source\PSoC6\pdl\middleware\ble/cy_ble_gap.h **** 
 195:Generated_Source\PSoC6\pdl\middleware\ble/cy_ble_gap.h **** /** Advertisement SIG assigned numbers */
 196:Generated_Source\PSoC6\pdl\middleware\ble/cy_ble_gap.h **** typedef enum
 197:Generated_Source\PSoC6\pdl\middleware\ble/cy_ble_gap.h **** {
 198:Generated_Source\PSoC6\pdl\middleware\ble/cy_ble_gap.h ****     /** Flags */
 199:Generated_Source\PSoC6\pdl\middleware\ble/cy_ble_gap.h ****     CY_BLE_GAP_ADV_FLAGS = 0x01u,
 200:Generated_Source\PSoC6\pdl\middleware\ble/cy_ble_gap.h **** 
 201:Generated_Source\PSoC6\pdl\middleware\ble/cy_ble_gap.h ****     /** Incomplete List of 16-bit Service Class UUIDs */
 202:Generated_Source\PSoC6\pdl\middleware\ble/cy_ble_gap.h ****     CY_BLE_GAP_ADV_INCOMPL_16UUID,
 203:Generated_Source\PSoC6\pdl\middleware\ble/cy_ble_gap.h **** 
 204:Generated_Source\PSoC6\pdl\middleware\ble/cy_ble_gap.h ****     /** Complete List of 16-bit Service Class UUIDs */
 205:Generated_Source\PSoC6\pdl\middleware\ble/cy_ble_gap.h ****     CY_BLE_GAP_ADV_COMPL_16UUID,
 206:Generated_Source\PSoC6\pdl\middleware\ble/cy_ble_gap.h **** 
 207:Generated_Source\PSoC6\pdl\middleware\ble/cy_ble_gap.h ****     /** Incomplete List of 32-bit Service Class UUIDs */
 208:Generated_Source\PSoC6\pdl\middleware\ble/cy_ble_gap.h ****     CY_BLE_GAP_ADV_INCOMPL_32_UUID,
 209:Generated_Source\PSoC6\pdl\middleware\ble/cy_ble_gap.h **** 
 210:Generated_Source\PSoC6\pdl\middleware\ble/cy_ble_gap.h ****     /** Complete List of 32-bit Service Class UUIDs */
 211:Generated_Source\PSoC6\pdl\middleware\ble/cy_ble_gap.h ****     CY_BLE_GAP_ADV_COMPL_32_UUID,
 212:Generated_Source\PSoC6\pdl\middleware\ble/cy_ble_gap.h **** 
 213:Generated_Source\PSoC6\pdl\middleware\ble/cy_ble_gap.h ****     /** Incomplete List of 128-bit Service Class UUIDs */
 214:Generated_Source\PSoC6\pdl\middleware\ble/cy_ble_gap.h ****     CY_BLE_GAP_ADV_INCOMPL_128_UUID,
ARM GAS  C:\Users\ASUS\AppData\Local\Temp\cczm8cZa.s 			page 29


 215:Generated_Source\PSoC6\pdl\middleware\ble/cy_ble_gap.h **** 
 216:Generated_Source\PSoC6\pdl\middleware\ble/cy_ble_gap.h ****     /** Complete List of 128-bit Service Class UUIDs */
 217:Generated_Source\PSoC6\pdl\middleware\ble/cy_ble_gap.h ****     CY_BLE_GAP_ADV_COMPL_128_UUID,
 218:Generated_Source\PSoC6\pdl\middleware\ble/cy_ble_gap.h **** 
 219:Generated_Source\PSoC6\pdl\middleware\ble/cy_ble_gap.h ****     /** Shortened Local Name */
 220:Generated_Source\PSoC6\pdl\middleware\ble/cy_ble_gap.h ****     CY_BLE_GAP_ADV_SHORT_NAME,
 221:Generated_Source\PSoC6\pdl\middleware\ble/cy_ble_gap.h **** 
 222:Generated_Source\PSoC6\pdl\middleware\ble/cy_ble_gap.h ****     /** Complete Local Name */
 223:Generated_Source\PSoC6\pdl\middleware\ble/cy_ble_gap.h ****     CY_BLE_GAP_ADV_COMPL_NAME,
 224:Generated_Source\PSoC6\pdl\middleware\ble/cy_ble_gap.h **** 
 225:Generated_Source\PSoC6\pdl\middleware\ble/cy_ble_gap.h ****     /** Tx Power Level */
 226:Generated_Source\PSoC6\pdl\middleware\ble/cy_ble_gap.h ****     CY_BLE_GAP_ADV_TX_PWR_LVL,
 227:Generated_Source\PSoC6\pdl\middleware\ble/cy_ble_gap.h **** 
 228:Generated_Source\PSoC6\pdl\middleware\ble/cy_ble_gap.h ****     /** Class of Device */
 229:Generated_Source\PSoC6\pdl\middleware\ble/cy_ble_gap.h ****     CY_BLE_GAP_ADV_CLASS_OF_DEVICE = 0x0Du,
 230:Generated_Source\PSoC6\pdl\middleware\ble/cy_ble_gap.h **** 
 231:Generated_Source\PSoC6\pdl\middleware\ble/cy_ble_gap.h ****     /** Simple Pairing Hash C */
 232:Generated_Source\PSoC6\pdl\middleware\ble/cy_ble_gap.h ****     CY_BLE_GAP_ADV_SMPL_PAIR_HASH_C,
 233:Generated_Source\PSoC6\pdl\middleware\ble/cy_ble_gap.h **** 
 234:Generated_Source\PSoC6\pdl\middleware\ble/cy_ble_gap.h ****     /** Simple Pairing Randomizer R */
 235:Generated_Source\PSoC6\pdl\middleware\ble/cy_ble_gap.h ****     CY_BLE_GAP_ADV_SMPL_PAIR_RANDOM_R,
 236:Generated_Source\PSoC6\pdl\middleware\ble/cy_ble_gap.h **** 
 237:Generated_Source\PSoC6\pdl\middleware\ble/cy_ble_gap.h ****     /** Device ID*/
 238:Generated_Source\PSoC6\pdl\middleware\ble/cy_ble_gap.h ****     CY_BLE_GAP_ADV_DEVICE_ID,
 239:Generated_Source\PSoC6\pdl\middleware\ble/cy_ble_gap.h **** 
 240:Generated_Source\PSoC6\pdl\middleware\ble/cy_ble_gap.h ****     /** Security Manager TK Value */
 241:Generated_Source\PSoC6\pdl\middleware\ble/cy_ble_gap.h ****     CY_BLE_GAP_ADV_SCRT_MNGR_TK_VAL = 0x10u,
 242:Generated_Source\PSoC6\pdl\middleware\ble/cy_ble_gap.h **** 
 243:Generated_Source\PSoC6\pdl\middleware\ble/cy_ble_gap.h ****     /** Security Manager Out of Band Flags */
 244:Generated_Source\PSoC6\pdl\middleware\ble/cy_ble_gap.h ****     CY_BLE_GAP_ADV_SCRT_MNGR_OOB_FLAGS,
 245:Generated_Source\PSoC6\pdl\middleware\ble/cy_ble_gap.h **** 
 246:Generated_Source\PSoC6\pdl\middleware\ble/cy_ble_gap.h ****     /** Slave Connection Interval Range */
 247:Generated_Source\PSoC6\pdl\middleware\ble/cy_ble_gap.h ****     CY_BLE_GAP_ADV_SLAVE_CONN_INTRV_RANGE,
 248:Generated_Source\PSoC6\pdl\middleware\ble/cy_ble_gap.h **** 
 249:Generated_Source\PSoC6\pdl\middleware\ble/cy_ble_gap.h ****     /** List of 16-bit Service Solicitation UUIDs */
 250:Generated_Source\PSoC6\pdl\middleware\ble/cy_ble_gap.h ****     CY_BLE_GAP_ADV_SOLICIT_16UUID = 0x14u,
 251:Generated_Source\PSoC6\pdl\middleware\ble/cy_ble_gap.h **** 
 252:Generated_Source\PSoC6\pdl\middleware\ble/cy_ble_gap.h ****     /** List of 128-bit Service Solicitation UUIDs */
 253:Generated_Source\PSoC6\pdl\middleware\ble/cy_ble_gap.h ****     CY_BLE_GAP_ADV_SOLICIT_128UUID,
 254:Generated_Source\PSoC6\pdl\middleware\ble/cy_ble_gap.h **** 
 255:Generated_Source\PSoC6\pdl\middleware\ble/cy_ble_gap.h ****     /** Service Data - 16-bit UUID */
 256:Generated_Source\PSoC6\pdl\middleware\ble/cy_ble_gap.h ****     CY_BLE_GAP_ADV_SRVC_DATA_16UUID,
 257:Generated_Source\PSoC6\pdl\middleware\ble/cy_ble_gap.h **** 
 258:Generated_Source\PSoC6\pdl\middleware\ble/cy_ble_gap.h ****     /** Public Target Address */
 259:Generated_Source\PSoC6\pdl\middleware\ble/cy_ble_gap.h ****     CY_BLE_GAP_ADV_PUBLIC_TARGET_ADDR,
 260:Generated_Source\PSoC6\pdl\middleware\ble/cy_ble_gap.h **** 
 261:Generated_Source\PSoC6\pdl\middleware\ble/cy_ble_gap.h ****     /** Random Target Address */
 262:Generated_Source\PSoC6\pdl\middleware\ble/cy_ble_gap.h ****     CY_BLE_GAP_ADV_RANDOM_TARGET_ADDR,
 263:Generated_Source\PSoC6\pdl\middleware\ble/cy_ble_gap.h **** 
 264:Generated_Source\PSoC6\pdl\middleware\ble/cy_ble_gap.h ****     /** Appearance */
 265:Generated_Source\PSoC6\pdl\middleware\ble/cy_ble_gap.h ****     CY_BLE_GAP_ADV_APPEARANCE,
 266:Generated_Source\PSoC6\pdl\middleware\ble/cy_ble_gap.h **** 
 267:Generated_Source\PSoC6\pdl\middleware\ble/cy_ble_gap.h ****     /** Advertising Interval */
 268:Generated_Source\PSoC6\pdl\middleware\ble/cy_ble_gap.h ****     CY_BLE_GAP_ADV_ADVERT_INTERVAL,
 269:Generated_Source\PSoC6\pdl\middleware\ble/cy_ble_gap.h **** 
 270:Generated_Source\PSoC6\pdl\middleware\ble/cy_ble_gap.h ****     /** LE Bluetooth Device Address */
 271:Generated_Source\PSoC6\pdl\middleware\ble/cy_ble_gap.h ****     CY_BLE_GAP_ADV_LE_BT_DEVICE_ADDR,
ARM GAS  C:\Users\ASUS\AppData\Local\Temp\cczm8cZa.s 			page 30


 272:Generated_Source\PSoC6\pdl\middleware\ble/cy_ble_gap.h **** 
 273:Generated_Source\PSoC6\pdl\middleware\ble/cy_ble_gap.h ****     /** LE Role */
 274:Generated_Source\PSoC6\pdl\middleware\ble/cy_ble_gap.h ****     CY_BLE_GAP_ADV_LE_ROLE,
 275:Generated_Source\PSoC6\pdl\middleware\ble/cy_ble_gap.h **** 
 276:Generated_Source\PSoC6\pdl\middleware\ble/cy_ble_gap.h ****     /** Simple Pairing Hash C-256 */
 277:Generated_Source\PSoC6\pdl\middleware\ble/cy_ble_gap.h ****     CY_BLE_GAP_ADV_SMPL_PAIR_HASH_C256,
 278:Generated_Source\PSoC6\pdl\middleware\ble/cy_ble_gap.h **** 
 279:Generated_Source\PSoC6\pdl\middleware\ble/cy_ble_gap.h ****     /** Simple Pairing Randomizer R-256 */
 280:Generated_Source\PSoC6\pdl\middleware\ble/cy_ble_gap.h ****     CY_BLE_GAP_ADV_SMPL_PAIR_RANDOM_R256,
 281:Generated_Source\PSoC6\pdl\middleware\ble/cy_ble_gap.h **** 
 282:Generated_Source\PSoC6\pdl\middleware\ble/cy_ble_gap.h ****     /** List of 32-bit Service Solicitation UUIDs */
 283:Generated_Source\PSoC6\pdl\middleware\ble/cy_ble_gap.h ****     CY_BLE_GAP_ADV_SOLICIT_32UUID,
 284:Generated_Source\PSoC6\pdl\middleware\ble/cy_ble_gap.h **** 
 285:Generated_Source\PSoC6\pdl\middleware\ble/cy_ble_gap.h ****     /** Service Data - 32-bit UUID */
 286:Generated_Source\PSoC6\pdl\middleware\ble/cy_ble_gap.h ****     CY_BLE_GAP_ADV_SRVC_DATA_32UUID,
 287:Generated_Source\PSoC6\pdl\middleware\ble/cy_ble_gap.h **** 
 288:Generated_Source\PSoC6\pdl\middleware\ble/cy_ble_gap.h ****     /** Service Data - 128-bit UUID */
 289:Generated_Source\PSoC6\pdl\middleware\ble/cy_ble_gap.h ****     CY_BLE_GAP_ADV_SRVC_DATA_128UUID,
 290:Generated_Source\PSoC6\pdl\middleware\ble/cy_ble_gap.h **** 
 291:Generated_Source\PSoC6\pdl\middleware\ble/cy_ble_gap.h ****     /** 3D Information Data */
 292:Generated_Source\PSoC6\pdl\middleware\ble/cy_ble_gap.h ****     CY_BLE_GAP_ADV_3D_INFO_DATA = 0x3D,
 293:Generated_Source\PSoC6\pdl\middleware\ble/cy_ble_gap.h **** 
 294:Generated_Source\PSoC6\pdl\middleware\ble/cy_ble_gap.h ****     /** Manufacturer Specific Data */
 295:Generated_Source\PSoC6\pdl\middleware\ble/cy_ble_gap.h ****     CY_BLE_GAP_ADV_MANUFACTURER_SPECIFIC_DATA = 0xFF
 296:Generated_Source\PSoC6\pdl\middleware\ble/cy_ble_gap.h **** }cy_en_ble_gap_adv_assign_numbers_t;
 297:Generated_Source\PSoC6\pdl\middleware\ble/cy_ble_gap.h **** 
 298:Generated_Source\PSoC6\pdl\middleware\ble/cy_ble_gap.h **** /** GAPP advertising configuration parameters structure */
 299:Generated_Source\PSoC6\pdl\middleware\ble/cy_ble_gap.h **** typedef struct
 300:Generated_Source\PSoC6\pdl\middleware\ble/cy_ble_gap.h **** {
 301:Generated_Source\PSoC6\pdl\middleware\ble/cy_ble_gap.h ****     /** The minimum interval for fast advertising the data and establishing the LE Connection */
 302:Generated_Source\PSoC6\pdl\middleware\ble/cy_ble_gap.h ****     uint16_t fastAdvIntervalMin;
 303:Generated_Source\PSoC6\pdl\middleware\ble/cy_ble_gap.h **** 
 304:Generated_Source\PSoC6\pdl\middleware\ble/cy_ble_gap.h ****     /** The maximum interval for fast advertising the data and establishing the LE Connection */
 305:Generated_Source\PSoC6\pdl\middleware\ble/cy_ble_gap.h ****     uint16_t fastAdvIntervalMax;
 306:Generated_Source\PSoC6\pdl\middleware\ble/cy_ble_gap.h **** 
 307:Generated_Source\PSoC6\pdl\middleware\ble/cy_ble_gap.h ****     /** The timeout value of  fast advertising with fast advertising interval parameters */
 308:Generated_Source\PSoC6\pdl\middleware\ble/cy_ble_gap.h ****     uint16_t fastAdvTimeOut;
 309:Generated_Source\PSoC6\pdl\middleware\ble/cy_ble_gap.h **** 
 310:Generated_Source\PSoC6\pdl\middleware\ble/cy_ble_gap.h ****     /** Slow advertising enable */
 311:Generated_Source\PSoC6\pdl\middleware\ble/cy_ble_gap.h ****     uint8_t  slowAdvEnable;
 312:Generated_Source\PSoC6\pdl\middleware\ble/cy_ble_gap.h **** 
 313:Generated_Source\PSoC6\pdl\middleware\ble/cy_ble_gap.h ****     /** The minimum interval for slow advertising the data and establishing the LE Connection */
 314:Generated_Source\PSoC6\pdl\middleware\ble/cy_ble_gap.h ****     uint16_t slowAdvIntervalMin;
 315:Generated_Source\PSoC6\pdl\middleware\ble/cy_ble_gap.h **** 
 316:Generated_Source\PSoC6\pdl\middleware\ble/cy_ble_gap.h ****     /** The maximum interval for slow  advertising the data and establishing the LE Connection */
 317:Generated_Source\PSoC6\pdl\middleware\ble/cy_ble_gap.h ****     uint16_t slowAdvIntervalMax;
 318:Generated_Source\PSoC6\pdl\middleware\ble/cy_ble_gap.h **** 
 319:Generated_Source\PSoC6\pdl\middleware\ble/cy_ble_gap.h ****     /** The timeout value of slow advertising with slow advertising interval parameters */
 320:Generated_Source\PSoC6\pdl\middleware\ble/cy_ble_gap.h ****     uint16_t slowAdvTimeOut;
 321:Generated_Source\PSoC6\pdl\middleware\ble/cy_ble_gap.h **** }cy_stc_ble_gapp_adv_params_t;
 322:Generated_Source\PSoC6\pdl\middleware\ble/cy_ble_gap.h **** 
 323:Generated_Source\PSoC6\pdl\middleware\ble/cy_ble_gap.h **** /** GAPC advertising configuration parameters structure */
 324:Generated_Source\PSoC6\pdl\middleware\ble/cy_ble_gap.h **** typedef struct
 325:Generated_Source\PSoC6\pdl\middleware\ble/cy_ble_gap.h **** {
 326:Generated_Source\PSoC6\pdl\middleware\ble/cy_ble_gap.h ****     /** The scan interval when operating in Fast connection */
 327:Generated_Source\PSoC6\pdl\middleware\ble/cy_ble_gap.h ****     uint16_t fastScanInterval;
 328:Generated_Source\PSoC6\pdl\middleware\ble/cy_ble_gap.h **** 
ARM GAS  C:\Users\ASUS\AppData\Local\Temp\cczm8cZa.s 			page 31


 329:Generated_Source\PSoC6\pdl\middleware\ble/cy_ble_gap.h ****     /** Defines the scan window when operating in Fast connection */
 330:Generated_Source\PSoC6\pdl\middleware\ble/cy_ble_gap.h ****     uint16_t fastScanWindow;
 331:Generated_Source\PSoC6\pdl\middleware\ble/cy_ble_gap.h **** 
 332:Generated_Source\PSoC6\pdl\middleware\ble/cy_ble_gap.h ****     /** The timeout value of scanning with fast scan parameters */
 333:Generated_Source\PSoC6\pdl\middleware\ble/cy_ble_gap.h ****     uint16_t fastScanTimeOut;
 334:Generated_Source\PSoC6\pdl\middleware\ble/cy_ble_gap.h **** 
 335:Generated_Source\PSoC6\pdl\middleware\ble/cy_ble_gap.h ****     /** Slow scan enable/disable */
 336:Generated_Source\PSoC6\pdl\middleware\ble/cy_ble_gap.h ****     uint8_t  slowScanEnabled;
 337:Generated_Source\PSoC6\pdl\middleware\ble/cy_ble_gap.h **** 
 338:Generated_Source\PSoC6\pdl\middleware\ble/cy_ble_gap.h ****     /** The scan interval when operating in Slow connection */
 339:Generated_Source\PSoC6\pdl\middleware\ble/cy_ble_gap.h ****     uint16_t slowScanInterval;
 340:Generated_Source\PSoC6\pdl\middleware\ble/cy_ble_gap.h **** 
 341:Generated_Source\PSoC6\pdl\middleware\ble/cy_ble_gap.h ****     /** Defines the scan window when operating in Slow connection */
 342:Generated_Source\PSoC6\pdl\middleware\ble/cy_ble_gap.h ****     uint16_t slowScanWindow;
 343:Generated_Source\PSoC6\pdl\middleware\ble/cy_ble_gap.h **** 
 344:Generated_Source\PSoC6\pdl\middleware\ble/cy_ble_gap.h ****     /** The timeout value of scanning with Slow scan parameters */
 345:Generated_Source\PSoC6\pdl\middleware\ble/cy_ble_gap.h ****     uint16_t slowScanTimeOut;
 346:Generated_Source\PSoC6\pdl\middleware\ble/cy_ble_gap.h **** 
 347:Generated_Source\PSoC6\pdl\middleware\ble/cy_ble_gap.h ****     /** The minimum permissible connection time value to be used during a connection event */
 348:Generated_Source\PSoC6\pdl\middleware\ble/cy_ble_gap.h ****     uint16_t gapcConnectionIntervalMin;
 349:Generated_Source\PSoC6\pdl\middleware\ble/cy_ble_gap.h **** 
 350:Generated_Source\PSoC6\pdl\middleware\ble/cy_ble_gap.h ****     /** The maximum permissible connection time value to be used during a connection event */
 351:Generated_Source\PSoC6\pdl\middleware\ble/cy_ble_gap.h ****     uint16_t gapcConnectionIntervalMax;
 352:Generated_Source\PSoC6\pdl\middleware\ble/cy_ble_gap.h **** 
 353:Generated_Source\PSoC6\pdl\middleware\ble/cy_ble_gap.h ****     /** Defines the maximum time between two received Data Packet PDUs before
 354:Generated_Source\PSoC6\pdl\middleware\ble/cy_ble_gap.h ****      *  the connection is considered lost */
 355:Generated_Source\PSoC6\pdl\middleware\ble/cy_ble_gap.h ****     uint16_t gapcConnectionSlaveLatency;
 356:Generated_Source\PSoC6\pdl\middleware\ble/cy_ble_gap.h **** 
 357:Generated_Source\PSoC6\pdl\middleware\ble/cy_ble_gap.h ****     /** Defines the LE link supervision timeout interval */
 358:Generated_Source\PSoC6\pdl\middleware\ble/cy_ble_gap.h ****     uint16_t gapcConnectionTimeOut;
 359:Generated_Source\PSoC6\pdl\middleware\ble/cy_ble_gap.h **** }cy_stc_ble_gapc_scan_params_t;
 360:Generated_Source\PSoC6\pdl\middleware\ble/cy_ble_gap.h **** 
 361:Generated_Source\PSoC6\pdl\middleware\ble/cy_ble_gap.h **** /** Store BLE Application Data parameter into flash */
 362:Generated_Source\PSoC6\pdl\middleware\ble/cy_ble_gap.h **** typedef struct
 363:Generated_Source\PSoC6\pdl\middleware\ble/cy_ble_gap.h **** {
 364:Generated_Source\PSoC6\pdl\middleware\ble/cy_ble_gap.h ****     /** Source buffer */
 365:Generated_Source\PSoC6\pdl\middleware\ble/cy_ble_gap.h ****     const uint8_t *srcBuff;
 366:Generated_Source\PSoC6\pdl\middleware\ble/cy_ble_gap.h **** 
 367:Generated_Source\PSoC6\pdl\middleware\ble/cy_ble_gap.h ****     /** Destination buffer */
 368:Generated_Source\PSoC6\pdl\middleware\ble/cy_ble_gap.h ****     const uint8_t *destAddr;
 369:Generated_Source\PSoC6\pdl\middleware\ble/cy_ble_gap.h **** 
 370:Generated_Source\PSoC6\pdl\middleware\ble/cy_ble_gap.h ****     /** Source buffer length */
 371:Generated_Source\PSoC6\pdl\middleware\ble/cy_ble_gap.h ****     uint32_t      buffLen;
 372:Generated_Source\PSoC6\pdl\middleware\ble/cy_ble_gap.h ****     
 373:Generated_Source\PSoC6\pdl\middleware\ble/cy_ble_gap.h ****     /** Write mode: blocking (default) / non-blocking */
 374:Generated_Source\PSoC6\pdl\middleware\ble/cy_ble_gap.h ****     uint32_t      writeMode;
 375:Generated_Source\PSoC6\pdl\middleware\ble/cy_ble_gap.h ****     
 376:Generated_Source\PSoC6\pdl\middleware\ble/cy_ble_gap.h **** } cy_stc_ble_app_flash_param_t;
 377:Generated_Source\PSoC6\pdl\middleware\ble/cy_ble_gap.h **** 
 378:Generated_Source\PSoC6\pdl\middleware\ble/cy_ble_gap.h **** /** @} group_ble_common_api_gap_definitions */
 379:Generated_Source\PSoC6\pdl\middleware\ble/cy_ble_gap.h ****  
 380:Generated_Source\PSoC6\pdl\middleware\ble/cy_ble_gap.h **** /***************************************
 381:Generated_Source\PSoC6\pdl\middleware\ble/cy_ble_gap.h **** * API Constants
 382:Generated_Source\PSoC6\pdl\middleware\ble/cy_ble_gap.h **** ***************************************/
 383:Generated_Source\PSoC6\pdl\middleware\ble/cy_ble_gap.h **** #define CY_BLE_AD_TYPE_MORE16UUID                  (0x02u)
 384:Generated_Source\PSoC6\pdl\middleware\ble/cy_ble_gap.h **** #define CY_BLE_AD_TYPE_CMPL16UUID                  (0x03u)
 385:Generated_Source\PSoC6\pdl\middleware\ble/cy_ble_gap.h **** #define CY_BLE_AD_TYPE_MORE32UUID                  (0x04u)
ARM GAS  C:\Users\ASUS\AppData\Local\Temp\cczm8cZa.s 			page 32


 386:Generated_Source\PSoC6\pdl\middleware\ble/cy_ble_gap.h **** #define CY_BLE_AD_TYPE_CMPL32UUID                  (0x05u)
 387:Generated_Source\PSoC6\pdl\middleware\ble/cy_ble_gap.h **** #define CY_BLE_AD_TYPE_MORE128UUID                 (0x06u)
 388:Generated_Source\PSoC6\pdl\middleware\ble/cy_ble_gap.h **** #define CY_BLE_AD_TYPE_CMPL128UUID                 (0x07u)
 389:Generated_Source\PSoC6\pdl\middleware\ble/cy_ble_gap.h **** 
 390:Generated_Source\PSoC6\pdl\middleware\ble/cy_ble_gap.h **** #define CY_BLE_AD_TYPE_SERVICE_DATA                (0x16u)
 391:Generated_Source\PSoC6\pdl\middleware\ble/cy_ble_gap.h **** #define CY_BLE_AD_SERVICE_DATA_OVERHEAD            (0x03u)
 392:Generated_Source\PSoC6\pdl\middleware\ble/cy_ble_gap.h **** 
 393:Generated_Source\PSoC6\pdl\middleware\ble/cy_ble_gap.h **** #define CY_BLE_DISCOVERY_IDLE                      (0x00u)
 394:Generated_Source\PSoC6\pdl\middleware\ble/cy_ble_gap.h **** #define CY_BLE_DISCOVERY_SERVICE                   (0x01u)
 395:Generated_Source\PSoC6\pdl\middleware\ble/cy_ble_gap.h **** #define CY_BLE_DISCOVERY_CHAR                      (0x02u)
 396:Generated_Source\PSoC6\pdl\middleware\ble/cy_ble_gap.h **** #define CY_BLE_DISCOVERY_DESCR                     (0x03u)
 397:Generated_Source\PSoC6\pdl\middleware\ble/cy_ble_gap.h **** #define CY_BLE_DISCOVERY_DONE                      (0x04u)
 398:Generated_Source\PSoC6\pdl\middleware\ble/cy_ble_gap.h **** 
 399:Generated_Source\PSoC6\pdl\middleware\ble/cy_ble_gap.h **** /* Cy_BLE_NextCharDscrDiscovery parameters */
 400:Generated_Source\PSoC6\pdl\middleware\ble/cy_ble_gap.h **** #define CY_BLE_DISCOVERY_INIT                      (0x00u)
 401:Generated_Source\PSoC6\pdl\middleware\ble/cy_ble_gap.h **** #define CY_BLE_DISCOVERY_CONTINUE                  (0x01u)
 402:Generated_Source\PSoC6\pdl\middleware\ble/cy_ble_gap.h **** 
 403:Generated_Source\PSoC6\pdl\middleware\ble/cy_ble_gap.h **** #define CY_BLE_SFLASH_DIE_X_MASK                   (0x3Fu)
 404:Generated_Source\PSoC6\pdl\middleware\ble/cy_ble_gap.h **** #define CY_BLE_SFLASH_DIE_X_BITS                   (6u)
 405:Generated_Source\PSoC6\pdl\middleware\ble/cy_ble_gap.h **** #define CY_BLE_SFLASH_DIE_Y_MASK                   (0x3Fu)
 406:Generated_Source\PSoC6\pdl\middleware\ble/cy_ble_gap.h **** #define CY_BLE_SFLASH_DIE_Y_BITS                   (6u)
 407:Generated_Source\PSoC6\pdl\middleware\ble/cy_ble_gap.h **** #define CY_BLE_SFLASH_DIE_XY_BITS                  (CY_BLE_SFLASH_DIE_X_BITS + CY_BLE_SFLASH_DIE_Y_
 408:Generated_Source\PSoC6\pdl\middleware\ble/cy_ble_gap.h **** #define CY_BLE_SFLASH_DIE_WAFER_MASK               (0x1Fu)
 409:Generated_Source\PSoC6\pdl\middleware\ble/cy_ble_gap.h **** #define CY_BLE_SFLASH_DIE_WAFER_BITS               (5u)
 410:Generated_Source\PSoC6\pdl\middleware\ble/cy_ble_gap.h **** #define CY_BLE_SFLASH_DIE_XYWAFER_BITS             (CY_BLE_SFLASH_DIE_XY_BITS + CY_BLE_SFLASH_DIE_W
 411:Generated_Source\PSoC6\pdl\middleware\ble/cy_ble_gap.h **** #define CY_BLE_SFLASH_DIE_LOT_MASK                 (0x7Fu)
 412:Generated_Source\PSoC6\pdl\middleware\ble/cy_ble_gap.h **** #define CY_BLE_SFLASH_DIE_LOT_BITS                 (7u)
 413:Generated_Source\PSoC6\pdl\middleware\ble/cy_ble_gap.h **** 
 414:Generated_Source\PSoC6\pdl\middleware\ble/cy_ble_gap.h **** /* Device address stored by user in ROW4 of the SFLASH */
 415:Generated_Source\PSoC6\pdl\middleware\ble/cy_ble_gap.h **** #define CY_BLE_SFLASH_DEVICE_ADDRESS_PTR           ((cy_stc_ble_gap_bd_addr_t*)(SFLASH->BLE_DEVICE_
 416:Generated_Source\PSoC6\pdl\middleware\ble/cy_ble_gap.h **** #define CY_BLE_AD_STRUCTURE_MAX_LENGTH             (31u)
 417:Generated_Source\PSoC6\pdl\middleware\ble/cy_ble_gap.h **** 
 418:Generated_Source\PSoC6\pdl\middleware\ble/cy_ble_gap.h **** /* AD types for complete, shortened local name and device address */
 419:Generated_Source\PSoC6\pdl\middleware\ble/cy_ble_gap.h **** #define CY_BLE_SHORT_LOCAL_NAME                    (0x08u)  /**< Shortened Local Name */
 420:Generated_Source\PSoC6\pdl\middleware\ble/cy_ble_gap.h **** #define CY_BLE_COMPLETE_LOCAL_NAME                 (0x09u)  /**< Complete Local Name */
 421:Generated_Source\PSoC6\pdl\middleware\ble/cy_ble_gap.h **** #define CY_BLE_ADV_DEVICE_ADDR                     (0x1Bu)  /**< LE Bluetooth Device Address */
 422:Generated_Source\PSoC6\pdl\middleware\ble/cy_ble_gap.h **** 
 423:Generated_Source\PSoC6\pdl\middleware\ble/cy_ble_gap.h **** #define CY_BLE_ADVERTISING_FAST                    (0x00u)
 424:Generated_Source\PSoC6\pdl\middleware\ble/cy_ble_gap.h **** #define CY_BLE_ADVERTISING_SLOW                    (0x01u)
 425:Generated_Source\PSoC6\pdl\middleware\ble/cy_ble_gap.h **** #define CY_BLE_ADVERTISING_CUSTOM                  (0x02u)
 426:Generated_Source\PSoC6\pdl\middleware\ble/cy_ble_gap.h **** 
 427:Generated_Source\PSoC6\pdl\middleware\ble/cy_ble_gap.h **** #define CY_BLE_SCANNING_FAST                       (0x00u)
 428:Generated_Source\PSoC6\pdl\middleware\ble/cy_ble_gap.h **** #define CY_BLE_SCANNING_SLOW                       (0x01u)
 429:Generated_Source\PSoC6\pdl\middleware\ble/cy_ble_gap.h **** #define CY_BLE_SCANNING_CUSTOM                     (0x02u)
 430:Generated_Source\PSoC6\pdl\middleware\ble/cy_ble_gap.h **** 
 431:Generated_Source\PSoC6\pdl\middleware\ble/cy_ble_gap.h **** #define CY_BLE_PENDING_STACK_FLASH_WRITE_BIT       (0x01u)
 432:Generated_Source\PSoC6\pdl\middleware\ble/cy_ble_gap.h **** #define CY_BLE_PENDING_CCCD_FLASH_WRITE_BIT        (0x02u)
 433:Generated_Source\PSoC6\pdl\middleware\ble/cy_ble_gap.h **** #define CY_BLE_PENDING_CCCD_FLASH_CLEAR_BIT        (0x04u)
 434:Generated_Source\PSoC6\pdl\middleware\ble/cy_ble_gap.h **** #define CY_BLE_PENDING_CCCD_FLASH_CLEAR_ALL_BIT    (0x08u)
 435:Generated_Source\PSoC6\pdl\middleware\ble/cy_ble_gap.h **** #define CY_BLE_PENDING_CCCD_FLASH_CLEAR_MASK \
 436:Generated_Source\PSoC6\pdl\middleware\ble/cy_ble_gap.h ****     (CY_BLE_PENDING_CCCD_FLASH_CLEAR_BIT | CY_BLE_PENDING_CCCD_FLASH_CLEAR_ALL_BIT)
 437:Generated_Source\PSoC6\pdl\middleware\ble/cy_ble_gap.h ****   
 438:Generated_Source\PSoC6\pdl\middleware\ble/cy_ble_gap.h **** /**
 439:Generated_Source\PSoC6\pdl\middleware\ble/cy_ble_gap.h ****  * \addtogroup group_ble_common_api_macros
 440:Generated_Source\PSoC6\pdl\middleware\ble/cy_ble_gap.h ****  * @{
 441:Generated_Source\PSoC6\pdl\middleware\ble/cy_ble_gap.h ****  */
 442:Generated_Source\PSoC6\pdl\middleware\ble/cy_ble_gap.h ****  
ARM GAS  C:\Users\ASUS\AppData\Local\Temp\cczm8cZa.s 			page 33


 443:Generated_Source\PSoC6\pdl\middleware\ble/cy_ble_gap.h **** /* GAP Advertisement Flags */
 444:Generated_Source\PSoC6\pdl\middleware\ble/cy_ble_gap.h **** #define CY_BLE_GAP_ADV_FLAG_LE_LIMITED_DISC_MODE        (0x01u)     /**< LE Limited Discoverable Mo
 445:Generated_Source\PSoC6\pdl\middleware\ble/cy_ble_gap.h **** #define CY_BLE_GAP_ADV_FLAG_LE_GENERAL_DISC_MODE        (0x02u)     /**< LE General Discoverable Mo
 446:Generated_Source\PSoC6\pdl\middleware\ble/cy_ble_gap.h **** #define CY_BLE_GAP_ADV_FLAG_BR_EDR_NOT_SUPPORTED        (0x04u)     /**< BR/EDR not supported. */
 447:Generated_Source\PSoC6\pdl\middleware\ble/cy_ble_gap.h **** #define CY_BLE_GAP_ADV_FLAG_LE_BR_EDR_CONTROLLER        (0x08u)     /**< Simultaneous LE and BR/EDR
 448:Generated_Source\PSoC6\pdl\middleware\ble/cy_ble_gap.h **** #define CY_BLE_GAP_ADV_FLAG_LE_BR_EDR_HOST              (0x10u)     /**< Simultaneous LE and BR/EDR
 449:Generated_Source\PSoC6\pdl\middleware\ble/cy_ble_gap.h **** #define CY_BLE_GAP_ADV_FLAGS_PACKET_LENGTH              (0x02u)     /**< Length of flags in an adve
 450:Generated_Source\PSoC6\pdl\middleware\ble/cy_ble_gap.h **** 
 451:Generated_Source\PSoC6\pdl\middleware\ble/cy_ble_gap.h **** /* GAP Advertising interval min and max */
 452:Generated_Source\PSoC6\pdl\middleware\ble/cy_ble_gap.h **** #define CY_BLE_GAP_ADV_ADVERT_INTERVAL_MIN              (0x0020u)   /**< Minimum Advertising interv
 453:Generated_Source\PSoC6\pdl\middleware\ble/cy_ble_gap.h ****                                                                      *   i.e. 20 ms. */
 454:Generated_Source\PSoC6\pdl\middleware\ble/cy_ble_gap.h **** #define CY_BLE_GAP_ADV_ADVERT_INTERVAL_NONCON_MIN       (0x00A0u)   /**< Minimum Advertising interv
 455:Generated_Source\PSoC6\pdl\middleware\ble/cy_ble_gap.h ****                                                                      *   for non connectable mode, 
 456:Generated_Source\PSoC6\pdl\middleware\ble/cy_ble_gap.h **** #define CY_BLE_GAP_ADV_ADVERT_INTERVAL_MAX              (0x4000u)   /**< Maximum Advertising interv
 457:Generated_Source\PSoC6\pdl\middleware\ble/cy_ble_gap.h ****                                                                      *   i.e. 10.24 s. */
 458:Generated_Source\PSoC6\pdl\middleware\ble/cy_ble_gap.h **** #define CY_BLE_GAP_ADV_ADVERT_INTERVAL_PACKET_LENGTH    (0x03u)     /**< Length of the Advertising 
 459:Generated_Source\PSoC6\pdl\middleware\ble/cy_ble_gap.h ****                                                                      *   an advertisement packet */
 460:Generated_Source\PSoC6\pdl\middleware\ble/cy_ble_gap.h **** #define CY_BLE_GAPC_CONNECTING_TIMEOUT                  (30u)       /**< Seconds */
 461:Generated_Source\PSoC6\pdl\middleware\ble/cy_ble_gap.h **** #define CY_BLE_INVALID_CONN_HANDLE_VALUE                (0xFFu)     /**< Invalid Connection Handle 
 462:Generated_Source\PSoC6\pdl\middleware\ble/cy_ble_gap.h **** 
 463:Generated_Source\PSoC6\pdl\middleware\ble/cy_ble_gap.h **** /* Write mode for Cy_BLE_StoreAppData */
 464:Generated_Source\PSoC6\pdl\middleware\ble/cy_ble_gap.h **** #define CY_BLE_STORE_DATA_MODE_BLOCKING                 (0x0u)      /**< Blocking write */
 465:Generated_Source\PSoC6\pdl\middleware\ble/cy_ble_gap.h **** #define CY_BLE_STORE_DATA_MODE_NON_BLOCKING             (0x1u)      /**< Non-blocking write */
 466:Generated_Source\PSoC6\pdl\middleware\ble/cy_ble_gap.h **** 
 467:Generated_Source\PSoC6\pdl\middleware\ble/cy_ble_gap.h **** /** @} group_ble_common_api_macros */
 468:Generated_Source\PSoC6\pdl\middleware\ble/cy_ble_gap.h **** 
 469:Generated_Source\PSoC6\pdl\middleware\ble/cy_ble_gap.h **** /***************************************
 470:Generated_Source\PSoC6\pdl\middleware\ble/cy_ble_gap.h **** * Private Function Prototypes
 471:Generated_Source\PSoC6\pdl\middleware\ble/cy_ble_gap.h **** ***************************************/
 472:Generated_Source\PSoC6\pdl\middleware\ble/cy_ble_gap.h **** void Cy_BLE_ServiceInit(void);
 473:Generated_Source\PSoC6\pdl\middleware\ble/cy_ble_gap.h **** uint32_t Cy_BLE_GetDiscoveryIdx(cy_stc_ble_conn_handle_t connHandle);
 474:Generated_Source\PSoC6\pdl\middleware\ble/cy_ble_gap.h **** 
 475:Generated_Source\PSoC6\pdl\middleware\ble/cy_ble_gap.h **** /***************************************
 476:Generated_Source\PSoC6\pdl\middleware\ble/cy_ble_gap.h **** * Function Prototypes
 477:Generated_Source\PSoC6\pdl\middleware\ble/cy_ble_gap.h **** ***************************************/
 478:Generated_Source\PSoC6\pdl\middleware\ble/cy_ble_gap.h **** /**
 479:Generated_Source\PSoC6\pdl\middleware\ble/cy_ble_gap.h ****  * \addtogroup group_ble_common_api_functions
 480:Generated_Source\PSoC6\pdl\middleware\ble/cy_ble_gap.h ****  * @{
 481:Generated_Source\PSoC6\pdl\middleware\ble/cy_ble_gap.h ****  */
 482:Generated_Source\PSoC6\pdl\middleware\ble/cy_ble_gap.h **** 
 483:Generated_Source\PSoC6\pdl\middleware\ble/cy_ble_gap.h **** cy_en_ble_api_result_t Cy_BLE_StoreAppData(const cy_stc_ble_app_flash_param_t *param);
 484:Generated_Source\PSoC6\pdl\middleware\ble/cy_ble_gap.h **** 
 485:Generated_Source\PSoC6\pdl\middleware\ble/cy_ble_gap.h **** #if ((CY_BLE_GAP_ROLE_PERIPHERAL || CY_BLE_GAP_ROLE_CENTRAL) && (CY_BLE_BONDING_REQUIREMENT == CY_B
 486:Generated_Source\PSoC6\pdl\middleware\ble/cy_ble_gap.h **** cy_en_ble_api_result_t Cy_BLE_StoreBondingData(void);
 487:Generated_Source\PSoC6\pdl\middleware\ble/cy_ble_gap.h **** cy_en_ble_api_result_t Cy_BLE_GAP_RemoveBondedDevice(cy_stc_ble_gap_bd_addr_t* bdAddr);
 488:Generated_Source\PSoC6\pdl\middleware\ble/cy_ble_gap.h **** #endif /* (CY_BLE_GAP_ROLE_PERIPHERAL || CY_BLE_GAP_ROLE_CENTRAL) && (CY_BLE_BONDING_REQUIREMENT ==
 489:Generated_Source\PSoC6\pdl\middleware\ble/cy_ble_gap.h **** 
 490:Generated_Source\PSoC6\pdl\middleware\ble/cy_ble_gap.h **** #if (CY_BLE_GAP_ROLE_PERIPHERAL || CY_BLE_GAP_ROLE_CENTRAL)
 491:Generated_Source\PSoC6\pdl\middleware\ble/cy_ble_gap.h **** bool Cy_BLE_IsPeerConnected(uint8_t *bdAddr);
 492:Generated_Source\PSoC6\pdl\middleware\ble/cy_ble_gap.h **** bool Cy_BLE_IsDevicePaired(cy_stc_ble_conn_handle_t *connHandle);
 493:Generated_Source\PSoC6\pdl\middleware\ble/cy_ble_gap.h **** uint8_t Cy_BLE_GetDeviceRole(cy_stc_ble_conn_handle_t *connHandle);
 494:Generated_Source\PSoC6\pdl\middleware\ble/cy_ble_gap.h **** 
 495:Generated_Source\PSoC6\pdl\middleware\ble/cy_ble_gap.h **** cy_en_ble_api_result_t Cy_BLE_GetRssiPeer(uint8_t  bdHandle);
 496:Generated_Source\PSoC6\pdl\middleware\ble/cy_ble_gap.h **** #endif /* (CY_BLE_GAP_ROLE_PERIPHERAL || CY_BLE_GAP_ROLE_CENTRAL) */
 497:Generated_Source\PSoC6\pdl\middleware\ble/cy_ble_gap.h **** /** @} group_ble_common_api_functions */
 498:Generated_Source\PSoC6\pdl\middleware\ble/cy_ble_gap.h **** 
 499:Generated_Source\PSoC6\pdl\middleware\ble/cy_ble_gap.h **** /**
ARM GAS  C:\Users\ASUS\AppData\Local\Temp\cczm8cZa.s 			page 34


 500:Generated_Source\PSoC6\pdl\middleware\ble/cy_ble_gap.h ****  * \addtogroup group_ble_common_api_gap_peripheral_functions
 501:Generated_Source\PSoC6\pdl\middleware\ble/cy_ble_gap.h ****  * @{
 502:Generated_Source\PSoC6\pdl\middleware\ble/cy_ble_gap.h ****  */
 503:Generated_Source\PSoC6\pdl\middleware\ble/cy_ble_gap.h ****  
 504:Generated_Source\PSoC6\pdl\middleware\ble/cy_ble_gap.h **** #if (CY_BLE_GAP_ROLE_PERIPHERAL || CY_BLE_GAP_ROLE_BROADCASTER)
 505:Generated_Source\PSoC6\pdl\middleware\ble/cy_ble_gap.h **** cy_en_ble_api_result_t Cy_BLE_GAPP_StartAdvertisement(uint8_t advertisingIntervalType, uint8_t adve
 506:Generated_Source\PSoC6\pdl\middleware\ble/cy_ble_gap.h **** cy_en_ble_api_result_t Cy_BLE_GAPP_StopAdvertisement(void);
 507:Generated_Source\PSoC6\pdl\middleware\ble/cy_ble_gap.h **** 
 508:Generated_Source\PSoC6\pdl\middleware\ble/cy_ble_gap.h **** /** \cond IGNORE */
 509:Generated_Source\PSoC6\pdl\middleware\ble/cy_ble_gap.h **** void Cy_BLE_ChangeAdDeviceAddress(const cy_stc_ble_gap_bd_addr_t* bdAddr, uint8_t dest);
 510:Generated_Source\PSoC6\pdl\middleware\ble/cy_ble_gap.h **** /** \endcond */
 511:Generated_Source\PSoC6\pdl\middleware\ble/cy_ble_gap.h **** 
 512:Generated_Source\PSoC6\pdl\middleware\ble/cy_ble_gap.h **** #endif /* CY_BLE_GAP_ROLE_PERIPHERAL */
 513:Generated_Source\PSoC6\pdl\middleware\ble/cy_ble_gap.h **** 
 514:Generated_Source\PSoC6\pdl\middleware\ble/cy_ble_gap.h **** /** @} group_ble_common_api_gap_peripheral_functions */
 515:Generated_Source\PSoC6\pdl\middleware\ble/cy_ble_gap.h **** 
 516:Generated_Source\PSoC6\pdl\middleware\ble/cy_ble_gap.h **** /**
 517:Generated_Source\PSoC6\pdl\middleware\ble/cy_ble_gap.h ****  * \addtogroup group_ble_common_api_gap_central_functions
 518:Generated_Source\PSoC6\pdl\middleware\ble/cy_ble_gap.h ****  * @{
 519:Generated_Source\PSoC6\pdl\middleware\ble/cy_ble_gap.h ****  */
 520:Generated_Source\PSoC6\pdl\middleware\ble/cy_ble_gap.h ****  
 521:Generated_Source\PSoC6\pdl\middleware\ble/cy_ble_gap.h **** #if (CY_BLE_GAP_ROLE_CENTRAL || CY_BLE_GAP_ROLE_OBSERVER)
 522:Generated_Source\PSoC6\pdl\middleware\ble/cy_ble_gap.h **** cy_en_ble_api_result_t Cy_BLE_GAPC_StartScan(uint8_t scanningIntervalType, uint8_t scanParamIndex);
 523:Generated_Source\PSoC6\pdl\middleware\ble/cy_ble_gap.h **** cy_en_ble_api_result_t Cy_BLE_GAPC_StopScan(void);
 524:Generated_Source\PSoC6\pdl\middleware\ble/cy_ble_gap.h **** #endif /* CY_BLE_GAP_ROLE_CENTRAL || CY_BLE_GAP_ROLE_OBSERVER */
 525:Generated_Source\PSoC6\pdl\middleware\ble/cy_ble_gap.h **** 
 526:Generated_Source\PSoC6\pdl\middleware\ble/cy_ble_gap.h **** #if (CY_BLE_GAP_ROLE_CENTRAL)
 527:Generated_Source\PSoC6\pdl\middleware\ble/cy_ble_gap.h **** cy_en_ble_api_result_t Cy_BLE_GAPC_ConnectDevice(const cy_stc_ble_gap_bd_addr_t * address, uint8_t 
 528:Generated_Source\PSoC6\pdl\middleware\ble/cy_ble_gap.h **** cy_en_ble_api_result_t Cy_BLE_GAPC_CancelDeviceConnection(void);
 529:Generated_Source\PSoC6\pdl\middleware\ble/cy_ble_gap.h **** #endif /* CY_BLE_GAP_ROLE_CENTRAL */
 530:Generated_Source\PSoC6\pdl\middleware\ble/cy_ble_gap.h **** 
 531:Generated_Source\PSoC6\pdl\middleware\ble/cy_ble_gap.h **** /** @} group_ble_common_api_gap_central_functions */
 532:Generated_Source\PSoC6\pdl\middleware\ble/cy_ble_gap.h **** 
 533:Generated_Source\PSoC6\pdl\middleware\ble/cy_ble_gap.h **** /***************************************
 534:Generated_Source\PSoC6\pdl\middleware\ble/cy_ble_gap.h **** * External data references
 535:Generated_Source\PSoC6\pdl\middleware\ble/cy_ble_gap.h **** ***************************************/
 536:Generated_Source\PSoC6\pdl\middleware\ble/cy_ble_gap.h **** extern volatile uint8_t cy_ble_eventHandlerFlag;
 537:Generated_Source\PSoC6\pdl\middleware\ble/cy_ble_gap.h **** extern cy_stc_ble_gap_bd_addr_t *cy_ble_sflashDeviceAddress;
 538:Generated_Source\PSoC6\pdl\middleware\ble/cy_ble_gap.h **** extern cy_stc_ble_gap_bd_addr_t cy_ble_deviceAddress;
 539:Generated_Source\PSoC6\pdl\middleware\ble/cy_ble_gap.h **** extern cy_en_ble_state_t cy_ble_state;
 540:Generated_Source\PSoC6\pdl\middleware\ble/cy_ble_gap.h **** 
 541:Generated_Source\PSoC6\pdl\middleware\ble/cy_ble_gap.h **** #if ((CY_BLE_GAP_ROLE_PERIPHERAL || CY_BLE_GAP_ROLE_CENTRAL))
 542:Generated_Source\PSoC6\pdl\middleware\ble/cy_ble_gap.h **** extern cy_stc_ble_gap_auth_info_t cy_ble_authInfo[CY_BLE_AUTH_INFO_COUNT];
 543:Generated_Source\PSoC6\pdl\middleware\ble/cy_ble_gap.h **** #endif /* ((CY_BLE_GAP_ROLE_PERIPHERAL || CY_BLE_GAP_ROLE_CENTRAL)) */
 544:Generated_Source\PSoC6\pdl\middleware\ble/cy_ble_gap.h **** 
 545:Generated_Source\PSoC6\pdl\middleware\ble/cy_ble_gap.h **** #if (CY_BLE_GAP_ROLE_PERIPHERAL || CY_BLE_GAP_ROLE_BROADCASTER)
 546:Generated_Source\PSoC6\pdl\middleware\ble/cy_ble_gap.h **** extern cy_en_ble_adv_state_t cy_ble_advState;
 547:Generated_Source\PSoC6\pdl\middleware\ble/cy_ble_gap.h **** extern uint8_t cy_ble_advIndex;
 548:Generated_Source\PSoC6\pdl\middleware\ble/cy_ble_gap.h **** #endif  /* (CY_BLE_GAP_ROLE_PERIPHERAL || CY_BLE_GAP_ROLE_BROADCASTER) */
 549:Generated_Source\PSoC6\pdl\middleware\ble/cy_ble_gap.h **** 
 550:Generated_Source\PSoC6\pdl\middleware\ble/cy_ble_gap.h **** #if (CY_BLE_GAP_ROLE_CENTRAL || CY_BLE_GAP_ROLE_OBSERVER)
 551:Generated_Source\PSoC6\pdl\middleware\ble/cy_ble_gap.h **** extern cy_en_ble_scan_state_t cy_ble_scanState;
 552:Generated_Source\PSoC6\pdl\middleware\ble/cy_ble_gap.h **** extern uint8_t cy_ble_scanIndex;
 553:Generated_Source\PSoC6\pdl\middleware\ble/cy_ble_gap.h **** #endif /* (CY_BLE_GAP_ROLE_CENTRAL || CY_BLE_GAP_ROLE_OBSERVER) */
 554:Generated_Source\PSoC6\pdl\middleware\ble/cy_ble_gap.h **** 
 555:Generated_Source\PSoC6\pdl\middleware\ble/cy_ble_gap.h **** #if ((CY_BLE_GAP_ROLE_PERIPHERAL || CY_BLE_GAP_ROLE_CENTRAL))
 556:Generated_Source\PSoC6\pdl\middleware\ble/cy_ble_gap.h **** extern cy_stc_ble_conn_handle_t cy_ble_connHandle[CY_BLE_CONN_COUNT];
ARM GAS  C:\Users\ASUS\AppData\Local\Temp\cczm8cZa.s 			page 35


 557:Generated_Source\PSoC6\pdl\middleware\ble/cy_ble_gap.h **** extern cy_en_ble_conn_state_t cy_ble_connState[CY_BLE_CONN_COUNT];
 558:Generated_Source\PSoC6\pdl\middleware\ble/cy_ble_gap.h **** 
 559:Generated_Source\PSoC6\pdl\middleware\ble/cy_ble_gap.h **** extern volatile uint8_t cy_ble_devConnRole[CY_BLE_CONN_COUNT];                                     
 560:Generated_Source\PSoC6\pdl\middleware\ble/cy_ble_gap.h **** extern volatile bool cy_ble_pairStatus[CY_BLE_CONN_COUNT];
 561:Generated_Source\PSoC6\pdl\middleware\ble/cy_ble_gap.h **** 
 562:Generated_Source\PSoC6\pdl\middleware\ble/cy_ble_gap.h **** #endif /* ((CY_BLE_GAP_ROLE_PERIPHERAL || CY_BLE_GAP_ROLE_CENTRAL)) */
 563:Generated_Source\PSoC6\pdl\middleware\ble/cy_ble_gap.h **** 
 564:Generated_Source\PSoC6\pdl\middleware\ble/cy_ble_gap.h **** #if (CY_BLE_GAP_ROLE_CENTRAL || CY_BLE_GAP_ROLE_OBSERVER)
 565:Generated_Source\PSoC6\pdl\middleware\ble/cy_ble_gap.h **** extern cy_stc_ble_gapc_disc_info_t cy_ble_discoveryInfo[CY_BLE_GAPC_CONF_COUNT];
 566:Generated_Source\PSoC6\pdl\middleware\ble/cy_ble_gap.h **** #endif /* CY_BLE_GAP_ROLE_CENTRAL || CY_BLE_GAP_ROLE_OBSERVER */
 567:Generated_Source\PSoC6\pdl\middleware\ble/cy_ble_gap.h **** 
 568:Generated_Source\PSoC6\pdl\middleware\ble/cy_ble_gap.h **** #if (CY_BLE_GAP_ROLE_CENTRAL)
 569:Generated_Source\PSoC6\pdl\middleware\ble/cy_ble_gap.h **** extern cy_stc_ble_gapc_conn_info_t cy_ble_connectionParameters;
 570:Generated_Source\PSoC6\pdl\middleware\ble/cy_ble_gap.h **** extern cy_stc_ble_timer_info_t cy_ble_connectingTimeout;
 571:Generated_Source\PSoC6\pdl\middleware\ble/cy_ble_gap.h **** #endif /* CY_BLE_GAP_ROLE_CENTRAL */
 572:Generated_Source\PSoC6\pdl\middleware\ble/cy_ble_gap.h **** 
 573:Generated_Source\PSoC6\pdl\middleware\ble/cy_ble_gap.h **** #if (CY_BLE_GAP_ROLE_PERIPHERAL || CY_BLE_GAP_ROLE_BROADCASTER)
 574:Generated_Source\PSoC6\pdl\middleware\ble/cy_ble_gap.h **** extern cy_stc_ble_gapp_disc_mode_info_t cy_ble_discoveryModeInfo[CY_BLE_GAPP_CONF_COUNT];
 575:Generated_Source\PSoC6\pdl\middleware\ble/cy_ble_gap.h **** extern cy_stc_ble_gapp_disc_param_t cy_ble_discoveryParam[CY_BLE_GAPP_CONF_COUNT];
 576:Generated_Source\PSoC6\pdl\middleware\ble/cy_ble_gap.h **** extern cy_stc_ble_gapp_disc_data_t cy_ble_discoveryData[CY_BLE_GAPP_CONF_COUNT];
 577:Generated_Source\PSoC6\pdl\middleware\ble/cy_ble_gap.h **** extern cy_stc_ble_gapp_scan_rsp_data_t cy_ble_scanRspData[CY_BLE_GAPP_CONF_COUNT];
 578:Generated_Source\PSoC6\pdl\middleware\ble/cy_ble_gap.h **** #endif /* CY_BLE_GAP_ROLE_PERIPHERAL || CY_BLE_GAP_ROLE_BROADCASTER */
 579:Generated_Source\PSoC6\pdl\middleware\ble/cy_ble_gap.h **** 
 580:Generated_Source\PSoC6\pdl\middleware\ble/cy_ble_gap.h **** #if ((CY_BLE_GAP_ROLE_PERIPHERAL || CY_BLE_GAP_ROLE_CENTRAL) && (CY_BLE_BONDING_REQUIREMENT == CY_B
 581:Generated_Source\PSoC6\pdl\middleware\ble/cy_ble_gap.h **** 
 582:Generated_Source\PSoC6\pdl\middleware\ble/cy_ble_gap.h **** /**
 583:Generated_Source\PSoC6\pdl\middleware\ble/cy_ble_gap.h ****  * \addtogroup group_ble_common_api_global_variables
 584:Generated_Source\PSoC6\pdl\middleware\ble/cy_ble_gap.h ****  * @{
 585:Generated_Source\PSoC6\pdl\middleware\ble/cy_ble_gap.h ****  */  
 586:Generated_Source\PSoC6\pdl\middleware\ble/cy_ble_gap.h **** /** This is a two-bit variable that contains status of pending write to flash operation.
 587:Generated_Source\PSoC6\pdl\middleware\ble/cy_ble_gap.h ****  * This variable is initialized to zero in Cy_BLE_Init().
 588:Generated_Source\PSoC6\pdl\middleware\ble/cy_ble_gap.h ****  * CY_BLE_PENDING_CCCD_FLASH_WRITE_BIT flag is set after write to CCCD event when a
 589:Generated_Source\PSoC6\pdl\middleware\ble/cy_ble_gap.h ****  * peer device supports bonding (cy_ble_peerBonding[eventParam->connHandle.attId] == CY_BLE_GAP_BON
 590:Generated_Source\PSoC6\pdl\middleware\ble/cy_ble_gap.h ****  * CY_BLE_PENDING_STACK_FLASH_WRITE_BIT flag is set after CY_BLE_EVT_PENDING_FLASH_WRITE event.
 591:Generated_Source\PSoC6\pdl\middleware\ble/cy_ble_gap.h ****  * Cy_BLE_StoreBondingData() should be called to store pending bonding data.
 592:Generated_Source\PSoC6\pdl\middleware\ble/cy_ble_gap.h ****  * This function automatically clears pending bits after write operation is complete.
 593:Generated_Source\PSoC6\pdl\middleware\ble/cy_ble_gap.h ****  */
 594:Generated_Source\PSoC6\pdl\middleware\ble/cy_ble_gap.h **** extern uint8_t cy_ble_pendingFlashWrite;
 595:Generated_Source\PSoC6\pdl\middleware\ble/cy_ble_gap.h **** /** @} group_ble_common_api_global_variables */
 596:Generated_Source\PSoC6\pdl\middleware\ble/cy_ble_gap.h ****     
 597:Generated_Source\PSoC6\pdl\middleware\ble/cy_ble_gap.h **** /** Bonding type setting of peer device, CY_BLE_GAP_BONDING_NONE or CY_BLE_GAP_BONDING.
 598:Generated_Source\PSoC6\pdl\middleware\ble/cy_ble_gap.h ****  * It is initialized after pairing with peer device and used for cy_ble_pendingFlashWrite variable
 599:Generated_Source\PSoC6\pdl\middleware\ble/cy_ble_gap.h ****  * setting.
 600:Generated_Source\PSoC6\pdl\middleware\ble/cy_ble_gap.h ****  */
 601:Generated_Source\PSoC6\pdl\middleware\ble/cy_ble_gap.h **** extern uint8_t cy_ble_peerBonding[CY_BLE_CONN_COUNT];
 602:Generated_Source\PSoC6\pdl\middleware\ble/cy_ble_gap.h **** 
 603:Generated_Source\PSoC6\pdl\middleware\ble/cy_ble_gap.h **** #endif  /* (CY_BLE_BONDING_REQUIREMENT == CY_BLE_BONDING_YES) */
 604:Generated_Source\PSoC6\pdl\middleware\ble/cy_ble_gap.h **** 
 605:Generated_Source\PSoC6\pdl\middleware\ble/cy_ble_gap.h **** 
 606:Generated_Source\PSoC6\pdl\middleware\ble/cy_ble_gap.h **** /***************************************
 607:Generated_Source\PSoC6\pdl\middleware\ble/cy_ble_gap.h **** * Exported Functions (MACROS)
 608:Generated_Source\PSoC6\pdl\middleware\ble/cy_ble_gap.h **** ***************************************/
 609:Generated_Source\PSoC6\pdl\middleware\ble/cy_ble_gap.h **** #if ((CY_BLE_GAP_ROLE_PERIPHERAL || CY_BLE_GAP_ROLE_CENTRAL))
 610:Generated_Source\PSoC6\pdl\middleware\ble/cy_ble_gap.h ****    
 611:Generated_Source\PSoC6\pdl\middleware\ble/cy_ble_gap.h **** /******************************************************************************
 612:Generated_Source\PSoC6\pdl\middleware\ble/cy_ble_gap.h **** * Function Name: Cy_BLE_GetConnHandleIdx
 613:Generated_Source\PSoC6\pdl\middleware\ble/cy_ble_gap.h **** ***************************************************************************//**
ARM GAS  C:\Users\ASUS\AppData\Local\Temp\cczm8cZa.s 			page 36


 614:Generated_Source\PSoC6\pdl\middleware\ble/cy_ble_gap.h **** *
 615:Generated_Source\PSoC6\pdl\middleware\ble/cy_ble_gap.h **** *  This function searches the array of connection handles (cy_ble_connHandle[])
 616:Generated_Source\PSoC6\pdl\middleware\ble/cy_ble_gap.h **** *  for the location (index) of a handle that corresponds to the input parameter
 617:Generated_Source\PSoC6\pdl\middleware\ble/cy_ble_gap.h **** *  connHandle. bdHandle.
 618:Generated_Source\PSoC6\pdl\middleware\ble/cy_ble_gap.h **** *
 619:Generated_Source\PSoC6\pdl\middleware\ble/cy_ble_gap.h **** *  This function is designated for internal usage. 
 620:Generated_Source\PSoC6\pdl\middleware\ble/cy_ble_gap.h **** *    
 621:Generated_Source\PSoC6\pdl\middleware\ble/cy_ble_gap.h **** *  \param connHandle: The connection handle.
 622:Generated_Source\PSoC6\pdl\middleware\ble/cy_ble_gap.h **** *
 623:Generated_Source\PSoC6\pdl\middleware\ble/cy_ble_gap.h **** *  \return
 624:Generated_Source\PSoC6\pdl\middleware\ble/cy_ble_gap.h **** *  retValue: the index of connHandle  
 625:Generated_Source\PSoC6\pdl\middleware\ble/cy_ble_gap.h **** *    
 626:Generated_Source\PSoC6\pdl\middleware\ble/cy_ble_gap.h **** ******************************************************************************/
 627:Generated_Source\PSoC6\pdl\middleware\ble/cy_ble_gap.h **** __STATIC_INLINE uint8_t Cy_BLE_GetConnHandleIdx(cy_stc_ble_conn_handle_t connHandle)
 628:Generated_Source\PSoC6\pdl\middleware\ble/cy_ble_gap.h **** {
 629:Generated_Source\PSoC6\pdl\middleware\ble/cy_ble_gap.h ****     uint8_t idx;
 630:Generated_Source\PSoC6\pdl\middleware\ble/cy_ble_gap.h ****     uint8_t retValue = CY_BLE_CONN_COUNT;
 631:Generated_Source\PSoC6\pdl\middleware\ble/cy_ble_gap.h **** 
 632:Generated_Source\PSoC6\pdl\middleware\ble/cy_ble_gap.h ****     for(idx = 0u; idx < CY_BLE_CONN_COUNT; idx++)
 633:Generated_Source\PSoC6\pdl\middleware\ble/cy_ble_gap.h ****     {
 634:Generated_Source\PSoC6\pdl\middleware\ble/cy_ble_gap.h ****         if(cy_ble_connHandle[idx].bdHandle == connHandle.bdHandle)
 635:Generated_Source\PSoC6\pdl\middleware\ble/cy_ble_gap.h ****         {
 636:Generated_Source\PSoC6\pdl\middleware\ble/cy_ble_gap.h ****             retValue = idx;
 637:Generated_Source\PSoC6\pdl\middleware\ble/cy_ble_gap.h ****             break;
 638:Generated_Source\PSoC6\pdl\middleware\ble/cy_ble_gap.h ****         }
 639:Generated_Source\PSoC6\pdl\middleware\ble/cy_ble_gap.h ****     }
 640:Generated_Source\PSoC6\pdl\middleware\ble/cy_ble_gap.h ****     if(retValue == CY_BLE_CONN_COUNT)
 641:Generated_Source\PSoC6\pdl\middleware\ble/cy_ble_gap.h ****     {
 642:Generated_Source\PSoC6\pdl\middleware\ble/cy_ble_gap.h ****         /* HALT in debug mode */
 643:Generated_Source\PSoC6\pdl\middleware\ble/cy_ble_gap.h ****         CY_ASSERT(retValue != CY_BLE_CONN_COUNT);
 644:Generated_Source\PSoC6\pdl\middleware\ble/cy_ble_gap.h ****         retValue = 0u;
 645:Generated_Source\PSoC6\pdl\middleware\ble/cy_ble_gap.h ****     }
 646:Generated_Source\PSoC6\pdl\middleware\ble/cy_ble_gap.h **** 
 647:Generated_Source\PSoC6\pdl\middleware\ble/cy_ble_gap.h ****     return(retValue);
 648:Generated_Source\PSoC6\pdl\middleware\ble/cy_ble_gap.h **** }
 649:Generated_Source\PSoC6\pdl\middleware\ble/cy_ble_gap.h **** #endif  /* ((CY_BLE_GAP_ROLE_PERIPHERAL || CY_BLE_GAP_ROLE_CENTRAL)) */
 650:Generated_Source\PSoC6\pdl\middleware\ble/cy_ble_gap.h **** 
 651:Generated_Source\PSoC6\pdl\middleware\ble/cy_ble_gap.h **** /**
 652:Generated_Source\PSoC6\pdl\middleware\ble/cy_ble_gap.h ****  * \addtogroup group_ble_common_api_functions
 653:Generated_Source\PSoC6\pdl\middleware\ble/cy_ble_gap.h ****  * @{
 654:Generated_Source\PSoC6\pdl\middleware\ble/cy_ble_gap.h **** */
 655:Generated_Source\PSoC6\pdl\middleware\ble/cy_ble_gap.h **** /******************************************************************************
 656:Generated_Source\PSoC6\pdl\middleware\ble/cy_ble_gap.h **** * Function Name: Cy_BLE_GetState
 657:Generated_Source\PSoC6\pdl\middleware\ble/cy_ble_gap.h **** ***************************************************************************//**
 658:Generated_Source\PSoC6\pdl\middleware\ble/cy_ble_gap.h **** *
 659:Generated_Source\PSoC6\pdl\middleware\ble/cy_ble_gap.h **** *  This function is used to determine the current state of the BLE Middleware
 660:Generated_Source\PSoC6\pdl\middleware\ble/cy_ble_gap.h **** *  state machine :
 661:Generated_Source\PSoC6\pdl\middleware\ble/cy_ble_gap.h **** *
 662:Generated_Source\PSoC6\pdl\middleware\ble/cy_ble_gap.h **** *  \image html ble_middleware_state_machine.png
 663:Generated_Source\PSoC6\pdl\middleware\ble/cy_ble_gap.h **** *
 664:Generated_Source\PSoC6\pdl\middleware\ble/cy_ble_gap.h **** *  The BLE Middleware is in the state #CY_BLE_STATE_INITIALIZING after the 
 665:Generated_Source\PSoC6\pdl\middleware\ble/cy_ble_gap.h **** *  Cy_BLE_Enable() is called and until the #CY_BLE_EVT_STACK_ON event is not 
 666:Generated_Source\PSoC6\pdl\middleware\ble/cy_ble_gap.h **** *  received. After successful initialization the state is changed to 
 667:Generated_Source\PSoC6\pdl\middleware\ble/cy_ble_gap.h **** *  #CY_BLE_STATE_ON.
 668:Generated_Source\PSoC6\pdl\middleware\ble/cy_ble_gap.h **** *
 669:Generated_Source\PSoC6\pdl\middleware\ble/cy_ble_gap.h **** *  The BLE Middleware is in the state #CY_BLE_STATE_STOPPED 
 670:Generated_Source\PSoC6\pdl\middleware\ble/cy_ble_gap.h **** *  when the #CY_BLE_EVT_STACK_SHUTDOWN_COMPLETE event is received (after the 
ARM GAS  C:\Users\ASUS\AppData\Local\Temp\cczm8cZa.s 			page 37


 671:Generated_Source\PSoC6\pdl\middleware\ble/cy_ble_gap.h **** *  Cy_BLE_Disable() is called).
 672:Generated_Source\PSoC6\pdl\middleware\ble/cy_ble_gap.h **** *  
 673:Generated_Source\PSoC6\pdl\middleware\ble/cy_ble_gap.h **** *  For GAP Central role when the Cy_BLE_GAPC_ConnectDevice() is called, the state
 674:Generated_Source\PSoC6\pdl\middleware\ble/cy_ble_gap.h **** *  is changed to #CY_BLE_STATE_CONNECTING. After successful connection indicated
 675:Generated_Source\PSoC6\pdl\middleware\ble/cy_ble_gap.h **** *  by #CY_BLE_EVT_GAP_DEVICE_CONNECTED or #CY_BLE_EVT_GAP_ENHANCE_CONN_COMPLETE
 676:Generated_Source\PSoC6\pdl\middleware\ble/cy_ble_gap.h **** *  event or the timeout indicated by #CY_BLE_EVT_TIMEOUT event, the state is
 677:Generated_Source\PSoC6\pdl\middleware\ble/cy_ble_gap.h **** *  changed to #CY_BLE_STATE_ON.
 678:Generated_Source\PSoC6\pdl\middleware\ble/cy_ble_gap.h **** *
 679:Generated_Source\PSoC6\pdl\middleware\ble/cy_ble_gap.h **** * \return
 680:Generated_Source\PSoC6\pdl\middleware\ble/cy_ble_gap.h **** * \ref cy_en_ble_state_t : The current BLE Middleware state. The following are 
 681:Generated_Source\PSoC6\pdl\middleware\ble/cy_ble_gap.h **** *                         possible states:
 682:Generated_Source\PSoC6\pdl\middleware\ble/cy_ble_gap.h **** *
 683:Generated_Source\PSoC6\pdl\middleware\ble/cy_ble_gap.h **** *   State                      | Description
 684:Generated_Source\PSoC6\pdl\middleware\ble/cy_ble_gap.h **** *   -------------------------- | -----------
 685:Generated_Source\PSoC6\pdl\middleware\ble/cy_ble_gap.h **** *   CY_BLE_STATE_STOPPED       | BLE is turned off.
 686:Generated_Source\PSoC6\pdl\middleware\ble/cy_ble_gap.h **** *   CY_BLE_STATE_INITIALIZING  | BLE is initializing (waiting for #CY_BLE_EVT_STACK_ON event).
 687:Generated_Source\PSoC6\pdl\middleware\ble/cy_ble_gap.h **** *   CY_BLE_STATE_ON            | BLE is turned on.
 688:Generated_Source\PSoC6\pdl\middleware\ble/cy_ble_gap.h **** *   CY_BLE_STATE_CONNECTING    | BLE is connecting.
 689:Generated_Source\PSoC6\pdl\middleware\ble/cy_ble_gap.h **** 
 690:Generated_Source\PSoC6\pdl\middleware\ble/cy_ble_gap.h **** ******************************************************************************/
 691:Generated_Source\PSoC6\pdl\middleware\ble/cy_ble_gap.h **** #define Cy_BLE_GetState()    (cy_ble_state)
 692:Generated_Source\PSoC6\pdl\middleware\ble/cy_ble_gap.h **** 
 693:Generated_Source\PSoC6\pdl\middleware\ble/cy_ble_gap.h **** /** \cond IGNORE */
 694:Generated_Source\PSoC6\pdl\middleware\ble/cy_ble_gap.h **** /******************************************************************************
 695:Generated_Source\PSoC6\pdl\middleware\ble/cy_ble_gap.h **** * Function Name: Cy_BLE_SetState
 696:Generated_Source\PSoC6\pdl\middleware\ble/cy_ble_gap.h **** ***************************************************************************//**
 697:Generated_Source\PSoC6\pdl\middleware\ble/cy_ble_gap.h **** *
 698:Generated_Source\PSoC6\pdl\middleware\ble/cy_ble_gap.h **** *  Used to set the BLE Middleware state machine's state.
 699:Generated_Source\PSoC6\pdl\middleware\ble/cy_ble_gap.h **** *
 700:Generated_Source\PSoC6\pdl\middleware\ble/cy_ble_gap.h **** *  \param state: The desired state to which the event handler's
 701:Generated_Source\PSoC6\pdl\middleware\ble/cy_ble_gap.h **** *   state machine should be set. The parameter state is a variable
 702:Generated_Source\PSoC6\pdl\middleware\ble/cy_ble_gap.h **** *   of type cy_en_ble_state_t.
 703:Generated_Source\PSoC6\pdl\middleware\ble/cy_ble_gap.h **** *
 704:Generated_Source\PSoC6\pdl\middleware\ble/cy_ble_gap.h **** * \return
 705:Generated_Source\PSoC6\pdl\middleware\ble/cy_ble_gap.h **** *  None
 706:Generated_Source\PSoC6\pdl\middleware\ble/cy_ble_gap.h **** *
 707:Generated_Source\PSoC6\pdl\middleware\ble/cy_ble_gap.h **** ******************************************************************************/
 708:Generated_Source\PSoC6\pdl\middleware\ble/cy_ble_gap.h **** #define Cy_BLE_SetState(state)    (cy_ble_state = (state))
 709:Generated_Source\PSoC6\pdl\middleware\ble/cy_ble_gap.h **** /** \endcond */
 710:Generated_Source\PSoC6\pdl\middleware\ble/cy_ble_gap.h **** 
 711:Generated_Source\PSoC6\pdl\middleware\ble/cy_ble_gap.h **** #if (CY_BLE_GAP_ROLE_PERIPHERAL || CY_BLE_GAP_ROLE_BROADCASTER)
 712:Generated_Source\PSoC6\pdl\middleware\ble/cy_ble_gap.h **** 
 713:Generated_Source\PSoC6\pdl\middleware\ble/cy_ble_gap.h **** 
 714:Generated_Source\PSoC6\pdl\middleware\ble/cy_ble_gap.h **** /******************************************************************************
 715:Generated_Source\PSoC6\pdl\middleware\ble/cy_ble_gap.h **** * Function Name: Cy_BLE_GetAdvertisementState
 716:Generated_Source\PSoC6\pdl\middleware\ble/cy_ble_gap.h **** ***************************************************************************//**
 717:Generated_Source\PSoC6\pdl\middleware\ble/cy_ble_gap.h **** *    
 718:Generated_Source\PSoC6\pdl\middleware\ble/cy_ble_gap.h **** *  This function returns the state of the link layer hardware advertisement
 719:Generated_Source\PSoC6\pdl\middleware\ble/cy_ble_gap.h **** *  engine.
 720:Generated_Source\PSoC6\pdl\middleware\ble/cy_ble_gap.h **** *
 721:Generated_Source\PSoC6\pdl\middleware\ble/cy_ble_gap.h **** *  \image html ble_advertisement_state_machine.png
 722:Generated_Source\PSoC6\pdl\middleware\ble/cy_ble_gap.h **** *
 723:Generated_Source\PSoC6\pdl\middleware\ble/cy_ble_gap.h **** *  When Cy_BLE_GAPP_StartAdvertisement() is called, the state is set to
 724:Generated_Source\PSoC6\pdl\middleware\ble/cy_ble_gap.h **** *  #CY_BLE_ADV_STATE_ADV_INITIATED. It automatically changes to
 725:Generated_Source\PSoC6\pdl\middleware\ble/cy_ble_gap.h **** *  #CY_BLE_ADV_STATE_ADVERTISING when #CY_BLE_EVT_GAPP_ADVERTISEMENT_START_STOP
 726:Generated_Source\PSoC6\pdl\middleware\ble/cy_ble_gap.h **** *  event is received. When Cy_BLE_GAPP_StopAdvertisement() is called, the
 727:Generated_Source\PSoC6\pdl\middleware\ble/cy_ble_gap.h **** *  state is set to #CY_BLE_ADV_STATE_STOP_INITIATED. It automatically changes
ARM GAS  C:\Users\ASUS\AppData\Local\Temp\cczm8cZa.s 			page 38


 728:Generated_Source\PSoC6\pdl\middleware\ble/cy_ble_gap.h **** *  to #CY_BLE_ADV_STATE_STOPPED when the #CY_BLE_EVT_GAPP_ADVERTISEMENT_START_STOP
 729:Generated_Source\PSoC6\pdl\middleware\ble/cy_ble_gap.h **** *  event is received.
 730:Generated_Source\PSoC6\pdl\middleware\ble/cy_ble_gap.h **** *
 731:Generated_Source\PSoC6\pdl\middleware\ble/cy_ble_gap.h **** * \return
 732:Generated_Source\PSoC6\pdl\middleware\ble/cy_ble_gap.h **** * \ref cy_en_ble_adv_state_t :The current advertising state. The following are 
 733:Generated_Source\PSoC6\pdl\middleware\ble/cy_ble_gap.h **** *                              possible states.
 734:Generated_Source\PSoC6\pdl\middleware\ble/cy_ble_gap.h **** *
 735:Generated_Source\PSoC6\pdl\middleware\ble/cy_ble_gap.h **** *               State                |         Description
 736:Generated_Source\PSoC6\pdl\middleware\ble/cy_ble_gap.h **** *   -------------------------------- | -----------------------------
 737:Generated_Source\PSoC6\pdl\middleware\ble/cy_ble_gap.h **** *   CY_BLE_ADV_STATE_STOPPED         | Advertising is stopped.
 738:Generated_Source\PSoC6\pdl\middleware\ble/cy_ble_gap.h **** *   CY_BLE_ADV_STATE_ADV_INITIATED   | Advertising is initiated.
 739:Generated_Source\PSoC6\pdl\middleware\ble/cy_ble_gap.h **** *   CY_BLE_ADV_STATE_ADVERTISING     | Advertising is initiated.
 740:Generated_Source\PSoC6\pdl\middleware\ble/cy_ble_gap.h **** *   CY_BLE_ADV_STATE_STOP_INITIATED  | Stop advertising is initiated.
 741:Generated_Source\PSoC6\pdl\middleware\ble/cy_ble_gap.h **** *
 742:Generated_Source\PSoC6\pdl\middleware\ble/cy_ble_gap.h **** ******************************************************************************/
 743:Generated_Source\PSoC6\pdl\middleware\ble/cy_ble_gap.h **** __STATIC_INLINE cy_en_ble_adv_state_t Cy_BLE_GetAdvertisementState(void)
 744:Generated_Source\PSoC6\pdl\middleware\ble/cy_ble_gap.h **** {
 745:Generated_Source\PSoC6\pdl\middleware\ble/cy_ble_gap.h ****     return(cy_ble_advState);
 746:Generated_Source\PSoC6\pdl\middleware\ble/cy_ble_gap.h **** }
 747:Generated_Source\PSoC6\pdl\middleware\ble/cy_ble_gap.h **** 
 748:Generated_Source\PSoC6\pdl\middleware\ble/cy_ble_gap.h **** /** \cond IGNORE */
 749:Generated_Source\PSoC6\pdl\middleware\ble/cy_ble_gap.h **** /******************************************************************************
 750:Generated_Source\PSoC6\pdl\middleware\ble/cy_ble_gap.h **** * Function Name: Cy_BLE_SetAdvertisementState
 751:Generated_Source\PSoC6\pdl\middleware\ble/cy_ble_gap.h **** ***************************************************************************//**
 752:Generated_Source\PSoC6\pdl\middleware\ble/cy_ble_gap.h **** *
 753:Generated_Source\PSoC6\pdl\middleware\ble/cy_ble_gap.h **** *  Used to set the state of the link layer hardware advertisement engine.
 754:Generated_Source\PSoC6\pdl\middleware\ble/cy_ble_gap.h **** *
 755:Generated_Source\PSoC6\pdl\middleware\ble/cy_ble_gap.h **** *  \param state: The desired state.
 756:Generated_Source\PSoC6\pdl\middleware\ble/cy_ble_gap.h **** *
 757:Generated_Source\PSoC6\pdl\middleware\ble/cy_ble_gap.h **** * \return
 758:Generated_Source\PSoC6\pdl\middleware\ble/cy_ble_gap.h **** *  None
 759:Generated_Source\PSoC6\pdl\middleware\ble/cy_ble_gap.h **** *
 760:Generated_Source\PSoC6\pdl\middleware\ble/cy_ble_gap.h **** ******************************************************************************/
 761:Generated_Source\PSoC6\pdl\middleware\ble/cy_ble_gap.h **** __STATIC_INLINE void Cy_BLE_SetAdvertisementState(cy_en_ble_adv_state_t state)
 762:Generated_Source\PSoC6\pdl\middleware\ble/cy_ble_gap.h **** {
 763:Generated_Source\PSoC6\pdl\middleware\ble/cy_ble_gap.h ****     cy_ble_advState = state;
 441              		.loc 2 763 0
 442 009e 124A     		ldr	r2, .L33+36
 443 00a0 1370     		strb	r3, [r2]
 444              	.LVL51:
 445              	.LBE7:
 446              	.LBE6:
 447              	.LBB8:
 408:Generated_Source\PSoC6\pdl\middleware\ble/cy_ble.c ****                     .gattDbTotalEntries = cy_ble_configPtr->params->gattDbIndexCount,
 448              		.loc 1 408 0
 449 00a2 0B4B     		ldr	r3, .L33+12
 450 00a4 5B68     		ldr	r3, [r3, #4]
 406:Generated_Source\PSoC6\pdl\middleware\ble/cy_ble.c ****                 {
 451              		.loc 1 406 0
 452 00a6 01A8     		add	r0, sp, #4
 453              	.LVL52:
 454 00a8 1A6A     		ldr	r2, [r3, #32]
 455 00aa 0192     		str	r2, [sp, #4]
 409:Generated_Source\PSoC6\pdl\middleware\ble/cy_ble.c ****                     .gattDbMaxValue     = CY_BLE_GATT_DB_MAX_VALUE_LEN
 456              		.loc 1 409 0
 457 00ac 9B6A     		ldr	r3, [r3, #40]
 458 00ae DB88     		ldrh	r3, [r3, #6]
ARM GAS  C:\Users\ASUS\AppData\Local\Temp\cczm8cZa.s 			page 39


 406:Generated_Source\PSoC6\pdl\middleware\ble/cy_ble.c ****                 {
 459              		.loc 1 406 0
 460 00b0 8380     		strh	r3, [r0, #4]
 461 00b2 0823     		movs	r3, #8
 462 00b4 C380     		strh	r3, [r0, #6]
 413:Generated_Source\PSoC6\pdl\middleware\ble/cy_ble.c ****             }
 463              		.loc 1 413 0
 464 00b6 FFF7FEFF 		bl	Cy_BLE_GATTS_DbRegister
 465              	.LVL53:
 466              	.L32:
 467              	.LBE8:
 417:Generated_Source\PSoC6\pdl\middleware\ble/cy_ble.c ****     #endif /* (CY_BLE_MODE_PROFILE) */
 468              		.loc 1 417 0
 469 00ba 0022     		movs	r2, #0
 470 00bc 0B4B     		ldr	r3, .L33+40
 471 00be 1A60     		str	r2, [r3]
 472              	.L30:
 422:Generated_Source\PSoC6\pdl\middleware\ble/cy_ble.c **** 
 473              		.loc 1 422 0
 474 00c0 18B0     		add	sp, sp, #96
 475              		@ sp needed
 476 00c2 70BD     		pop	{r4, r5, r6, pc}
 477              	.L34:
 478              		.align	2
 479              	.L33:
 480 00c4 00000000 		.word	.LANCHOR2
 481 00c8 00000000 		.word	Cy_BLE_EventHandler
 482 00cc E8280000 		.word	10472
 483 00d0 00000000 		.word	.LANCHOR0
 484 00d4 96100000 		.word	4246
 485 00d8 00000000 		.word	.LANCHOR1
 486 00dc 00000000 		.word	.LANCHOR3
 487 00e0 00000000 		.word	cy_ble_state
 488 00e4 00000000 		.word	cy_ble_connState
 489 00e8 00000000 		.word	cy_ble_advState
 490 00ec 00000000 		.word	cy_ble_cmdStatus
 491              		.cfi_endproc
 492              	.LFE170:
 493              		.size	Cy_BLE_Enable, .-Cy_BLE_Enable
 494              		.section	.text.Cy_BLE_Disable,"ax",%progbits
 495              		.align	2
 496              		.global	Cy_BLE_Disable
 497              		.code	16
 498              		.thumb_func
 499              		.type	Cy_BLE_Disable, %function
 500              	Cy_BLE_Disable:
 501              	.LFB171:
 463:Generated_Source\PSoC6\pdl\middleware\ble/cy_ble.c ****     cy_en_ble_api_result_t apiResult;
 502              		.loc 1 463 0
 503              		.cfi_startproc
 504              		@ args = 0, pretend = 0, frame = 0
 505              		@ frame_needed = 0, uses_anonymous_args = 0
 506 0000 10B5     		push	{r4, lr}
 507              		.cfi_def_cfa_offset 8
 508              		.cfi_offset 4, -8
 509              		.cfi_offset 14, -4
 471:Generated_Source\PSoC6\pdl\middleware\ble/cy_ble.c ****     
ARM GAS  C:\Users\ASUS\AppData\Local\Temp\cczm8cZa.s 			page 40


 510              		.loc 1 471 0
 511 0002 FFF7FEFF 		bl	Cy_BLE_StackShutdown
 512              	.LVL54:
 482:Generated_Source\PSoC6\pdl\middleware\ble/cy_ble.c **** 
 513              		.loc 1 482 0
 514              		@ sp needed
 515 0006 10BD     		pop	{r4, pc}
 516              		.cfi_endproc
 517              	.LFE171:
 518              		.size	Cy_BLE_Disable, .-Cy_BLE_Disable
 519              		.section	.text.Cy_BLE_ConfigureExtPA,"ax",%progbits
 520              		.align	2
 521              		.global	Cy_BLE_ConfigureExtPA
 522              		.code	16
 523              		.thumb_func
 524              		.type	Cy_BLE_ConfigureExtPA, %function
 525              	Cy_BLE_ConfigureExtPA:
 526              	.LFB172:
 519:Generated_Source\PSoC6\pdl\middleware\ble/cy_ble.c ****     BLE->BLESS.EXT_PA_LNA_CTRL = controlValue;
 527              		.loc 1 519 0
 528              		.cfi_startproc
 529              		@ args = 0, pretend = 0, frame = 0
 530              		@ frame_needed = 0, uses_anonymous_args = 0
 531              		@ link register save eliminated.
 532              	.LVL55:
 520:Generated_Source\PSoC6\pdl\middleware\ble/cy_ble.c **** }
 533              		.loc 1 520 0
 534 0000 014B     		ldr	r3, .L37
 535 0002 024A     		ldr	r2, .L37+4
 536 0004 D050     		str	r0, [r2, r3]
 521:Generated_Source\PSoC6\pdl\middleware\ble/cy_ble.c **** 
 537              		.loc 1 521 0
 538              		@ sp needed
 539 0006 7047     		bx	lr
 540              	.L38:
 541              		.align	2
 542              	.L37:
 543 0008 78F00100 		.word	127096
 544 000c 00003C40 		.word	1077673984
 545              		.cfi_endproc
 546              	.LFE172:
 547              		.size	Cy_BLE_ConfigureExtPA, .-Cy_BLE_ConfigureExtPA
 548              		.section	.text.Cy_BLE_RegisterAppHostCallback,"ax",%progbits
 549              		.align	2
 550              		.global	Cy_BLE_RegisterAppHostCallback
 551              		.code	16
 552              		.thumb_func
 553              		.type	Cy_BLE_RegisterAppHostCallback, %function
 554              	Cy_BLE_RegisterAppHostCallback:
 555              	.LFB173:
 710:Generated_Source\PSoC6\pdl\middleware\ble/cy_ble.c ****     cy_en_ble_api_result_t apiResult = CY_BLE_SUCCESS;
 556              		.loc 1 710 0
 557              		.cfi_startproc
 558              		@ args = 0, pretend = 0, frame = 0
 559              		@ frame_needed = 0, uses_anonymous_args = 0
 560              		@ link register save eliminated.
 561              	.LVL56:
ARM GAS  C:\Users\ASUS\AppData\Local\Temp\cczm8cZa.s 			page 41


 713:Generated_Source\PSoC6\pdl\middleware\ble/cy_ble.c ****     {
 562              		.loc 1 713 0
 563 0000 0028     		cmp	r0, #0
 564 0002 03D0     		beq	.L41
 715:Generated_Source\PSoC6\pdl\middleware\ble/cy_ble.c ****     }
 565              		.loc 1 715 0
 566 0004 024B     		ldr	r3, .L42
 567 0006 D860     		str	r0, [r3, #12]
 711:Generated_Source\PSoC6\pdl\middleware\ble/cy_ble.c ****     
 568              		.loc 1 711 0
 569 0008 0020     		movs	r0, #0
 570              	.LVL57:
 571 000a 00E0     		b	.L40
 572              	.LVL58:
 573              	.L41:
 719:Generated_Source\PSoC6\pdl\middleware\ble/cy_ble.c ****     }   
 574              		.loc 1 719 0
 575 000c 0148     		ldr	r0, .L42+4
 576              	.LVL59:
 577              	.L40:
 722:Generated_Source\PSoC6\pdl\middleware\ble/cy_ble.c **** 
 578              		.loc 1 722 0
 579              		@ sp needed
 580 000e 7047     		bx	lr
 581              	.L43:
 582              		.align	2
 583              	.L42:
 584 0010 00000000 		.word	.LANCHOR0
 585 0014 01001600 		.word	1441793
 586              		.cfi_endproc
 587              	.LFE173:
 588              		.size	Cy_BLE_RegisterAppHostCallback, .-Cy_BLE_RegisterAppHostCallback
 589              		.section	.text.Cy_BLE_UnRegisterAppHostCallback,"ax",%progbits
 590              		.align	2
 591              		.global	Cy_BLE_UnRegisterAppHostCallback
 592              		.code	16
 593              		.thumb_func
 594              		.type	Cy_BLE_UnRegisterAppHostCallback, %function
 595              	Cy_BLE_UnRegisterAppHostCallback:
 596              	.LFB174:
 732:Generated_Source\PSoC6\pdl\middleware\ble/cy_ble.c ****     Cy_BLE_HostRegisteredCallback = NULL;
 597              		.loc 1 732 0
 598              		.cfi_startproc
 599              		@ args = 0, pretend = 0, frame = 0
 600              		@ frame_needed = 0, uses_anonymous_args = 0
 601              		@ link register save eliminated.
 733:Generated_Source\PSoC6\pdl\middleware\ble/cy_ble.c **** }
 602              		.loc 1 733 0
 603 0000 0022     		movs	r2, #0
 604 0002 014B     		ldr	r3, .L45
 605 0004 DA60     		str	r2, [r3, #12]
 734:Generated_Source\PSoC6\pdl\middleware\ble/cy_ble.c **** #endif /* (CY_BLE_MODE_PROFILE) */
 606              		.loc 1 734 0
 607              		@ sp needed
 608 0006 7047     		bx	lr
 609              	.L46:
 610              		.align	2
ARM GAS  C:\Users\ASUS\AppData\Local\Temp\cczm8cZa.s 			page 42


 611              	.L45:
 612 0008 00000000 		.word	.LANCHOR0
 613              		.cfi_endproc
 614              	.LFE174:
 615              		.size	Cy_BLE_UnRegisterAppHostCallback, .-Cy_BLE_UnRegisterAppHostCallback
 616              		.global	cy_ble_configPtr
 617              		.global	Cy_BLE_HostRegisteredCallback
 618              		.global	Cy_BLE_ApplCallback
 619              		.global	cy_ble_stackMemoryRam
 620              		.section	.rodata
 621              		.align	2
 622              		.set	.LANCHOR2,. + 0
 623              	.LC0:
 624 0000 2400     		.short	36
 625 0002 0300     		.short	3
 626 0004 3000     		.short	48
 627 0006 0100     		.short	1
 628 0008 2800     		.short	40
 629 000a 0200     		.short	2
 630 000c 2400     		.short	36
 631 000e 0200     		.short	2
 632              		.data
 633              		.align	2
 634              		.set	.LANCHOR1,. + 0
 635              		.type	bleDeepSleepCallback, %object
 636              		.size	bleDeepSleepCallback, 24
 637              	bleDeepSleepCallback:
 638 0000 00000000 		.word	Cy_BLE_DeepSleepCallback
 639 0004 01       		.byte	1
 640 0005 000000   		.space	3
 641 0008 06000000 		.word	6
 642 000c 10000000 		.word	bleDeepSleepCallbackParams
 643 0010 00000000 		.space	8
 643      00000000 
 644              		.section	.noinit,"aw",%progbits
 645              		.align	2
 646              		.set	.LANCHOR3,. + 0
 647              		.type	cy_ble_stackMemoryRam, %object
 648              		.size	cy_ble_stackMemoryRam, 10472
 649              	cy_ble_stackMemoryRam:
 650 0000 00000000 		.space	10472
 650      00000000 
 650      00000000 
 650      00000000 
 650      00000000 
 651              		.bss
 652              		.align	2
 653              		.set	.LANCHOR0,. + 0
 654              		.type	interruptState.14006, %object
 655              		.size	interruptState.14006, 4
 656              	interruptState.14006:
 657 0000 00000000 		.space	4
 658              		.type	cy_ble_configPtr, %object
 659              		.size	cy_ble_configPtr, 4
 660              	cy_ble_configPtr:
 661 0004 00000000 		.space	4
 662              		.type	Cy_BLE_ApplCallback, %object
ARM GAS  C:\Users\ASUS\AppData\Local\Temp\cczm8cZa.s 			page 43


 663              		.size	Cy_BLE_ApplCallback, 4
 664              	Cy_BLE_ApplCallback:
 665 0008 00000000 		.space	4
 666              		.type	Cy_BLE_HostRegisteredCallback, %object
 667              		.size	Cy_BLE_HostRegisteredCallback, 4
 668              	Cy_BLE_HostRegisteredCallback:
 669 000c 00000000 		.space	4
 670              		.type	bleDeepSleepCallbackParams, %object
 671              		.size	bleDeepSleepCallbackParams, 8
 672              	bleDeepSleepCallbackParams:
 673 0010 00000000 		.space	8
 673      00000000 
 674              		.text
 675              	.Letext0:
 676              		.file 3 "d:\\program files (x86)\\cypress\\psoc creator\\4.2\\psoc creator\\import\\gnu\\arm\\5.4.
 677              		.file 4 "d:\\program files (x86)\\cypress\\psoc creator\\4.2\\psoc creator\\import\\gnu\\arm\\5.4.
 678              		.file 5 "Generated_Source\\PSoC6\\pdl\\drivers/peripheral/device/cy_device.h"
 679              		.file 6 "Generated_Source\\PSoC6\\pdl\\devices/psoc6/include/cyble_416045_02.h"
 680              		.file 7 "Generated_Source\\PSoC6\\pdl\\devices/psoc6/include/ip/cyip_ble.h"
 681              		.file 8 "Generated_Source\\PSoC6\\pdl\\devices/psoc6/include/psoc6_01_config.h"
 682              		.file 9 "Generated_Source\\PSoC6\\pdl\\drivers/peripheral/sysint/cy_sysint.h"
 683              		.file 10 "Generated_Source\\PSoC6\\pdl\\drivers/peripheral/syspm/cy_syspm.h"
 684              		.file 11 "Generated_Source\\PSoC6\\pdl\\middleware\\ble\\cy_ble_stack.h"
 685              		.file 12 "Generated_Source\\PSoC6\\pdl\\middleware\\ble\\cy_ble_stack_host_main.h"
 686              		.file 13 "Generated_Source\\PSoC6\\pdl\\middleware\\ble\\cy_ble_stack_gatt.h"
 687              		.file 14 "Generated_Source\\PSoC6\\pdl\\middleware\\ble\\cy_ble_stack_gap.h"
 688              		.file 15 "Generated_Source\\PSoC6\\pdl\\middleware\\ble\\cy_ble_stack_gap_central.h"
 689              		.file 16 "Generated_Source\\PSoC6\\pdl\\middleware\\ble\\cy_ble_stack_gap_peripheral.h"
 690              		.file 17 "Generated_Source\\PSoC6\\pdl\\middleware\\ble\\cy_ble_stack_gatt_db.h"
 691              		.file 18 "Generated_Source\\PSoC6\\pdl\\middleware\\ble\\cy_ble_gatt.h"
 692              		.file 19 "Generated_Source\\PSoC6\\pdl\\middleware\\ble\\cy_ble.h"
 693              		.file 20 "Generated_Source\\PSoC6\\pdl\\drivers/peripheral/ipc/cy_ipc_sema.h"
 694              		.file 21 "Generated_Source\\PSoC6\\pdl\\middleware\\ble\\cy_ble_event_handler.h"
 695              		.file 22 "Generated_Source\\PSoC6\\pdl\\drivers/peripheral/syslib/cy_syslib.h"
 696              		.file 23 "Generated_Source\\PSoC6\\pdl\\middleware\\ble\\cy_ble_clk.h"
 697              		.section	.debug_info,"",%progbits
 698              	.Ldebug_info0:
 699 0000 043A0000 		.4byte	0x3a04
 700 0004 0400     		.2byte	0x4
 701 0006 00000000 		.4byte	.Ldebug_abbrev0
 702 000a 04       		.byte	0x4
 703 000b 01       		.uleb128 0x1
 704 000c E13A0000 		.4byte	.LASF1113
 705 0010 0C       		.byte	0xc
 706 0011 03280000 		.4byte	.LASF1114
 707 0015 09180000 		.4byte	.LASF1115
 708 0019 00000000 		.4byte	.Ldebug_ranges0+0
 709 001d 00000000 		.4byte	0
 710 0021 00000000 		.4byte	.Ldebug_line0
 711 0025 02       		.uleb128 0x2
 712 0026 04       		.byte	0x4
 713 0027 05       		.byte	0x5
 714 0028 696E7400 		.ascii	"int\000"
 715 002c 03       		.uleb128 0x3
 716 002d 04       		.byte	0x4
 717 002e 07       		.byte	0x7
 718 002f 8B5B0000 		.4byte	.LASF0
ARM GAS  C:\Users\ASUS\AppData\Local\Temp\cczm8cZa.s 			page 44


 719 0033 03       		.uleb128 0x3
 720 0034 08       		.byte	0x8
 721 0035 05       		.byte	0x5
 722 0036 27000000 		.4byte	.LASF1
 723 003a 03       		.uleb128 0x3
 724 003b 08       		.byte	0x8
 725 003c 04       		.byte	0x4
 726 003d BB070000 		.4byte	.LASF2
 727 0041 04       		.uleb128 0x4
 728 0042 A5250000 		.4byte	.LASF4
 729 0046 03       		.byte	0x3
 730 0047 1B       		.byte	0x1b
 731 0048 4C000000 		.4byte	0x4c
 732 004c 03       		.uleb128 0x3
 733 004d 01       		.byte	0x1
 734 004e 06       		.byte	0x6
 735 004f 6F4C0000 		.4byte	.LASF3
 736 0053 04       		.uleb128 0x4
 737 0054 44130000 		.4byte	.LASF5
 738 0058 03       		.byte	0x3
 739 0059 1D       		.byte	0x1d
 740 005a 5E000000 		.4byte	0x5e
 741 005e 03       		.uleb128 0x3
 742 005f 01       		.byte	0x1
 743 0060 08       		.byte	0x8
 744 0061 A82E0000 		.4byte	.LASF6
 745 0065 04       		.uleb128 0x4
 746 0066 282B0000 		.4byte	.LASF7
 747 006a 03       		.byte	0x3
 748 006b 29       		.byte	0x29
 749 006c 70000000 		.4byte	0x70
 750 0070 03       		.uleb128 0x3
 751 0071 02       		.byte	0x2
 752 0072 05       		.byte	0x5
 753 0073 F83F0000 		.4byte	.LASF8
 754 0077 04       		.uleb128 0x4
 755 0078 9D1E0000 		.4byte	.LASF9
 756 007c 03       		.byte	0x3
 757 007d 2B       		.byte	0x2b
 758 007e 82000000 		.4byte	0x82
 759 0082 03       		.uleb128 0x3
 760 0083 02       		.byte	0x2
 761 0084 07       		.byte	0x7
 762 0085 302A0000 		.4byte	.LASF10
 763 0089 03       		.uleb128 0x3
 764 008a 04       		.byte	0x4
 765 008b 05       		.byte	0x5
 766 008c FA430000 		.4byte	.LASF11
 767 0090 04       		.uleb128 0x4
 768 0091 C3350000 		.4byte	.LASF12
 769 0095 03       		.byte	0x3
 770 0096 41       		.byte	0x41
 771 0097 9B000000 		.4byte	0x9b
 772 009b 03       		.uleb128 0x3
 773 009c 04       		.byte	0x4
 774 009d 07       		.byte	0x7
 775 009e F1000000 		.4byte	.LASF13
ARM GAS  C:\Users\ASUS\AppData\Local\Temp\cczm8cZa.s 			page 45


 776 00a2 03       		.uleb128 0x3
 777 00a3 08       		.byte	0x8
 778 00a4 07       		.byte	0x7
 779 00a5 674F0000 		.4byte	.LASF14
 780 00a9 03       		.uleb128 0x3
 781 00aa 04       		.byte	0x4
 782 00ab 07       		.byte	0x7
 783 00ac 87460000 		.4byte	.LASF15
 784 00b0 05       		.uleb128 0x5
 785 00b1 04       		.byte	0x4
 786 00b2 03       		.uleb128 0x3
 787 00b3 01       		.byte	0x1
 788 00b4 08       		.byte	0x8
 789 00b5 F9520000 		.4byte	.LASF16
 790 00b9 06       		.uleb128 0x6
 791 00ba 04       		.byte	0x4
 792 00bb BF000000 		.4byte	0xbf
 793 00bf 07       		.uleb128 0x7
 794 00c0 04       		.uleb128 0x4
 795 00c1 0B4E0000 		.4byte	.LASF17
 796 00c5 04       		.byte	0x4
 797 00c6 14       		.byte	0x14
 798 00c7 41000000 		.4byte	0x41
 799 00cb 04       		.uleb128 0x4
 800 00cc 992C0000 		.4byte	.LASF18
 801 00d0 04       		.byte	0x4
 802 00d1 18       		.byte	0x18
 803 00d2 53000000 		.4byte	0x53
 804 00d6 04       		.uleb128 0x4
 805 00d7 07470000 		.4byte	.LASF19
 806 00db 04       		.byte	0x4
 807 00dc 20       		.byte	0x20
 808 00dd 65000000 		.4byte	0x65
 809 00e1 04       		.uleb128 0x4
 810 00e2 024F0000 		.4byte	.LASF20
 811 00e6 04       		.byte	0x4
 812 00e7 24       		.byte	0x24
 813 00e8 77000000 		.4byte	0x77
 814 00ec 04       		.uleb128 0x4
 815 00ed 86060000 		.4byte	.LASF21
 816 00f1 04       		.byte	0x4
 817 00f2 30       		.byte	0x30
 818 00f3 90000000 		.4byte	0x90
 819 00f7 08       		.uleb128 0x8
 820 00f8 EC000000 		.4byte	0xec
 821 00fc 09       		.uleb128 0x9
 822 00fd F7000000 		.4byte	0xf7
 823 0101 0A       		.uleb128 0xa
 824 0102 FC000000 		.4byte	0xfc
 825 0106 11010000 		.4byte	0x111
 826 010a 0B       		.uleb128 0xb
 827 010b A9000000 		.4byte	0xa9
 828 010f 02       		.byte	0x2
 829 0110 00       		.byte	0
 830 0111 0A       		.uleb128 0xa
 831 0112 F7000000 		.4byte	0xf7
 832 0116 21010000 		.4byte	0x121
ARM GAS  C:\Users\ASUS\AppData\Local\Temp\cczm8cZa.s 			page 46


 833 011a 0B       		.uleb128 0xb
 834 011b A9000000 		.4byte	0xa9
 835 011f 0F       		.byte	0xf
 836 0120 00       		.byte	0
 837 0121 0A       		.uleb128 0xa
 838 0122 FC000000 		.4byte	0xfc
 839 0126 31010000 		.4byte	0x131
 840 012a 0B       		.uleb128 0xb
 841 012b A9000000 		.4byte	0xa9
 842 012f 03       		.byte	0x3
 843 0130 00       		.byte	0
 844 0131 0A       		.uleb128 0xa
 845 0132 FC000000 		.4byte	0xfc
 846 0136 41010000 		.4byte	0x141
 847 013a 0B       		.uleb128 0xb
 848 013b A9000000 		.4byte	0xa9
 849 013f 04       		.byte	0x4
 850 0140 00       		.byte	0
 851 0141 0A       		.uleb128 0xa
 852 0142 FC000000 		.4byte	0xfc
 853 0146 51010000 		.4byte	0x151
 854 014a 0B       		.uleb128 0xb
 855 014b A9000000 		.4byte	0xa9
 856 014f 1E       		.byte	0x1e
 857 0150 00       		.byte	0
 858 0151 0A       		.uleb128 0xa
 859 0152 F7000000 		.4byte	0xf7
 860 0156 61010000 		.4byte	0x161
 861 015a 0B       		.uleb128 0xb
 862 015b A9000000 		.4byte	0xa9
 863 015f 03       		.byte	0x3
 864 0160 00       		.byte	0
 865 0161 0A       		.uleb128 0xa
 866 0162 FC000000 		.4byte	0xfc
 867 0166 71010000 		.4byte	0x171
 868 016a 0B       		.uleb128 0xb
 869 016b A9000000 		.4byte	0xa9
 870 016f 2B       		.byte	0x2b
 871 0170 00       		.byte	0
 872 0171 0A       		.uleb128 0xa
 873 0172 FC000000 		.4byte	0xfc
 874 0176 81010000 		.4byte	0x181
 875 017a 0B       		.uleb128 0xb
 876 017b A9000000 		.4byte	0xa9
 877 017f 1C       		.byte	0x1c
 878 0180 00       		.byte	0
 879 0181 0A       		.uleb128 0xa
 880 0182 FC000000 		.4byte	0xfc
 881 0186 91010000 		.4byte	0x191
 882 018a 0B       		.uleb128 0xb
 883 018b A9000000 		.4byte	0xa9
 884 018f 07       		.byte	0x7
 885 0190 00       		.byte	0
 886 0191 0A       		.uleb128 0xa
 887 0192 FC000000 		.4byte	0xfc
 888 0196 A1010000 		.4byte	0x1a1
 889 019a 0B       		.uleb128 0xb
ARM GAS  C:\Users\ASUS\AppData\Local\Temp\cczm8cZa.s 			page 47


 890 019b A9000000 		.4byte	0xa9
 891 019f 0B       		.byte	0xb
 892 01a0 00       		.byte	0
 893 01a1 0A       		.uleb128 0xa
 894 01a2 FC000000 		.4byte	0xfc
 895 01a6 B1010000 		.4byte	0x1b1
 896 01aa 0B       		.uleb128 0xb
 897 01ab A9000000 		.4byte	0xa9
 898 01af 01       		.byte	0x1
 899 01b0 00       		.byte	0
 900 01b1 08       		.uleb128 0x8
 901 01b2 CB000000 		.4byte	0xcb
 902 01b6 0A       		.uleb128 0xa
 903 01b7 FC000000 		.4byte	0xfc
 904 01bb C6010000 		.4byte	0x1c6
 905 01bf 0B       		.uleb128 0xb
 906 01c0 A9000000 		.4byte	0xa9
 907 01c4 2F       		.byte	0x2f
 908 01c5 00       		.byte	0
 909 01c6 0A       		.uleb128 0xa
 910 01c7 FC000000 		.4byte	0xfc
 911 01cb D6010000 		.4byte	0x1d6
 912 01cf 0B       		.uleb128 0xb
 913 01d0 A9000000 		.4byte	0xa9
 914 01d4 17       		.byte	0x17
 915 01d5 00       		.byte	0
 916 01d6 0A       		.uleb128 0xa
 917 01d7 FC000000 		.4byte	0xfc
 918 01db E6010000 		.4byte	0x1e6
 919 01df 0B       		.uleb128 0xb
 920 01e0 A9000000 		.4byte	0xa9
 921 01e4 3A       		.byte	0x3a
 922 01e5 00       		.byte	0
 923 01e6 0A       		.uleb128 0xa
 924 01e7 FC000000 		.4byte	0xfc
 925 01eb F6010000 		.4byte	0x1f6
 926 01ef 0B       		.uleb128 0xb
 927 01f0 A9000000 		.4byte	0xa9
 928 01f4 05       		.byte	0x5
 929 01f5 00       		.byte	0
 930 01f6 0A       		.uleb128 0xa
 931 01f7 FC000000 		.4byte	0xfc
 932 01fb 07020000 		.4byte	0x207
 933 01ff 0C       		.uleb128 0xc
 934 0200 A9000000 		.4byte	0xa9
 935 0204 FE03     		.2byte	0x3fe
 936 0206 00       		.byte	0
 937 0207 0A       		.uleb128 0xa
 938 0208 FC000000 		.4byte	0xfc
 939 020c 18020000 		.4byte	0x218
 940 0210 0C       		.uleb128 0xc
 941 0211 A9000000 		.4byte	0xa9
 942 0215 7F03     		.2byte	0x37f
 943 0217 00       		.byte	0
 944 0218 0D       		.uleb128 0xd
 945 0219 B8       		.byte	0xb8
 946 021a 05       		.byte	0x5
ARM GAS  C:\Users\ASUS\AppData\Local\Temp\cczm8cZa.s 			page 48


 947 021b 34       		.byte	0x34
 948 021c 29060000 		.4byte	0x629
 949 0220 0E       		.uleb128 0xe
 950 0221 B1070000 		.4byte	.LASF22
 951 0225 05       		.byte	0x5
 952 0226 37       		.byte	0x37
 953 0227 EC000000 		.4byte	0xec
 954 022b 00       		.byte	0
 955 022c 0E       		.uleb128 0xe
 956 022d B2460000 		.4byte	.LASF23
 957 0231 05       		.byte	0x5
 958 0232 38       		.byte	0x38
 959 0233 EC000000 		.4byte	0xec
 960 0237 04       		.byte	0x4
 961 0238 0E       		.uleb128 0xe
 962 0239 701D0000 		.4byte	.LASF24
 963 023d 05       		.byte	0x5
 964 023e 39       		.byte	0x39
 965 023f EC000000 		.4byte	0xec
 966 0243 08       		.byte	0x8
 967 0244 0E       		.uleb128 0xe
 968 0245 55490000 		.4byte	.LASF25
 969 0249 05       		.byte	0x5
 970 024a 3A       		.byte	0x3a
 971 024b EC000000 		.4byte	0xec
 972 024f 0C       		.byte	0xc
 973 0250 0E       		.uleb128 0xe
 974 0251 B1570000 		.4byte	.LASF26
 975 0255 05       		.byte	0x5
 976 0256 3B       		.byte	0x3b
 977 0257 EC000000 		.4byte	0xec
 978 025b 10       		.byte	0x10
 979 025c 0E       		.uleb128 0xe
 980 025d 8E4C0000 		.4byte	.LASF27
 981 0261 05       		.byte	0x5
 982 0262 3C       		.byte	0x3c
 983 0263 EC000000 		.4byte	0xec
 984 0267 14       		.byte	0x14
 985 0268 0E       		.uleb128 0xe
 986 0269 1E000000 		.4byte	.LASF28
 987 026d 05       		.byte	0x5
 988 026e 3D       		.byte	0x3d
 989 026f EC000000 		.4byte	0xec
 990 0273 18       		.byte	0x18
 991 0274 0E       		.uleb128 0xe
 992 0275 6D2E0000 		.4byte	.LASF29
 993 0279 05       		.byte	0x5
 994 027a 3E       		.byte	0x3e
 995 027b EC000000 		.4byte	0xec
 996 027f 1C       		.byte	0x1c
 997 0280 0E       		.uleb128 0xe
 998 0281 FE410000 		.4byte	.LASF30
 999 0285 05       		.byte	0x5
 1000 0286 3F       		.byte	0x3f
 1001 0287 EC000000 		.4byte	0xec
 1002 028b 20       		.byte	0x20
 1003 028c 0E       		.uleb128 0xe
ARM GAS  C:\Users\ASUS\AppData\Local\Temp\cczm8cZa.s 			page 49


 1004 028d 5D480000 		.4byte	.LASF31
 1005 0291 05       		.byte	0x5
 1006 0292 40       		.byte	0x40
 1007 0293 EC000000 		.4byte	0xec
 1008 0297 24       		.byte	0x24
 1009 0298 0E       		.uleb128 0xe
 1010 0299 73220000 		.4byte	.LASF32
 1011 029d 05       		.byte	0x5
 1012 029e 43       		.byte	0x43
 1013 029f CB000000 		.4byte	0xcb
 1014 02a3 28       		.byte	0x28
 1015 02a4 0E       		.uleb128 0xe
 1016 02a5 531E0000 		.4byte	.LASF33
 1017 02a9 05       		.byte	0x5
 1018 02aa 44       		.byte	0x44
 1019 02ab CB000000 		.4byte	0xcb
 1020 02af 29       		.byte	0x29
 1021 02b0 0E       		.uleb128 0xe
 1022 02b1 A40A0000 		.4byte	.LASF34
 1023 02b5 05       		.byte	0x5
 1024 02b6 45       		.byte	0x45
 1025 02b7 CB000000 		.4byte	0xcb
 1026 02bb 2A       		.byte	0x2a
 1027 02bc 0E       		.uleb128 0xe
 1028 02bd 39200000 		.4byte	.LASF35
 1029 02c1 05       		.byte	0x5
 1030 02c2 46       		.byte	0x46
 1031 02c3 CB000000 		.4byte	0xcb
 1032 02c7 2B       		.byte	0x2b
 1033 02c8 0E       		.uleb128 0xe
 1034 02c9 9D370000 		.4byte	.LASF36
 1035 02cd 05       		.byte	0x5
 1036 02ce 47       		.byte	0x47
 1037 02cf CB000000 		.4byte	0xcb
 1038 02d3 2C       		.byte	0x2c
 1039 02d4 0E       		.uleb128 0xe
 1040 02d5 8D3C0000 		.4byte	.LASF37
 1041 02d9 05       		.byte	0x5
 1042 02da 48       		.byte	0x48
 1043 02db CB000000 		.4byte	0xcb
 1044 02df 2D       		.byte	0x2d
 1045 02e0 0E       		.uleb128 0xe
 1046 02e1 09130000 		.4byte	.LASF38
 1047 02e5 05       		.byte	0x5
 1048 02e6 49       		.byte	0x49
 1049 02e7 CB000000 		.4byte	0xcb
 1050 02eb 2E       		.byte	0x2e
 1051 02ec 0E       		.uleb128 0xe
 1052 02ed 38130000 		.4byte	.LASF39
 1053 02f1 05       		.byte	0x5
 1054 02f2 4A       		.byte	0x4a
 1055 02f3 CB000000 		.4byte	0xcb
 1056 02f7 2F       		.byte	0x2f
 1057 02f8 0E       		.uleb128 0xe
 1058 02f9 7F470000 		.4byte	.LASF40
 1059 02fd 05       		.byte	0x5
 1060 02fe 4B       		.byte	0x4b
ARM GAS  C:\Users\ASUS\AppData\Local\Temp\cczm8cZa.s 			page 50


 1061 02ff CB000000 		.4byte	0xcb
 1062 0303 30       		.byte	0x30
 1063 0304 0E       		.uleb128 0xe
 1064 0305 6E1B0000 		.4byte	.LASF41
 1065 0309 05       		.byte	0x5
 1066 030a 4E       		.byte	0x4e
 1067 030b CB000000 		.4byte	0xcb
 1068 030f 31       		.byte	0x31
 1069 0310 0E       		.uleb128 0xe
 1070 0311 EB0A0000 		.4byte	.LASF42
 1071 0315 05       		.byte	0x5
 1072 0316 4F       		.byte	0x4f
 1073 0317 CB000000 		.4byte	0xcb
 1074 031b 32       		.byte	0x32
 1075 031c 0E       		.uleb128 0xe
 1076 031d 41010000 		.4byte	.LASF43
 1077 0321 05       		.byte	0x5
 1078 0322 50       		.byte	0x50
 1079 0323 CB000000 		.4byte	0xcb
 1080 0327 33       		.byte	0x33
 1081 0328 0E       		.uleb128 0xe
 1082 0329 CE460000 		.4byte	.LASF44
 1083 032d 05       		.byte	0x5
 1084 032e 51       		.byte	0x51
 1085 032f CB000000 		.4byte	0xcb
 1086 0333 34       		.byte	0x34
 1087 0334 0E       		.uleb128 0xe
 1088 0335 01570000 		.4byte	.LASF45
 1089 0339 05       		.byte	0x5
 1090 033a 52       		.byte	0x52
 1091 033b D6000000 		.4byte	0xd6
 1092 033f 36       		.byte	0x36
 1093 0340 0E       		.uleb128 0xe
 1094 0341 E0440000 		.4byte	.LASF46
 1095 0345 05       		.byte	0x5
 1096 0346 53       		.byte	0x53
 1097 0347 D6000000 		.4byte	0xd6
 1098 034b 38       		.byte	0x38
 1099 034c 0E       		.uleb128 0xe
 1100 034d C3340000 		.4byte	.LASF47
 1101 0351 05       		.byte	0x5
 1102 0352 54       		.byte	0x54
 1103 0353 D6000000 		.4byte	0xd6
 1104 0357 3A       		.byte	0x3a
 1105 0358 0E       		.uleb128 0xe
 1106 0359 873D0000 		.4byte	.LASF48
 1107 035d 05       		.byte	0x5
 1108 035e 55       		.byte	0x55
 1109 035f CB000000 		.4byte	0xcb
 1110 0363 3C       		.byte	0x3c
 1111 0364 0E       		.uleb128 0xe
 1112 0365 39050000 		.4byte	.LASF49
 1113 0369 05       		.byte	0x5
 1114 036a 56       		.byte	0x56
 1115 036b CB000000 		.4byte	0xcb
 1116 036f 3D       		.byte	0x3d
 1117 0370 0E       		.uleb128 0xe
ARM GAS  C:\Users\ASUS\AppData\Local\Temp\cczm8cZa.s 			page 51


 1118 0371 57230000 		.4byte	.LASF50
 1119 0375 05       		.byte	0x5
 1120 0376 57       		.byte	0x57
 1121 0377 CB000000 		.4byte	0xcb
 1122 037b 3E       		.byte	0x3e
 1123 037c 0E       		.uleb128 0xe
 1124 037d 6D520000 		.4byte	.LASF51
 1125 0381 05       		.byte	0x5
 1126 0382 58       		.byte	0x58
 1127 0383 CB000000 		.4byte	0xcb
 1128 0387 3F       		.byte	0x3f
 1129 0388 0E       		.uleb128 0xe
 1130 0389 9E1B0000 		.4byte	.LASF52
 1131 038d 05       		.byte	0x5
 1132 038e 59       		.byte	0x59
 1133 038f CB000000 		.4byte	0xcb
 1134 0393 40       		.byte	0x40
 1135 0394 0E       		.uleb128 0xe
 1136 0395 892C0000 		.4byte	.LASF53
 1137 0399 05       		.byte	0x5
 1138 039a 5A       		.byte	0x5a
 1139 039b CB000000 		.4byte	0xcb
 1140 039f 41       		.byte	0x41
 1141 03a0 0E       		.uleb128 0xe
 1142 03a1 75510000 		.4byte	.LASF54
 1143 03a5 05       		.byte	0x5
 1144 03a6 5B       		.byte	0x5b
 1145 03a7 CB000000 		.4byte	0xcb
 1146 03ab 42       		.byte	0x42
 1147 03ac 0E       		.uleb128 0xe
 1148 03ad 95510000 		.4byte	.LASF55
 1149 03b1 05       		.byte	0x5
 1150 03b2 5C       		.byte	0x5c
 1151 03b3 CB000000 		.4byte	0xcb
 1152 03b7 43       		.byte	0x43
 1153 03b8 0E       		.uleb128 0xe
 1154 03b9 18010000 		.4byte	.LASF56
 1155 03bd 05       		.byte	0x5
 1156 03be 5D       		.byte	0x5d
 1157 03bf CB000000 		.4byte	0xcb
 1158 03c3 44       		.byte	0x44
 1159 03c4 0E       		.uleb128 0xe
 1160 03c5 D53B0000 		.4byte	.LASF57
 1161 03c9 05       		.byte	0x5
 1162 03ca 5E       		.byte	0x5e
 1163 03cb EC000000 		.4byte	0xec
 1164 03cf 48       		.byte	0x48
 1165 03d0 0E       		.uleb128 0xe
 1166 03d1 9F240000 		.4byte	.LASF58
 1167 03d5 05       		.byte	0x5
 1168 03d6 5F       		.byte	0x5f
 1169 03d7 EC000000 		.4byte	0xec
 1170 03db 4C       		.byte	0x4c
 1171 03dc 0E       		.uleb128 0xe
 1172 03dd 97300000 		.4byte	.LASF59
 1173 03e1 05       		.byte	0x5
 1174 03e2 60       		.byte	0x60
ARM GAS  C:\Users\ASUS\AppData\Local\Temp\cczm8cZa.s 			page 52


 1175 03e3 CB000000 		.4byte	0xcb
 1176 03e7 50       		.byte	0x50
 1177 03e8 0E       		.uleb128 0xe
 1178 03e9 97230000 		.4byte	.LASF60
 1179 03ed 05       		.byte	0x5
 1180 03ee 61       		.byte	0x61
 1181 03ef CB000000 		.4byte	0xcb
 1182 03f3 51       		.byte	0x51
 1183 03f4 0E       		.uleb128 0xe
 1184 03f5 AF430000 		.4byte	.LASF61
 1185 03f9 05       		.byte	0x5
 1186 03fa 62       		.byte	0x62
 1187 03fb CB000000 		.4byte	0xcb
 1188 03ff 52       		.byte	0x52
 1189 0400 0E       		.uleb128 0xe
 1190 0401 0B4F0000 		.4byte	.LASF62
 1191 0405 05       		.byte	0x5
 1192 0406 63       		.byte	0x63
 1193 0407 CB000000 		.4byte	0xcb
 1194 040b 53       		.byte	0x53
 1195 040c 0E       		.uleb128 0xe
 1196 040d 15250000 		.4byte	.LASF63
 1197 0411 05       		.byte	0x5
 1198 0412 64       		.byte	0x64
 1199 0413 CB000000 		.4byte	0xcb
 1200 0417 54       		.byte	0x54
 1201 0418 0E       		.uleb128 0xe
 1202 0419 B83D0000 		.4byte	.LASF64
 1203 041d 05       		.byte	0x5
 1204 041e 65       		.byte	0x65
 1205 041f CB000000 		.4byte	0xcb
 1206 0423 55       		.byte	0x55
 1207 0424 0E       		.uleb128 0xe
 1208 0425 414C0000 		.4byte	.LASF65
 1209 0429 05       		.byte	0x5
 1210 042a 66       		.byte	0x66
 1211 042b CB000000 		.4byte	0xcb
 1212 042f 56       		.byte	0x56
 1213 0430 0E       		.uleb128 0xe
 1214 0431 8A570000 		.4byte	.LASF66
 1215 0435 05       		.byte	0x5
 1216 0436 67       		.byte	0x67
 1217 0437 CB000000 		.4byte	0xcb
 1218 043b 57       		.byte	0x57
 1219 043c 0E       		.uleb128 0xe
 1220 043d 55090000 		.4byte	.LASF67
 1221 0441 05       		.byte	0x5
 1222 0442 68       		.byte	0x68
 1223 0443 CB000000 		.4byte	0xcb
 1224 0447 58       		.byte	0x58
 1225 0448 0E       		.uleb128 0xe
 1226 0449 71180000 		.4byte	.LASF68
 1227 044d 05       		.byte	0x5
 1228 044e 69       		.byte	0x69
 1229 044f CB000000 		.4byte	0xcb
 1230 0453 59       		.byte	0x59
 1231 0454 0E       		.uleb128 0xe
ARM GAS  C:\Users\ASUS\AppData\Local\Temp\cczm8cZa.s 			page 53


 1232 0455 AA3B0000 		.4byte	.LASF69
 1233 0459 05       		.byte	0x5
 1234 045a 6E       		.byte	0x6e
 1235 045b E1000000 		.4byte	0xe1
 1236 045f 5A       		.byte	0x5a
 1237 0460 0E       		.uleb128 0xe
 1238 0461 4B1D0000 		.4byte	.LASF70
 1239 0465 05       		.byte	0x5
 1240 0466 6F       		.byte	0x6f
 1241 0467 E1000000 		.4byte	0xe1
 1242 046b 5C       		.byte	0x5c
 1243 046c 0E       		.uleb128 0xe
 1244 046d F81A0000 		.4byte	.LASF71
 1245 0471 05       		.byte	0x5
 1246 0472 70       		.byte	0x70
 1247 0473 CB000000 		.4byte	0xcb
 1248 0477 5E       		.byte	0x5e
 1249 0478 0E       		.uleb128 0xe
 1250 0479 7B330000 		.4byte	.LASF72
 1251 047d 05       		.byte	0x5
 1252 047e 71       		.byte	0x71
 1253 047f CB000000 		.4byte	0xcb
 1254 0483 5F       		.byte	0x5f
 1255 0484 0E       		.uleb128 0xe
 1256 0485 D3050000 		.4byte	.LASF73
 1257 0489 05       		.byte	0x5
 1258 048a 72       		.byte	0x72
 1259 048b CB000000 		.4byte	0xcb
 1260 048f 60       		.byte	0x60
 1261 0490 0E       		.uleb128 0xe
 1262 0491 46290000 		.4byte	.LASF74
 1263 0495 05       		.byte	0x5
 1264 0496 73       		.byte	0x73
 1265 0497 EC000000 		.4byte	0xec
 1266 049b 64       		.byte	0x64
 1267 049c 0E       		.uleb128 0xe
 1268 049d 7D3C0000 		.4byte	.LASF75
 1269 04a1 05       		.byte	0x5
 1270 04a2 76       		.byte	0x76
 1271 04a3 E1000000 		.4byte	0xe1
 1272 04a7 68       		.byte	0x68
 1273 04a8 0E       		.uleb128 0xe
 1274 04a9 15520000 		.4byte	.LASF76
 1275 04ad 05       		.byte	0x5
 1276 04ae 77       		.byte	0x77
 1277 04af E1000000 		.4byte	0xe1
 1278 04b3 6A       		.byte	0x6a
 1279 04b4 0E       		.uleb128 0xe
 1280 04b5 9E080000 		.4byte	.LASF77
 1281 04b9 05       		.byte	0x5
 1282 04ba 78       		.byte	0x78
 1283 04bb E1000000 		.4byte	0xe1
 1284 04bf 6C       		.byte	0x6c
 1285 04c0 0E       		.uleb128 0xe
 1286 04c1 A1500000 		.4byte	.LASF78
 1287 04c5 05       		.byte	0x5
 1288 04c6 79       		.byte	0x79
ARM GAS  C:\Users\ASUS\AppData\Local\Temp\cczm8cZa.s 			page 54


 1289 04c7 E1000000 		.4byte	0xe1
 1290 04cb 6E       		.byte	0x6e
 1291 04cc 0E       		.uleb128 0xe
 1292 04cd E2080000 		.4byte	.LASF79
 1293 04d1 05       		.byte	0x5
 1294 04d2 7B       		.byte	0x7b
 1295 04d3 CB000000 		.4byte	0xcb
 1296 04d7 70       		.byte	0x70
 1297 04d8 0E       		.uleb128 0xe
 1298 04d9 58190000 		.4byte	.LASF80
 1299 04dd 05       		.byte	0x5
 1300 04de 7C       		.byte	0x7c
 1301 04df CB000000 		.4byte	0xcb
 1302 04e3 71       		.byte	0x71
 1303 04e4 0E       		.uleb128 0xe
 1304 04e5 14130000 		.4byte	.LASF81
 1305 04e9 05       		.byte	0x5
 1306 04ea 7D       		.byte	0x7d
 1307 04eb CB000000 		.4byte	0xcb
 1308 04ef 72       		.byte	0x72
 1309 04f0 0E       		.uleb128 0xe
 1310 04f1 E01E0000 		.4byte	.LASF82
 1311 04f5 05       		.byte	0x5
 1312 04f6 7E       		.byte	0x7e
 1313 04f7 CB000000 		.4byte	0xcb
 1314 04fb 73       		.byte	0x73
 1315 04fc 0E       		.uleb128 0xe
 1316 04fd 0E1F0000 		.4byte	.LASF83
 1317 0501 05       		.byte	0x5
 1318 0502 80       		.byte	0x80
 1319 0503 E1000000 		.4byte	0xe1
 1320 0507 74       		.byte	0x74
 1321 0508 0E       		.uleb128 0xe
 1322 0509 481C0000 		.4byte	.LASF84
 1323 050d 05       		.byte	0x5
 1324 050e 81       		.byte	0x81
 1325 050f E1000000 		.4byte	0xe1
 1326 0513 76       		.byte	0x76
 1327 0514 0E       		.uleb128 0xe
 1328 0515 8B4B0000 		.4byte	.LASF85
 1329 0519 05       		.byte	0x5
 1330 051a 82       		.byte	0x82
 1331 051b E1000000 		.4byte	0xe1
 1332 051f 78       		.byte	0x78
 1333 0520 0E       		.uleb128 0xe
 1334 0521 6C420000 		.4byte	.LASF86
 1335 0525 05       		.byte	0x5
 1336 0526 83       		.byte	0x83
 1337 0527 E1000000 		.4byte	0xe1
 1338 052b 7A       		.byte	0x7a
 1339 052c 0E       		.uleb128 0xe
 1340 052d 363C0000 		.4byte	.LASF87
 1341 0531 05       		.byte	0x5
 1342 0532 86       		.byte	0x86
 1343 0533 CB000000 		.4byte	0xcb
 1344 0537 7C       		.byte	0x7c
 1345 0538 0E       		.uleb128 0xe
ARM GAS  C:\Users\ASUS\AppData\Local\Temp\cczm8cZa.s 			page 55


 1346 0539 B3540000 		.4byte	.LASF88
 1347 053d 05       		.byte	0x5
 1348 053e 87       		.byte	0x87
 1349 053f CB000000 		.4byte	0xcb
 1350 0543 7D       		.byte	0x7d
 1351 0544 0E       		.uleb128 0xe
 1352 0545 AD5A0000 		.4byte	.LASF89
 1353 0549 05       		.byte	0x5
 1354 054a 88       		.byte	0x88
 1355 054b CB000000 		.4byte	0xcb
 1356 054f 7E       		.byte	0x7e
 1357 0550 0E       		.uleb128 0xe
 1358 0551 CC1E0000 		.4byte	.LASF90
 1359 0555 05       		.byte	0x5
 1360 0556 89       		.byte	0x89
 1361 0557 CB000000 		.4byte	0xcb
 1362 055b 7F       		.byte	0x7f
 1363 055c 0E       		.uleb128 0xe
 1364 055d F3060000 		.4byte	.LASF91
 1365 0561 05       		.byte	0x5
 1366 0562 8A       		.byte	0x8a
 1367 0563 CB000000 		.4byte	0xcb
 1368 0567 80       		.byte	0x80
 1369 0568 0E       		.uleb128 0xe
 1370 0569 D4520000 		.4byte	.LASF92
 1371 056d 05       		.byte	0x5
 1372 056e 8D       		.byte	0x8d
 1373 056f EC000000 		.4byte	0xec
 1374 0573 84       		.byte	0x84
 1375 0574 0E       		.uleb128 0xe
 1376 0575 64330000 		.4byte	.LASF93
 1377 0579 05       		.byte	0x5
 1378 057a 8E       		.byte	0x8e
 1379 057b EC000000 		.4byte	0xec
 1380 057f 88       		.byte	0x88
 1381 0580 0E       		.uleb128 0xe
 1382 0581 27210000 		.4byte	.LASF94
 1383 0585 05       		.byte	0x5
 1384 0586 8F       		.byte	0x8f
 1385 0587 EC000000 		.4byte	0xec
 1386 058b 8C       		.byte	0x8c
 1387 058c 0E       		.uleb128 0xe
 1388 058d BE4D0000 		.4byte	.LASF95
 1389 0591 05       		.byte	0x5
 1390 0592 90       		.byte	0x90
 1391 0593 EC000000 		.4byte	0xec
 1392 0597 90       		.byte	0x90
 1393 0598 0E       		.uleb128 0xe
 1394 0599 9A430000 		.4byte	.LASF96
 1395 059d 05       		.byte	0x5
 1396 059e 91       		.byte	0x91
 1397 059f EC000000 		.4byte	0xec
 1398 05a3 94       		.byte	0x94
 1399 05a4 0E       		.uleb128 0xe
 1400 05a5 9C0B0000 		.4byte	.LASF97
 1401 05a9 05       		.byte	0x5
 1402 05aa 92       		.byte	0x92
ARM GAS  C:\Users\ASUS\AppData\Local\Temp\cczm8cZa.s 			page 56


 1403 05ab EC000000 		.4byte	0xec
 1404 05af 98       		.byte	0x98
 1405 05b0 0E       		.uleb128 0xe
 1406 05b1 E9260000 		.4byte	.LASF98
 1407 05b5 05       		.byte	0x5
 1408 05b6 93       		.byte	0x93
 1409 05b7 EC000000 		.4byte	0xec
 1410 05bb 9C       		.byte	0x9c
 1411 05bc 0E       		.uleb128 0xe
 1412 05bd EA100000 		.4byte	.LASF99
 1413 05c1 05       		.byte	0x5
 1414 05c2 94       		.byte	0x94
 1415 05c3 EC000000 		.4byte	0xec
 1416 05c7 A0       		.byte	0xa0
 1417 05c8 0E       		.uleb128 0xe
 1418 05c9 4B180000 		.4byte	.LASF100
 1419 05cd 05       		.byte	0x5
 1420 05ce 95       		.byte	0x95
 1421 05cf E1000000 		.4byte	0xe1
 1422 05d3 A4       		.byte	0xa4
 1423 05d4 0E       		.uleb128 0xe
 1424 05d5 4A4D0000 		.4byte	.LASF101
 1425 05d9 05       		.byte	0x5
 1426 05da 96       		.byte	0x96
 1427 05db E1000000 		.4byte	0xe1
 1428 05df A6       		.byte	0xa6
 1429 05e0 0E       		.uleb128 0xe
 1430 05e1 9C220000 		.4byte	.LASF102
 1431 05e5 05       		.byte	0x5
 1432 05e6 97       		.byte	0x97
 1433 05e7 E1000000 		.4byte	0xe1
 1434 05eb A8       		.byte	0xa8
 1435 05ec 0E       		.uleb128 0xe
 1436 05ed 2B170000 		.4byte	.LASF103
 1437 05f1 05       		.byte	0x5
 1438 05f2 98       		.byte	0x98
 1439 05f3 E1000000 		.4byte	0xe1
 1440 05f7 AA       		.byte	0xaa
 1441 05f8 0E       		.uleb128 0xe
 1442 05f9 C2230000 		.4byte	.LASF104
 1443 05fd 05       		.byte	0x5
 1444 05fe 99       		.byte	0x99
 1445 05ff E1000000 		.4byte	0xe1
 1446 0603 AC       		.byte	0xac
 1447 0604 0E       		.uleb128 0xe
 1448 0605 3E340000 		.4byte	.LASF105
 1449 0609 05       		.byte	0x5
 1450 060a 9A       		.byte	0x9a
 1451 060b E1000000 		.4byte	0xe1
 1452 060f AE       		.byte	0xae
 1453 0610 0E       		.uleb128 0xe
 1454 0611 EA450000 		.4byte	.LASF106
 1455 0615 05       		.byte	0x5
 1456 0616 9D       		.byte	0x9d
 1457 0617 E1000000 		.4byte	0xe1
 1458 061b B0       		.byte	0xb0
 1459 061c 0E       		.uleb128 0xe
ARM GAS  C:\Users\ASUS\AppData\Local\Temp\cczm8cZa.s 			page 57


 1460 061d 5D490000 		.4byte	.LASF107
 1461 0621 05       		.byte	0x5
 1462 0622 9E       		.byte	0x9e
 1463 0623 EC000000 		.4byte	0xec
 1464 0627 B4       		.byte	0xb4
 1465 0628 00       		.byte	0
 1466 0629 04       		.uleb128 0x4
 1467 062a 57580000 		.4byte	.LASF108
 1468 062e 05       		.byte	0x5
 1469 062f 9F       		.byte	0x9f
 1470 0630 18020000 		.4byte	0x218
 1471 0634 0F       		.uleb128 0xf
 1472 0635 02       		.byte	0x2
 1473 0636 70000000 		.4byte	0x70
 1474 063a 06       		.byte	0x6
 1475 063b 24       		.byte	0x24
 1476 063c 2B070000 		.4byte	0x72b
 1477 0640 10       		.uleb128 0x10
 1478 0641 00560000 		.4byte	.LASF109
 1479 0645 71       		.sleb128 -15
 1480 0646 10       		.uleb128 0x10
 1481 0647 D1160000 		.4byte	.LASF110
 1482 064b 72       		.sleb128 -14
 1483 064c 10       		.uleb128 0x10
 1484 064d 40330000 		.4byte	.LASF111
 1485 0651 73       		.sleb128 -13
 1486 0652 10       		.uleb128 0x10
 1487 0653 AD580000 		.4byte	.LASF112
 1488 0657 7B       		.sleb128 -5
 1489 0658 10       		.uleb128 0x10
 1490 0659 65590000 		.4byte	.LASF113
 1491 065d 7E       		.sleb128 -2
 1492 065e 10       		.uleb128 0x10
 1493 065f 94100000 		.4byte	.LASF114
 1494 0663 7F       		.sleb128 -1
 1495 0664 11       		.uleb128 0x11
 1496 0665 3C390000 		.4byte	.LASF115
 1497 0669 00       		.byte	0
 1498 066a 11       		.uleb128 0x11
 1499 066b A5540000 		.4byte	.LASF116
 1500 066f 01       		.byte	0x1
 1501 0670 11       		.uleb128 0x11
 1502 0671 38150000 		.4byte	.LASF117
 1503 0675 02       		.byte	0x2
 1504 0676 11       		.uleb128 0x11
 1505 0677 12330000 		.4byte	.LASF118
 1506 067b 03       		.byte	0x3
 1507 067c 11       		.uleb128 0x11
 1508 067d 93500000 		.4byte	.LASF119
 1509 0681 04       		.byte	0x4
 1510 0682 11       		.uleb128 0x11
 1511 0683 AC0F0000 		.4byte	.LASF120
 1512 0687 05       		.byte	0x5
 1513 0688 11       		.uleb128 0x11
 1514 0689 0F2C0000 		.4byte	.LASF121
 1515 068d 06       		.byte	0x6
 1516 068e 11       		.uleb128 0x11
ARM GAS  C:\Users\ASUS\AppData\Local\Temp\cczm8cZa.s 			page 58


 1517 068f AE4B0000 		.4byte	.LASF122
 1518 0693 07       		.byte	0x7
 1519 0694 11       		.uleb128 0x11
 1520 0695 50080000 		.4byte	.LASF123
 1521 0699 08       		.byte	0x8
 1522 069a 11       		.uleb128 0x11
 1523 069b 51250000 		.4byte	.LASF124
 1524 069f 09       		.byte	0x9
 1525 06a0 11       		.uleb128 0x11
 1526 06a1 CF040000 		.4byte	.LASF125
 1527 06a5 0A       		.byte	0xa
 1528 06a6 11       		.uleb128 0x11
 1529 06a7 40220000 		.4byte	.LASF126
 1530 06ab 0B       		.byte	0xb
 1531 06ac 11       		.uleb128 0x11
 1532 06ad 6F400000 		.4byte	.LASF127
 1533 06b1 0C       		.byte	0xc
 1534 06b2 11       		.uleb128 0x11
 1535 06b3 8A5A0000 		.4byte	.LASF128
 1536 06b7 0D       		.byte	0xd
 1537 06b8 11       		.uleb128 0x11
 1538 06b9 3C1D0000 		.4byte	.LASF129
 1539 06bd 0E       		.byte	0xe
 1540 06be 11       		.uleb128 0x11
 1541 06bf 243A0000 		.4byte	.LASF130
 1542 06c3 0F       		.byte	0xf
 1543 06c4 11       		.uleb128 0x11
 1544 06c5 0B560000 		.4byte	.LASF131
 1545 06c9 10       		.byte	0x10
 1546 06ca 11       		.uleb128 0x11
 1547 06cb 1C170000 		.4byte	.LASF132
 1548 06cf 11       		.byte	0x11
 1549 06d0 11       		.uleb128 0x11
 1550 06d1 09340000 		.4byte	.LASF133
 1551 06d5 12       		.byte	0x12
 1552 06d6 11       		.uleb128 0x11
 1553 06d7 66510000 		.4byte	.LASF134
 1554 06db 13       		.byte	0x13
 1555 06dc 11       		.uleb128 0x11
 1556 06dd 2A590000 		.4byte	.LASF135
 1557 06e1 14       		.byte	0x14
 1558 06e2 11       		.uleb128 0x11
 1559 06e3 1B1B0000 		.4byte	.LASF136
 1560 06e7 15       		.byte	0x15
 1561 06e8 11       		.uleb128 0x11
 1562 06e9 05380000 		.4byte	.LASF137
 1563 06ed 16       		.byte	0x16
 1564 06ee 11       		.uleb128 0x11
 1565 06ef 8A540000 		.4byte	.LASF138
 1566 06f3 17       		.byte	0x17
 1567 06f4 11       		.uleb128 0x11
 1568 06f5 1E150000 		.4byte	.LASF139
 1569 06f9 18       		.byte	0x18
 1570 06fa 11       		.uleb128 0x11
 1571 06fb 98310000 		.4byte	.LASF140
 1572 06ff 19       		.byte	0x19
 1573 0700 11       		.uleb128 0x11
ARM GAS  C:\Users\ASUS\AppData\Local\Temp\cczm8cZa.s 			page 59


 1574 0701 7E4F0000 		.4byte	.LASF141
 1575 0705 1A       		.byte	0x1a
 1576 0706 11       		.uleb128 0x11
 1577 0707 0A0F0000 		.4byte	.LASF142
 1578 070b 1B       		.byte	0x1b
 1579 070c 11       		.uleb128 0x11
 1580 070d 192B0000 		.4byte	.LASF143
 1581 0711 1C       		.byte	0x1c
 1582 0712 11       		.uleb128 0x11
 1583 0713 944A0000 		.4byte	.LASF144
 1584 0717 1D       		.byte	0x1d
 1585 0718 11       		.uleb128 0x11
 1586 0719 AD520000 		.4byte	.LASF145
 1587 071d 1E       		.byte	0x1e
 1588 071e 11       		.uleb128 0x11
 1589 071f 10120000 		.4byte	.LASF146
 1590 0723 1F       		.byte	0x1f
 1591 0724 11       		.uleb128 0x11
 1592 0725 60180000 		.4byte	.LASF147
 1593 0729 F0       		.byte	0xf0
 1594 072a 00       		.byte	0
 1595 072b 04       		.uleb128 0x4
 1596 072c CA480000 		.4byte	.LASF148
 1597 0730 06       		.byte	0x6
 1598 0731 F4       		.byte	0xf4
 1599 0732 34060000 		.4byte	0x634
 1600 0736 0F       		.uleb128 0xf
 1601 0737 01       		.byte	0x1
 1602 0738 5E000000 		.4byte	0x5e
 1603 073c 06       		.byte	0x6
 1604 073d FD       		.byte	0xfd
 1605 073e BB0A0000 		.4byte	0xabb
 1606 0742 11       		.uleb128 0x11
 1607 0743 9F320000 		.4byte	.LASF149
 1608 0747 00       		.byte	0
 1609 0748 11       		.uleb128 0x11
 1610 0749 64500000 		.4byte	.LASF150
 1611 074d 01       		.byte	0x1
 1612 074e 11       		.uleb128 0x11
 1613 074f 440F0000 		.4byte	.LASF151
 1614 0753 02       		.byte	0x2
 1615 0754 11       		.uleb128 0x11
 1616 0755 B52B0000 		.4byte	.LASF152
 1617 0759 03       		.byte	0x3
 1618 075a 11       		.uleb128 0x11
 1619 075b 6F4B0000 		.4byte	.LASF153
 1620 075f 04       		.byte	0x4
 1621 0760 11       		.uleb128 0x11
 1622 0761 95070000 		.4byte	.LASF154
 1623 0765 05       		.byte	0x5
 1624 0766 11       		.uleb128 0x11
 1625 0767 E8240000 		.4byte	.LASF155
 1626 076b 06       		.byte	0x6
 1627 076c 11       		.uleb128 0x11
 1628 076d 82450000 		.4byte	.LASF156
 1629 0771 07       		.byte	0x7
 1630 0772 11       		.uleb128 0x11
ARM GAS  C:\Users\ASUS\AppData\Local\Temp\cczm8cZa.s 			page 60


 1631 0773 F1010000 		.4byte	.LASF157
 1632 0777 08       		.byte	0x8
 1633 0778 11       		.uleb128 0x11
 1634 0779 66200000 		.4byte	.LASF158
 1635 077d 09       		.byte	0x9
 1636 077e 11       		.uleb128 0x11
 1637 077f E4340000 		.4byte	.LASF159
 1638 0783 0A       		.byte	0xa
 1639 0784 11       		.uleb128 0x11
 1640 0785 F8510000 		.4byte	.LASF160
 1641 0789 0B       		.byte	0xb
 1642 078a 11       		.uleb128 0x11
 1643 078b 41110000 		.4byte	.LASF161
 1644 078f 0C       		.byte	0xc
 1645 0790 11       		.uleb128 0x11
 1646 0791 2C2D0000 		.4byte	.LASF162
 1647 0795 0D       		.byte	0xd
 1648 0796 11       		.uleb128 0x11
 1649 0797 2D4D0000 		.4byte	.LASF163
 1650 079b 0E       		.byte	0xe
 1651 079c 11       		.uleb128 0x11
 1652 079d BC310000 		.4byte	.LASF164
 1653 07a1 0F       		.byte	0xf
 1654 07a2 11       		.uleb128 0x11
 1655 07a3 B8510000 		.4byte	.LASF165
 1656 07a7 10       		.byte	0x10
 1657 07a8 11       		.uleb128 0x11
 1658 07a9 63290000 		.4byte	.LASF166
 1659 07ad 11       		.byte	0x11
 1660 07ae 11       		.uleb128 0x11
 1661 07af B2020000 		.4byte	.LASF167
 1662 07b3 12       		.byte	0x12
 1663 07b4 11       		.uleb128 0x11
 1664 07b5 E9050000 		.4byte	.LASF168
 1665 07b9 13       		.byte	0x13
 1666 07ba 11       		.uleb128 0x11
 1667 07bb DF220000 		.4byte	.LASF169
 1668 07bf 14       		.byte	0x14
 1669 07c0 11       		.uleb128 0x11
 1670 07c1 112D0000 		.4byte	.LASF170
 1671 07c5 15       		.byte	0x15
 1672 07c6 11       		.uleb128 0x11
 1673 07c7 71070000 		.4byte	.LASF171
 1674 07cb 16       		.byte	0x16
 1675 07cc 11       		.uleb128 0x11
 1676 07cd 055A0000 		.4byte	.LASF172
 1677 07d1 17       		.byte	0x17
 1678 07d2 11       		.uleb128 0x11
 1679 07d3 5C210000 		.4byte	.LASF173
 1680 07d7 18       		.byte	0x18
 1681 07d8 11       		.uleb128 0x11
 1682 07d9 BA590000 		.4byte	.LASF174
 1683 07dd 19       		.byte	0x19
 1684 07de 11       		.uleb128 0x11
 1685 07df C9420000 		.4byte	.LASF175
 1686 07e3 1A       		.byte	0x1a
 1687 07e4 11       		.uleb128 0x11
ARM GAS  C:\Users\ASUS\AppData\Local\Temp\cczm8cZa.s 			page 61


 1688 07e5 A8380000 		.4byte	.LASF176
 1689 07e9 1B       		.byte	0x1b
 1690 07ea 11       		.uleb128 0x11
 1691 07eb F8540000 		.4byte	.LASF177
 1692 07ef 1C       		.byte	0x1c
 1693 07f0 11       		.uleb128 0x11
 1694 07f1 031A0000 		.4byte	.LASF178
 1695 07f5 1D       		.byte	0x1d
 1696 07f6 11       		.uleb128 0x11
 1697 07f7 83320000 		.4byte	.LASF179
 1698 07fb 1E       		.byte	0x1e
 1699 07fc 11       		.uleb128 0x11
 1700 07fd 48500000 		.4byte	.LASF180
 1701 0801 1F       		.byte	0x1f
 1702 0802 11       		.uleb128 0x11
 1703 0803 AE500000 		.4byte	.LASF181
 1704 0807 20       		.byte	0x20
 1705 0808 11       		.uleb128 0x11
 1706 0809 992B0000 		.4byte	.LASF182
 1707 080d 21       		.byte	0x21
 1708 080e 11       		.uleb128 0x11
 1709 080f 534B0000 		.4byte	.LASF183
 1710 0813 22       		.byte	0x22
 1711 0814 11       		.uleb128 0x11
 1712 0815 38090000 		.4byte	.LASF184
 1713 0819 23       		.byte	0x23
 1714 081a 11       		.uleb128 0x11
 1715 081b FB250000 		.4byte	.LASF185
 1716 081f 24       		.byte	0x24
 1717 0820 11       		.uleb128 0x11
 1718 0821 2A460000 		.4byte	.LASF186
 1719 0825 25       		.byte	0x25
 1720 0826 11       		.uleb128 0x11
 1721 0827 29030000 		.4byte	.LASF187
 1722 082b 26       		.byte	0x26
 1723 082c 11       		.uleb128 0x11
 1724 082d 71210000 		.4byte	.LASF188
 1725 0831 27       		.byte	0x27
 1726 0832 11       		.uleb128 0x11
 1727 0833 02400000 		.4byte	.LASF189
 1728 0837 28       		.byte	0x28
 1729 0838 11       		.uleb128 0x11
 1730 0839 AF5B0000 		.4byte	.LASF190
 1731 083d 29       		.byte	0x29
 1732 083e 11       		.uleb128 0x11
 1733 083f 35300000 		.4byte	.LASF191
 1734 0843 2A       		.byte	0x2a
 1735 0844 11       		.uleb128 0x11
 1736 0845 88000000 		.4byte	.LASF192
 1737 0849 2B       		.byte	0x2b
 1738 084a 11       		.uleb128 0x11
 1739 084b ED300000 		.4byte	.LASF193
 1740 084f 2C       		.byte	0x2c
 1741 0850 11       		.uleb128 0x11
 1742 0851 03010000 		.4byte	.LASF194
 1743 0855 2D       		.byte	0x2d
 1744 0856 11       		.uleb128 0x11
ARM GAS  C:\Users\ASUS\AppData\Local\Temp\cczm8cZa.s 			page 62


 1745 0857 A7310000 		.4byte	.LASF195
 1746 085b 2E       		.byte	0x2e
 1747 085c 11       		.uleb128 0x11
 1748 085d DC010000 		.4byte	.LASF196
 1749 0861 2F       		.byte	0x2f
 1750 0862 11       		.uleb128 0x11
 1751 0863 4E320000 		.4byte	.LASF197
 1752 0867 30       		.byte	0x30
 1753 0868 11       		.uleb128 0x11
 1754 0869 13290000 		.4byte	.LASF198
 1755 086d 31       		.byte	0x31
 1756 086e 11       		.uleb128 0x11
 1757 086f 4F220000 		.4byte	.LASF199
 1758 0873 32       		.byte	0x32
 1759 0874 11       		.uleb128 0x11
 1760 0875 68410000 		.4byte	.LASF200
 1761 0879 33       		.byte	0x33
 1762 087a 11       		.uleb128 0x11
 1763 087b 395B0000 		.4byte	.LASF201
 1764 087f 34       		.byte	0x34
 1765 0880 11       		.uleb128 0x11
 1766 0881 541D0000 		.4byte	.LASF202
 1767 0885 35       		.byte	0x35
 1768 0886 11       		.uleb128 0x11
 1769 0887 C53A0000 		.4byte	.LASF203
 1770 088b 36       		.byte	0x36
 1771 088c 11       		.uleb128 0x11
 1772 088d 4F560000 		.4byte	.LASF204
 1773 0891 37       		.byte	0x37
 1774 0892 11       		.uleb128 0x11
 1775 0893 39170000 		.4byte	.LASF205
 1776 0897 38       		.byte	0x38
 1777 0898 11       		.uleb128 0x11
 1778 0899 2C350000 		.4byte	.LASF206
 1779 089d 39       		.byte	0x39
 1780 089e 11       		.uleb128 0x11
 1781 089f 42520000 		.4byte	.LASF207
 1782 08a3 3A       		.byte	0x3a
 1783 08a4 11       		.uleb128 0x11
 1784 08a5 78110000 		.4byte	.LASF208
 1785 08a9 3B       		.byte	0x3b
 1786 08aa 11       		.uleb128 0x11
 1787 08ab 8F4D0000 		.4byte	.LASF209
 1788 08af 3C       		.byte	0x3c
 1789 08b0 11       		.uleb128 0x11
 1790 08b1 C80B0000 		.4byte	.LASF210
 1791 08b5 3D       		.byte	0x3d
 1792 08b6 11       		.uleb128 0x11
 1793 08b7 D4270000 		.4byte	.LASF211
 1794 08bb 3E       		.byte	0x3e
 1795 08bc 11       		.uleb128 0x11
 1796 08bd 39470000 		.4byte	.LASF212
 1797 08c1 3F       		.byte	0x3f
 1798 08c2 11       		.uleb128 0x11
 1799 08c3 93050000 		.4byte	.LASF213
 1800 08c7 40       		.byte	0x40
 1801 08c8 11       		.uleb128 0x11
ARM GAS  C:\Users\ASUS\AppData\Local\Temp\cczm8cZa.s 			page 63


 1802 08c9 A8220000 		.4byte	.LASF214
 1803 08cd 41       		.byte	0x41
 1804 08ce 11       		.uleb128 0x11
 1805 08cf D23D0000 		.4byte	.LASF215
 1806 08d3 42       		.byte	0x42
 1807 08d4 11       		.uleb128 0x11
 1808 08d5 91580000 		.4byte	.LASF216
 1809 08d9 43       		.byte	0x43
 1810 08da 11       		.uleb128 0x11
 1811 08db 1F1A0000 		.4byte	.LASF217
 1812 08df 44       		.byte	0x44
 1813 08e0 11       		.uleb128 0x11
 1814 08e1 4C370000 		.4byte	.LASF218
 1815 08e5 45       		.byte	0x45
 1816 08e6 11       		.uleb128 0x11
 1817 08e7 85530000 		.4byte	.LASF219
 1818 08eb 46       		.byte	0x46
 1819 08ec 11       		.uleb128 0x11
 1820 08ed 07140000 		.4byte	.LASF220
 1821 08f1 47       		.byte	0x47
 1822 08f2 11       		.uleb128 0x11
 1823 08f3 A8300000 		.4byte	.LASF221
 1824 08f7 48       		.byte	0x48
 1825 08f8 11       		.uleb128 0x11
 1826 08f9 C24E0000 		.4byte	.LASF222
 1827 08fd 49       		.byte	0x49
 1828 08fe 11       		.uleb128 0x11
 1829 08ff DC0D0000 		.4byte	.LASF223
 1830 0903 4A       		.byte	0x4a
 1831 0904 11       		.uleb128 0x11
 1832 0905 EE290000 		.4byte	.LASF224
 1833 0909 4B       		.byte	0x4b
 1834 090a 11       		.uleb128 0x11
 1835 090b EE140000 		.4byte	.LASF225
 1836 090f 4C       		.byte	0x4c
 1837 0910 11       		.uleb128 0x11
 1838 0911 11320000 		.4byte	.LASF226
 1839 0915 4D       		.byte	0x4d
 1840 0916 11       		.uleb128 0x11
 1841 0917 DB4F0000 		.4byte	.LASF227
 1842 091b 4E       		.byte	0x4e
 1843 091c 11       		.uleb128 0x11
 1844 091d ED0E0000 		.4byte	.LASF228
 1845 0921 4F       		.byte	0x4f
 1846 0922 11       		.uleb128 0x11
 1847 0923 562B0000 		.4byte	.LASF229
 1848 0927 50       		.byte	0x50
 1849 0928 11       		.uleb128 0x11
 1850 0929 0B4B0000 		.4byte	.LASF230
 1851 092d 51       		.byte	0x51
 1852 092e 11       		.uleb128 0x11
 1853 092f FB220000 		.4byte	.LASF231
 1854 0933 52       		.byte	0x52
 1855 0934 11       		.uleb128 0x11
 1856 0935 AB420000 		.4byte	.LASF232
 1857 0939 53       		.byte	0x53
 1858 093a 11       		.uleb128 0x11
ARM GAS  C:\Users\ASUS\AppData\Local\Temp\cczm8cZa.s 			page 64


 1859 093b E73B0000 		.4byte	.LASF233
 1860 093f 54       		.byte	0x54
 1861 0940 11       		.uleb128 0x11
 1862 0941 5A430000 		.4byte	.LASF234
 1863 0945 55       		.byte	0x55
 1864 0946 11       		.uleb128 0x11
 1865 0947 95340000 		.4byte	.LASF235
 1866 094b 56       		.byte	0x56
 1867 094c 11       		.uleb128 0x11
 1868 094d AD080000 		.4byte	.LASF236
 1869 0951 57       		.byte	0x57
 1870 0952 11       		.uleb128 0x11
 1871 0953 9D130000 		.4byte	.LASF237
 1872 0957 58       		.byte	0x58
 1873 0958 11       		.uleb128 0x11
 1874 0959 06080000 		.4byte	.LASF238
 1875 095d 59       		.byte	0x59
 1876 095e 11       		.uleb128 0x11
 1877 095f 95120000 		.4byte	.LASF239
 1878 0963 5A       		.byte	0x5a
 1879 0964 11       		.uleb128 0x11
 1880 0965 5F2F0000 		.4byte	.LASF240
 1881 0969 5B       		.byte	0x5b
 1882 096a 11       		.uleb128 0x11
 1883 096b F14D0000 		.4byte	.LASF241
 1884 096f 5C       		.byte	0x5c
 1885 0970 11       		.uleb128 0x11
 1886 0971 A10C0000 		.4byte	.LASF242
 1887 0975 5D       		.byte	0x5d
 1888 0976 11       		.uleb128 0x11
 1889 0977 36280000 		.4byte	.LASF243
 1890 097b 5E       		.byte	0x5e
 1891 097c 11       		.uleb128 0x11
 1892 097d 3B480000 		.4byte	.LASF244
 1893 0981 5F       		.byte	0x5f
 1894 0982 11       		.uleb128 0x11
 1895 0983 29060000 		.4byte	.LASF245
 1896 0987 60       		.byte	0x60
 1897 0988 11       		.uleb128 0x11
 1898 0989 C5220000 		.4byte	.LASF246
 1899 098d 61       		.byte	0x61
 1900 098e 11       		.uleb128 0x11
 1901 098f E6550000 		.4byte	.LASF247
 1902 0993 62       		.byte	0x62
 1903 0994 11       		.uleb128 0x11
 1904 0995 B9150000 		.4byte	.LASF248
 1905 0999 63       		.byte	0x63
 1906 099a 11       		.uleb128 0x11
 1907 099b D0330000 		.4byte	.LASF249
 1908 099f 64       		.byte	0x64
 1909 09a0 11       		.uleb128 0x11
 1910 09a1 4C510000 		.4byte	.LASF250
 1911 09a5 65       		.byte	0x65
 1912 09a6 11       		.uleb128 0x11
 1913 09a7 36140000 		.4byte	.LASF251
 1914 09ab 66       		.byte	0x66
 1915 09ac 11       		.uleb128 0x11
ARM GAS  C:\Users\ASUS\AppData\Local\Temp\cczm8cZa.s 			page 65


 1916 09ad A12C0000 		.4byte	.LASF252
 1917 09b1 67       		.byte	0x67
 1918 09b2 11       		.uleb128 0x11
 1919 09b3 554C0000 		.4byte	.LASF253
 1920 09b7 68       		.byte	0x68
 1921 09b8 11       		.uleb128 0x11
 1922 09b9 800A0000 		.4byte	.LASF254
 1923 09bd 69       		.byte	0x69
 1924 09be 11       		.uleb128 0x11
 1925 09bf 18260000 		.4byte	.LASF255
 1926 09c3 6A       		.byte	0x6a
 1927 09c4 11       		.uleb128 0x11
 1928 09c5 47460000 		.4byte	.LASF256
 1929 09c9 6B       		.byte	0x6b
 1930 09ca 11       		.uleb128 0x11
 1931 09cb 23450000 		.4byte	.LASF257
 1932 09cf 6C       		.byte	0x6c
 1933 09d0 11       		.uleb128 0x11
 1934 09d1 0D020000 		.4byte	.LASF258
 1935 09d5 6D       		.byte	0x6d
 1936 09d6 11       		.uleb128 0x11
 1937 09d7 A6200000 		.4byte	.LASF259
 1938 09db 6E       		.byte	0x6e
 1939 09dc 11       		.uleb128 0x11
 1940 09dd CB3E0000 		.4byte	.LASF260
 1941 09e1 6F       		.byte	0x6f
 1942 09e2 11       		.uleb128 0x11
 1943 09e3 E1580000 		.4byte	.LASF261
 1944 09e7 70       		.byte	0x70
 1945 09e8 11       		.uleb128 0x11
 1946 09e9 AB1A0000 		.4byte	.LASF262
 1947 09ed 71       		.byte	0x71
 1948 09ee 11       		.uleb128 0x11
 1949 09ef 66380000 		.4byte	.LASF263
 1950 09f3 72       		.byte	0x72
 1951 09f4 11       		.uleb128 0x11
 1952 09f5 32540000 		.4byte	.LASF264
 1953 09f9 73       		.byte	0x73
 1954 09fa 11       		.uleb128 0x11
 1955 09fb A2140000 		.4byte	.LASF265
 1956 09ff 74       		.byte	0x74
 1957 0a00 11       		.uleb128 0x11
 1958 0a01 F6310000 		.4byte	.LASF266
 1959 0a05 75       		.byte	0x75
 1960 0a06 11       		.uleb128 0x11
 1961 0a07 9A3C0000 		.4byte	.LASF267
 1962 0a0b 76       		.byte	0x76
 1963 0a0c 11       		.uleb128 0x11
 1964 0a0d E6560000 		.4byte	.LASF268
 1965 0a11 77       		.byte	0x77
 1966 0a12 11       		.uleb128 0x11
 1967 0a13 96180000 		.4byte	.LASF269
 1968 0a17 78       		.byte	0x78
 1969 0a18 11       		.uleb128 0x11
 1970 0a19 CE350000 		.4byte	.LASF270
 1971 0a1d 79       		.byte	0x79
 1972 0a1e 11       		.uleb128 0x11
ARM GAS  C:\Users\ASUS\AppData\Local\Temp\cczm8cZa.s 			page 66


 1973 0a1f E5180000 		.4byte	.LASF271
 1974 0a23 7A       		.byte	0x7a
 1975 0a24 11       		.uleb128 0x11
 1976 0a25 E6360000 		.4byte	.LASF272
 1977 0a29 7B       		.byte	0x7b
 1978 0a2a 11       		.uleb128 0x11
 1979 0a2b 30530000 		.4byte	.LASF273
 1980 0a2f 7C       		.byte	0x7c
 1981 0a30 11       		.uleb128 0x11
 1982 0a31 87130000 		.4byte	.LASF274
 1983 0a35 7D       		.byte	0x7d
 1984 0a36 11       		.uleb128 0x11
 1985 0a37 4A300000 		.4byte	.LASF275
 1986 0a3b 7E       		.byte	0x7e
 1987 0a3c 11       		.uleb128 0x11
 1988 0a3d 884E0000 		.4byte	.LASF276
 1989 0a41 7F       		.byte	0x7f
 1990 0a42 11       		.uleb128 0x11
 1991 0a43 310D0000 		.4byte	.LASF277
 1992 0a47 80       		.byte	0x80
 1993 0a48 11       		.uleb128 0x11
 1994 0a49 26290000 		.4byte	.LASF278
 1995 0a4d 81       		.byte	0x81
 1996 0a4e 11       		.uleb128 0x11
 1997 0a4f 3F490000 		.4byte	.LASF279
 1998 0a53 82       		.byte	0x82
 1999 0a54 11       		.uleb128 0x11
 2000 0a55 70060000 		.4byte	.LASF280
 2001 0a59 83       		.byte	0x83
 2002 0a5a 11       		.uleb128 0x11
 2003 0a5b 72430000 		.4byte	.LASF281
 2004 0a5f 84       		.byte	0x84
 2005 0a60 11       		.uleb128 0x11
 2006 0a61 B9000000 		.4byte	.LASF282
 2007 0a65 85       		.byte	0x85
 2008 0a66 11       		.uleb128 0x11
 2009 0a67 861E0000 		.4byte	.LASF283
 2010 0a6b 86       		.byte	0x86
 2011 0a6c 11       		.uleb128 0x11
 2012 0a6d 043D0000 		.4byte	.LASF284
 2013 0a71 87       		.byte	0x87
 2014 0a72 11       		.uleb128 0x11
 2015 0a73 73570000 		.4byte	.LASF285
 2016 0a77 88       		.byte	0x88
 2017 0a78 11       		.uleb128 0x11
 2018 0a79 34180000 		.4byte	.LASF286
 2019 0a7d 89       		.byte	0x89
 2020 0a7e 11       		.uleb128 0x11
 2021 0a7f 09190000 		.4byte	.LASF287
 2022 0a83 8A       		.byte	0x8a
 2023 0a84 11       		.uleb128 0x11
 2024 0a85 8B2D0000 		.4byte	.LASF288
 2025 0a89 8B       		.byte	0x8b
 2026 0a8a 11       		.uleb128 0x11
 2027 0a8b 3D190000 		.4byte	.LASF289
 2028 0a8f 8C       		.byte	0x8c
 2029 0a90 11       		.uleb128 0x11
ARM GAS  C:\Users\ASUS\AppData\Local\Temp\cczm8cZa.s 			page 67


 2030 0a91 184E0000 		.4byte	.LASF290
 2031 0a95 8D       		.byte	0x8d
 2032 0a96 11       		.uleb128 0x11
 2033 0a97 AE0A0000 		.4byte	.LASF291
 2034 0a9b 8E       		.byte	0x8e
 2035 0a9c 11       		.uleb128 0x11
 2036 0a9d 7E100000 		.4byte	.LASF292
 2037 0aa1 8F       		.byte	0x8f
 2038 0aa2 11       		.uleb128 0x11
 2039 0aa3 E11B0000 		.4byte	.LASF293
 2040 0aa7 90       		.byte	0x90
 2041 0aa8 11       		.uleb128 0x11
 2042 0aa9 E4430000 		.4byte	.LASF294
 2043 0aad 91       		.byte	0x91
 2044 0aae 11       		.uleb128 0x11
 2045 0aaf CE060000 		.4byte	.LASF295
 2046 0ab3 92       		.byte	0x92
 2047 0ab4 11       		.uleb128 0x11
 2048 0ab5 C4380000 		.4byte	.LASF296
 2049 0ab9 F0       		.byte	0xf0
 2050 0aba 00       		.byte	0
 2051 0abb 12       		.uleb128 0x12
 2052 0abc C80A0000 		.4byte	.LASF297
 2053 0ac0 06       		.byte	0x6
 2054 0ac1 9201     		.2byte	0x192
 2055 0ac3 36070000 		.4byte	0x736
 2056 0ac7 0A       		.uleb128 0xa
 2057 0ac8 FC000000 		.4byte	0xfc
 2058 0acc D70A0000 		.4byte	0xad7
 2059 0ad0 0B       		.uleb128 0xb
 2060 0ad1 A9000000 		.4byte	0xa9
 2061 0ad5 2E       		.byte	0x2e
 2062 0ad6 00       		.byte	0
 2063 0ad7 13       		.uleb128 0x13
 2064 0ad8 0001     		.2byte	0x100
 2065 0ada 07       		.byte	0x7
 2066 0adb 25       		.byte	0x25
 2067 0adc 950B0000 		.4byte	0xb95
 2068 0ae0 0E       		.uleb128 0xe
 2069 0ae1 9F4C0000 		.4byte	.LASF298
 2070 0ae5 07       		.byte	0x7
 2071 0ae6 26       		.byte	0x26
 2072 0ae7 F7000000 		.4byte	0xf7
 2073 0aeb 00       		.byte	0
 2074 0aec 0E       		.uleb128 0xe
 2075 0aed 9D400000 		.4byte	.LASF299
 2076 0af1 07       		.byte	0x7
 2077 0af2 27       		.byte	0x27
 2078 0af3 9A0B0000 		.4byte	0xb9a
 2079 0af7 04       		.byte	0x4
 2080 0af8 0E       		.uleb128 0xe
 2081 0af9 8D4F0000 		.4byte	.LASF300
 2082 0afd 07       		.byte	0x7
 2083 0afe 28       		.byte	0x28
 2084 0aff F7000000 		.4byte	0xf7
 2085 0b03 10       		.byte	0x10
 2086 0b04 0E       		.uleb128 0xe
ARM GAS  C:\Users\ASUS\AppData\Local\Temp\cczm8cZa.s 			page 68


 2087 0b05 0A290000 		.4byte	.LASF301
 2088 0b09 07       		.byte	0x7
 2089 0b0a 29       		.byte	0x29
 2090 0b0b F7000000 		.4byte	0xf7
 2091 0b0f 14       		.byte	0x14
 2092 0b10 0E       		.uleb128 0xe
 2093 0b11 90430000 		.4byte	.LASF302
 2094 0b15 07       		.byte	0x7
 2095 0b16 2A       		.byte	0x2a
 2096 0b17 F7000000 		.4byte	0xf7
 2097 0b1b 18       		.byte	0x18
 2098 0b1c 0E       		.uleb128 0xe
 2099 0b1d F4280000 		.4byte	.LASF303
 2100 0b21 07       		.byte	0x7
 2101 0b22 2B       		.byte	0x2b
 2102 0b23 FC000000 		.4byte	0xfc
 2103 0b27 1C       		.byte	0x1c
 2104 0b28 0E       		.uleb128 0xe
 2105 0b29 00120000 		.4byte	.LASF304
 2106 0b2d 07       		.byte	0x7
 2107 0b2e 2C       		.byte	0x2c
 2108 0b2f F7000000 		.4byte	0xf7
 2109 0b33 20       		.byte	0x20
 2110 0b34 0E       		.uleb128 0xe
 2111 0b35 DC2E0000 		.4byte	.LASF305
 2112 0b39 07       		.byte	0x7
 2113 0b3a 2D       		.byte	0x2d
 2114 0b3b F7000000 		.4byte	0xf7
 2115 0b3f 24       		.byte	0x24
 2116 0b40 0E       		.uleb128 0xe
 2117 0b41 E14D0000 		.4byte	.LASF306
 2118 0b45 07       		.byte	0x7
 2119 0b46 2E       		.byte	0x2e
 2120 0b47 F7000000 		.4byte	0xf7
 2121 0b4b 28       		.byte	0x28
 2122 0b4c 0E       		.uleb128 0xe
 2123 0b4d 0A0C0000 		.4byte	.LASF307
 2124 0b51 07       		.byte	0x7
 2125 0b52 2F       		.byte	0x2f
 2126 0b53 F7000000 		.4byte	0xf7
 2127 0b57 2C       		.byte	0x2c
 2128 0b58 0E       		.uleb128 0xe
 2129 0b59 47230000 		.4byte	.LASF308
 2130 0b5d 07       		.byte	0x7
 2131 0b5e 30       		.byte	0x30
 2132 0b5f F7000000 		.4byte	0xf7
 2133 0b63 30       		.byte	0x30
 2134 0b64 0E       		.uleb128 0xe
 2135 0b65 BF2A0000 		.4byte	.LASF309
 2136 0b69 07       		.byte	0x7
 2137 0b6a 31       		.byte	0x31
 2138 0b6b A40B0000 		.4byte	0xba4
 2139 0b6f 34       		.byte	0x34
 2140 0b70 0E       		.uleb128 0xe
 2141 0b71 EB520000 		.4byte	.LASF310
 2142 0b75 07       		.byte	0x7
 2143 0b76 32       		.byte	0x32
ARM GAS  C:\Users\ASUS\AppData\Local\Temp\cczm8cZa.s 			page 69


 2144 0b77 F7000000 		.4byte	0xf7
 2145 0b7b 40       		.byte	0x40
 2146 0b7c 0E       		.uleb128 0xe
 2147 0b7d 5B1C0000 		.4byte	.LASF311
 2148 0b81 07       		.byte	0x7
 2149 0b82 33       		.byte	0x33
 2150 0b83 F7000000 		.4byte	0xf7
 2151 0b87 44       		.byte	0x44
 2152 0b88 0E       		.uleb128 0xe
 2153 0b89 C92A0000 		.4byte	.LASF312
 2154 0b8d 07       		.byte	0x7
 2155 0b8e 34       		.byte	0x34
 2156 0b8f BE0B0000 		.4byte	0xbbe
 2157 0b93 48       		.byte	0x48
 2158 0b94 00       		.byte	0
 2159 0b95 08       		.uleb128 0x8
 2160 0b96 01010000 		.4byte	0x101
 2161 0b9a 09       		.uleb128 0x9
 2162 0b9b 950B0000 		.4byte	0xb95
 2163 0b9f 08       		.uleb128 0x8
 2164 0ba0 01010000 		.4byte	0x101
 2165 0ba4 09       		.uleb128 0x9
 2166 0ba5 9F0B0000 		.4byte	0xb9f
 2167 0ba9 0A       		.uleb128 0xa
 2168 0baa FC000000 		.4byte	0xfc
 2169 0bae B90B0000 		.4byte	0xbb9
 2170 0bb2 0B       		.uleb128 0xb
 2171 0bb3 A9000000 		.4byte	0xa9
 2172 0bb7 2D       		.byte	0x2d
 2173 0bb8 00       		.byte	0
 2174 0bb9 08       		.uleb128 0x8
 2175 0bba A90B0000 		.4byte	0xba9
 2176 0bbe 09       		.uleb128 0x9
 2177 0bbf B90B0000 		.4byte	0xbb9
 2178 0bc3 04       		.uleb128 0x4
 2179 0bc4 063F0000 		.4byte	.LASF313
 2180 0bc8 07       		.byte	0x7
 2181 0bc9 35       		.byte	0x35
 2182 0bca D70A0000 		.4byte	0xad7
 2183 0bce 13       		.uleb128 0x13
 2184 0bcf 0002     		.2byte	0x200
 2185 0bd1 07       		.byte	0x7
 2186 0bd2 3A       		.byte	0x3a
 2187 0bd3 BD0C0000 		.4byte	0xcbd
 2188 0bd7 0E       		.uleb128 0xe
 2189 0bd8 9F4C0000 		.4byte	.LASF298
 2190 0bdc 07       		.byte	0x7
 2191 0bdd 3B       		.byte	0x3b
 2192 0bde F7000000 		.4byte	0xf7
 2193 0be2 00       		.byte	0
 2194 0be3 0E       		.uleb128 0xe
 2195 0be4 25350000 		.4byte	.LASF314
 2196 0be8 07       		.byte	0x7
 2197 0be9 3C       		.byte	0x3c
 2198 0bea FC000000 		.4byte	0xfc
 2199 0bee 04       		.byte	0x4
 2200 0bef 0E       		.uleb128 0xe
ARM GAS  C:\Users\ASUS\AppData\Local\Temp\cczm8cZa.s 			page 70


 2201 0bf0 9D400000 		.4byte	.LASF299
 2202 0bf4 07       		.byte	0x7
 2203 0bf5 3D       		.byte	0x3d
 2204 0bf6 C20C0000 		.4byte	0xcc2
 2205 0bfa 08       		.byte	0x8
 2206 0bfb 0E       		.uleb128 0xe
 2207 0bfc F5020000 		.4byte	.LASF315
 2208 0c00 07       		.byte	0x7
 2209 0c01 3E       		.byte	0x3e
 2210 0c02 F7000000 		.4byte	0xf7
 2211 0c06 10       		.byte	0x10
 2212 0c07 0E       		.uleb128 0xe
 2213 0c08 25540000 		.4byte	.LASF316
 2214 0c0c 07       		.byte	0x7
 2215 0c0d 3F       		.byte	0x3f
 2216 0c0e F7000000 		.4byte	0xf7
 2217 0c12 14       		.byte	0x14
 2218 0c13 0E       		.uleb128 0xe
 2219 0c14 D1440000 		.4byte	.LASF317
 2220 0c18 07       		.byte	0x7
 2221 0c19 40       		.byte	0x40
 2222 0c1a FC000000 		.4byte	0xfc
 2223 0c1e 18       		.byte	0x18
 2224 0c1f 0E       		.uleb128 0xe
 2225 0c20 35370000 		.4byte	.LASF318
 2226 0c24 07       		.byte	0x7
 2227 0c25 41       		.byte	0x41
 2228 0c26 F7000000 		.4byte	0xf7
 2229 0c2a 1C       		.byte	0x1c
 2230 0c2b 0E       		.uleb128 0xe
 2231 0c2c 753C0000 		.4byte	.LASF319
 2232 0c30 07       		.byte	0x7
 2233 0c31 42       		.byte	0x42
 2234 0c32 F7000000 		.4byte	0xf7
 2235 0c36 20       		.byte	0x20
 2236 0c37 0E       		.uleb128 0xe
 2237 0c38 A6400000 		.4byte	.LASF320
 2238 0c3c 07       		.byte	0x7
 2239 0c3d 43       		.byte	0x43
 2240 0c3e F7000000 		.4byte	0xf7
 2241 0c42 24       		.byte	0x24
 2242 0c43 0E       		.uleb128 0xe
 2243 0c44 DB2C0000 		.4byte	.LASF321
 2244 0c48 07       		.byte	0x7
 2245 0c49 44       		.byte	0x44
 2246 0c4a FC000000 		.4byte	0xfc
 2247 0c4e 28       		.byte	0x28
 2248 0c4f 0E       		.uleb128 0xe
 2249 0c50 2C580000 		.4byte	.LASF322
 2250 0c54 07       		.byte	0x7
 2251 0c55 45       		.byte	0x45
 2252 0c56 FC000000 		.4byte	0xfc
 2253 0c5a 2C       		.byte	0x2c
 2254 0c5b 0E       		.uleb128 0xe
 2255 0c5c 13240000 		.4byte	.LASF323
 2256 0c60 07       		.byte	0x7
 2257 0c61 46       		.byte	0x46
ARM GAS  C:\Users\ASUS\AppData\Local\Temp\cczm8cZa.s 			page 71


 2258 0c62 FC000000 		.4byte	0xfc
 2259 0c66 30       		.byte	0x30
 2260 0c67 0E       		.uleb128 0xe
 2261 0c68 BF2A0000 		.4byte	.LASF309
 2262 0c6c 07       		.byte	0x7
 2263 0c6d 47       		.byte	0x47
 2264 0c6e CC0C0000 		.4byte	0xccc
 2265 0c72 34       		.byte	0x34
 2266 0c73 0E       		.uleb128 0xe
 2267 0c74 8D4F0000 		.4byte	.LASF300
 2268 0c78 07       		.byte	0x7
 2269 0c79 48       		.byte	0x48
 2270 0c7a F7000000 		.4byte	0xf7
 2271 0c7e 40       		.byte	0x40
 2272 0c7f 0E       		.uleb128 0xe
 2273 0c80 0A290000 		.4byte	.LASF301
 2274 0c84 07       		.byte	0x7
 2275 0c85 49       		.byte	0x49
 2276 0c86 F7000000 		.4byte	0xf7
 2277 0c8a 44       		.byte	0x44
 2278 0c8b 0E       		.uleb128 0xe
 2279 0c8c 90430000 		.4byte	.LASF302
 2280 0c90 07       		.byte	0x7
 2281 0c91 4A       		.byte	0x4a
 2282 0c92 F7000000 		.4byte	0xf7
 2283 0c96 48       		.byte	0x48
 2284 0c97 0E       		.uleb128 0xe
 2285 0c98 F4280000 		.4byte	.LASF303
 2286 0c9c 07       		.byte	0x7
 2287 0c9d 4B       		.byte	0x4b
 2288 0c9e FC000000 		.4byte	0xfc
 2289 0ca2 4C       		.byte	0x4c
 2290 0ca3 0E       		.uleb128 0xe
 2291 0ca4 C92A0000 		.4byte	.LASF312
 2292 0ca8 07       		.byte	0x7
 2293 0ca9 4C       		.byte	0x4c
 2294 0caa D60C0000 		.4byte	0xcd6
 2295 0cae 50       		.byte	0x50
 2296 0caf 14       		.uleb128 0x14
 2297 0cb0 C20A0000 		.4byte	.LASF324
 2298 0cb4 07       		.byte	0x7
 2299 0cb5 4D       		.byte	0x4d
 2300 0cb6 C30B0000 		.4byte	0xbc3
 2301 0cba 0001     		.2byte	0x100
 2302 0cbc 00       		.byte	0
 2303 0cbd 08       		.uleb128 0x8
 2304 0cbe A1010000 		.4byte	0x1a1
 2305 0cc2 09       		.uleb128 0x9
 2306 0cc3 BD0C0000 		.4byte	0xcbd
 2307 0cc7 08       		.uleb128 0x8
 2308 0cc8 01010000 		.4byte	0x101
 2309 0ccc 09       		.uleb128 0x9
 2310 0ccd C70C0000 		.4byte	0xcc7
 2311 0cd1 08       		.uleb128 0x8
 2312 0cd2 61010000 		.4byte	0x161
 2313 0cd6 09       		.uleb128 0x9
 2314 0cd7 D10C0000 		.4byte	0xcd1
ARM GAS  C:\Users\ASUS\AppData\Local\Temp\cczm8cZa.s 			page 72


 2315 0cdb 04       		.uleb128 0x4
 2316 0cdc 1A460000 		.4byte	.LASF325
 2317 0ce0 07       		.byte	0x7
 2318 0ce1 4E       		.byte	0x4e
 2319 0ce2 CE0B0000 		.4byte	0xbce
 2320 0ce6 15       		.uleb128 0x15
 2321 0ce7 00E00100 		.4byte	0x1e000
 2322 0ceb 07       		.byte	0x7
 2323 0cec 53       		.byte	0x53
 2324 0ced AA1A0000 		.4byte	0x1aaa
 2325 0cf1 0E       		.uleb128 0xe
 2326 0cf2 37500000 		.4byte	.LASF326
 2327 0cf6 07       		.byte	0x7
 2328 0cf7 54       		.byte	0x54
 2329 0cf8 F7000000 		.4byte	0xf7
 2330 0cfc 00       		.byte	0
 2331 0cfd 0E       		.uleb128 0xe
 2332 0cfe 9D400000 		.4byte	.LASF299
 2333 0d02 07       		.byte	0x7
 2334 0d03 55       		.byte	0x55
 2335 0d04 FC000000 		.4byte	0xfc
 2336 0d08 04       		.byte	0x4
 2337 0d09 0E       		.uleb128 0xe
 2338 0d0a F6160000 		.4byte	.LASF327
 2339 0d0e 07       		.byte	0x7
 2340 0d0f 56       		.byte	0x56
 2341 0d10 F7000000 		.4byte	0xf7
 2342 0d14 08       		.byte	0x8
 2343 0d15 0E       		.uleb128 0xe
 2344 0d16 BF2A0000 		.4byte	.LASF309
 2345 0d1a 07       		.byte	0x7
 2346 0d1b 57       		.byte	0x57
 2347 0d1c FC000000 		.4byte	0xfc
 2348 0d20 0C       		.byte	0xc
 2349 0d21 0E       		.uleb128 0xe
 2350 0d22 6A3D0000 		.4byte	.LASF328
 2351 0d26 07       		.byte	0x7
 2352 0d27 58       		.byte	0x58
 2353 0d28 F7000000 		.4byte	0xf7
 2354 0d2c 10       		.byte	0x10
 2355 0d2d 0E       		.uleb128 0xe
 2356 0d2e C92A0000 		.4byte	.LASF312
 2357 0d32 07       		.byte	0x7
 2358 0d33 59       		.byte	0x59
 2359 0d34 FC000000 		.4byte	0xfc
 2360 0d38 14       		.byte	0x14
 2361 0d39 0E       		.uleb128 0xe
 2362 0d3a B7230000 		.4byte	.LASF329
 2363 0d3e 07       		.byte	0x7
 2364 0d3f 5A       		.byte	0x5a
 2365 0d40 F7000000 		.4byte	0xf7
 2366 0d44 18       		.byte	0x18
 2367 0d45 0E       		.uleb128 0xe
 2368 0d46 943F0000 		.4byte	.LASF330
 2369 0d4a 07       		.byte	0x7
 2370 0d4b 5B       		.byte	0x5b
 2371 0d4c F7000000 		.4byte	0xf7
ARM GAS  C:\Users\ASUS\AppData\Local\Temp\cczm8cZa.s 			page 73


 2372 0d50 1C       		.byte	0x1c
 2373 0d51 0E       		.uleb128 0xe
 2374 0d52 B51C0000 		.4byte	.LASF331
 2375 0d56 07       		.byte	0x7
 2376 0d57 5C       		.byte	0x5c
 2377 0d58 F7000000 		.4byte	0xf7
 2378 0d5c 20       		.byte	0x20
 2379 0d5d 0E       		.uleb128 0xe
 2380 0d5e 924F0000 		.4byte	.LASF332
 2381 0d62 07       		.byte	0x7
 2382 0d63 5D       		.byte	0x5d
 2383 0d64 FC000000 		.4byte	0xfc
 2384 0d68 24       		.byte	0x24
 2385 0d69 0E       		.uleb128 0xe
 2386 0d6a 2A130000 		.4byte	.LASF333
 2387 0d6e 07       		.byte	0x7
 2388 0d6f 5E       		.byte	0x5e
 2389 0d70 F7000000 		.4byte	0xf7
 2390 0d74 28       		.byte	0x28
 2391 0d75 0E       		.uleb128 0xe
 2392 0d76 11310000 		.4byte	.LASF334
 2393 0d7a 07       		.byte	0x7
 2394 0d7b 5F       		.byte	0x5f
 2395 0d7c F7000000 		.4byte	0xf7
 2396 0d80 2C       		.byte	0x2c
 2397 0d81 0E       		.uleb128 0xe
 2398 0d82 CA500000 		.4byte	.LASF335
 2399 0d86 07       		.byte	0x7
 2400 0d87 60       		.byte	0x60
 2401 0d88 F7000000 		.4byte	0xf7
 2402 0d8c 30       		.byte	0x30
 2403 0d8d 0E       		.uleb128 0xe
 2404 0d8e D32A0000 		.4byte	.LASF336
 2405 0d92 07       		.byte	0x7
 2406 0d93 61       		.byte	0x61
 2407 0d94 FC000000 		.4byte	0xfc
 2408 0d98 34       		.byte	0x34
 2409 0d99 0E       		.uleb128 0xe
 2410 0d9a 65230000 		.4byte	.LASF337
 2411 0d9e 07       		.byte	0x7
 2412 0d9f 62       		.byte	0x62
 2413 0da0 F7000000 		.4byte	0xf7
 2414 0da4 38       		.byte	0x38
 2415 0da5 0E       		.uleb128 0xe
 2416 0da6 CA010000 		.4byte	.LASF338
 2417 0daa 07       		.byte	0x7
 2418 0dab 63       		.byte	0x63
 2419 0dac FC000000 		.4byte	0xfc
 2420 0db0 3C       		.byte	0x3c
 2421 0db1 0E       		.uleb128 0xe
 2422 0db2 A04B0000 		.4byte	.LASF339
 2423 0db6 07       		.byte	0x7
 2424 0db7 64       		.byte	0x64
 2425 0db8 F7000000 		.4byte	0xf7
 2426 0dbc 40       		.byte	0x40
 2427 0dbd 0E       		.uleb128 0xe
 2428 0dbe A62D0000 		.4byte	.LASF340
ARM GAS  C:\Users\ASUS\AppData\Local\Temp\cczm8cZa.s 			page 74


 2429 0dc2 07       		.byte	0x7
 2430 0dc3 65       		.byte	0x65
 2431 0dc4 F7000000 		.4byte	0xf7
 2432 0dc8 44       		.byte	0x44
 2433 0dc9 0E       		.uleb128 0xe
 2434 0dca 340C0000 		.4byte	.LASF341
 2435 0dce 07       		.byte	0x7
 2436 0dcf 66       		.byte	0x66
 2437 0dd0 F7000000 		.4byte	0xf7
 2438 0dd4 48       		.byte	0x48
 2439 0dd5 0E       		.uleb128 0xe
 2440 0dd6 DD2A0000 		.4byte	.LASF342
 2441 0dda 07       		.byte	0x7
 2442 0ddb 67       		.byte	0x67
 2443 0ddc FC000000 		.4byte	0xfc
 2444 0de0 4C       		.byte	0x4c
 2445 0de1 0E       		.uleb128 0xe
 2446 0de2 7A310000 		.4byte	.LASF343
 2447 0de6 07       		.byte	0x7
 2448 0de7 68       		.byte	0x68
 2449 0de8 F7000000 		.4byte	0xf7
 2450 0dec 50       		.byte	0x50
 2451 0ded 0E       		.uleb128 0xe
 2452 0dee 38560000 		.4byte	.LASF344
 2453 0df2 07       		.byte	0x7
 2454 0df3 69       		.byte	0x69
 2455 0df4 FC000000 		.4byte	0xfc
 2456 0df8 54       		.byte	0x54
 2457 0df9 0E       		.uleb128 0xe
 2458 0dfa E1130000 		.4byte	.LASF345
 2459 0dfe 07       		.byte	0x7
 2460 0dff 6A       		.byte	0x6a
 2461 0e00 F7000000 		.4byte	0xf7
 2462 0e04 58       		.byte	0x58
 2463 0e05 0E       		.uleb128 0xe
 2464 0e06 F4130000 		.4byte	.LASF346
 2465 0e0a 07       		.byte	0x7
 2466 0e0b 6B       		.byte	0x6b
 2467 0e0c F7000000 		.4byte	0xf7
 2468 0e10 5C       		.byte	0x5c
 2469 0e11 0E       		.uleb128 0xe
 2470 0e12 BD130000 		.4byte	.LASF347
 2471 0e16 07       		.byte	0x7
 2472 0e17 6C       		.byte	0x6c
 2473 0e18 F7000000 		.4byte	0xf7
 2474 0e1c 60       		.byte	0x60
 2475 0e1d 0E       		.uleb128 0xe
 2476 0e1e E72A0000 		.4byte	.LASF348
 2477 0e22 07       		.byte	0x7
 2478 0e23 6D       		.byte	0x6d
 2479 0e24 FC000000 		.4byte	0xfc
 2480 0e28 64       		.byte	0x64
 2481 0e29 0E       		.uleb128 0xe
 2482 0e2a BC520000 		.4byte	.LASF349
 2483 0e2e 07       		.byte	0x7
 2484 0e2f 6E       		.byte	0x6e
 2485 0e30 F7000000 		.4byte	0xf7
ARM GAS  C:\Users\ASUS\AppData\Local\Temp\cczm8cZa.s 			page 75


 2486 0e34 68       		.byte	0x68
 2487 0e35 0E       		.uleb128 0xe
 2488 0e36 C8520000 		.4byte	.LASF350
 2489 0e3a 07       		.byte	0x7
 2490 0e3b 6F       		.byte	0x6f
 2491 0e3c F7000000 		.4byte	0xf7
 2492 0e40 6C       		.byte	0x6c
 2493 0e41 0E       		.uleb128 0xe
 2494 0e42 A1520000 		.4byte	.LASF351
 2495 0e46 07       		.byte	0x7
 2496 0e47 70       		.byte	0x70
 2497 0e48 F7000000 		.4byte	0xf7
 2498 0e4c 70       		.byte	0x70
 2499 0e4d 0E       		.uleb128 0xe
 2500 0e4e F12A0000 		.4byte	.LASF352
 2501 0e52 07       		.byte	0x7
 2502 0e53 71       		.byte	0x71
 2503 0e54 FC000000 		.4byte	0xfc
 2504 0e58 74       		.byte	0x74
 2505 0e59 0E       		.uleb128 0xe
 2506 0e5a F1410000 		.4byte	.LASF353
 2507 0e5e 07       		.byte	0x7
 2508 0e5f 72       		.byte	0x72
 2509 0e60 F7000000 		.4byte	0xf7
 2510 0e64 78       		.byte	0x78
 2511 0e65 0E       		.uleb128 0xe
 2512 0e66 7E090000 		.4byte	.LASF354
 2513 0e6a 07       		.byte	0x7
 2514 0e6b 73       		.byte	0x73
 2515 0e6c F7000000 		.4byte	0xf7
 2516 0e70 7C       		.byte	0x7c
 2517 0e71 0E       		.uleb128 0xe
 2518 0e72 F71E0000 		.4byte	.LASF355
 2519 0e76 07       		.byte	0x7
 2520 0e77 74       		.byte	0x74
 2521 0e78 F7000000 		.4byte	0xf7
 2522 0e7c 80       		.byte	0x80
 2523 0e7d 0E       		.uleb128 0xe
 2524 0e7e 79520000 		.4byte	.LASF356
 2525 0e82 07       		.byte	0x7
 2526 0e83 75       		.byte	0x75
 2527 0e84 F7000000 		.4byte	0xf7
 2528 0e88 84       		.byte	0x84
 2529 0e89 0E       		.uleb128 0xe
 2530 0e8a E5160000 		.4byte	.LASF357
 2531 0e8e 07       		.byte	0x7
 2532 0e8f 76       		.byte	0x76
 2533 0e90 F7000000 		.4byte	0xf7
 2534 0e94 88       		.byte	0x88
 2535 0e95 0E       		.uleb128 0xe
 2536 0e96 9E170000 		.4byte	.LASF358
 2537 0e9a 07       		.byte	0x7
 2538 0e9b 77       		.byte	0x77
 2539 0e9c F7000000 		.4byte	0xf7
 2540 0ea0 8C       		.byte	0x8c
 2541 0ea1 0E       		.uleb128 0xe
 2542 0ea2 65130000 		.4byte	.LASF359
ARM GAS  C:\Users\ASUS\AppData\Local\Temp\cczm8cZa.s 			page 76


 2543 0ea6 07       		.byte	0x7
 2544 0ea7 78       		.byte	0x78
 2545 0ea8 F7000000 		.4byte	0xf7
 2546 0eac 90       		.byte	0x90
 2547 0ead 0E       		.uleb128 0xe
 2548 0eae FB2A0000 		.4byte	.LASF360
 2549 0eb2 07       		.byte	0x7
 2550 0eb3 79       		.byte	0x79
 2551 0eb4 FC000000 		.4byte	0xfc
 2552 0eb8 94       		.byte	0x94
 2553 0eb9 0E       		.uleb128 0xe
 2554 0eba 2F4E0000 		.4byte	.LASF361
 2555 0ebe 07       		.byte	0x7
 2556 0ebf 7A       		.byte	0x7a
 2557 0ec0 F7000000 		.4byte	0xf7
 2558 0ec4 98       		.byte	0x98
 2559 0ec5 0E       		.uleb128 0xe
 2560 0ec6 AF170000 		.4byte	.LASF362
 2561 0eca 07       		.byte	0x7
 2562 0ecb 7B       		.byte	0x7b
 2563 0ecc F7000000 		.4byte	0xf7
 2564 0ed0 9C       		.byte	0x9c
 2565 0ed1 0E       		.uleb128 0xe
 2566 0ed2 76130000 		.4byte	.LASF363
 2567 0ed6 07       		.byte	0x7
 2568 0ed7 7C       		.byte	0x7c
 2569 0ed8 F7000000 		.4byte	0xf7
 2570 0edc A0       		.byte	0xa0
 2571 0edd 0E       		.uleb128 0xe
 2572 0ede 052B0000 		.4byte	.LASF364
 2573 0ee2 07       		.byte	0x7
 2574 0ee3 7D       		.byte	0x7d
 2575 0ee4 FC000000 		.4byte	0xfc
 2576 0ee8 A4       		.byte	0xa4
 2577 0ee9 0E       		.uleb128 0xe
 2578 0eea 4F050000 		.4byte	.LASF365
 2579 0eee 07       		.byte	0x7
 2580 0eef 7E       		.byte	0x7e
 2581 0ef0 F7000000 		.4byte	0xf7
 2582 0ef4 A8       		.byte	0xa8
 2583 0ef5 0E       		.uleb128 0xe
 2584 0ef6 3B1A0000 		.4byte	.LASF366
 2585 0efa 07       		.byte	0x7
 2586 0efb 7F       		.byte	0x7f
 2587 0efc FC000000 		.4byte	0xfc
 2588 0f00 AC       		.byte	0xac
 2589 0f01 0E       		.uleb128 0xe
 2590 0f02 201F0000 		.4byte	.LASF367
 2591 0f06 07       		.byte	0x7
 2592 0f07 80       		.byte	0x80
 2593 0f08 F7000000 		.4byte	0xf7
 2594 0f0c B0       		.byte	0xb0
 2595 0f0d 0E       		.uleb128 0xe
 2596 0f0e 0F2B0000 		.4byte	.LASF368
 2597 0f12 07       		.byte	0x7
 2598 0f13 81       		.byte	0x81
 2599 0f14 FC000000 		.4byte	0xfc
ARM GAS  C:\Users\ASUS\AppData\Local\Temp\cczm8cZa.s 			page 77


 2600 0f18 B4       		.byte	0xb4
 2601 0f19 0E       		.uleb128 0xe
 2602 0f1a DE040000 		.4byte	.LASF369
 2603 0f1e 07       		.byte	0x7
 2604 0f1f 82       		.byte	0x82
 2605 0f20 F7000000 		.4byte	0xf7
 2606 0f24 B8       		.byte	0xb8
 2607 0f25 0E       		.uleb128 0xe
 2608 0f26 5C010000 		.4byte	.LASF370
 2609 0f2a 07       		.byte	0x7
 2610 0f2b 83       		.byte	0x83
 2611 0f2c FC000000 		.4byte	0xfc
 2612 0f30 BC       		.byte	0xbc
 2613 0f31 0E       		.uleb128 0xe
 2614 0f32 985B0000 		.4byte	.LASF371
 2615 0f36 07       		.byte	0x7
 2616 0f37 84       		.byte	0x84
 2617 0f38 F7000000 		.4byte	0xf7
 2618 0f3c C0       		.byte	0xc0
 2619 0f3d 0E       		.uleb128 0xe
 2620 0f3e 101D0000 		.4byte	.LASF372
 2621 0f42 07       		.byte	0x7
 2622 0f43 85       		.byte	0x85
 2623 0f44 F7000000 		.4byte	0xf7
 2624 0f48 C4       		.byte	0xc4
 2625 0f49 0E       		.uleb128 0xe
 2626 0f4a AD240000 		.4byte	.LASF373
 2627 0f4e 07       		.byte	0x7
 2628 0f4f 86       		.byte	0x86
 2629 0f50 FC000000 		.4byte	0xfc
 2630 0f54 C8       		.byte	0xc8
 2631 0f55 0E       		.uleb128 0xe
 2632 0f56 FE2C0000 		.4byte	.LASF374
 2633 0f5a 07       		.byte	0x7
 2634 0f5b 87       		.byte	0x87
 2635 0f5c F7000000 		.4byte	0xf7
 2636 0f60 CC       		.byte	0xcc
 2637 0f61 0E       		.uleb128 0xe
 2638 0f62 67010000 		.4byte	.LASF375
 2639 0f66 07       		.byte	0x7
 2640 0f67 88       		.byte	0x88
 2641 0f68 AF1A0000 		.4byte	0x1aaf
 2642 0f6c D0       		.byte	0xd0
 2643 0f6d 0E       		.uleb128 0xe
 2644 0f6e 961A0000 		.4byte	.LASF376
 2645 0f72 07       		.byte	0x7
 2646 0f73 89       		.byte	0x89
 2647 0f74 F7000000 		.4byte	0xf7
 2648 0f78 D8       		.byte	0xd8
 2649 0f79 0E       		.uleb128 0xe
 2650 0f7a 72010000 		.4byte	.LASF377
 2651 0f7e 07       		.byte	0x7
 2652 0f7f 8A       		.byte	0x8a
 2653 0f80 FC000000 		.4byte	0xfc
 2654 0f84 DC       		.byte	0xdc
 2655 0f85 0E       		.uleb128 0xe
 2656 0f86 BD460000 		.4byte	.LASF378
ARM GAS  C:\Users\ASUS\AppData\Local\Temp\cczm8cZa.s 			page 78


 2657 0f8a 07       		.byte	0x7
 2658 0f8b 8B       		.byte	0x8b
 2659 0f8c F7000000 		.4byte	0xf7
 2660 0f90 E0       		.byte	0xe0
 2661 0f91 0E       		.uleb128 0xe
 2662 0f92 7D010000 		.4byte	.LASF379
 2663 0f96 07       		.byte	0x7
 2664 0f97 8C       		.byte	0x8c
 2665 0f98 FC000000 		.4byte	0xfc
 2666 0f9c E4       		.byte	0xe4
 2667 0f9d 0E       		.uleb128 0xe
 2668 0f9e 38440000 		.4byte	.LASF380
 2669 0fa2 07       		.byte	0x7
 2670 0fa3 8D       		.byte	0x8d
 2671 0fa4 F7000000 		.4byte	0xf7
 2672 0fa8 E8       		.byte	0xe8
 2673 0fa9 0E       		.uleb128 0xe
 2674 0faa 88010000 		.4byte	.LASF381
 2675 0fae 07       		.byte	0x7
 2676 0faf 8F       		.byte	0x8f
 2677 0fb0 B91A0000 		.4byte	0x1ab9
 2678 0fb4 EC       		.byte	0xec
 2679 0fb5 0E       		.uleb128 0xe
 2680 0fb6 70530000 		.4byte	.LASF382
 2681 0fba 07       		.byte	0x7
 2682 0fbb 90       		.byte	0x90
 2683 0fbc FC000000 		.4byte	0xfc
 2684 0fc0 F8       		.byte	0xf8
 2685 0fc1 0E       		.uleb128 0xe
 2686 0fc2 93010000 		.4byte	.LASF383
 2687 0fc6 07       		.byte	0x7
 2688 0fc7 92       		.byte	0x92
 2689 0fc8 FC000000 		.4byte	0xfc
 2690 0fcc FC       		.byte	0xfc
 2691 0fcd 14       		.uleb128 0x14
 2692 0fce A9230000 		.4byte	.LASF384
 2693 0fd2 07       		.byte	0x7
 2694 0fd3 93       		.byte	0x93
 2695 0fd4 F7000000 		.4byte	0xf7
 2696 0fd8 0001     		.2byte	0x100
 2697 0fda 14       		.uleb128 0x14
 2698 0fdb 921B0000 		.4byte	.LASF385
 2699 0fdf 07       		.byte	0x7
 2700 0fe0 94       		.byte	0x94
 2701 0fe1 F7000000 		.4byte	0xf7
 2702 0fe5 0401     		.2byte	0x104
 2703 0fe7 14       		.uleb128 0x14
 2704 0fe8 7A1F0000 		.4byte	.LASF386
 2705 0fec 07       		.byte	0x7
 2706 0fed 95       		.byte	0x95
 2707 0fee F7000000 		.4byte	0xf7
 2708 0ff2 0801     		.2byte	0x108
 2709 0ff4 14       		.uleb128 0x14
 2710 0ff5 995A0000 		.4byte	.LASF387
 2711 0ff9 07       		.byte	0x7
 2712 0ffa 96       		.byte	0x96
 2713 0ffb F7000000 		.4byte	0xf7
ARM GAS  C:\Users\ASUS\AppData\Local\Temp\cczm8cZa.s 			page 79


 2714 0fff 0C01     		.2byte	0x10c
 2715 1001 14       		.uleb128 0x14
 2716 1002 C6210000 		.4byte	.LASF388
 2717 1006 07       		.byte	0x7
 2718 1007 97       		.byte	0x97
 2719 1008 F7000000 		.4byte	0xf7
 2720 100c 1001     		.2byte	0x110
 2721 100e 14       		.uleb128 0x14
 2722 100f A44C0000 		.4byte	.LASF389
 2723 1013 07       		.byte	0x7
 2724 1014 98       		.byte	0x98
 2725 1015 F7000000 		.4byte	0xf7
 2726 1019 1401     		.2byte	0x114
 2727 101b 14       		.uleb128 0x14
 2728 101c 85070000 		.4byte	.LASF390
 2729 1020 07       		.byte	0x7
 2730 1021 99       		.byte	0x99
 2731 1022 F7000000 		.4byte	0xf7
 2732 1026 1801     		.2byte	0x118
 2733 1028 14       		.uleb128 0x14
 2734 1029 711E0000 		.4byte	.LASF391
 2735 102d 07       		.byte	0x7
 2736 102e 9A       		.byte	0x9a
 2737 102f F7000000 		.4byte	0xf7
 2738 1033 1C01     		.2byte	0x11c
 2739 1035 14       		.uleb128 0x14
 2740 1036 2D1C0000 		.4byte	.LASF392
 2741 103a 07       		.byte	0x7
 2742 103b 9B       		.byte	0x9b
 2743 103c FC000000 		.4byte	0xfc
 2744 1040 2001     		.2byte	0x120
 2745 1042 14       		.uleb128 0x14
 2746 1043 D9170000 		.4byte	.LASF393
 2747 1047 07       		.byte	0x7
 2748 1048 9C       		.byte	0x9c
 2749 1049 FC000000 		.4byte	0xfc
 2750 104d 2401     		.2byte	0x124
 2751 104f 14       		.uleb128 0x14
 2752 1050 00000000 		.4byte	.LASF394
 2753 1054 07       		.byte	0x7
 2754 1055 9D       		.byte	0x9d
 2755 1056 F7000000 		.4byte	0xf7
 2756 105a 2801     		.2byte	0x128
 2757 105c 14       		.uleb128 0x14
 2758 105d FF400000 		.4byte	.LASF395
 2759 1061 07       		.byte	0x7
 2760 1062 9E       		.byte	0x9e
 2761 1063 F7000000 		.4byte	0xf7
 2762 1067 2C01     		.2byte	0x12c
 2763 1069 14       		.uleb128 0x14
 2764 106a 681C0000 		.4byte	.LASF396
 2765 106e 07       		.byte	0x7
 2766 106f 9F       		.byte	0x9f
 2767 1070 F7000000 		.4byte	0xf7
 2768 1074 3001     		.2byte	0x130
 2769 1076 14       		.uleb128 0x14
 2770 1077 56470000 		.4byte	.LASF397
ARM GAS  C:\Users\ASUS\AppData\Local\Temp\cczm8cZa.s 			page 80


 2771 107b 07       		.byte	0x7
 2772 107c A0       		.byte	0xa0
 2773 107d F7000000 		.4byte	0xf7
 2774 1081 3401     		.2byte	0x134
 2775 1083 14       		.uleb128 0x14
 2776 1084 CE1B0000 		.4byte	.LASF398
 2777 1088 07       		.byte	0x7
 2778 1089 A1       		.byte	0xa1
 2779 108a F7000000 		.4byte	0xf7
 2780 108e 3801     		.2byte	0x138
 2781 1090 14       		.uleb128 0x14
 2782 1091 9E010000 		.4byte	.LASF399
 2783 1095 07       		.byte	0x7
 2784 1096 A2       		.byte	0xa2
 2785 1097 FC000000 		.4byte	0xfc
 2786 109b 3C01     		.2byte	0x13c
 2787 109d 14       		.uleb128 0x14
 2788 109e D2560000 		.4byte	.LASF400
 2789 10a2 07       		.byte	0x7
 2790 10a3 A3       		.byte	0xa3
 2791 10a4 CE1A0000 		.4byte	0x1ace
 2792 10a8 4001     		.2byte	0x140
 2793 10aa 14       		.uleb128 0x14
 2794 10ab A9010000 		.4byte	.LASF401
 2795 10af 07       		.byte	0x7
 2796 10b0 A4       		.byte	0xa4
 2797 10b1 D81A0000 		.4byte	0x1ad8
 2798 10b5 5401     		.2byte	0x154
 2799 10b7 14       		.uleb128 0x14
 2800 10b8 D2530000 		.4byte	.LASF402
 2801 10bc 07       		.byte	0x7
 2802 10bd A5       		.byte	0xa5
 2803 10be F7000000 		.4byte	0xf7
 2804 10c2 6001     		.2byte	0x160
 2805 10c4 14       		.uleb128 0x14
 2806 10c5 DE030000 		.4byte	.LASF403
 2807 10c9 07       		.byte	0x7
 2808 10ca A6       		.byte	0xa6
 2809 10cb F7000000 		.4byte	0xf7
 2810 10cf 6401     		.2byte	0x164
 2811 10d1 14       		.uleb128 0x14
 2812 10d2 B4010000 		.4byte	.LASF404
 2813 10d6 07       		.byte	0x7
 2814 10d7 A7       		.byte	0xa7
 2815 10d8 E21A0000 		.4byte	0x1ae2
 2816 10dc 6801     		.2byte	0x168
 2817 10de 14       		.uleb128 0x14
 2818 10df 29470000 		.4byte	.LASF405
 2819 10e3 07       		.byte	0x7
 2820 10e4 A8       		.byte	0xa8
 2821 10e5 F7000000 		.4byte	0xf7
 2822 10e9 7001     		.2byte	0x170
 2823 10eb 14       		.uleb128 0x14
 2824 10ec EA250000 		.4byte	.LASF406
 2825 10f0 07       		.byte	0x7
 2826 10f1 A9       		.byte	0xa9
 2827 10f2 FC000000 		.4byte	0xfc
ARM GAS  C:\Users\ASUS\AppData\Local\Temp\cczm8cZa.s 			page 81


 2828 10f6 7401     		.2byte	0x174
 2829 10f8 14       		.uleb128 0x14
 2830 10f9 EA2C0000 		.4byte	.LASF407
 2831 10fd 07       		.byte	0x7
 2832 10fe AA       		.byte	0xaa
 2833 10ff F7000000 		.4byte	0xf7
 2834 1103 7801     		.2byte	0x178
 2835 1105 14       		.uleb128 0x14
 2836 1106 BF010000 		.4byte	.LASF408
 2837 110a 07       		.byte	0x7
 2838 110b AB       		.byte	0xab
 2839 110c EC1A0000 		.4byte	0x1aec
 2840 1110 7C01     		.2byte	0x17c
 2841 1112 14       		.uleb128 0x14
 2842 1113 B9580000 		.4byte	.LASF409
 2843 1117 07       		.byte	0x7
 2844 1118 AC       		.byte	0xac
 2845 1119 FC000000 		.4byte	0xfc
 2846 111d 8801     		.2byte	0x188
 2847 111f 14       		.uleb128 0x14
 2848 1120 5A020000 		.4byte	.LASF410
 2849 1124 07       		.byte	0x7
 2850 1125 AD       		.byte	0xad
 2851 1126 FC000000 		.4byte	0xfc
 2852 112a 8C01     		.2byte	0x18c
 2853 112c 14       		.uleb128 0x14
 2854 112d 45590000 		.4byte	.LASF411
 2855 1131 07       		.byte	0x7
 2856 1132 AE       		.byte	0xae
 2857 1133 F7000000 		.4byte	0xf7
 2858 1137 9001     		.2byte	0x190
 2859 1139 14       		.uleb128 0x14
 2860 113a 65020000 		.4byte	.LASF412
 2861 113e 07       		.byte	0x7
 2862 113f AF       		.byte	0xaf
 2863 1140 F61A0000 		.4byte	0x1af6
 2864 1144 9401     		.2byte	0x194
 2865 1146 14       		.uleb128 0x14
 2866 1147 80440000 		.4byte	.LASF413
 2867 114b 07       		.byte	0x7
 2868 114c B0       		.byte	0xb0
 2869 114d F7000000 		.4byte	0xf7
 2870 1151 A801     		.2byte	0x1a8
 2871 1153 14       		.uleb128 0x14
 2872 1154 4C440000 		.4byte	.LASF414
 2873 1158 07       		.byte	0x7
 2874 1159 B1       		.byte	0xb1
 2875 115a F7000000 		.4byte	0xf7
 2876 115e AC01     		.2byte	0x1ac
 2877 1160 14       		.uleb128 0x14
 2878 1161 4E130000 		.4byte	.LASF415
 2879 1165 07       		.byte	0x7
 2880 1166 B2       		.byte	0xb2
 2881 1167 F7000000 		.4byte	0xf7
 2882 116b B001     		.2byte	0x1b0
 2883 116d 14       		.uleb128 0x14
 2884 116e 7A140000 		.4byte	.LASF416
ARM GAS  C:\Users\ASUS\AppData\Local\Temp\cczm8cZa.s 			page 82


 2885 1172 07       		.byte	0x7
 2886 1173 B3       		.byte	0xb3
 2887 1174 F7000000 		.4byte	0xf7
 2888 1178 B401     		.2byte	0x1b4
 2889 117a 14       		.uleb128 0x14
 2890 117b 34510000 		.4byte	.LASF417
 2891 117f 07       		.byte	0x7
 2892 1180 B4       		.byte	0xb4
 2893 1181 F7000000 		.4byte	0xf7
 2894 1185 B801     		.2byte	0x1b8
 2895 1187 14       		.uleb128 0x14
 2896 1188 A0510000 		.4byte	.LASF418
 2897 118c 07       		.byte	0x7
 2898 118d B5       		.byte	0xb5
 2899 118e F7000000 		.4byte	0xf7
 2900 1192 BC01     		.2byte	0x1bc
 2901 1194 14       		.uleb128 0x14
 2902 1195 52060000 		.4byte	.LASF419
 2903 1199 07       		.byte	0x7
 2904 119a B6       		.byte	0xb6
 2905 119b F7000000 		.4byte	0xf7
 2906 119f C001     		.2byte	0x1c0
 2907 11a1 14       		.uleb128 0x14
 2908 11a2 61060000 		.4byte	.LASF420
 2909 11a6 07       		.byte	0x7
 2910 11a7 B7       		.byte	0xb7
 2911 11a8 F7000000 		.4byte	0xf7
 2912 11ac C401     		.2byte	0x1c4
 2913 11ae 14       		.uleb128 0x14
 2914 11af 43060000 		.4byte	.LASF421
 2915 11b3 07       		.byte	0x7
 2916 11b4 B8       		.byte	0xb8
 2917 11b5 F7000000 		.4byte	0xf7
 2918 11b9 C801     		.2byte	0x1c8
 2919 11bb 14       		.uleb128 0x14
 2920 11bc 70020000 		.4byte	.LASF422
 2921 11c0 07       		.byte	0x7
 2922 11c1 B9       		.byte	0xb9
 2923 11c2 FC000000 		.4byte	0xfc
 2924 11c6 CC01     		.2byte	0x1cc
 2925 11c8 14       		.uleb128 0x14
 2926 11c9 E2090000 		.4byte	.LASF423
 2927 11cd 07       		.byte	0x7
 2928 11ce BA       		.byte	0xba
 2929 11cf F7000000 		.4byte	0xf7
 2930 11d3 D001     		.2byte	0x1d0
 2931 11d5 14       		.uleb128 0x14
 2932 11d6 A81E0000 		.4byte	.LASF424
 2933 11da 07       		.byte	0x7
 2934 11db BB       		.byte	0xbb
 2935 11dc F7000000 		.4byte	0xf7
 2936 11e0 D401     		.2byte	0x1d4
 2937 11e2 14       		.uleb128 0x14
 2938 11e3 F5170000 		.4byte	.LASF425
 2939 11e7 07       		.byte	0x7
 2940 11e8 BC       		.byte	0xbc
 2941 11e9 F7000000 		.4byte	0xf7
ARM GAS  C:\Users\ASUS\AppData\Local\Temp\cczm8cZa.s 			page 83


 2942 11ed D801     		.2byte	0x1d8
 2943 11ef 14       		.uleb128 0x14
 2944 11f0 E9170000 		.4byte	.LASF426
 2945 11f4 07       		.byte	0x7
 2946 11f5 BD       		.byte	0xbd
 2947 11f6 F7000000 		.4byte	0xf7
 2948 11fa DC01     		.2byte	0x1dc
 2949 11fc 14       		.uleb128 0x14
 2950 11fd E7060000 		.4byte	.LASF427
 2951 1201 07       		.byte	0x7
 2952 1202 BE       		.byte	0xbe
 2953 1203 F7000000 		.4byte	0xf7
 2954 1207 E001     		.2byte	0x1e0
 2955 1209 14       		.uleb128 0x14
 2956 120a 7B020000 		.4byte	.LASF428
 2957 120e 07       		.byte	0x7
 2958 120f BF       		.byte	0xbf
 2959 1210 FC000000 		.4byte	0xfc
 2960 1214 E401     		.2byte	0x1e4
 2961 1216 14       		.uleb128 0x14
 2962 1217 8C0E0000 		.4byte	.LASF429
 2963 121b 07       		.byte	0x7
 2964 121c C0       		.byte	0xc0
 2965 121d F7000000 		.4byte	0xf7
 2966 1221 E801     		.2byte	0x1e8
 2967 1223 14       		.uleb128 0x14
 2968 1224 980E0000 		.4byte	.LASF430
 2969 1228 07       		.byte	0x7
 2970 1229 C1       		.byte	0xc1
 2971 122a F7000000 		.4byte	0xf7
 2972 122e EC01     		.2byte	0x1ec
 2973 1230 14       		.uleb128 0x14
 2974 1231 9E450000 		.4byte	.LASF431
 2975 1235 07       		.byte	0x7
 2976 1236 C2       		.byte	0xc2
 2977 1237 F7000000 		.4byte	0xf7
 2978 123b F001     		.2byte	0x1f0
 2979 123d 14       		.uleb128 0x14
 2980 123e B7450000 		.4byte	.LASF432
 2981 1242 07       		.byte	0x7
 2982 1243 C3       		.byte	0xc3
 2983 1244 F7000000 		.4byte	0xf7
 2984 1248 F401     		.2byte	0x1f4
 2985 124a 14       		.uleb128 0x14
 2986 124b 6E150000 		.4byte	.LASF433
 2987 124f 07       		.byte	0x7
 2988 1250 C4       		.byte	0xc4
 2989 1251 F7000000 		.4byte	0xf7
 2990 1255 F801     		.2byte	0x1f8
 2991 1257 14       		.uleb128 0x14
 2992 1258 86020000 		.4byte	.LASF434
 2993 125c 07       		.byte	0x7
 2994 125d C5       		.byte	0xc5
 2995 125e FC000000 		.4byte	0xfc
 2996 1262 FC01     		.2byte	0x1fc
 2997 1264 14       		.uleb128 0x14
 2998 1265 8D2F0000 		.4byte	.LASF435
ARM GAS  C:\Users\ASUS\AppData\Local\Temp\cczm8cZa.s 			page 84


 2999 1269 07       		.byte	0x7
 3000 126a C6       		.byte	0xc6
 3001 126b FC000000 		.4byte	0xfc
 3002 126f 0002     		.2byte	0x200
 3003 1271 14       		.uleb128 0x14
 3004 1272 962F0000 		.4byte	.LASF436
 3005 1276 07       		.byte	0x7
 3006 1277 C7       		.byte	0xc7
 3007 1278 FC000000 		.4byte	0xfc
 3008 127c 0402     		.2byte	0x204
 3009 127e 14       		.uleb128 0x14
 3010 127f 9F2F0000 		.4byte	.LASF437
 3011 1283 07       		.byte	0x7
 3012 1284 C8       		.byte	0xc8
 3013 1285 FC000000 		.4byte	0xfc
 3014 1289 0802     		.2byte	0x208
 3015 128b 14       		.uleb128 0x14
 3016 128c A82F0000 		.4byte	.LASF438
 3017 1290 07       		.byte	0x7
 3018 1291 C9       		.byte	0xc9
 3019 1292 FC000000 		.4byte	0xfc
 3020 1296 0C02     		.2byte	0x20c
 3021 1298 14       		.uleb128 0x14
 3022 1299 B12F0000 		.4byte	.LASF439
 3023 129d 07       		.byte	0x7
 3024 129e CA       		.byte	0xca
 3025 129f FC000000 		.4byte	0xfc
 3026 12a3 1002     		.2byte	0x210
 3027 12a5 14       		.uleb128 0x14
 3028 12a6 BA2F0000 		.4byte	.LASF440
 3029 12aa 07       		.byte	0x7
 3030 12ab CB       		.byte	0xcb
 3031 12ac FC000000 		.4byte	0xfc
 3032 12b0 1402     		.2byte	0x214
 3033 12b2 14       		.uleb128 0x14
 3034 12b3 C32F0000 		.4byte	.LASF441
 3035 12b7 07       		.byte	0x7
 3036 12b8 CC       		.byte	0xcc
 3037 12b9 FC000000 		.4byte	0xfc
 3038 12bd 1802     		.2byte	0x218
 3039 12bf 14       		.uleb128 0x14
 3040 12c0 CC2F0000 		.4byte	.LASF442
 3041 12c4 07       		.byte	0x7
 3042 12c5 CD       		.byte	0xcd
 3043 12c6 FC000000 		.4byte	0xfc
 3044 12ca 1C02     		.2byte	0x21c
 3045 12cc 14       		.uleb128 0x14
 3046 12cd D52F0000 		.4byte	.LASF443
 3047 12d1 07       		.byte	0x7
 3048 12d2 CE       		.byte	0xce
 3049 12d3 FC000000 		.4byte	0xfc
 3050 12d7 2002     		.2byte	0x220
 3051 12d9 14       		.uleb128 0x14
 3052 12da 00290000 		.4byte	.LASF444
 3053 12de 07       		.byte	0x7
 3054 12df CF       		.byte	0xcf
 3055 12e0 FC000000 		.4byte	0xfc
ARM GAS  C:\Users\ASUS\AppData\Local\Temp\cczm8cZa.s 			page 85


 3056 12e4 2402     		.2byte	0x224
 3057 12e6 14       		.uleb128 0x14
 3058 12e7 91020000 		.4byte	.LASF445
 3059 12eb 07       		.byte	0x7
 3060 12ec D0       		.byte	0xd0
 3061 12ed 001B0000 		.4byte	0x1b00
 3062 12f1 2802     		.2byte	0x228
 3063 12f3 14       		.uleb128 0x14
 3064 12f4 9F0D0000 		.4byte	.LASF446
 3065 12f8 07       		.byte	0x7
 3066 12f9 D1       		.byte	0xd1
 3067 12fa F7000000 		.4byte	0xf7
 3068 12fe 3002     		.2byte	0x230
 3069 1300 14       		.uleb128 0x14
 3070 1301 B00D0000 		.4byte	.LASF447
 3071 1305 07       		.byte	0x7
 3072 1306 D2       		.byte	0xd2
 3073 1307 F7000000 		.4byte	0xf7
 3074 130b 3402     		.2byte	0x234
 3075 130d 14       		.uleb128 0x14
 3076 130e 8E0D0000 		.4byte	.LASF448
 3077 1312 07       		.byte	0x7
 3078 1313 D3       		.byte	0xd3
 3079 1314 F7000000 		.4byte	0xf7
 3080 1318 3802     		.2byte	0x238
 3081 131a 14       		.uleb128 0x14
 3082 131b 474A0000 		.4byte	.LASF449
 3083 131f 07       		.byte	0x7
 3084 1320 D4       		.byte	0xd4
 3085 1321 F7000000 		.4byte	0xf7
 3086 1325 3C02     		.2byte	0x23c
 3087 1327 14       		.uleb128 0x14
 3088 1328 5B4A0000 		.4byte	.LASF450
 3089 132c 07       		.byte	0x7
 3090 132d D6       		.byte	0xd6
 3091 132e F7000000 		.4byte	0xf7
 3092 1332 4002     		.2byte	0x240
 3093 1334 14       		.uleb128 0x14
 3094 1335 334A0000 		.4byte	.LASF451
 3095 1339 07       		.byte	0x7
 3096 133a D8       		.byte	0xd8
 3097 133b F7000000 		.4byte	0xf7
 3098 133f 4402     		.2byte	0x244
 3099 1341 14       		.uleb128 0x14
 3100 1342 94280000 		.4byte	.LASF452
 3101 1346 07       		.byte	0x7
 3102 1347 DA       		.byte	0xda
 3103 1348 F7000000 		.4byte	0xf7
 3104 134c 4802     		.2byte	0x248
 3105 134e 14       		.uleb128 0x14
 3106 134f 55310000 		.4byte	.LASF453
 3107 1353 07       		.byte	0x7
 3108 1354 DB       		.byte	0xdb
 3109 1355 F7000000 		.4byte	0xf7
 3110 1359 4C02     		.2byte	0x24c
 3111 135b 14       		.uleb128 0x14
 3112 135c 9C020000 		.4byte	.LASF454
ARM GAS  C:\Users\ASUS\AppData\Local\Temp\cczm8cZa.s 			page 86


 3113 1360 07       		.byte	0x7
 3114 1361 DC       		.byte	0xdc
 3115 1362 0A1B0000 		.4byte	0x1b0a
 3116 1366 5002     		.2byte	0x250
 3117 1368 14       		.uleb128 0x14
 3118 1369 2E1E0000 		.4byte	.LASF455
 3119 136d 07       		.byte	0x7
 3120 136e DD       		.byte	0xdd
 3121 136f F7000000 		.4byte	0xf7
 3122 1373 5802     		.2byte	0x258
 3123 1375 14       		.uleb128 0x14
 3124 1376 A7020000 		.4byte	.LASF456
 3125 137a 07       		.byte	0x7
 3126 137b DE       		.byte	0xde
 3127 137c FC000000 		.4byte	0xfc
 3128 1380 5C02     		.2byte	0x25c
 3129 1382 14       		.uleb128 0x14
 3130 1383 93410000 		.4byte	.LASF457
 3131 1387 07       		.byte	0x7
 3132 1388 DF       		.byte	0xdf
 3133 1389 F7000000 		.4byte	0xf7
 3134 138d 6002     		.2byte	0x260
 3135 138f 14       		.uleb128 0x14
 3136 1390 9D360000 		.4byte	.LASF458
 3137 1394 07       		.byte	0x7
 3138 1395 E0       		.byte	0xe0
 3139 1396 FC000000 		.4byte	0xfc
 3140 139a 6402     		.2byte	0x264
 3141 139c 14       		.uleb128 0x14
 3142 139d A34A0000 		.4byte	.LASF459
 3143 13a1 07       		.byte	0x7
 3144 13a2 E1       		.byte	0xe1
 3145 13a3 FC000000 		.4byte	0xfc
 3146 13a7 6802     		.2byte	0x268
 3147 13a9 14       		.uleb128 0x14
 3148 13aa 8D310000 		.4byte	.LASF460
 3149 13ae 07       		.byte	0x7
 3150 13af E2       		.byte	0xe2
 3151 13b0 241B0000 		.4byte	0x1b24
 3152 13b4 6C02     		.2byte	0x26c
 3153 13b6 14       		.uleb128 0x14
 3154 13b7 791B0000 		.4byte	.LASF461
 3155 13bb 07       		.byte	0x7
 3156 13bc E3       		.byte	0xe3
 3157 13bd F7000000 		.4byte	0xf7
 3158 13c1 A403     		.2byte	0x3a4
 3159 13c3 14       		.uleb128 0x14
 3160 13c4 2F5A0000 		.4byte	.LASF462
 3161 13c8 07       		.byte	0x7
 3162 13c9 E4       		.byte	0xe4
 3163 13ca F7000000 		.4byte	0xf7
 3164 13ce A803     		.2byte	0x3a8
 3165 13d0 14       		.uleb128 0x14
 3166 13d1 0B4A0000 		.4byte	.LASF463
 3167 13d5 07       		.byte	0x7
 3168 13d6 E5       		.byte	0xe5
 3169 13d7 F7000000 		.4byte	0xf7
ARM GAS  C:\Users\ASUS\AppData\Local\Temp\cczm8cZa.s 			page 87


 3170 13db AC03     		.2byte	0x3ac
 3171 13dd 14       		.uleb128 0x14
 3172 13de 6D250000 		.4byte	.LASF464
 3173 13e2 07       		.byte	0x7
 3174 13e3 E6       		.byte	0xe6
 3175 13e4 F7000000 		.4byte	0xf7
 3176 13e8 B003     		.2byte	0x3b0
 3177 13ea 14       		.uleb128 0x14
 3178 13eb C7020000 		.4byte	.LASF465
 3179 13ef 07       		.byte	0x7
 3180 13f0 E7       		.byte	0xe7
 3181 13f1 2E1B0000 		.4byte	0x1b2e
 3182 13f5 B403     		.2byte	0x3b4
 3183 13f7 14       		.uleb128 0x14
 3184 13f8 6D190000 		.4byte	.LASF466
 3185 13fc 07       		.byte	0x7
 3186 13fd E8       		.byte	0xe8
 3187 13fe F7000000 		.4byte	0xf7
 3188 1402 C003     		.2byte	0x3c0
 3189 1404 14       		.uleb128 0x14
 3190 1405 7C190000 		.4byte	.LASF467
 3191 1409 07       		.byte	0x7
 3192 140a E9       		.byte	0xe9
 3193 140b F7000000 		.4byte	0xf7
 3194 140f C403     		.2byte	0x3c4
 3195 1411 14       		.uleb128 0x14
 3196 1412 8B190000 		.4byte	.LASF468
 3197 1416 07       		.byte	0x7
 3198 1417 EA       		.byte	0xea
 3199 1418 F7000000 		.4byte	0xf7
 3200 141c C803     		.2byte	0x3c8
 3201 141e 14       		.uleb128 0x14
 3202 141f 9A190000 		.4byte	.LASF469
 3203 1423 07       		.byte	0x7
 3204 1424 EB       		.byte	0xeb
 3205 1425 F7000000 		.4byte	0xf7
 3206 1429 CC03     		.2byte	0x3cc
 3207 142b 14       		.uleb128 0x14
 3208 142c A9190000 		.4byte	.LASF470
 3209 1430 07       		.byte	0x7
 3210 1431 EC       		.byte	0xec
 3211 1432 F7000000 		.4byte	0xf7
 3212 1436 D003     		.2byte	0x3d0
 3213 1438 14       		.uleb128 0x14
 3214 1439 B8190000 		.4byte	.LASF471
 3215 143d 07       		.byte	0x7
 3216 143e ED       		.byte	0xed
 3217 143f F7000000 		.4byte	0xf7
 3218 1443 D403     		.2byte	0x3d4
 3219 1445 14       		.uleb128 0x14
 3220 1446 C7190000 		.4byte	.LASF472
 3221 144a 07       		.byte	0x7
 3222 144b EE       		.byte	0xee
 3223 144c F7000000 		.4byte	0xf7
 3224 1450 D803     		.2byte	0x3d8
 3225 1452 14       		.uleb128 0x14
 3226 1453 D6190000 		.4byte	.LASF473
ARM GAS  C:\Users\ASUS\AppData\Local\Temp\cczm8cZa.s 			page 88


 3227 1457 07       		.byte	0x7
 3228 1458 EF       		.byte	0xef
 3229 1459 F7000000 		.4byte	0xf7
 3230 145d DC03     		.2byte	0x3dc
 3231 145f 14       		.uleb128 0x14
 3232 1460 E5190000 		.4byte	.LASF474
 3233 1464 07       		.byte	0x7
 3234 1465 F0       		.byte	0xf0
 3235 1466 F7000000 		.4byte	0xf7
 3236 146a E003     		.2byte	0x3e0
 3237 146c 14       		.uleb128 0x14
 3238 146d F4190000 		.4byte	.LASF475
 3239 1471 07       		.byte	0x7
 3240 1472 F1       		.byte	0xf1
 3241 1473 F7000000 		.4byte	0xf7
 3242 1477 E403     		.2byte	0x3e4
 3243 1479 14       		.uleb128 0x14
 3244 147a F84F0000 		.4byte	.LASF476
 3245 147e 07       		.byte	0x7
 3246 147f F2       		.byte	0xf2
 3247 1480 F7000000 		.4byte	0xf7
 3248 1484 E803     		.2byte	0x3e8
 3249 1486 14       		.uleb128 0x14
 3250 1487 08500000 		.4byte	.LASF477
 3251 148b 07       		.byte	0x7
 3252 148c F3       		.byte	0xf3
 3253 148d F7000000 		.4byte	0xf7
 3254 1491 EC03     		.2byte	0x3ec
 3255 1493 14       		.uleb128 0x14
 3256 1494 46030000 		.4byte	.LASF478
 3257 1498 07       		.byte	0x7
 3258 1499 F4       		.byte	0xf4
 3259 149a 491B0000 		.4byte	0x1b49
 3260 149e F003     		.2byte	0x3f0
 3261 14a0 14       		.uleb128 0x14
 3262 14a1 00110000 		.4byte	.LASF479
 3263 14a5 07       		.byte	0x7
 3264 14a6 F5       		.byte	0xf5
 3265 14a7 F7000000 		.4byte	0xf7
 3266 14ab 040A     		.2byte	0xa04
 3267 14ad 14       		.uleb128 0x14
 3268 14ae BB260000 		.4byte	.LASF480
 3269 14b2 07       		.byte	0x7
 3270 14b3 F6       		.byte	0xf6
 3271 14b4 FC000000 		.4byte	0xfc
 3272 14b8 080A     		.2byte	0xa08
 3273 14ba 14       		.uleb128 0x14
 3274 14bb 0A2A0000 		.4byte	.LASF481
 3275 14bf 07       		.byte	0x7
 3276 14c0 F7       		.byte	0xf7
 3277 14c1 FC000000 		.4byte	0xfc
 3278 14c5 0C0A     		.2byte	0xa0c
 3279 14c7 14       		.uleb128 0x14
 3280 14c8 F02B0000 		.4byte	.LASF482
 3281 14cc 07       		.byte	0x7
 3282 14cd F8       		.byte	0xf8
 3283 14ce F7000000 		.4byte	0xf7
ARM GAS  C:\Users\ASUS\AppData\Local\Temp\cczm8cZa.s 			page 89


 3284 14d2 100A     		.2byte	0xa10
 3285 14d4 14       		.uleb128 0x14
 3286 14d5 8C080000 		.4byte	.LASF483
 3287 14d9 07       		.byte	0x7
 3288 14da F9       		.byte	0xf9
 3289 14db F7000000 		.4byte	0xf7
 3290 14df 140A     		.2byte	0xa14
 3291 14e1 14       		.uleb128 0x14
 3292 14e2 99540000 		.4byte	.LASF484
 3293 14e6 07       		.byte	0x7
 3294 14e7 FA       		.byte	0xfa
 3295 14e8 F7000000 		.4byte	0xf7
 3296 14ec 180A     		.2byte	0xa18
 3297 14ee 14       		.uleb128 0x14
 3298 14ef 383D0000 		.4byte	.LASF485
 3299 14f3 07       		.byte	0x7
 3300 14f4 FB       		.byte	0xfb
 3301 14f5 F7000000 		.4byte	0xf7
 3302 14f9 1C0A     		.2byte	0xa1c
 3303 14fb 14       		.uleb128 0x14
 3304 14fc 1A300000 		.4byte	.LASF486
 3305 1500 07       		.byte	0x7
 3306 1501 FC       		.byte	0xfc
 3307 1502 F7000000 		.4byte	0xf7
 3308 1506 200A     		.2byte	0xa20
 3309 1508 14       		.uleb128 0x14
 3310 1509 953B0000 		.4byte	.LASF487
 3311 150d 07       		.byte	0x7
 3312 150e FD       		.byte	0xfd
 3313 150f F7000000 		.4byte	0xf7
 3314 1513 240A     		.2byte	0xa24
 3315 1515 14       		.uleb128 0x14
 3316 1516 811C0000 		.4byte	.LASF488
 3317 151a 07       		.byte	0x7
 3318 151b FE       		.byte	0xfe
 3319 151c FC000000 		.4byte	0xfc
 3320 1520 280A     		.2byte	0xa28
 3321 1522 14       		.uleb128 0x14
 3322 1523 03200000 		.4byte	.LASF489
 3323 1527 07       		.byte	0x7
 3324 1528 FF       		.byte	0xff
 3325 1529 FC000000 		.4byte	0xfc
 3326 152d 2C0A     		.2byte	0xa2c
 3327 152f 16       		.uleb128 0x16
 3328 1530 51030000 		.4byte	.LASF490
 3329 1534 07       		.byte	0x7
 3330 1535 0001     		.2byte	0x100
 3331 1537 631B0000 		.4byte	0x1b63
 3332 153b 300A     		.2byte	0xa30
 3333 153d 16       		.uleb128 0x16
 3334 153e 611E0000 		.4byte	.LASF491
 3335 1542 07       		.byte	0x7
 3336 1543 0101     		.2byte	0x101
 3337 1545 F7000000 		.4byte	0xf7
 3338 1549 000E     		.2byte	0xe00
 3339 154b 16       		.uleb128 0x16
 3340 154c 96380000 		.4byte	.LASF492
ARM GAS  C:\Users\ASUS\AppData\Local\Temp\cczm8cZa.s 			page 90


 3341 1550 07       		.byte	0x7
 3342 1551 0201     		.2byte	0x102
 3343 1553 F7000000 		.4byte	0xf7
 3344 1557 040E     		.2byte	0xe04
 3345 1559 16       		.uleb128 0x16
 3346 155a 81510000 		.4byte	.LASF493
 3347 155e 07       		.byte	0x7
 3348 155f 0301     		.2byte	0x103
 3349 1561 F7000000 		.4byte	0xf7
 3350 1565 080E     		.2byte	0xe08
 3351 1567 16       		.uleb128 0x16
 3352 1568 5C030000 		.4byte	.LASF494
 3353 156c 07       		.byte	0x7
 3354 156d 0401     		.2byte	0x104
 3355 156f FC000000 		.4byte	0xfc
 3356 1573 0C0E     		.2byte	0xe0c
 3357 1575 16       		.uleb128 0x16
 3358 1576 2A400000 		.4byte	.LASF495
 3359 157a 07       		.byte	0x7
 3360 157b 0501     		.2byte	0x105
 3361 157d F7000000 		.4byte	0xf7
 3362 1581 100E     		.2byte	0xe10
 3363 1583 16       		.uleb128 0x16
 3364 1584 67030000 		.4byte	.LASF496
 3365 1588 07       		.byte	0x7
 3366 1589 0601     		.2byte	0x106
 3367 158b 6D1B0000 		.4byte	0x1b6d
 3368 158f 140E     		.2byte	0xe14
 3369 1591 16       		.uleb128 0x16
 3370 1592 8F060000 		.4byte	.LASF497
 3371 1596 07       		.byte	0x7
 3372 1597 0701     		.2byte	0x107
 3373 1599 F7000000 		.4byte	0xf7
 3374 159d 000F     		.2byte	0xf00
 3375 159f 16       		.uleb128 0x16
 3376 15a0 54530000 		.4byte	.LASF498
 3377 15a4 07       		.byte	0x7
 3378 15a5 0801     		.2byte	0x108
 3379 15a7 F7000000 		.4byte	0xf7
 3380 15ab 040F     		.2byte	0xf04
 3381 15ad 16       		.uleb128 0x16
 3382 15ae 62530000 		.4byte	.LASF499
 3383 15b2 07       		.byte	0x7
 3384 15b3 0901     		.2byte	0x109
 3385 15b5 F7000000 		.4byte	0xf7
 3386 15b9 080F     		.2byte	0xf08
 3387 15bb 16       		.uleb128 0x16
 3388 15bc 46530000 		.4byte	.LASF500
 3389 15c0 07       		.byte	0x7
 3390 15c1 0B01     		.2byte	0x10b
 3391 15c3 F7000000 		.4byte	0xf7
 3392 15c7 0C0F     		.2byte	0xf0c
 3393 15c9 16       		.uleb128 0x16
 3394 15ca 85180000 		.4byte	.LASF501
 3395 15ce 07       		.byte	0x7
 3396 15cf 0D01     		.2byte	0x10d
 3397 15d1 721B0000 		.4byte	0x1b72
ARM GAS  C:\Users\ASUS\AppData\Local\Temp\cczm8cZa.s 			page 91


 3398 15d5 100F     		.2byte	0xf10
 3399 15d7 16       		.uleb128 0x16
 3400 15d8 72030000 		.4byte	.LASF502
 3401 15dc 07       		.byte	0x7
 3402 15dd 0E01     		.2byte	0x10e
 3403 15df 8C1B0000 		.4byte	0x1b8c
 3404 15e3 500F     		.2byte	0xf50
 3405 15e5 16       		.uleb128 0x16
 3406 15e6 25250000 		.4byte	.LASF503
 3407 15ea 07       		.byte	0x7
 3408 15eb 0F01     		.2byte	0x10f
 3409 15ed F7000000 		.4byte	0xf7
 3410 15f1 A00F     		.2byte	0xfa0
 3411 15f3 16       		.uleb128 0x16
 3412 15f4 7D030000 		.4byte	.LASF504
 3413 15f8 07       		.byte	0x7
 3414 15f9 1001     		.2byte	0x110
 3415 15fb A71B0000 		.4byte	0x1ba7
 3416 15ff A40F     		.2byte	0xfa4
 3417 1601 16       		.uleb128 0x16
 3418 1602 CC0C0000 		.4byte	.LASF505
 3419 1606 07       		.byte	0x7
 3420 1607 1101     		.2byte	0x111
 3421 1609 F7000000 		.4byte	0xf7
 3422 160d 0018     		.2byte	0x1800
 3423 160f 16       		.uleb128 0x16
 3424 1610 88030000 		.4byte	.LASF506
 3425 1614 07       		.byte	0x7
 3426 1615 1201     		.2byte	0x112
 3427 1617 B11B0000 		.4byte	0x1bb1
 3428 161b 0418     		.2byte	0x1804
 3429 161d 16       		.uleb128 0x16
 3430 161e 3F0C0000 		.4byte	.LASF507
 3431 1622 07       		.byte	0x7
 3432 1623 1301     		.2byte	0x113
 3433 1625 F7000000 		.4byte	0xf7
 3434 1629 0028     		.2byte	0x2800
 3435 162b 16       		.uleb128 0x16
 3436 162c 93030000 		.4byte	.LASF508
 3437 1630 07       		.byte	0x7
 3438 1631 1401     		.2byte	0x114
 3439 1633 CC1B0000 		.4byte	0x1bcc
 3440 1637 0428     		.2byte	0x2804
 3441 1639 17       		.uleb128 0x17
 3442 163a E5530000 		.4byte	.LASF509
 3443 163e 07       		.byte	0x7
 3444 163f 1501     		.2byte	0x115
 3445 1641 F7000000 		.4byte	0xf7
 3446 1645 00280100 		.4byte	0x12800
 3447 1649 17       		.uleb128 0x17
 3448 164a 9E030000 		.4byte	.LASF510
 3449 164e 07       		.byte	0x7
 3450 164f 1601     		.2byte	0x116
 3451 1651 D61B0000 		.4byte	0x1bd6
 3452 1655 04280100 		.4byte	0x12804
 3453 1659 17       		.uleb128 0x17
 3454 165a 01170000 		.4byte	.LASF511
ARM GAS  C:\Users\ASUS\AppData\Local\Temp\cczm8cZa.s 			page 92


 3455 165e 07       		.byte	0x7
 3456 165f 1701     		.2byte	0x117
 3457 1661 F7000000 		.4byte	0xf7
 3458 1665 80280100 		.4byte	0x12880
 3459 1669 17       		.uleb128 0x17
 3460 166a A9030000 		.4byte	.LASF512
 3461 166e 07       		.byte	0x7
 3462 166f 1801     		.2byte	0x118
 3463 1671 E01B0000 		.4byte	0x1be0
 3464 1675 84280100 		.4byte	0x12884
 3465 1679 17       		.uleb128 0x17
 3466 167a 1A370000 		.4byte	.LASF513
 3467 167e 07       		.byte	0x7
 3468 167f 1901     		.2byte	0x119
 3469 1681 F7000000 		.4byte	0xf7
 3470 1685 00290100 		.4byte	0x12900
 3471 1689 17       		.uleb128 0x17
 3472 168a 32040000 		.4byte	.LASF514
 3473 168e 07       		.byte	0x7
 3474 168f 1A01     		.2byte	0x11a
 3475 1691 EA1B0000 		.4byte	0x1bea
 3476 1695 04290100 		.4byte	0x12904
 3477 1699 17       		.uleb128 0x17
 3478 169a AB550000 		.4byte	.LASF515
 3479 169e 07       		.byte	0x7
 3480 169f 1B01     		.2byte	0x11b
 3481 16a1 F7000000 		.4byte	0xf7
 3482 16a5 80290100 		.4byte	0x12980
 3483 16a9 17       		.uleb128 0x17
 3484 16aa 3D040000 		.4byte	.LASF516
 3485 16ae 07       		.byte	0x7
 3486 16af 1C01     		.2byte	0x11c
 3487 16b1 051C0000 		.4byte	0x1c05
 3488 16b5 84290100 		.4byte	0x12984
 3489 16b9 17       		.uleb128 0x17
 3490 16ba 1A0C0000 		.4byte	.LASF517
 3491 16be 07       		.byte	0x7
 3492 16bf 1D01     		.2byte	0x11d
 3493 16c1 F7000000 		.4byte	0xf7
 3494 16c5 00400100 		.4byte	0x14000
 3495 16c9 17       		.uleb128 0x17
 3496 16ca 87580000 		.4byte	.LASF518
 3497 16ce 07       		.byte	0x7
 3498 16cf 1E01     		.2byte	0x11e
 3499 16d1 F7000000 		.4byte	0xf7
 3500 16d5 04400100 		.4byte	0x14004
 3501 16d9 17       		.uleb128 0x17
 3502 16da A35A0000 		.4byte	.LASF519
 3503 16de 07       		.byte	0x7
 3504 16df 1F01     		.2byte	0x11f
 3505 16e1 F7000000 		.4byte	0xf7
 3506 16e5 08400100 		.4byte	0x14008
 3507 16e9 17       		.uleb128 0x17
 3508 16ea 980C0000 		.4byte	.LASF520
 3509 16ee 07       		.byte	0x7
 3510 16ef 2001     		.2byte	0x120
 3511 16f1 F7000000 		.4byte	0xf7
ARM GAS  C:\Users\ASUS\AppData\Local\Temp\cczm8cZa.s 			page 93


 3512 16f5 0C400100 		.4byte	0x1400c
 3513 16f9 17       		.uleb128 0x17
 3514 16fa 48040000 		.4byte	.LASF521
 3515 16fe 07       		.byte	0x7
 3516 16ff 2101     		.2byte	0x121
 3517 1701 0F1C0000 		.4byte	0x1c0f
 3518 1705 10400100 		.4byte	0x14010
 3519 1709 17       		.uleb128 0x17
 3520 170a 02310000 		.4byte	.LASF522
 3521 170e 07       		.byte	0x7
 3522 170f 2201     		.2byte	0x122
 3523 1711 FC000000 		.4byte	0xfc
 3524 1715 20400100 		.4byte	0x14020
 3525 1719 17       		.uleb128 0x17
 3526 171a 8A400000 		.4byte	.LASF523
 3527 171e 07       		.byte	0x7
 3528 171f 2301     		.2byte	0x123
 3529 1721 FC000000 		.4byte	0xfc
 3530 1725 24400100 		.4byte	0x14024
 3531 1729 17       		.uleb128 0x17
 3532 172a 54590000 		.4byte	.LASF524
 3533 172e 07       		.byte	0x7
 3534 172f 2401     		.2byte	0x124
 3535 1731 FC000000 		.4byte	0xfc
 3536 1735 28400100 		.4byte	0x14028
 3537 1739 17       		.uleb128 0x17
 3538 173a E50C0000 		.4byte	.LASF525
 3539 173e 07       		.byte	0x7
 3540 173f 2501     		.2byte	0x125
 3541 1741 FC000000 		.4byte	0xfc
 3542 1745 2C400100 		.4byte	0x1402c
 3543 1749 17       		.uleb128 0x17
 3544 174a F2210000 		.4byte	.LASF526
 3545 174e 07       		.byte	0x7
 3546 174f 2601     		.2byte	0x126
 3547 1751 FC000000 		.4byte	0xfc
 3548 1755 30400100 		.4byte	0x14030
 3549 1759 17       		.uleb128 0x17
 3550 175a D0130000 		.4byte	.LASF527
 3551 175e 07       		.byte	0x7
 3552 175f 2701     		.2byte	0x127
 3553 1761 FC000000 		.4byte	0xfc
 3554 1765 34400100 		.4byte	0x14034
 3555 1769 17       		.uleb128 0x17
 3556 176a C4300000 		.4byte	.LASF528
 3557 176e 07       		.byte	0x7
 3558 176f 2801     		.2byte	0x128
 3559 1771 FC000000 		.4byte	0xfc
 3560 1775 38400100 		.4byte	0x14038
 3561 1779 17       		.uleb128 0x17
 3562 177a F1270000 		.4byte	.LASF529
 3563 177e 07       		.byte	0x7
 3564 177f 2901     		.2byte	0x129
 3565 1781 FC000000 		.4byte	0xfc
 3566 1785 3C400100 		.4byte	0x1403c
 3567 1789 17       		.uleb128 0x17
 3568 178a 32340000 		.4byte	.LASF530
ARM GAS  C:\Users\ASUS\AppData\Local\Temp\cczm8cZa.s 			page 94


 3569 178e 07       		.byte	0x7
 3570 178f 2A01     		.2byte	0x12a
 3571 1791 F7000000 		.4byte	0xf7
 3572 1795 40400100 		.4byte	0x14040
 3573 1799 17       		.uleb128 0x17
 3574 179a 91220000 		.4byte	.LASF531
 3575 179e 07       		.byte	0x7
 3576 179f 2B01     		.2byte	0x12b
 3577 17a1 FC000000 		.4byte	0xfc
 3578 17a5 44400100 		.4byte	0x14044
 3579 17a9 17       		.uleb128 0x17
 3580 17aa 61240000 		.4byte	.LASF532
 3581 17ae 07       		.byte	0x7
 3582 17af 2C01     		.2byte	0x12c
 3583 17b1 F7000000 		.4byte	0xf7
 3584 17b5 48400100 		.4byte	0x14048
 3585 17b9 17       		.uleb128 0x17
 3586 17ba 9D150000 		.4byte	.LASF533
 3587 17be 07       		.byte	0x7
 3588 17bf 2D01     		.2byte	0x12d
 3589 17c1 FC000000 		.4byte	0xfc
 3590 17c5 4C400100 		.4byte	0x1404c
 3591 17c9 17       		.uleb128 0x17
 3592 17ca 53040000 		.4byte	.LASF534
 3593 17ce 07       		.byte	0x7
 3594 17cf 2E01     		.2byte	0x12e
 3595 17d1 191C0000 		.4byte	0x1c19
 3596 17d5 50400100 		.4byte	0x14050
 3597 17d9 17       		.uleb128 0x17
 3598 17da 35080000 		.4byte	.LASF535
 3599 17de 07       		.byte	0x7
 3600 17df 2F01     		.2byte	0x12f
 3601 17e1 FC000000 		.4byte	0xfc
 3602 17e5 80400100 		.4byte	0x14080
 3603 17e9 17       		.uleb128 0x17
 3604 17ea 40430000 		.4byte	.LASF536
 3605 17ee 07       		.byte	0x7
 3606 17ef 3001     		.2byte	0x130
 3607 17f1 FC000000 		.4byte	0xfc
 3608 17f5 84400100 		.4byte	0x14084
 3609 17f9 17       		.uleb128 0x17
 3610 17fa 21480000 		.4byte	.LASF537
 3611 17fe 07       		.byte	0x7
 3612 17ff 3101     		.2byte	0x131
 3613 1801 FC000000 		.4byte	0xfc
 3614 1805 88400100 		.4byte	0x14088
 3615 1809 17       		.uleb128 0x17
 3616 180a 5E040000 		.4byte	.LASF538
 3617 180e 07       		.byte	0x7
 3618 180f 3201     		.2byte	0x132
 3619 1811 231C0000 		.4byte	0x1c23
 3620 1815 8C400100 		.4byte	0x1408c
 3621 1819 17       		.uleb128 0x17
 3622 181a C41F0000 		.4byte	.LASF539
 3623 181e 07       		.byte	0x7
 3624 181f 3301     		.2byte	0x133
 3625 1821 281C0000 		.4byte	0x1c28
ARM GAS  C:\Users\ASUS\AppData\Local\Temp\cczm8cZa.s 			page 95


 3626 1825 00410100 		.4byte	0x14100
 3627 1829 17       		.uleb128 0x17
 3628 182a 69040000 		.4byte	.LASF540
 3629 182e 07       		.byte	0x7
 3630 182f 3401     		.2byte	0x134
 3631 1831 321C0000 		.4byte	0x1c32
 3632 1835 40410100 		.4byte	0x14140
 3633 1839 17       		.uleb128 0x17
 3634 183a 06390000 		.4byte	.LASF541
 3635 183e 07       		.byte	0x7
 3636 183f 3501     		.2byte	0x135
 3637 1841 F7000000 		.4byte	0xf7
 3638 1845 00420100 		.4byte	0x14200
 3639 1849 17       		.uleb128 0x17
 3640 184a 69090000 		.4byte	.LASF542
 3641 184e 07       		.byte	0x7
 3642 184f 3601     		.2byte	0x136
 3643 1851 F7000000 		.4byte	0xf7
 3644 1855 04420100 		.4byte	0x14204
 3645 1859 17       		.uleb128 0x17
 3646 185a E01A0000 		.4byte	.LASF543
 3647 185e 07       		.byte	0x7
 3648 185f 3701     		.2byte	0x137
 3649 1861 F7000000 		.4byte	0xf7
 3650 1865 08420100 		.4byte	0x14208
 3651 1869 17       		.uleb128 0x17
 3652 186a 74040000 		.4byte	.LASF544
 3653 186e 07       		.byte	0x7
 3654 186f 3801     		.2byte	0x138
 3655 1871 FC000000 		.4byte	0xfc
 3656 1875 0C420100 		.4byte	0x1420c
 3657 1879 17       		.uleb128 0x17
 3658 187a 050A0000 		.4byte	.LASF545
 3659 187e 07       		.byte	0x7
 3660 187f 3901     		.2byte	0x139
 3661 1881 F7000000 		.4byte	0xf7
 3662 1885 10420100 		.4byte	0x14210
 3663 1889 17       		.uleb128 0x17
 3664 188a 37580000 		.4byte	.LASF546
 3665 188e 07       		.byte	0x7
 3666 188f 3A01     		.2byte	0x13a
 3667 1891 F7000000 		.4byte	0xf7
 3668 1895 14420100 		.4byte	0x14214
 3669 1899 17       		.uleb128 0x17
 3670 189a AB290000 		.4byte	.LASF547
 3671 189e 07       		.byte	0x7
 3672 189f 3B01     		.2byte	0x13b
 3673 18a1 F7000000 		.4byte	0xf7
 3674 18a5 18420100 		.4byte	0x14218
 3675 18a9 17       		.uleb128 0x17
 3676 18aa 7F040000 		.4byte	.LASF548
 3677 18ae 07       		.byte	0x7
 3678 18af 3C01     		.2byte	0x13c
 3679 18b1 FC000000 		.4byte	0xfc
 3680 18b5 1C420100 		.4byte	0x1421c
 3681 18b9 17       		.uleb128 0x17
 3682 18ba DB390000 		.4byte	.LASF549
ARM GAS  C:\Users\ASUS\AppData\Local\Temp\cczm8cZa.s 			page 96


 3683 18be 07       		.byte	0x7
 3684 18bf 3D01     		.2byte	0x13d
 3685 18c1 F7000000 		.4byte	0xf7
 3686 18c5 20420100 		.4byte	0x14220
 3687 18c9 17       		.uleb128 0x17
 3688 18ca 57420000 		.4byte	.LASF550
 3689 18ce 07       		.byte	0x7
 3690 18cf 3E01     		.2byte	0x13e
 3691 18d1 F7000000 		.4byte	0xf7
 3692 18d5 24420100 		.4byte	0x14224
 3693 18d9 17       		.uleb128 0x17
 3694 18da B53C0000 		.4byte	.LASF551
 3695 18de 07       		.byte	0x7
 3696 18df 3F01     		.2byte	0x13f
 3697 18e1 F7000000 		.4byte	0xf7
 3698 18e5 28420100 		.4byte	0x14228
 3699 18e9 17       		.uleb128 0x17
 3700 18ea 8A040000 		.4byte	.LASF552
 3701 18ee 07       		.byte	0x7
 3702 18ef 4001     		.2byte	0x140
 3703 18f1 FC000000 		.4byte	0xfc
 3704 18f5 2C420100 		.4byte	0x1422c
 3705 18f9 17       		.uleb128 0x17
 3706 18fa D50A0000 		.4byte	.LASF553
 3707 18fe 07       		.byte	0x7
 3708 18ff 4101     		.2byte	0x141
 3709 1901 F7000000 		.4byte	0xf7
 3710 1905 30420100 		.4byte	0x14230
 3711 1909 17       		.uleb128 0x17
 3712 190a CD080000 		.4byte	.LASF554
 3713 190e 07       		.byte	0x7
 3714 190f 4201     		.2byte	0x142
 3715 1911 F7000000 		.4byte	0xf7
 3716 1915 34420100 		.4byte	0x14234
 3717 1919 17       		.uleb128 0x17
 3718 191a DE4C0000 		.4byte	.LASF555
 3719 191e 07       		.byte	0x7
 3720 191f 4301     		.2byte	0x143
 3721 1921 F7000000 		.4byte	0xf7
 3722 1925 38420100 		.4byte	0x14238
 3723 1929 17       		.uleb128 0x17
 3724 192a 95040000 		.4byte	.LASF556
 3725 192e 07       		.byte	0x7
 3726 192f 4401     		.2byte	0x144
 3727 1931 4C1C0000 		.4byte	0x1c4c
 3728 1935 3C420100 		.4byte	0x1423c
 3729 1939 17       		.uleb128 0x17
 3730 193a 65310000 		.4byte	.LASF557
 3731 193e 07       		.byte	0x7
 3732 193f 4501     		.2byte	0x145
 3733 1941 F7000000 		.4byte	0xf7
 3734 1945 00440100 		.4byte	0x14400
 3735 1949 17       		.uleb128 0x17
 3736 194a CD240000 		.4byte	.LASF558
 3737 194e 07       		.byte	0x7
 3738 194f 4601     		.2byte	0x146
 3739 1951 F7000000 		.4byte	0xf7
ARM GAS  C:\Users\ASUS\AppData\Local\Temp\cczm8cZa.s 			page 97


 3740 1955 04440100 		.4byte	0x14404
 3741 1959 17       		.uleb128 0x17
 3742 195a 103A0000 		.4byte	.LASF559
 3743 195e 07       		.byte	0x7
 3744 195f 4701     		.2byte	0x147
 3745 1961 F7000000 		.4byte	0xf7
 3746 1965 08440100 		.4byte	0x14408
 3747 1969 17       		.uleb128 0x17
 3748 196a EC040000 		.4byte	.LASF560
 3749 196e 07       		.byte	0x7
 3750 196f 4801     		.2byte	0x148
 3751 1971 FC000000 		.4byte	0xfc
 3752 1975 0C440100 		.4byte	0x1440c
 3753 1979 17       		.uleb128 0x17
 3754 197a CB090000 		.4byte	.LASF561
 3755 197e 07       		.byte	0x7
 3756 197f 4901     		.2byte	0x149
 3757 1981 F7000000 		.4byte	0xf7
 3758 1985 10440100 		.4byte	0x14410
 3759 1989 17       		.uleb128 0x17
 3760 198a A5330000 		.4byte	.LASF562
 3761 198e 07       		.byte	0x7
 3762 198f 4B01     		.2byte	0x14b
 3763 1991 F7000000 		.4byte	0xf7
 3764 1995 14440100 		.4byte	0x14414
 3765 1999 17       		.uleb128 0x17
 3766 199a F7040000 		.4byte	.LASF563
 3767 199e 07       		.byte	0x7
 3768 199f 4D01     		.2byte	0x14d
 3769 19a1 561C0000 		.4byte	0x1c56
 3770 19a5 18440100 		.4byte	0x14418
 3771 19a9 17       		.uleb128 0x17
 3772 19aa C2160000 		.4byte	.LASF564
 3773 19ae 07       		.byte	0x7
 3774 19af 4E01     		.2byte	0x14e
 3775 19b1 F7000000 		.4byte	0xf7
 3776 19b5 20440100 		.4byte	0x14420
 3777 19b9 17       		.uleb128 0x17
 3778 19ba 5D380000 		.4byte	.LASF565
 3779 19be 07       		.byte	0x7
 3780 19bf 5001     		.2byte	0x150
 3781 19c1 FC000000 		.4byte	0xfc
 3782 19c5 24440100 		.4byte	0x14424
 3783 19c9 17       		.uleb128 0x17
 3784 19ca BE2E0000 		.4byte	.LASF566
 3785 19ce 07       		.byte	0x7
 3786 19cf 5101     		.2byte	0x151
 3787 19d1 FC000000 		.4byte	0xfc
 3788 19d5 28440100 		.4byte	0x14428
 3789 19d9 17       		.uleb128 0x17
 3790 19da 02050000 		.4byte	.LASF567
 3791 19de 07       		.byte	0x7
 3792 19df 5201     		.2byte	0x152
 3793 19e1 FC000000 		.4byte	0xfc
 3794 19e5 2C440100 		.4byte	0x1442c
 3795 19e9 17       		.uleb128 0x17
 3796 19ea 8C150000 		.4byte	.LASF568
ARM GAS  C:\Users\ASUS\AppData\Local\Temp\cczm8cZa.s 			page 98


 3797 19ee 07       		.byte	0x7
 3798 19ef 5301     		.2byte	0x153
 3799 19f1 601C0000 		.4byte	0x1c60
 3800 19f5 30440100 		.4byte	0x14430
 3801 19f9 17       		.uleb128 0x17
 3802 19fa 0D050000 		.4byte	.LASF569
 3803 19fe 07       		.byte	0x7
 3804 19ff 5401     		.2byte	0x154
 3805 1a01 7A1C0000 		.4byte	0x1c7a
 3806 1a05 50440100 		.4byte	0x14450
 3807 1a09 17       		.uleb128 0x17
 3808 1a0a 91330000 		.4byte	.LASF570
 3809 1a0e 07       		.byte	0x7
 3810 1a0f 5501     		.2byte	0x155
 3811 1a11 F7000000 		.4byte	0xf7
 3812 1a15 00480100 		.4byte	0x14800
 3813 1a19 17       		.uleb128 0x17
 3814 1a1a 18050000 		.4byte	.LASF571
 3815 1a1e 07       		.byte	0x7
 3816 1a1f 5601     		.2byte	0x156
 3817 1a21 841C0000 		.4byte	0x1c84
 3818 1a25 04480100 		.4byte	0x14804
 3819 1a29 17       		.uleb128 0x17
 3820 1a2a 02430000 		.4byte	.LASF572
 3821 1a2e 07       		.byte	0x7
 3822 1a2f 5701     		.2byte	0x157
 3823 1a31 F7000000 		.4byte	0xf7
 3824 1a35 C0480100 		.4byte	0x148c0
 3825 1a39 17       		.uleb128 0x17
 3826 1a3a 23050000 		.4byte	.LASF573
 3827 1a3e 07       		.byte	0x7
 3828 1a3f 5801     		.2byte	0x158
 3829 1a41 8E1C0000 		.4byte	0x1c8e
 3830 1a45 C4480100 		.4byte	0x148c4
 3831 1a49 17       		.uleb128 0x17
 3832 1a4a 432A0000 		.4byte	.LASF574
 3833 1a4e 07       		.byte	0x7
 3834 1a4f 5901     		.2byte	0x159
 3835 1a51 F7000000 		.4byte	0xf7
 3836 1a55 80490100 		.4byte	0x14980
 3837 1a59 17       		.uleb128 0x17
 3838 1a5a 2E050000 		.4byte	.LASF575
 3839 1a5e 07       		.byte	0x7
 3840 1a5f 5B01     		.2byte	0x15b
 3841 1a61 981C0000 		.4byte	0x1c98
 3842 1a65 84490100 		.4byte	0x14984
 3843 1a69 17       		.uleb128 0x17
 3844 1a6a 90460000 		.4byte	.LASF576
 3845 1a6e 07       		.byte	0x7
 3846 1a6f 5C01     		.2byte	0x15c
 3847 1a71 F7000000 		.4byte	0xf7
 3848 1a75 404A0100 		.4byte	0x14a40
 3849 1a79 17       		.uleb128 0x17
 3850 1a7a BF360000 		.4byte	.LASF577
 3851 1a7e 07       		.byte	0x7
 3852 1a7f 5E01     		.2byte	0x15e
 3853 1a81 A21C0000 		.4byte	0x1ca2
ARM GAS  C:\Users\ASUS\AppData\Local\Temp\cczm8cZa.s 			page 99


 3854 1a85 444A0100 		.4byte	0x14a44
 3855 1a89 17       		.uleb128 0x17
 3856 1a8a 2E320000 		.4byte	.LASF578
 3857 1a8e 07       		.byte	0x7
 3858 1a8f 5F01     		.2byte	0x15f
 3859 1a91 F7000000 		.4byte	0xf7
 3860 1a95 004B0100 		.4byte	0x14b00
 3861 1a99 17       		.uleb128 0x17
 3862 1a9a 44050000 		.4byte	.LASF579
 3863 1a9e 07       		.byte	0x7
 3864 1a9f 6001     		.2byte	0x160
 3865 1aa1 BD1C0000 		.4byte	0x1cbd
 3866 1aa5 044B0100 		.4byte	0x14b04
 3867 1aa9 00       		.byte	0
 3868 1aaa 08       		.uleb128 0x8
 3869 1aab A1010000 		.4byte	0x1a1
 3870 1aaf 09       		.uleb128 0x9
 3871 1ab0 AA1A0000 		.4byte	0x1aaa
 3872 1ab4 08       		.uleb128 0x8
 3873 1ab5 01010000 		.4byte	0x101
 3874 1ab9 09       		.uleb128 0x9
 3875 1aba B41A0000 		.4byte	0x1ab4
 3876 1abe 0A       		.uleb128 0xa
 3877 1abf F7000000 		.4byte	0xf7
 3878 1ac3 CE1A0000 		.4byte	0x1ace
 3879 1ac7 0B       		.uleb128 0xb
 3880 1ac8 A9000000 		.4byte	0xa9
 3881 1acc 04       		.byte	0x4
 3882 1acd 00       		.byte	0
 3883 1ace 08       		.uleb128 0x8
 3884 1acf BE1A0000 		.4byte	0x1abe
 3885 1ad3 08       		.uleb128 0x8
 3886 1ad4 01010000 		.4byte	0x101
 3887 1ad8 09       		.uleb128 0x9
 3888 1ad9 D31A0000 		.4byte	0x1ad3
 3889 1add 08       		.uleb128 0x8
 3890 1ade A1010000 		.4byte	0x1a1
 3891 1ae2 09       		.uleb128 0x9
 3892 1ae3 DD1A0000 		.4byte	0x1add
 3893 1ae7 08       		.uleb128 0x8
 3894 1ae8 01010000 		.4byte	0x101
 3895 1aec 09       		.uleb128 0x9
 3896 1aed E71A0000 		.4byte	0x1ae7
 3897 1af1 08       		.uleb128 0x8
 3898 1af2 31010000 		.4byte	0x131
 3899 1af6 09       		.uleb128 0x9
 3900 1af7 F11A0000 		.4byte	0x1af1
 3901 1afb 08       		.uleb128 0x8
 3902 1afc A1010000 		.4byte	0x1a1
 3903 1b00 09       		.uleb128 0x9
 3904 1b01 FB1A0000 		.4byte	0x1afb
 3905 1b05 08       		.uleb128 0x8
 3906 1b06 A1010000 		.4byte	0x1a1
 3907 1b0a 09       		.uleb128 0x9
 3908 1b0b 051B0000 		.4byte	0x1b05
 3909 1b0f 0A       		.uleb128 0xa
 3910 1b10 FC000000 		.4byte	0xfc
ARM GAS  C:\Users\ASUS\AppData\Local\Temp\cczm8cZa.s 			page 100


 3911 1b14 1F1B0000 		.4byte	0x1b1f
 3912 1b18 0B       		.uleb128 0xb
 3913 1b19 A9000000 		.4byte	0xa9
 3914 1b1d 4D       		.byte	0x4d
 3915 1b1e 00       		.byte	0
 3916 1b1f 08       		.uleb128 0x8
 3917 1b20 0F1B0000 		.4byte	0x1b0f
 3918 1b24 09       		.uleb128 0x9
 3919 1b25 1F1B0000 		.4byte	0x1b1f
 3920 1b29 08       		.uleb128 0x8
 3921 1b2a 01010000 		.4byte	0x101
 3922 1b2e 09       		.uleb128 0x9
 3923 1b2f 291B0000 		.4byte	0x1b29
 3924 1b33 0A       		.uleb128 0xa
 3925 1b34 FC000000 		.4byte	0xfc
 3926 1b38 441B0000 		.4byte	0x1b44
 3927 1b3c 0C       		.uleb128 0xc
 3928 1b3d A9000000 		.4byte	0xa9
 3929 1b41 8401     		.2byte	0x184
 3930 1b43 00       		.byte	0
 3931 1b44 08       		.uleb128 0x8
 3932 1b45 331B0000 		.4byte	0x1b33
 3933 1b49 09       		.uleb128 0x9
 3934 1b4a 441B0000 		.4byte	0x1b44
 3935 1b4e 0A       		.uleb128 0xa
 3936 1b4f FC000000 		.4byte	0xfc
 3937 1b53 5E1B0000 		.4byte	0x1b5e
 3938 1b57 0B       		.uleb128 0xb
 3939 1b58 A9000000 		.4byte	0xa9
 3940 1b5c F3       		.byte	0xf3
 3941 1b5d 00       		.byte	0
 3942 1b5e 08       		.uleb128 0x8
 3943 1b5f 4E1B0000 		.4byte	0x1b4e
 3944 1b63 09       		.uleb128 0x9
 3945 1b64 5E1B0000 		.4byte	0x1b5e
 3946 1b68 08       		.uleb128 0x8
 3947 1b69 D6010000 		.4byte	0x1d6
 3948 1b6d 09       		.uleb128 0x9
 3949 1b6e 681B0000 		.4byte	0x1b68
 3950 1b72 08       		.uleb128 0x8
 3951 1b73 11010000 		.4byte	0x111
 3952 1b77 0A       		.uleb128 0xa
 3953 1b78 FC000000 		.4byte	0xfc
 3954 1b7c 871B0000 		.4byte	0x1b87
 3955 1b80 0B       		.uleb128 0xb
 3956 1b81 A9000000 		.4byte	0xa9
 3957 1b85 13       		.byte	0x13
 3958 1b86 00       		.byte	0
 3959 1b87 08       		.uleb128 0x8
 3960 1b88 771B0000 		.4byte	0x1b77
 3961 1b8c 09       		.uleb128 0x9
 3962 1b8d 871B0000 		.4byte	0x1b87
 3963 1b91 0A       		.uleb128 0xa
 3964 1b92 FC000000 		.4byte	0xfc
 3965 1b96 A21B0000 		.4byte	0x1ba2
 3966 1b9a 0C       		.uleb128 0xc
 3967 1b9b A9000000 		.4byte	0xa9
ARM GAS  C:\Users\ASUS\AppData\Local\Temp\cczm8cZa.s 			page 101


 3968 1b9f 1602     		.2byte	0x216
 3969 1ba1 00       		.byte	0
 3970 1ba2 08       		.uleb128 0x8
 3971 1ba3 911B0000 		.4byte	0x1b91
 3972 1ba7 09       		.uleb128 0x9
 3973 1ba8 A21B0000 		.4byte	0x1ba2
 3974 1bac 08       		.uleb128 0x8
 3975 1bad F6010000 		.4byte	0x1f6
 3976 1bb1 09       		.uleb128 0x9
 3977 1bb2 AC1B0000 		.4byte	0x1bac
 3978 1bb6 0A       		.uleb128 0xa
 3979 1bb7 FC000000 		.4byte	0xfc
 3980 1bbb C71B0000 		.4byte	0x1bc7
 3981 1bbf 0C       		.uleb128 0xc
 3982 1bc0 A9000000 		.4byte	0xa9
 3983 1bc4 FE3F     		.2byte	0x3ffe
 3984 1bc6 00       		.byte	0
 3985 1bc7 08       		.uleb128 0x8
 3986 1bc8 B61B0000 		.4byte	0x1bb6
 3987 1bcc 09       		.uleb128 0x9
 3988 1bcd C71B0000 		.4byte	0x1bc7
 3989 1bd1 08       		.uleb128 0x8
 3990 1bd2 41010000 		.4byte	0x141
 3991 1bd6 09       		.uleb128 0x9
 3992 1bd7 D11B0000 		.4byte	0x1bd1
 3993 1bdb 08       		.uleb128 0x8
 3994 1bdc 41010000 		.4byte	0x141
 3995 1be0 09       		.uleb128 0x9
 3996 1be1 DB1B0000 		.4byte	0x1bdb
 3997 1be5 08       		.uleb128 0x8
 3998 1be6 41010000 		.4byte	0x141
 3999 1bea 09       		.uleb128 0x9
 4000 1beb E51B0000 		.4byte	0x1be5
 4001 1bef 0A       		.uleb128 0xa
 4002 1bf0 FC000000 		.4byte	0xfc
 4003 1bf4 001C0000 		.4byte	0x1c00
 4004 1bf8 0C       		.uleb128 0xc
 4005 1bf9 A9000000 		.4byte	0xa9
 4006 1bfd 9E05     		.2byte	0x59e
 4007 1bff 00       		.byte	0
 4008 1c00 08       		.uleb128 0x8
 4009 1c01 EF1B0000 		.4byte	0x1bef
 4010 1c05 09       		.uleb128 0x9
 4011 1c06 001C0000 		.4byte	0x1c00
 4012 1c0a 08       		.uleb128 0x8
 4013 1c0b 21010000 		.4byte	0x121
 4014 1c0f 09       		.uleb128 0x9
 4015 1c10 0A1C0000 		.4byte	0x1c0a
 4016 1c14 08       		.uleb128 0x8
 4017 1c15 91010000 		.4byte	0x191
 4018 1c19 09       		.uleb128 0x9
 4019 1c1a 141C0000 		.4byte	0x1c14
 4020 1c1e 08       		.uleb128 0x8
 4021 1c1f 71010000 		.4byte	0x171
 4022 1c23 09       		.uleb128 0x9
 4023 1c24 1E1C0000 		.4byte	0x1c1e
 4024 1c28 08       		.uleb128 0x8
ARM GAS  C:\Users\ASUS\AppData\Local\Temp\cczm8cZa.s 			page 102


 4025 1c29 11010000 		.4byte	0x111
 4026 1c2d 08       		.uleb128 0x8
 4027 1c2e B6010000 		.4byte	0x1b6
 4028 1c32 09       		.uleb128 0x9
 4029 1c33 2D1C0000 		.4byte	0x1c2d
 4030 1c37 0A       		.uleb128 0xa
 4031 1c38 FC000000 		.4byte	0xfc
 4032 1c3c 471C0000 		.4byte	0x1c47
 4033 1c40 0B       		.uleb128 0xb
 4034 1c41 A9000000 		.4byte	0xa9
 4035 1c45 70       		.byte	0x70
 4036 1c46 00       		.byte	0
 4037 1c47 08       		.uleb128 0x8
 4038 1c48 371C0000 		.4byte	0x1c37
 4039 1c4c 09       		.uleb128 0x9
 4040 1c4d 471C0000 		.4byte	0x1c47
 4041 1c51 08       		.uleb128 0x8
 4042 1c52 A1010000 		.4byte	0x1a1
 4043 1c56 09       		.uleb128 0x9
 4044 1c57 511C0000 		.4byte	0x1c51
 4045 1c5b 08       		.uleb128 0x8
 4046 1c5c 81010000 		.4byte	0x181
 4047 1c60 09       		.uleb128 0x9
 4048 1c61 5B1C0000 		.4byte	0x1c5b
 4049 1c65 0A       		.uleb128 0xa
 4050 1c66 FC000000 		.4byte	0xfc
 4051 1c6a 751C0000 		.4byte	0x1c75
 4052 1c6e 0B       		.uleb128 0xb
 4053 1c6f A9000000 		.4byte	0xa9
 4054 1c73 EB       		.byte	0xeb
 4055 1c74 00       		.byte	0
 4056 1c75 08       		.uleb128 0x8
 4057 1c76 651C0000 		.4byte	0x1c65
 4058 1c7a 09       		.uleb128 0x9
 4059 1c7b 751C0000 		.4byte	0x1c75
 4060 1c7f 08       		.uleb128 0x8
 4061 1c80 C70A0000 		.4byte	0xac7
 4062 1c84 09       		.uleb128 0x9
 4063 1c85 7F1C0000 		.4byte	0x1c7f
 4064 1c89 08       		.uleb128 0x8
 4065 1c8a C70A0000 		.4byte	0xac7
 4066 1c8e 09       		.uleb128 0x9
 4067 1c8f 891C0000 		.4byte	0x1c89
 4068 1c93 08       		.uleb128 0x8
 4069 1c94 C70A0000 		.4byte	0xac7
 4070 1c98 09       		.uleb128 0x9
 4071 1c99 931C0000 		.4byte	0x1c93
 4072 1c9d 08       		.uleb128 0x8
 4073 1c9e C70A0000 		.4byte	0xac7
 4074 1ca2 09       		.uleb128 0x9
 4075 1ca3 9D1C0000 		.4byte	0x1c9d
 4076 1ca7 0A       		.uleb128 0xa
 4077 1ca8 FC000000 		.4byte	0xfc
 4078 1cac B81C0000 		.4byte	0x1cb8
 4079 1cb0 0C       		.uleb128 0xc
 4080 1cb1 A9000000 		.4byte	0xa9
 4081 1cb5 3E25     		.2byte	0x253e
ARM GAS  C:\Users\ASUS\AppData\Local\Temp\cczm8cZa.s 			page 103


 4082 1cb7 00       		.byte	0
 4083 1cb8 08       		.uleb128 0x8
 4084 1cb9 A71C0000 		.4byte	0x1ca7
 4085 1cbd 09       		.uleb128 0x9
 4086 1cbe B81C0000 		.4byte	0x1cb8
 4087 1cc2 12       		.uleb128 0x12
 4088 1cc3 3D570000 		.4byte	.LASF580
 4089 1cc7 07       		.byte	0x7
 4090 1cc8 6101     		.2byte	0x161
 4091 1cca E60C0000 		.4byte	0xce6
 4092 1cce 18       		.uleb128 0x18
 4093 1ccf 0010     		.2byte	0x1000
 4094 1cd1 07       		.byte	0x7
 4095 1cd2 6601     		.2byte	0x166
 4096 1cd4 E31F0000 		.4byte	0x1fe3
 4097 1cd8 19       		.uleb128 0x19
 4098 1cd9 9D400000 		.4byte	.LASF299
 4099 1cdd 07       		.byte	0x7
 4100 1cde 6701     		.2byte	0x167
 4101 1ce0 E81F0000 		.4byte	0x1fe8
 4102 1ce4 00       		.byte	0
 4103 1ce5 19       		.uleb128 0x19
 4104 1ce6 043A0000 		.4byte	.LASF581
 4105 1cea 07       		.byte	0x7
 4106 1ceb 6801     		.2byte	0x168
 4107 1ced F7000000 		.4byte	0xf7
 4108 1cf1 60       		.byte	0x60
 4109 1cf2 19       		.uleb128 0x19
 4110 1cf3 01350000 		.4byte	.LASF582
 4111 1cf7 07       		.byte	0x7
 4112 1cf8 6901     		.2byte	0x169
 4113 1cfa F7000000 		.4byte	0xf7
 4114 1cfe 64       		.byte	0x64
 4115 1cff 19       		.uleb128 0x19
 4116 1d00 12360000 		.4byte	.LASF583
 4117 1d04 07       		.byte	0x7
 4118 1d05 6A01     		.2byte	0x16a
 4119 1d07 F7000000 		.4byte	0xf7
 4120 1d0b 68       		.byte	0x68
 4121 1d0c 19       		.uleb128 0x19
 4122 1d0d 90430000 		.4byte	.LASF302
 4123 1d11 07       		.byte	0x7
 4124 1d12 6B01     		.2byte	0x16b
 4125 1d14 F7000000 		.4byte	0xf7
 4126 1d18 6C       		.byte	0x6c
 4127 1d19 19       		.uleb128 0x19
 4128 1d1a AD450000 		.4byte	.LASF584
 4129 1d1e 07       		.byte	0x7
 4130 1d1f 6C01     		.2byte	0x16c
 4131 1d21 F7000000 		.4byte	0xf7
 4132 1d25 70       		.byte	0x70
 4133 1d26 19       		.uleb128 0x19
 4134 1d27 40370000 		.4byte	.LASF585
 4135 1d2b 07       		.byte	0x7
 4136 1d2c 6D01     		.2byte	0x16d
 4137 1d2e F7000000 		.4byte	0xf7
 4138 1d32 74       		.byte	0x74
ARM GAS  C:\Users\ASUS\AppData\Local\Temp\cczm8cZa.s 			page 104


 4139 1d33 19       		.uleb128 0x19
 4140 1d34 892B0000 		.4byte	.LASF586
 4141 1d38 07       		.byte	0x7
 4142 1d39 6E01     		.2byte	0x16e
 4143 1d3b F7000000 		.4byte	0xf7
 4144 1d3f 78       		.byte	0x78
 4145 1d40 19       		.uleb128 0x19
 4146 1d41 BF2A0000 		.4byte	.LASF309
 4147 1d45 07       		.byte	0x7
 4148 1d46 6F01     		.2byte	0x16f
 4149 1d48 FC000000 		.4byte	0xfc
 4150 1d4c 7C       		.byte	0x7c
 4151 1d4d 19       		.uleb128 0x19
 4152 1d4e F81B0000 		.4byte	.LASF587
 4153 1d52 07       		.byte	0x7
 4154 1d53 7001     		.2byte	0x170
 4155 1d55 FC000000 		.4byte	0xfc
 4156 1d59 80       		.byte	0x80
 4157 1d5a 19       		.uleb128 0x19
 4158 1d5b FB180000 		.4byte	.LASF588
 4159 1d5f 07       		.byte	0x7
 4160 1d60 7201     		.2byte	0x172
 4161 1d62 FC000000 		.4byte	0xfc
 4162 1d66 84       		.byte	0x84
 4163 1d67 19       		.uleb128 0x19
 4164 1d68 C92A0000 		.4byte	.LASF312
 4165 1d6c 07       		.byte	0x7
 4166 1d6d 7301     		.2byte	0x173
 4167 1d6f F21F0000 		.4byte	0x1ff2
 4168 1d73 88       		.byte	0x88
 4169 1d74 19       		.uleb128 0x19
 4170 1d75 264D0000 		.4byte	.LASF589
 4171 1d79 07       		.byte	0x7
 4172 1d7a 7401     		.2byte	0x174
 4173 1d7c F7000000 		.4byte	0xf7
 4174 1d80 A0       		.byte	0xa0
 4175 1d81 19       		.uleb128 0x19
 4176 1d82 8E210000 		.4byte	.LASF590
 4177 1d86 07       		.byte	0x7
 4178 1d87 7501     		.2byte	0x175
 4179 1d89 F7000000 		.4byte	0xf7
 4180 1d8d A4       		.byte	0xa4
 4181 1d8e 19       		.uleb128 0x19
 4182 1d8f CA360000 		.4byte	.LASF591
 4183 1d93 07       		.byte	0x7
 4184 1d94 7601     		.2byte	0x176
 4185 1d96 F7000000 		.4byte	0xf7
 4186 1d9a A8       		.byte	0xa8
 4187 1d9b 19       		.uleb128 0x19
 4188 1d9c D8360000 		.4byte	.LASF592
 4189 1da0 07       		.byte	0x7
 4190 1da1 7701     		.2byte	0x177
 4191 1da3 F7000000 		.4byte	0xf7
 4192 1da7 AC       		.byte	0xac
 4193 1da8 19       		.uleb128 0x19
 4194 1da9 A13E0000 		.4byte	.LASF593
 4195 1dad 07       		.byte	0x7
ARM GAS  C:\Users\ASUS\AppData\Local\Temp\cczm8cZa.s 			page 105


 4196 1dae 7801     		.2byte	0x178
 4197 1db0 F7000000 		.4byte	0xf7
 4198 1db4 B0       		.byte	0xb0
 4199 1db5 19       		.uleb128 0x19
 4200 1db6 7F2B0000 		.4byte	.LASF594
 4201 1dba 07       		.byte	0x7
 4202 1dbb 7901     		.2byte	0x179
 4203 1dbd FC000000 		.4byte	0xfc
 4204 1dc1 B4       		.byte	0xb4
 4205 1dc2 19       		.uleb128 0x19
 4206 1dc3 7A2C0000 		.4byte	.LASF595
 4207 1dc7 07       		.byte	0x7
 4208 1dc8 7A01     		.2byte	0x17a
 4209 1dca FC000000 		.4byte	0xfc
 4210 1dce B8       		.byte	0xb8
 4211 1dcf 19       		.uleb128 0x19
 4212 1dd0 D32A0000 		.4byte	.LASF336
 4213 1dd4 07       		.byte	0x7
 4214 1dd5 7B01     		.2byte	0x17b
 4215 1dd7 FC000000 		.4byte	0xfc
 4216 1ddb BC       		.byte	0xbc
 4217 1ddc 19       		.uleb128 0x19
 4218 1ddd 071B0000 		.4byte	.LASF596
 4219 1de1 07       		.byte	0x7
 4220 1de2 7C01     		.2byte	0x17c
 4221 1de4 F7000000 		.4byte	0xf7
 4222 1de8 C0       		.byte	0xc0
 4223 1de9 19       		.uleb128 0x19
 4224 1dea FD0B0000 		.4byte	.LASF597
 4225 1dee 07       		.byte	0x7
 4226 1def 7D01     		.2byte	0x17d
 4227 1df1 F7000000 		.4byte	0xf7
 4228 1df5 C4       		.byte	0xc4
 4229 1df6 19       		.uleb128 0x19
 4230 1df7 DD2A0000 		.4byte	.LASF342
 4231 1dfb 07       		.byte	0x7
 4232 1dfc 7E01     		.2byte	0x17e
 4233 1dfe FC1F0000 		.4byte	0x1ffc
 4234 1e02 C8       		.byte	0xc8
 4235 1e03 19       		.uleb128 0x19
 4236 1e04 891A0000 		.4byte	.LASF598
 4237 1e08 07       		.byte	0x7
 4238 1e09 7F01     		.2byte	0x17f
 4239 1e0b F7000000 		.4byte	0xf7
 4240 1e0f D0       		.byte	0xd0
 4241 1e10 19       		.uleb128 0x19
 4242 1e11 E1200000 		.4byte	.LASF599
 4243 1e15 07       		.byte	0x7
 4244 1e16 8001     		.2byte	0x180
 4245 1e18 F7000000 		.4byte	0xf7
 4246 1e1c D4       		.byte	0xd4
 4247 1e1d 19       		.uleb128 0x19
 4248 1e1e F1200000 		.4byte	.LASF600
 4249 1e22 07       		.byte	0x7
 4250 1e23 8201     		.2byte	0x182
 4251 1e25 F7000000 		.4byte	0xf7
 4252 1e29 D8       		.byte	0xd8
ARM GAS  C:\Users\ASUS\AppData\Local\Temp\cczm8cZa.s 			page 106


 4253 1e2a 19       		.uleb128 0x19
 4254 1e2b 01210000 		.4byte	.LASF601
 4255 1e2f 07       		.byte	0x7
 4256 1e30 8301     		.2byte	0x183
 4257 1e32 F7000000 		.4byte	0xf7
 4258 1e36 DC       		.byte	0xdc
 4259 1e37 19       		.uleb128 0x19
 4260 1e38 97250000 		.4byte	.LASF602
 4261 1e3c 07       		.byte	0x7
 4262 1e3d 8401     		.2byte	0x184
 4263 1e3f FC000000 		.4byte	0xfc
 4264 1e43 E0       		.byte	0xe0
 4265 1e44 19       		.uleb128 0x19
 4266 1e45 5F250000 		.4byte	.LASF603
 4267 1e49 07       		.byte	0x7
 4268 1e4a 8501     		.2byte	0x185
 4269 1e4c FC000000 		.4byte	0xfc
 4270 1e50 E4       		.byte	0xe4
 4271 1e51 19       		.uleb128 0x19
 4272 1e52 555A0000 		.4byte	.LASF604
 4273 1e56 07       		.byte	0x7
 4274 1e57 8601     		.2byte	0x186
 4275 1e59 F7000000 		.4byte	0xf7
 4276 1e5d E8       		.byte	0xe8
 4277 1e5e 19       		.uleb128 0x19
 4278 1e5f 475A0000 		.4byte	.LASF605
 4279 1e63 07       		.byte	0x7
 4280 1e64 8701     		.2byte	0x187
 4281 1e66 F7000000 		.4byte	0xf7
 4282 1e6a EC       		.byte	0xec
 4283 1e6b 19       		.uleb128 0x19
 4284 1e6c 1C410000 		.4byte	.LASF606
 4285 1e70 07       		.byte	0x7
 4286 1e71 8801     		.2byte	0x188
 4287 1e73 F7000000 		.4byte	0xf7
 4288 1e77 F0       		.byte	0xf0
 4289 1e78 19       		.uleb128 0x19
 4290 1e79 E9350000 		.4byte	.LASF607
 4291 1e7d 07       		.byte	0x7
 4292 1e7e 8901     		.2byte	0x189
 4293 1e80 FC000000 		.4byte	0xfc
 4294 1e84 F4       		.byte	0xf4
 4295 1e85 19       		.uleb128 0x19
 4296 1e86 E72A0000 		.4byte	.LASF348
 4297 1e8a 07       		.byte	0x7
 4298 1e8b 8A01     		.2byte	0x18a
 4299 1e8d 06200000 		.4byte	0x2006
 4300 1e91 F8       		.byte	0xf8
 4301 1e92 16       		.uleb128 0x16
 4302 1e93 B1440000 		.4byte	.LASF608
 4303 1e97 07       		.byte	0x7
 4304 1e98 8B01     		.2byte	0x18b
 4305 1e9a F7000000 		.4byte	0xf7
 4306 1e9e 0001     		.2byte	0x100
 4307 1ea0 16       		.uleb128 0x16
 4308 1ea1 C1440000 		.4byte	.LASF609
 4309 1ea5 07       		.byte	0x7
ARM GAS  C:\Users\ASUS\AppData\Local\Temp\cczm8cZa.s 			page 107


 4310 1ea6 8C01     		.2byte	0x18c
 4311 1ea8 F7000000 		.4byte	0xf7
 4312 1eac 0401     		.2byte	0x104
 4313 1eae 16       		.uleb128 0x16
 4314 1eaf 834C0000 		.4byte	.LASF610
 4315 1eb3 07       		.byte	0x7
 4316 1eb4 8D01     		.2byte	0x18d
 4317 1eb6 F7000000 		.4byte	0xf7
 4318 1eba 0801     		.2byte	0x108
 4319 1ebc 16       		.uleb128 0x16
 4320 1ebd 9A0A0000 		.4byte	.LASF611
 4321 1ec1 07       		.byte	0x7
 4322 1ec2 8E01     		.2byte	0x18e
 4323 1ec4 F7000000 		.4byte	0xf7
 4324 1ec8 0C01     		.2byte	0x10c
 4325 1eca 16       		.uleb128 0x16
 4326 1ecb 14550000 		.4byte	.LASF612
 4327 1ecf 07       		.byte	0x7
 4328 1ed0 8F01     		.2byte	0x18f
 4329 1ed2 0B200000 		.4byte	0x200b
 4330 1ed6 1001     		.2byte	0x110
 4331 1ed8 16       		.uleb128 0x16
 4332 1ed9 6B220000 		.4byte	.LASF613
 4333 1edd 07       		.byte	0x7
 4334 1ede 9001     		.2byte	0x190
 4335 1ee0 F7000000 		.4byte	0xf7
 4336 1ee4 2001     		.2byte	0x120
 4337 1ee6 16       		.uleb128 0x16
 4338 1ee7 32230000 		.4byte	.LASF614
 4339 1eeb 07       		.byte	0x7
 4340 1eec 9101     		.2byte	0x191
 4341 1eee FC000000 		.4byte	0xfc
 4342 1ef2 2401     		.2byte	0x124
 4343 1ef4 16       		.uleb128 0x16
 4344 1ef5 6E240000 		.4byte	.LASF615
 4345 1ef9 07       		.byte	0x7
 4346 1efa 9201     		.2byte	0x192
 4347 1efc F7000000 		.4byte	0xf7
 4348 1f00 2801     		.2byte	0x128
 4349 1f02 16       		.uleb128 0x16
 4350 1f03 881F0000 		.4byte	.LASF616
 4351 1f07 07       		.byte	0x7
 4352 1f08 9301     		.2byte	0x193
 4353 1f0a F7000000 		.4byte	0xf7
 4354 1f0e 2C01     		.2byte	0x12c
 4355 1f10 16       		.uleb128 0x16
 4356 1f11 80150000 		.4byte	.LASF617
 4357 1f15 07       		.byte	0x7
 4358 1f16 9401     		.2byte	0x194
 4359 1f18 F7000000 		.4byte	0xf7
 4360 1f1c 3001     		.2byte	0x130
 4361 1f1e 16       		.uleb128 0x16
 4362 1f1f A5390000 		.4byte	.LASF618
 4363 1f23 07       		.byte	0x7
 4364 1f24 9501     		.2byte	0x195
 4365 1f26 F7000000 		.4byte	0xf7
 4366 1f2a 3401     		.2byte	0x134
ARM GAS  C:\Users\ASUS\AppData\Local\Temp\cczm8cZa.s 			page 108


 4367 1f2c 16       		.uleb128 0x16
 4368 1f2d F12A0000 		.4byte	.LASF352
 4369 1f31 07       		.byte	0x7
 4370 1f32 9601     		.2byte	0x196
 4371 1f34 15200000 		.4byte	0x2015
 4372 1f38 3801     		.2byte	0x138
 4373 1f3a 16       		.uleb128 0x16
 4374 1f3b CF4A0000 		.4byte	.LASF619
 4375 1f3f 07       		.byte	0x7
 4376 1f40 9701     		.2byte	0x197
 4377 1f42 1A200000 		.4byte	0x201a
 4378 1f46 4001     		.2byte	0x140
 4379 1f48 16       		.uleb128 0x16
 4380 1f49 6C100000 		.4byte	.LASF620
 4381 1f4d 07       		.byte	0x7
 4382 1f4e 9801     		.2byte	0x198
 4383 1f50 F7000000 		.4byte	0xf7
 4384 1f54 5001     		.2byte	0x150
 4385 1f56 16       		.uleb128 0x16
 4386 1f57 FB2A0000 		.4byte	.LASF360
 4387 1f5b 07       		.byte	0x7
 4388 1f5c 9901     		.2byte	0x199
 4389 1f5e 35200000 		.4byte	0x2035
 4390 1f62 5401     		.2byte	0x154
 4391 1f64 16       		.uleb128 0x16
 4392 1f65 1F400000 		.4byte	.LASF621
 4393 1f69 07       		.byte	0x7
 4394 1f6a 9A01     		.2byte	0x19a
 4395 1f6c F7000000 		.4byte	0xf7
 4396 1f70 000F     		.2byte	0xf00
 4397 1f72 16       		.uleb128 0x16
 4398 1f73 CA100000 		.4byte	.LASF622
 4399 1f77 07       		.byte	0x7
 4400 1f78 9B01     		.2byte	0x19b
 4401 1f7a F7000000 		.4byte	0xf7
 4402 1f7e 040F     		.2byte	0xf04
 4403 1f80 16       		.uleb128 0x16
 4404 1f81 34400000 		.4byte	.LASF623
 4405 1f85 07       		.byte	0x7
 4406 1f86 9C01     		.2byte	0x19c
 4407 1f88 F7000000 		.4byte	0xf7
 4408 1f8c 080F     		.2byte	0xf08
 4409 1f8e 16       		.uleb128 0x16
 4410 1f8f 3F400000 		.4byte	.LASF624
 4411 1f93 07       		.byte	0x7
 4412 1f94 9D01     		.2byte	0x19d
 4413 1f96 F7000000 		.4byte	0xf7
 4414 1f9a 0C0F     		.2byte	0xf0c
 4415 1f9c 16       		.uleb128 0x16
 4416 1f9d F44B0000 		.4byte	.LASF625
 4417 1fa1 07       		.byte	0x7
 4418 1fa2 9E01     		.2byte	0x19e
 4419 1fa4 3A200000 		.4byte	0x203a
 4420 1fa8 100F     		.2byte	0xf10
 4421 1faa 16       		.uleb128 0x16
 4422 1fab 052B0000 		.4byte	.LASF364
 4423 1faf 07       		.byte	0x7
ARM GAS  C:\Users\ASUS\AppData\Local\Temp\cczm8cZa.s 			page 109


 4424 1fb0 9F01     		.2byte	0x19f
 4425 1fb2 44200000 		.4byte	0x2044
 4426 1fb6 200F     		.2byte	0xf20
 4427 1fb8 16       		.uleb128 0x16
 4428 1fb9 4A400000 		.4byte	.LASF626
 4429 1fbd 07       		.byte	0x7
 4430 1fbe A001     		.2byte	0x1a0
 4431 1fc0 F7000000 		.4byte	0xf7
 4432 1fc4 300F     		.2byte	0xf30
 4433 1fc6 16       		.uleb128 0x16
 4434 1fc7 55400000 		.4byte	.LASF627
 4435 1fcb 07       		.byte	0x7
 4436 1fcc A101     		.2byte	0x1a1
 4437 1fce F7000000 		.4byte	0xf7
 4438 1fd2 340F     		.2byte	0xf34
 4439 1fd4 16       		.uleb128 0x16
 4440 1fd5 0F2B0000 		.4byte	.LASF368
 4441 1fd9 07       		.byte	0x7
 4442 1fda A201     		.2byte	0x1a2
 4443 1fdc 5E200000 		.4byte	0x205e
 4444 1fe0 380F     		.2byte	0xf38
 4445 1fe2 00       		.byte	0
 4446 1fe3 08       		.uleb128 0x8
 4447 1fe4 C6010000 		.4byte	0x1c6
 4448 1fe8 09       		.uleb128 0x9
 4449 1fe9 E31F0000 		.4byte	0x1fe3
 4450 1fed 08       		.uleb128 0x8
 4451 1fee E6010000 		.4byte	0x1e6
 4452 1ff2 09       		.uleb128 0x9
 4453 1ff3 ED1F0000 		.4byte	0x1fed
 4454 1ff7 08       		.uleb128 0x8
 4455 1ff8 A1010000 		.4byte	0x1a1
 4456 1ffc 09       		.uleb128 0x9
 4457 1ffd F71F0000 		.4byte	0x1ff7
 4458 2001 08       		.uleb128 0x8
 4459 2002 A1010000 		.4byte	0x1a1
 4460 2006 09       		.uleb128 0x9
 4461 2007 01200000 		.4byte	0x2001
 4462 200b 08       		.uleb128 0x8
 4463 200c 51010000 		.4byte	0x151
 4464 2010 08       		.uleb128 0x8
 4465 2011 A1010000 		.4byte	0x1a1
 4466 2015 09       		.uleb128 0x9
 4467 2016 10200000 		.4byte	0x2010
 4468 201a 08       		.uleb128 0x8
 4469 201b 51010000 		.4byte	0x151
 4470 201f 0A       		.uleb128 0xa
 4471 2020 FC000000 		.4byte	0xfc
 4472 2024 30200000 		.4byte	0x2030
 4473 2028 0C       		.uleb128 0xc
 4474 2029 A9000000 		.4byte	0xa9
 4475 202d 6A03     		.2byte	0x36a
 4476 202f 00       		.byte	0
 4477 2030 08       		.uleb128 0x8
 4478 2031 1F200000 		.4byte	0x201f
 4479 2035 09       		.uleb128 0x9
 4480 2036 30200000 		.4byte	0x2030
ARM GAS  C:\Users\ASUS\AppData\Local\Temp\cczm8cZa.s 			page 110


 4481 203a 08       		.uleb128 0x8
 4482 203b 51010000 		.4byte	0x151
 4483 203f 08       		.uleb128 0x8
 4484 2040 21010000 		.4byte	0x121
 4485 2044 09       		.uleb128 0x9
 4486 2045 3F200000 		.4byte	0x203f
 4487 2049 0A       		.uleb128 0xa
 4488 204a FC000000 		.4byte	0xfc
 4489 204e 59200000 		.4byte	0x2059
 4490 2052 0B       		.uleb128 0xb
 4491 2053 A9000000 		.4byte	0xa9
 4492 2057 31       		.byte	0x31
 4493 2058 00       		.byte	0
 4494 2059 08       		.uleb128 0x8
 4495 205a 49200000 		.4byte	0x2049
 4496 205e 09       		.uleb128 0x9
 4497 205f 59200000 		.4byte	0x2059
 4498 2063 12       		.uleb128 0x12
 4499 2064 AC4D0000 		.4byte	.LASF628
 4500 2068 07       		.byte	0x7
 4501 2069 A301     		.2byte	0x1a3
 4502 206b CE1C0000 		.4byte	0x1cce
 4503 206f 1A       		.uleb128 0x1a
 4504 2070 00000200 		.4byte	0x20000
 4505 2074 07       		.byte	0x7
 4506 2075 A801     		.2byte	0x1a8
 4507 2077 B5200000 		.4byte	0x20b5
 4508 207b 1B       		.uleb128 0x1b
 4509 207c 52434200 		.ascii	"RCB\000"
 4510 2080 07       		.byte	0x7
 4511 2081 A901     		.2byte	0x1a9
 4512 2083 DB0C0000 		.4byte	0xcdb
 4513 2087 00       		.byte	0
 4514 2088 16       		.uleb128 0x16
 4515 2089 9D400000 		.4byte	.LASF299
 4516 208d 07       		.byte	0x7
 4517 208e AA01     		.2byte	0x1aa
 4518 2090 BA200000 		.4byte	0x20ba
 4519 2094 0002     		.2byte	0x200
 4520 2096 16       		.uleb128 0x16
 4521 2097 35000000 		.4byte	.LASF629
 4522 209b 07       		.byte	0x7
 4523 209c AB01     		.2byte	0x1ab
 4524 209e C21C0000 		.4byte	0x1cc2
 4525 20a2 0010     		.2byte	0x1000
 4526 20a4 17       		.uleb128 0x17
 4527 20a5 124E0000 		.4byte	.LASF630
 4528 20a9 07       		.byte	0x7
 4529 20aa AC01     		.2byte	0x1ac
 4530 20ac 63200000 		.4byte	0x2063
 4531 20b0 00F00100 		.4byte	0x1f000
 4532 20b4 00       		.byte	0
 4533 20b5 08       		.uleb128 0x8
 4534 20b6 07020000 		.4byte	0x207
 4535 20ba 09       		.uleb128 0x9
 4536 20bb B5200000 		.4byte	0x20b5
 4537 20bf 12       		.uleb128 0x12
ARM GAS  C:\Users\ASUS\AppData\Local\Temp\cczm8cZa.s 			page 111


 4538 20c0 032C0000 		.4byte	.LASF631
 4539 20c4 07       		.byte	0x7
 4540 20c5 AD01     		.2byte	0x1ad
 4541 20c7 6F200000 		.4byte	0x206f
 4542 20cb 12       		.uleb128 0x12
 4543 20cc 121B0000 		.4byte	.LASF632
 4544 20d0 08       		.byte	0x8
 4545 20d1 4806     		.2byte	0x648
 4546 20d3 BF200000 		.4byte	0x20bf
 4547 20d7 03       		.uleb128 0x3
 4548 20d8 04       		.byte	0x4
 4549 20d9 04       		.byte	0x4
 4550 20da 1D2E0000 		.4byte	.LASF633
 4551 20de 03       		.uleb128 0x3
 4552 20df 08       		.byte	0x8
 4553 20e0 04       		.byte	0x4
 4554 20e1 B31E0000 		.4byte	.LASF634
 4555 20e5 1C       		.uleb128 0x1c
 4556 20e6 08       		.byte	0x8
 4557 20e7 09       		.byte	0x9
 4558 20e8 2D01     		.2byte	0x12d
 4559 20ea 16210000 		.4byte	0x2116
 4560 20ee 19       		.uleb128 0x19
 4561 20ef B62E0000 		.4byte	.LASF635
 4562 20f3 09       		.byte	0x9
 4563 20f4 2E01     		.2byte	0x12e
 4564 20f6 2B070000 		.4byte	0x72b
 4565 20fa 00       		.byte	0
 4566 20fb 19       		.uleb128 0x19
 4567 20fc 7B4C0000 		.4byte	.LASF636
 4568 2100 09       		.byte	0x9
 4569 2101 3001     		.2byte	0x130
 4570 2103 BB0A0000 		.4byte	0xabb
 4571 2107 02       		.byte	0x2
 4572 2108 19       		.uleb128 0x19
 4573 2109 CE4F0000 		.4byte	.LASF637
 4574 210d 09       		.byte	0x9
 4575 210e 3201     		.2byte	0x132
 4576 2110 EC000000 		.4byte	0xec
 4577 2114 04       		.byte	0x4
 4578 2115 00       		.byte	0
 4579 2116 12       		.uleb128 0x12
 4580 2117 66350000 		.4byte	.LASF638
 4581 211b 09       		.byte	0x9
 4582 211c 3301     		.2byte	0x133
 4583 211e E5200000 		.4byte	0x20e5
 4584 2122 1D       		.uleb128 0x1d
 4585 2123 04       		.byte	0x4
 4586 2124 2C000000 		.4byte	0x2c
 4587 2128 0A       		.byte	0xa
 4588 2129 1405     		.2byte	0x514
 4589 212b 63210000 		.4byte	0x2163
 4590 212f 11       		.uleb128 0x11
 4591 2130 1E5A0000 		.4byte	.LASF639
 4592 2134 00       		.byte	0
 4593 2135 1E       		.uleb128 0x1e
 4594 2136 23140000 		.4byte	.LASF640
ARM GAS  C:\Users\ASUS\AppData\Local\Temp\cczm8cZa.s 			page 112


 4595 213a 01004200 		.4byte	0x420001
 4596 213e 1E       		.uleb128 0x1e
 4597 213f 44260000 		.4byte	.LASF641
 4598 2143 02004200 		.4byte	0x420002
 4599 2147 1E       		.uleb128 0x1e
 4600 2148 3A250000 		.4byte	.LASF642
 4601 214c 03004200 		.4byte	0x420003
 4602 2150 1E       		.uleb128 0x1e
 4603 2151 F2030000 		.4byte	.LASF643
 4604 2155 04004200 		.4byte	0x420004
 4605 2159 1E       		.uleb128 0x1e
 4606 215a 07070000 		.4byte	.LASF644
 4607 215e FF004200 		.4byte	0x4200ff
 4608 2162 00       		.byte	0
 4609 2163 12       		.uleb128 0x12
 4610 2164 245B0000 		.4byte	.LASF645
 4611 2168 0A       		.byte	0xa
 4612 2169 1C05     		.2byte	0x51c
 4613 216b 22210000 		.4byte	0x2122
 4614 216f 1D       		.uleb128 0x1d
 4615 2170 01       		.byte	0x1
 4616 2171 5E000000 		.4byte	0x5e
 4617 2175 0A       		.byte	0xa
 4618 2176 2305     		.2byte	0x523
 4619 2178 89210000 		.4byte	0x2189
 4620 217c 11       		.uleb128 0x11
 4621 217d EA380000 		.4byte	.LASF646
 4622 2181 00       		.byte	0
 4623 2182 11       		.uleb128 0x11
 4624 2183 260E0000 		.4byte	.LASF647
 4625 2187 01       		.byte	0x1
 4626 2188 00       		.byte	0
 4627 2189 1D       		.uleb128 0x1d
 4628 218a 01       		.byte	0x1
 4629 218b 5E000000 		.4byte	0x5e
 4630 218f 0A       		.byte	0xa
 4631 2190 B205     		.2byte	0x5b2
 4632 2192 B5210000 		.4byte	0x21b5
 4633 2196 11       		.uleb128 0x11
 4634 2197 CD490000 		.4byte	.LASF648
 4635 219b 00       		.byte	0
 4636 219c 11       		.uleb128 0x11
 4637 219d DC3C0000 		.4byte	.LASF649
 4638 21a1 01       		.byte	0x1
 4639 21a2 11       		.uleb128 0x11
 4640 21a3 D0230000 		.4byte	.LASF650
 4641 21a7 02       		.byte	0x2
 4642 21a8 11       		.uleb128 0x11
 4643 21a9 1A560000 		.4byte	.LASF651
 4644 21ad 03       		.byte	0x3
 4645 21ae 11       		.uleb128 0x11
 4646 21af 8A300000 		.4byte	.LASF652
 4647 21b3 04       		.byte	0x4
 4648 21b4 00       		.byte	0
 4649 21b5 12       		.uleb128 0x12
 4650 21b6 9D000000 		.4byte	.LASF653
 4651 21ba 0A       		.byte	0xa
ARM GAS  C:\Users\ASUS\AppData\Local\Temp\cczm8cZa.s 			page 113


 4652 21bb B805     		.2byte	0x5b8
 4653 21bd 89210000 		.4byte	0x2189
 4654 21c1 1D       		.uleb128 0x1d
 4655 21c2 01       		.byte	0x1
 4656 21c3 5E000000 		.4byte	0x5e
 4657 21c7 0A       		.byte	0xa
 4658 21c8 BC05     		.2byte	0x5bc
 4659 21ca E7210000 		.4byte	0x21e7
 4660 21ce 11       		.uleb128 0x11
 4661 21cf A5590000 		.4byte	.LASF654
 4662 21d3 01       		.byte	0x1
 4663 21d4 11       		.uleb128 0x11
 4664 21d5 59450000 		.4byte	.LASF655
 4665 21d9 02       		.byte	0x2
 4666 21da 11       		.uleb128 0x11
 4667 21db 744D0000 		.4byte	.LASF656
 4668 21df 04       		.byte	0x4
 4669 21e0 11       		.uleb128 0x11
 4670 21e1 F8350000 		.4byte	.LASF657
 4671 21e5 08       		.byte	0x8
 4672 21e6 00       		.byte	0
 4673 21e7 12       		.uleb128 0x12
 4674 21e8 473F0000 		.4byte	.LASF658
 4675 21ec 0A       		.byte	0xa
 4676 21ed CB05     		.2byte	0x5cb
 4677 21ef C1210000 		.4byte	0x21c1
 4678 21f3 1C       		.uleb128 0x1c
 4679 21f4 08       		.byte	0x8
 4680 21f5 0A       		.byte	0xa
 4681 21f6 E705     		.2byte	0x5e7
 4682 21f8 17220000 		.4byte	0x2217
 4683 21fc 19       		.uleb128 0x19
 4684 21fd 752C0000 		.4byte	.LASF659
 4685 2201 0A       		.byte	0xa
 4686 2202 E905     		.2byte	0x5e9
 4687 2204 B0000000 		.4byte	0xb0
 4688 2208 00       		.byte	0
 4689 2209 19       		.uleb128 0x19
 4690 220a 55480000 		.4byte	.LASF660
 4691 220e 0A       		.byte	0xa
 4692 220f EC05     		.2byte	0x5ec
 4693 2211 B0000000 		.4byte	0xb0
 4694 2215 04       		.byte	0x4
 4695 2216 00       		.byte	0
 4696 2217 12       		.uleb128 0x12
 4697 2218 C2580000 		.4byte	.LASF661
 4698 221c 0A       		.byte	0xa
 4699 221d EF05     		.2byte	0x5ef
 4700 221f F3210000 		.4byte	0x21f3
 4701 2223 12       		.uleb128 0x12
 4702 2224 230C0000 		.4byte	.LASF662
 4703 2228 0A       		.byte	0xa
 4704 2229 F205     		.2byte	0x5f2
 4705 222b 2F220000 		.4byte	0x222f
 4706 222f 06       		.uleb128 0x6
 4707 2230 04       		.byte	0x4
 4708 2231 35220000 		.4byte	0x2235
ARM GAS  C:\Users\ASUS\AppData\Local\Temp\cczm8cZa.s 			page 114


 4709 2235 1F       		.uleb128 0x1f
 4710 2236 63210000 		.4byte	0x2163
 4711 223a 49220000 		.4byte	0x2249
 4712 223e 20       		.uleb128 0x20
 4713 223f 49220000 		.4byte	0x2249
 4714 2243 20       		.uleb128 0x20
 4715 2244 E7210000 		.4byte	0x21e7
 4716 2248 00       		.byte	0
 4717 2249 06       		.uleb128 0x6
 4718 224a 04       		.byte	0x4
 4719 224b 17220000 		.4byte	0x2217
 4720 224f 21       		.uleb128 0x21
 4721 2250 AE390000 		.4byte	.LASF1116
 4722 2254 18       		.byte	0x18
 4723 2255 0A       		.byte	0xa
 4724 2256 F505     		.2byte	0x5f5
 4725 2258 AB220000 		.4byte	0x22ab
 4726 225c 19       		.uleb128 0x19
 4727 225d 09330000 		.4byte	.LASF663
 4728 2261 0A       		.byte	0xa
 4729 2262 F705     		.2byte	0x5f7
 4730 2264 23220000 		.4byte	0x2223
 4731 2268 00       		.byte	0
 4732 2269 19       		.uleb128 0x19
 4733 226a EC320000 		.4byte	.LASF664
 4734 226e 0A       		.byte	0xa
 4735 226f F805     		.2byte	0x5f8
 4736 2271 B5210000 		.4byte	0x21b5
 4737 2275 04       		.byte	0x4
 4738 2276 19       		.uleb128 0x19
 4739 2277 5D200000 		.4byte	.LASF665
 4740 227b 0A       		.byte	0xa
 4741 227c F905     		.2byte	0x5f9
 4742 227e EC000000 		.4byte	0xec
 4743 2282 08       		.byte	0x8
 4744 2283 19       		.uleb128 0x19
 4745 2284 5F390000 		.4byte	.LASF666
 4746 2288 0A       		.byte	0xa
 4747 2289 0106     		.2byte	0x601
 4748 228b 49220000 		.4byte	0x2249
 4749 228f 0C       		.byte	0xc
 4750 2290 19       		.uleb128 0x19
 4751 2291 01180000 		.4byte	.LASF667
 4752 2295 0A       		.byte	0xa
 4753 2296 0406     		.2byte	0x604
 4754 2298 AB220000 		.4byte	0x22ab
 4755 229c 10       		.byte	0x10
 4756 229d 19       		.uleb128 0x19
 4757 229e 422C0000 		.4byte	.LASF668
 4758 22a2 0A       		.byte	0xa
 4759 22a3 0A06     		.2byte	0x60a
 4760 22a5 AB220000 		.4byte	0x22ab
 4761 22a9 14       		.byte	0x14
 4762 22aa 00       		.byte	0
 4763 22ab 06       		.uleb128 0x6
 4764 22ac 04       		.byte	0x4
 4765 22ad 4F220000 		.4byte	0x224f
ARM GAS  C:\Users\ASUS\AppData\Local\Temp\cczm8cZa.s 			page 115


 4766 22b1 12       		.uleb128 0x12
 4767 22b2 81270000 		.4byte	.LASF669
 4768 22b6 0A       		.byte	0xa
 4769 22b7 0F06     		.2byte	0x60f
 4770 22b9 4F220000 		.4byte	0x224f
 4771 22bd 1D       		.uleb128 0x1d
 4772 22be 02       		.byte	0x2
 4773 22bf 82000000 		.4byte	0x82
 4774 22c3 0B       		.byte	0xb
 4775 22c4 4D01     		.2byte	0x14d
 4776 22c6 F6250000 		.4byte	0x25f6
 4777 22ca 11       		.uleb128 0x11
 4778 22cb 0B150000 		.4byte	.LASF670
 4779 22cf 00       		.byte	0
 4780 22d0 22       		.uleb128 0x22
 4781 22d1 89370000 		.4byte	.LASF671
 4782 22d5 0010     		.2byte	0x1000
 4783 22d7 22       		.uleb128 0x22
 4784 22d8 9E570000 		.4byte	.LASF672
 4785 22dc 0110     		.2byte	0x1001
 4786 22de 22       		.uleb128 0x22
 4787 22df 0E270000 		.4byte	.LASF673
 4788 22e3 0210     		.2byte	0x1002
 4789 22e5 22       		.uleb128 0x22
 4790 22e6 F90A0000 		.4byte	.LASF674
 4791 22ea 0310     		.2byte	0x1003
 4792 22ec 22       		.uleb128 0x22
 4793 22ed FF150000 		.4byte	.LASF675
 4794 22f1 0410     		.2byte	0x1004
 4795 22f3 22       		.uleb128 0x22
 4796 22f4 8C590000 		.4byte	.LASF676
 4797 22f8 0510     		.2byte	0x1005
 4798 22fa 22       		.uleb128 0x22
 4799 22fb 1E090000 		.4byte	.LASF677
 4800 22ff 0020     		.2byte	0x2000
 4801 2301 22       		.uleb128 0x22
 4802 2302 B4030000 		.4byte	.LASF678
 4803 2306 0120     		.2byte	0x2001
 4804 2308 22       		.uleb128 0x22
 4805 2309 2B270000 		.4byte	.LASF679
 4806 230d 0220     		.2byte	0x2002
 4807 230f 22       		.uleb128 0x22
 4808 2310 4F570000 		.4byte	.LASF680
 4809 2314 0320     		.2byte	0x2003
 4810 2316 22       		.uleb128 0x22
 4811 2317 0C040000 		.4byte	.LASF681
 4812 231b 0420     		.2byte	0x2004
 4813 231d 22       		.uleb128 0x22
 4814 231e 1C390000 		.4byte	.LASF682
 4815 2322 0520     		.2byte	0x2005
 4816 2324 22       		.uleb128 0x22
 4817 2325 05060000 		.4byte	.LASF683
 4818 2329 0620     		.2byte	0x2006
 4819 232b 22       		.uleb128 0x22
 4820 232c 5E080000 		.4byte	.LASF684
 4821 2330 0720     		.2byte	0x2007
 4822 2332 22       		.uleb128 0x22
ARM GAS  C:\Users\ASUS\AppData\Local\Temp\cczm8cZa.s 			page 116


 4823 2333 66540000 		.4byte	.LASF685
 4824 2337 0820     		.2byte	0x2008
 4825 2339 22       		.uleb128 0x22
 4826 233a 8E0F0000 		.4byte	.LASF686
 4827 233e 0920     		.2byte	0x2009
 4828 2340 22       		.uleb128 0x22
 4829 2341 D0000000 		.4byte	.LASF687
 4830 2345 0A20     		.2byte	0x200a
 4831 2347 22       		.uleb128 0x22
 4832 2348 50280000 		.4byte	.LASF688
 4833 234c 0B20     		.2byte	0x200b
 4834 234e 22       		.uleb128 0x22
 4835 234f E1110000 		.4byte	.LASF689
 4836 2353 0C20     		.2byte	0x200c
 4837 2355 22       		.uleb128 0x22
 4838 2356 AB1B0000 		.4byte	.LASF690
 4839 235a 0D20     		.2byte	0x200d
 4840 235c 22       		.uleb128 0x22
 4841 235d 773A0000 		.4byte	.LASF691
 4842 2361 0E20     		.2byte	0x200e
 4843 2363 22       		.uleb128 0x22
 4844 2364 D4480000 		.4byte	.LASF692
 4845 2368 0F20     		.2byte	0x200f
 4846 236a 22       		.uleb128 0x22
 4847 236b 65120000 		.4byte	.LASF693
 4848 236f 1020     		.2byte	0x2010
 4849 2371 22       		.uleb128 0x22
 4850 2372 54270000 		.4byte	.LASF694
 4851 2376 1120     		.2byte	0x2011
 4852 2378 22       		.uleb128 0x22
 4853 2379 3F0A0000 		.4byte	.LASF695
 4854 237d 1220     		.2byte	0x2012
 4855 237f 22       		.uleb128 0x22
 4856 2380 602A0000 		.4byte	.LASF696
 4857 2384 1320     		.2byte	0x2013
 4858 2386 22       		.uleb128 0x22
 4859 2387 55170000 		.4byte	.LASF697
 4860 238b 1420     		.2byte	0x2014
 4861 238d 22       		.uleb128 0x22
 4862 238e 012E0000 		.4byte	.LASF698
 4863 2392 1520     		.2byte	0x2015
 4864 2394 22       		.uleb128 0x22
 4865 2395 C3290000 		.4byte	.LASF699
 4866 2399 1620     		.2byte	0x2016
 4867 239b 22       		.uleb128 0x22
 4868 239c 9A2A0000 		.4byte	.LASF700
 4869 23a0 1720     		.2byte	0x2017
 4870 23a2 22       		.uleb128 0x22
 4871 23a3 4B3C0000 		.4byte	.LASF701
 4872 23a7 0030     		.2byte	0x3000
 4873 23a9 22       		.uleb128 0x22
 4874 23aa 5C360000 		.4byte	.LASF702
 4875 23ae 0130     		.2byte	0x3001
 4876 23b0 22       		.uleb128 0x22
 4877 23b1 E25A0000 		.4byte	.LASF703
 4878 23b5 0230     		.2byte	0x3002
 4879 23b7 22       		.uleb128 0x22
ARM GAS  C:\Users\ASUS\AppData\Local\Temp\cczm8cZa.s 			page 117


 4880 23b8 DE4E0000 		.4byte	.LASF704
 4881 23bc 0330     		.2byte	0x3003
 4882 23be 22       		.uleb128 0x22
 4883 23bf 2A1B0000 		.4byte	.LASF705
 4884 23c3 0430     		.2byte	0x3004
 4885 23c5 22       		.uleb128 0x22
 4886 23c6 D93F0000 		.4byte	.LASF706
 4887 23ca 0530     		.2byte	0x3005
 4888 23cc 22       		.uleb128 0x22
 4889 23cd 32070000 		.4byte	.LASF707
 4890 23d1 0630     		.2byte	0x3006
 4891 23d3 22       		.uleb128 0x22
 4892 23d4 D2020000 		.4byte	.LASF708
 4893 23d8 0730     		.2byte	0x3007
 4894 23da 22       		.uleb128 0x22
 4895 23db 5E3E0000 		.4byte	.LASF709
 4896 23df 0830     		.2byte	0x3008
 4897 23e1 22       		.uleb128 0x22
 4898 23e2 A1530000 		.4byte	.LASF710
 4899 23e6 0930     		.2byte	0x3009
 4900 23e8 22       		.uleb128 0x22
 4901 23e9 E63E0000 		.4byte	.LASF711
 4902 23ed 0A30     		.2byte	0x300a
 4903 23ef 22       		.uleb128 0x22
 4904 23f0 A21D0000 		.4byte	.LASF712
 4905 23f4 0B30     		.2byte	0x300b
 4906 23f6 22       		.uleb128 0x22
 4907 23f7 404E0000 		.4byte	.LASF713
 4908 23fb 0C30     		.2byte	0x300c
 4909 23fd 22       		.uleb128 0x22
 4910 23fe A34F0000 		.4byte	.LASF714
 4911 2402 1130     		.2byte	0x3011
 4912 2404 22       		.uleb128 0x22
 4913 2405 1C490000 		.4byte	.LASF715
 4914 2409 1230     		.2byte	0x3012
 4915 240b 22       		.uleb128 0x22
 4916 240c 6E2D0000 		.4byte	.LASF716
 4917 2410 1330     		.2byte	0x3013
 4918 2412 22       		.uleb128 0x22
 4919 2413 C7070000 		.4byte	.LASF717
 4920 2417 1430     		.2byte	0x3014
 4921 2419 22       		.uleb128 0x22
 4922 241a 68370000 		.4byte	.LASF718
 4923 241e 1530     		.2byte	0x3015
 4924 2420 22       		.uleb128 0x22
 4925 2421 32120000 		.4byte	.LASF719
 4926 2425 1630     		.2byte	0x3016
 4927 2427 22       		.uleb128 0x22
 4928 2428 7B360000 		.4byte	.LASF720
 4929 242c 1730     		.2byte	0x3017
 4930 242e 22       		.uleb128 0x22
 4931 242f 5A440000 		.4byte	.LASF721
 4932 2433 1830     		.2byte	0x3018
 4933 2435 22       		.uleb128 0x22
 4934 2436 492D0000 		.4byte	.LASF722
 4935 243a 0040     		.2byte	0x4000
 4936 243c 22       		.uleb128 0x22
ARM GAS  C:\Users\ASUS\AppData\Local\Temp\cczm8cZa.s 			page 118


 4937 243d 30550000 		.4byte	.LASF723
 4938 2441 0140     		.2byte	0x4001
 4939 2443 22       		.uleb128 0x22
 4940 2444 BF430000 		.4byte	.LASF724
 4941 2448 0240     		.2byte	0x4002
 4942 244a 22       		.uleb128 0x22
 4943 244b A9370000 		.4byte	.LASF725
 4944 244f 0340     		.2byte	0x4003
 4945 2451 22       		.uleb128 0x22
 4946 2452 6A340000 		.4byte	.LASF726
 4947 2456 0440     		.2byte	0x4004
 4948 2458 22       		.uleb128 0x22
 4949 2459 9E4E0000 		.4byte	.LASF727
 4950 245d 0540     		.2byte	0x4005
 4951 245f 22       		.uleb128 0x22
 4952 2460 0F110000 		.4byte	.LASF728
 4953 2464 0640     		.2byte	0x4006
 4954 2466 22       		.uleb128 0x22
 4955 2467 C1200000 		.4byte	.LASF729
 4956 246b 0740     		.2byte	0x4007
 4957 246d 22       		.uleb128 0x22
 4958 246e 87560000 		.4byte	.LASF730
 4959 2472 0840     		.2byte	0x4008
 4960 2474 22       		.uleb128 0x22
 4961 2475 F6470000 		.4byte	.LASF731
 4962 2479 0940     		.2byte	0x4009
 4963 247b 22       		.uleb128 0x22
 4964 247c 620E0000 		.4byte	.LASF732
 4965 2480 0A40     		.2byte	0x400a
 4966 2482 22       		.uleb128 0x22
 4967 2483 E6070000 		.4byte	.LASF733
 4968 2487 0B40     		.2byte	0x400b
 4969 2489 22       		.uleb128 0x22
 4970 248a 6F4A0000 		.4byte	.LASF734
 4971 248e 0C40     		.2byte	0x400c
 4972 2490 22       		.uleb128 0x22
 4973 2491 1C360000 		.4byte	.LASF735
 4974 2495 0D40     		.2byte	0x400d
 4975 2497 22       		.uleb128 0x22
 4976 2498 00540000 		.4byte	.LASF736
 4977 249c 0E40     		.2byte	0x400e
 4978 249e 22       		.uleb128 0x22
 4979 249f 50140000 		.4byte	.LASF737
 4980 24a3 0F40     		.2byte	0x400f
 4981 24a5 22       		.uleb128 0x22
 4982 24a6 FD020000 		.4byte	.LASF738
 4983 24aa 1040     		.2byte	0x4010
 4984 24ac 22       		.uleb128 0x22
 4985 24ad DE2F0000 		.4byte	.LASF739
 4986 24b1 1140     		.2byte	0x4011
 4987 24b3 22       		.uleb128 0x22
 4988 24b4 1E160000 		.4byte	.LASF740
 4989 24b8 1240     		.2byte	0x4012
 4990 24ba 22       		.uleb128 0x22
 4991 24bb 6F230000 		.4byte	.LASF741
 4992 24bf 1340     		.2byte	0x4013
 4993 24c1 22       		.uleb128 0x22
ARM GAS  C:\Users\ASUS\AppData\Local\Temp\cczm8cZa.s 			page 119


 4994 24c2 D5310000 		.4byte	.LASF742
 4995 24c6 1440     		.2byte	0x4014
 4996 24c8 22       		.uleb128 0x22
 4997 24c9 A4090000 		.4byte	.LASF743
 4998 24cd 1540     		.2byte	0x4015
 4999 24cf 22       		.uleb128 0x22
 5000 24d0 EE3D0000 		.4byte	.LASF744
 5001 24d4 1640     		.2byte	0x4016
 5002 24d6 22       		.uleb128 0x22
 5003 24d7 422E0000 		.4byte	.LASF745
 5004 24db 1740     		.2byte	0x4017
 5005 24dd 22       		.uleb128 0x22
 5006 24de EA1F0000 		.4byte	.LASF746
 5007 24e2 1840     		.2byte	0x4018
 5008 24e4 22       		.uleb128 0x22
 5009 24e5 F80D0000 		.4byte	.LASF747
 5010 24e9 1940     		.2byte	0x4019
 5011 24eb 22       		.uleb128 0x22
 5012 24ec AE250000 		.4byte	.LASF748
 5013 24f0 1A40     		.2byte	0x401a
 5014 24f2 22       		.uleb128 0x22
 5015 24f3 FA2E0000 		.4byte	.LASF749
 5016 24f7 0050     		.2byte	0x5000
 5017 24f9 22       		.uleb128 0x22
 5018 24fa 21190000 		.4byte	.LASF750
 5019 24fe 0150     		.2byte	0x5001
 5020 2500 22       		.uleb128 0x22
 5021 2501 0E1C0000 		.4byte	.LASF751
 5022 2505 0250     		.2byte	0x5002
 5023 2507 22       		.uleb128 0x22
 5024 2508 BF4C0000 		.4byte	.LASF752
 5025 250c 0350     		.2byte	0x5003
 5026 250e 22       		.uleb128 0x22
 5027 250f AA470000 		.4byte	.LASF753
 5028 2513 0450     		.2byte	0x5004
 5029 2515 22       		.uleb128 0x22
 5030 2516 F51D0000 		.4byte	.LASF754
 5031 251a 0550     		.2byte	0x5005
 5032 251c 22       		.uleb128 0x22
 5033 251d 72280000 		.4byte	.LASF755
 5034 2521 0650     		.2byte	0x5006
 5035 2523 22       		.uleb128 0x22
 5036 2524 1D1D0000 		.4byte	.LASF756
 5037 2528 0750     		.2byte	0x5007
 5038 252a 22       		.uleb128 0x22
 5039 252b 01220000 		.4byte	.LASF757
 5040 252f 0850     		.2byte	0x5008
 5041 2531 22       		.uleb128 0x22
 5042 2532 81290000 		.4byte	.LASF758
 5043 2536 0950     		.2byte	0x5009
 5044 2538 22       		.uleb128 0x22
 5045 2539 CD320000 		.4byte	.LASF759
 5046 253d 0A50     		.2byte	0x500a
 5047 253f 22       		.uleb128 0x22
 5048 2540 41240000 		.4byte	.LASF760
 5049 2544 0B50     		.2byte	0x500b
 5050 2546 22       		.uleb128 0x22
ARM GAS  C:\Users\ASUS\AppData\Local\Temp\cczm8cZa.s 			page 120


 5051 2547 71590000 		.4byte	.LASF761
 5052 254b 0C50     		.2byte	0x500c
 5053 254d 22       		.uleb128 0x22
 5054 254e F30F0000 		.4byte	.LASF762
 5055 2552 0D50     		.2byte	0x500d
 5056 2554 22       		.uleb128 0x22
 5057 2555 333A0000 		.4byte	.LASF763
 5058 2559 0E50     		.2byte	0x500e
 5059 255b 22       		.uleb128 0x22
 5060 255c C6550000 		.4byte	.LASF764
 5061 2560 0F50     		.2byte	0x500f
 5062 2562 22       		.uleb128 0x22
 5063 2563 BB2C0000 		.4byte	.LASF765
 5064 2567 1050     		.2byte	0x5010
 5065 2569 22       		.uleb128 0x22
 5066 256a 63320000 		.4byte	.LASF766
 5067 256e 1150     		.2byte	0x5011
 5068 2570 22       		.uleb128 0x22
 5069 2571 F8450000 		.4byte	.LASF767
 5070 2575 1250     		.2byte	0x5012
 5071 2577 22       		.uleb128 0x22
 5072 2578 38020000 		.4byte	.LASF768
 5073 257c 1350     		.2byte	0x5013
 5074 257e 22       		.uleb128 0x22
 5075 257f D24B0000 		.4byte	.LASF769
 5076 2583 1450     		.2byte	0x5014
 5077 2585 22       		.uleb128 0x22
 5078 2586 79170000 		.4byte	.LASF770
 5079 258a 1550     		.2byte	0x5015
 5080 258c 22       		.uleb128 0x22
 5081 258d B0050000 		.4byte	.LASF771
 5082 2591 1650     		.2byte	0x5016
 5083 2593 22       		.uleb128 0x22
 5084 2594 60300000 		.4byte	.LASF772
 5085 2598 1750     		.2byte	0x5017
 5086 259a 22       		.uleb128 0x22
 5087 259b 9B210000 		.4byte	.LASF773
 5088 259f 1850     		.2byte	0x5018
 5089 25a1 22       		.uleb128 0x22
 5090 25a2 1A100000 		.4byte	.LASF774
 5091 25a6 0060     		.2byte	0x6000
 5092 25a8 22       		.uleb128 0x22
 5093 25a9 471B0000 		.4byte	.LASF775
 5094 25ad 0160     		.2byte	0x6001
 5095 25af 22       		.uleb128 0x22
 5096 25b0 CD280000 		.4byte	.LASF776
 5097 25b4 0260     		.2byte	0x6002
 5098 25b6 22       		.uleb128 0x22
 5099 25b7 A4350000 		.4byte	.LASF777
 5100 25bb 0360     		.2byte	0x6003
 5101 25bd 22       		.uleb128 0x22
 5102 25be 6A1A0000 		.4byte	.LASF778
 5103 25c2 0460     		.2byte	0x6004
 5104 25c4 22       		.uleb128 0x22
 5105 25c5 C05A0000 		.4byte	.LASF779
 5106 25c9 0560     		.2byte	0x6005
 5107 25cb 22       		.uleb128 0x22
ARM GAS  C:\Users\ASUS\AppData\Local\Temp\cczm8cZa.s 			page 121


 5108 25cc 16440000 		.4byte	.LASF780
 5109 25d0 0660     		.2byte	0x6006
 5110 25d2 22       		.uleb128 0x22
 5111 25d3 813E0000 		.4byte	.LASF781
 5112 25d7 0760     		.2byte	0x6007
 5113 25d9 22       		.uleb128 0x22
 5114 25da 1E3E0000 		.4byte	.LASF782
 5115 25de 0860     		.2byte	0x6008
 5116 25e0 22       		.uleb128 0x22
 5117 25e1 87550000 		.4byte	.LASF783
 5118 25e5 0960     		.2byte	0x6009
 5119 25e7 22       		.uleb128 0x22
 5120 25e8 523A0000 		.4byte	.LASF784
 5121 25ec 0A60     		.2byte	0x600a
 5122 25ee 22       		.uleb128 0x22
 5123 25ef CA170000 		.4byte	.LASF785
 5124 25f3 FFFF     		.2byte	0xffff
 5125 25f5 00       		.byte	0
 5126 25f6 12       		.uleb128 0x12
 5127 25f7 64470000 		.4byte	.LASF786
 5128 25fb 0B       		.byte	0xb
 5129 25fc C004     		.2byte	0x4c0
 5130 25fe BD220000 		.4byte	0x22bd
 5131 2602 1D       		.uleb128 0x1d
 5132 2603 04       		.byte	0x4
 5133 2604 2C000000 		.4byte	0x2c
 5134 2608 0B       		.byte	0xb
 5135 2609 CA04     		.2byte	0x4ca
 5136 260b 1B270000 		.4byte	0x271b
 5137 260f 11       		.uleb128 0x11
 5138 2610 68480000 		.4byte	.LASF787
 5139 2614 00       		.byte	0
 5140 2615 1E       		.uleb128 0x1e
 5141 2616 322B0000 		.4byte	.LASF788
 5142 261a 01001400 		.4byte	0x140001
 5143 261e 1E       		.uleb128 0x1e
 5144 261f 49410000 		.4byte	.LASF789
 5145 2623 01001600 		.4byte	0x160001
 5146 2627 1E       		.uleb128 0x1e
 5147 2628 F64C0000 		.4byte	.LASF790
 5148 262c 02001600 		.4byte	0x160002
 5149 2630 1E       		.uleb128 0x1e
 5150 2631 EA1C0000 		.4byte	.LASF791
 5151 2635 03001600 		.4byte	0x160003
 5152 2639 1E       		.uleb128 0x1e
 5153 263a 1B0A0000 		.4byte	.LASF792
 5154 263e 04001600 		.4byte	0x160004
 5155 2642 1E       		.uleb128 0x1e
 5156 2643 76350000 		.4byte	.LASF793
 5157 2647 05001600 		.4byte	0x160005
 5158 264b 1E       		.uleb128 0x1e
 5159 264c 033C0000 		.4byte	.LASF794
 5160 2650 06001600 		.4byte	0x160006
 5161 2654 1E       		.uleb128 0x1e
 5162 2655 EB120000 		.4byte	.LASF795
 5163 2659 07001600 		.4byte	0x160007
 5164 265d 1E       		.uleb128 0x1e
ARM GAS  C:\Users\ASUS\AppData\Local\Temp\cczm8cZa.s 			page 122


 5165 265e 471A0000 		.4byte	.LASF796
 5166 2662 08001600 		.4byte	0x160008
 5167 2666 1E       		.uleb128 0x1e
 5168 2667 3E380000 		.4byte	.LASF797
 5169 266b 09001600 		.4byte	0x160009
 5170 266f 1E       		.uleb128 0x1e
 5171 2670 3F310000 		.4byte	.LASF798
 5172 2674 0A001600 		.4byte	0x16000a
 5173 2678 1E       		.uleb128 0x1e
 5174 2679 C4540000 		.4byte	.LASF799
 5175 267d 0B001600 		.4byte	0x16000b
 5176 2681 1E       		.uleb128 0x1e
 5177 2682 79240000 		.4byte	.LASF800
 5178 2686 0C001600 		.4byte	0x16000c
 5179 268a 1E       		.uleb128 0x1e
 5180 268b 501F0000 		.4byte	.LASF801
 5181 268f 0D001600 		.4byte	0x16000d
 5182 2693 1E       		.uleb128 0x1e
 5183 2694 CD0F0000 		.4byte	.LASF802
 5184 2698 0E001600 		.4byte	0x16000e
 5185 269c 1E       		.uleb128 0x1e
 5186 269d 71490000 		.4byte	.LASF803
 5187 26a1 0F001600 		.4byte	0x16000f
 5188 26a5 1E       		.uleb128 0x1e
 5189 26a6 1D4F0000 		.4byte	.LASF804
 5190 26aa 10001600 		.4byte	0x160010
 5191 26ae 1E       		.uleb128 0x1e
 5192 26af 2B2F0000 		.4byte	.LASF805
 5193 26b3 11001600 		.4byte	0x160011
 5194 26b7 1E       		.uleb128 0x1e
 5195 26b8 61460000 		.4byte	.LASF806
 5196 26bc 12001600 		.4byte	0x160012
 5197 26c0 1E       		.uleb128 0x1e
 5198 26c1 CC180000 		.4byte	.LASF807
 5199 26c5 13001600 		.4byte	0x160013
 5200 26c9 1E       		.uleb128 0x1e
 5201 26ca B7270000 		.4byte	.LASF808
 5202 26ce 14001600 		.4byte	0x160014
 5203 26d2 1E       		.uleb128 0x1e
 5204 26d3 7C2A0000 		.4byte	.LASF809
 5205 26d7 15001600 		.4byte	0x160015
 5206 26db 1E       		.uleb128 0x1e
 5207 26dc 06420000 		.4byte	.LASF810
 5208 26e0 16001600 		.4byte	0x160016
 5209 26e4 1E       		.uleb128 0x1e
 5210 26e5 555B0000 		.4byte	.LASF811
 5211 26e9 17001600 		.4byte	0x160017
 5212 26ed 1E       		.uleb128 0x1e
 5213 26ee 00300000 		.4byte	.LASF812
 5214 26f2 18001600 		.4byte	0x160018
 5215 26f6 1E       		.uleb128 0x1e
 5216 26f7 E7490000 		.4byte	.LASF813
 5217 26fb 19001600 		.4byte	0x160019
 5218 26ff 1E       		.uleb128 0x1e
 5219 2700 1B3D0000 		.4byte	.LASF814
 5220 2704 FE001600 		.4byte	0x1600fe
 5221 2708 1E       		.uleb128 0x1e
ARM GAS  C:\Users\ASUS\AppData\Local\Temp\cczm8cZa.s 			page 123


 5222 2709 4A2C0000 		.4byte	.LASF815
 5223 270d FF001600 		.4byte	0x1600ff
 5224 2711 1E       		.uleb128 0x1e
 5225 2712 E5470000 		.4byte	.LASF816
 5226 2716 FFFF1600 		.4byte	0x16ffff
 5227 271a 00       		.byte	0
 5228 271b 12       		.uleb128 0x12
 5229 271c 810C0000 		.4byte	.LASF817
 5230 2720 0B       		.byte	0xb
 5231 2721 2D05     		.2byte	0x52d
 5232 2723 02260000 		.4byte	0x2602
 5233 2727 12       		.uleb128 0x12
 5234 2728 D8120000 		.4byte	.LASF818
 5235 272c 0B       		.byte	0xb
 5236 272d 3505     		.2byte	0x535
 5237 272f 33270000 		.4byte	0x2733
 5238 2733 06       		.uleb128 0x6
 5239 2734 04       		.byte	0x4
 5240 2735 39270000 		.4byte	0x2739
 5241 2739 23       		.uleb128 0x23
 5242 273a 49270000 		.4byte	0x2749
 5243 273e 20       		.uleb128 0x20
 5244 273f F6250000 		.4byte	0x25f6
 5245 2743 20       		.uleb128 0x20
 5246 2744 B0000000 		.4byte	0xb0
 5247 2748 00       		.byte	0
 5248 2749 1C       		.uleb128 0x1c
 5249 274a 07       		.byte	0x7
 5250 274b 0B       		.byte	0xb
 5251 274c 4B05     		.2byte	0x54b
 5252 274e 6D270000 		.4byte	0x276d
 5253 2752 19       		.uleb128 0x19
 5254 2753 E1240000 		.4byte	.LASF819
 5255 2757 0B       		.byte	0xb
 5256 2758 4E05     		.2byte	0x54e
 5257 275a 6D270000 		.4byte	0x276d
 5258 275e 00       		.byte	0
 5259 275f 19       		.uleb128 0x19
 5260 2760 EC320000 		.4byte	.LASF664
 5261 2764 0B       		.byte	0xb
 5262 2765 5105     		.2byte	0x551
 5263 2767 CB000000 		.4byte	0xcb
 5264 276b 06       		.byte	0x6
 5265 276c 00       		.byte	0
 5266 276d 0A       		.uleb128 0xa
 5267 276e CB000000 		.4byte	0xcb
 5268 2772 7D270000 		.4byte	0x277d
 5269 2776 0B       		.uleb128 0xb
 5270 2777 A9000000 		.4byte	0xa9
 5271 277b 05       		.byte	0x5
 5272 277c 00       		.byte	0
 5273 277d 12       		.uleb128 0x12
 5274 277e 4A390000 		.4byte	.LASF820
 5275 2782 0B       		.byte	0xb
 5276 2783 5305     		.2byte	0x553
 5277 2785 49270000 		.4byte	0x2749
 5278 2789 1C       		.uleb128 0x1c
ARM GAS  C:\Users\ASUS\AppData\Local\Temp\cczm8cZa.s 			page 124


 5279 278a 06       		.byte	0x6
 5280 278b 0B       		.byte	0xb
 5281 278c 5A05     		.2byte	0x55a
 5282 278e C7270000 		.4byte	0x27c7
 5283 2792 19       		.uleb128 0x19
 5284 2793 8E520000 		.4byte	.LASF821
 5285 2797 0B       		.byte	0xb
 5286 2798 6005     		.2byte	0x560
 5287 279a E1000000 		.4byte	0xe1
 5288 279e 00       		.byte	0
 5289 279f 19       		.uleb128 0x19
 5290 27a0 BC4A0000 		.4byte	.LASF822
 5291 27a4 0B       		.byte	0xb
 5292 27a5 6605     		.2byte	0x566
 5293 27a7 E1000000 		.4byte	0xe1
 5294 27ab 02       		.byte	0x2
 5295 27ac 19       		.uleb128 0x19
 5296 27ad B0360000 		.4byte	.LASF823
 5297 27b1 0B       		.byte	0xb
 5298 27b2 6C05     		.2byte	0x56c
 5299 27b4 CB000000 		.4byte	0xcb
 5300 27b8 04       		.byte	0x4
 5301 27b9 19       		.uleb128 0x19
 5302 27ba 4D010000 		.4byte	.LASF824
 5303 27be 0B       		.byte	0xb
 5304 27bf 7205     		.2byte	0x572
 5305 27c1 CB000000 		.4byte	0xcb
 5306 27c5 05       		.byte	0x5
 5307 27c6 00       		.byte	0
 5308 27c7 12       		.uleb128 0x12
 5309 27c8 FC360000 		.4byte	.LASF825
 5310 27cc 0B       		.byte	0xb
 5311 27cd 7405     		.2byte	0x574
 5312 27cf 89270000 		.4byte	0x2789
 5313 27d3 1C       		.uleb128 0x1c
 5314 27d4 01       		.byte	0x1
 5315 27d5 0B       		.byte	0xb
 5316 27d6 7705     		.2byte	0x577
 5317 27d8 EA270000 		.4byte	0x27ea
 5318 27dc 19       		.uleb128 0x19
 5319 27dd BA0F0000 		.4byte	.LASF826
 5320 27e1 0B       		.byte	0xb
 5321 27e2 7E05     		.2byte	0x57e
 5322 27e4 CB000000 		.4byte	0xcb
 5323 27e8 00       		.byte	0
 5324 27e9 00       		.byte	0
 5325 27ea 12       		.uleb128 0x12
 5326 27eb B53B0000 		.4byte	.LASF827
 5327 27ef 0B       		.byte	0xb
 5328 27f0 8005     		.2byte	0x580
 5329 27f2 D3270000 		.4byte	0x27d3
 5330 27f6 1C       		.uleb128 0x1c
 5331 27f7 01       		.byte	0x1
 5332 27f8 0B       		.byte	0xb
 5333 27f9 8405     		.2byte	0x584
 5334 27fb 0D280000 		.4byte	0x280d
 5335 27ff 19       		.uleb128 0x19
ARM GAS  C:\Users\ASUS\AppData\Local\Temp\cczm8cZa.s 			page 125


 5336 2800 BE330000 		.4byte	.LASF828
 5337 2804 0B       		.byte	0xb
 5338 2805 8705     		.2byte	0x587
 5339 2807 CB000000 		.4byte	0xcb
 5340 280b 00       		.byte	0
 5341 280c 00       		.byte	0
 5342 280d 12       		.uleb128 0x12
 5343 280e 633F0000 		.4byte	.LASF829
 5344 2812 0B       		.byte	0xb
 5345 2813 8905     		.2byte	0x589
 5346 2815 F6270000 		.4byte	0x27f6
 5347 2819 1C       		.uleb128 0x1c
 5348 281a 01       		.byte	0x1
 5349 281b 0B       		.byte	0xb
 5350 281c 8C05     		.2byte	0x58c
 5351 281e 30280000 		.4byte	0x2830
 5352 2822 19       		.uleb128 0x19
 5353 2823 14480000 		.4byte	.LASF830
 5354 2827 0B       		.byte	0xb
 5355 2828 9005     		.2byte	0x590
 5356 282a CB000000 		.4byte	0xcb
 5357 282e 00       		.byte	0
 5358 282f 00       		.byte	0
 5359 2830 12       		.uleb128 0x12
 5360 2831 A0490000 		.4byte	.LASF831
 5361 2835 0B       		.byte	0xb
 5362 2836 9205     		.2byte	0x592
 5363 2838 19280000 		.4byte	0x2819
 5364 283c 1C       		.uleb128 0x1c
 5365 283d 01       		.byte	0x1
 5366 283e 0B       		.byte	0xb
 5367 283f 9505     		.2byte	0x595
 5368 2841 53280000 		.4byte	0x2853
 5369 2845 19       		.uleb128 0x19
 5370 2846 87340000 		.4byte	.LASF832
 5371 284a 0B       		.byte	0xb
 5372 284b 9805     		.2byte	0x598
 5373 284d CB000000 		.4byte	0xcb
 5374 2851 00       		.byte	0
 5375 2852 00       		.byte	0
 5376 2853 12       		.uleb128 0x12
 5377 2854 1C4C0000 		.4byte	.LASF833
 5378 2858 0B       		.byte	0xb
 5379 2859 9A05     		.2byte	0x59a
 5380 285b 3C280000 		.4byte	0x283c
 5381 285f 1C       		.uleb128 0x1c
 5382 2860 1A       		.byte	0x1a
 5383 2861 0B       		.byte	0xb
 5384 2862 9D05     		.2byte	0x59d
 5385 2864 9D280000 		.4byte	0x289d
 5386 2868 19       		.uleb128 0x19
 5387 2869 0E100000 		.4byte	.LASF834
 5388 286d 0B       		.byte	0xb
 5389 286e AC05     		.2byte	0x5ac
 5390 2870 9D280000 		.4byte	0x289d
 5391 2874 00       		.byte	0
 5392 2875 19       		.uleb128 0x19
ARM GAS  C:\Users\ASUS\AppData\Local\Temp\cczm8cZa.s 			page 126


 5393 2876 17450000 		.4byte	.LASF835
 5394 287a 0B       		.byte	0xb
 5395 287b BF05     		.2byte	0x5bf
 5396 287d AD280000 		.4byte	0x28ad
 5397 2881 08       		.byte	0x8
 5398 2882 19       		.uleb128 0x19
 5399 2883 2F420000 		.4byte	.LASF836
 5400 2887 0B       		.byte	0xb
 5401 2888 C505     		.2byte	0x5c5
 5402 288a CB000000 		.4byte	0xcb
 5403 288e 16       		.byte	0x16
 5404 288f 19       		.uleb128 0x19
 5405 2890 DF460000 		.4byte	.LASF837
 5406 2894 0B       		.byte	0xb
 5407 2895 CB05     		.2byte	0x5cb
 5408 2897 E1000000 		.4byte	0xe1
 5409 289b 18       		.byte	0x18
 5410 289c 00       		.byte	0
 5411 289d 0A       		.uleb128 0xa
 5412 289e E1000000 		.4byte	0xe1
 5413 28a2 AD280000 		.4byte	0x28ad
 5414 28a6 0B       		.uleb128 0xb
 5415 28a7 A9000000 		.4byte	0xa9
 5416 28ab 03       		.byte	0x3
 5417 28ac 00       		.byte	0
 5418 28ad 0A       		.uleb128 0xa
 5419 28ae E1000000 		.4byte	0xe1
 5420 28b2 BD280000 		.4byte	0x28bd
 5421 28b6 0B       		.uleb128 0xb
 5422 28b7 A9000000 		.4byte	0xa9
 5423 28bb 06       		.byte	0x6
 5424 28bc 00       		.byte	0
 5425 28bd 12       		.uleb128 0x12
 5426 28be 065B0000 		.4byte	.LASF838
 5427 28c2 0B       		.byte	0xb
 5428 28c3 CD05     		.2byte	0x5cd
 5429 28c5 5F280000 		.4byte	0x285f
 5430 28c9 1C       		.uleb128 0x1c
 5431 28ca 2A       		.byte	0x2a
 5432 28cb 0B       		.byte	0xb
 5433 28cc D305     		.2byte	0x5d3
 5434 28ce 48290000 		.4byte	0x2948
 5435 28d2 19       		.uleb128 0x19
 5436 28d3 EA280000 		.4byte	.LASF839
 5437 28d7 0B       		.byte	0xb
 5438 28d8 D605     		.2byte	0x5d6
 5439 28da C7270000 		.4byte	0x27c7
 5440 28de 00       		.byte	0
 5441 28df 19       		.uleb128 0x19
 5442 28e0 3B230000 		.4byte	.LASF840
 5443 28e4 0B       		.byte	0xb
 5444 28e5 D905     		.2byte	0x5d9
 5445 28e7 EA270000 		.4byte	0x27ea
 5446 28eb 06       		.byte	0x6
 5447 28ec 19       		.uleb128 0x19
 5448 28ed EC2E0000 		.4byte	.LASF841
 5449 28f1 0B       		.byte	0xb
ARM GAS  C:\Users\ASUS\AppData\Local\Temp\cczm8cZa.s 			page 127


 5450 28f2 DC05     		.2byte	0x5dc
 5451 28f4 0D280000 		.4byte	0x280d
 5452 28f8 07       		.byte	0x7
 5453 28f9 19       		.uleb128 0x19
 5454 28fa 79000000 		.4byte	.LASF842
 5455 28fe 0B       		.byte	0xb
 5456 28ff DF05     		.2byte	0x5df
 5457 2901 30280000 		.4byte	0x2830
 5458 2905 08       		.byte	0x8
 5459 2906 19       		.uleb128 0x19
 5460 2907 652C0000 		.4byte	.LASF843
 5461 290b 0B       		.byte	0xb
 5462 290c E205     		.2byte	0x5e2
 5463 290e 53280000 		.4byte	0x2853
 5464 2912 09       		.byte	0x9
 5465 2913 19       		.uleb128 0x19
 5466 2914 732B0000 		.4byte	.LASF844
 5467 2918 0B       		.byte	0xb
 5468 2919 E505     		.2byte	0x5e5
 5469 291b BD280000 		.4byte	0x28bd
 5470 291f 0A       		.byte	0xa
 5471 2920 19       		.uleb128 0x19
 5472 2921 39590000 		.4byte	.LASF845
 5473 2925 0B       		.byte	0xb
 5474 2926 F405     		.2byte	0x5f4
 5475 2928 E1000000 		.4byte	0xe1
 5476 292c 24       		.byte	0x24
 5477 292d 19       		.uleb128 0x19
 5478 292e FC580000 		.4byte	.LASF846
 5479 2932 0B       		.byte	0xb
 5480 2933 F705     		.2byte	0x5f7
 5481 2935 E1000000 		.4byte	0xe1
 5482 2939 26       		.byte	0x26
 5483 293a 19       		.uleb128 0x19
 5484 293b F3370000 		.4byte	.LASF847
 5485 293f 0B       		.byte	0xb
 5486 2940 FD05     		.2byte	0x5fd
 5487 2942 CB000000 		.4byte	0xcb
 5488 2946 28       		.byte	0x28
 5489 2947 00       		.byte	0
 5490 2948 12       		.uleb128 0x12
 5491 2949 67580000 		.4byte	.LASF848
 5492 294d 0B       		.byte	0xb
 5493 294e FF05     		.2byte	0x5ff
 5494 2950 C9280000 		.4byte	0x28c9
 5495 2954 1C       		.uleb128 0x1c
 5496 2955 04       		.byte	0x4
 5497 2956 0B       		.byte	0xb
 5498 2957 0306     		.2byte	0x603
 5499 2959 78290000 		.4byte	0x2978
 5500 295d 19       		.uleb128 0x19
 5501 295e DC490000 		.4byte	.LASF849
 5502 2962 0B       		.byte	0xb
 5503 2963 0606     		.2byte	0x606
 5504 2965 E1000000 		.4byte	0xe1
 5505 2969 00       		.byte	0
 5506 296a 19       		.uleb128 0x19
ARM GAS  C:\Users\ASUS\AppData\Local\Temp\cczm8cZa.s 			page 128


 5507 296b D8340000 		.4byte	.LASF850
 5508 296f 0B       		.byte	0xb
 5509 2970 0906     		.2byte	0x609
 5510 2972 E1000000 		.4byte	0xe1
 5511 2976 02       		.byte	0x2
 5512 2977 00       		.byte	0
 5513 2978 12       		.uleb128 0x12
 5514 2979 18500000 		.4byte	.LASF851
 5515 297d 0B       		.byte	0xb
 5516 297e 0B06     		.2byte	0x60b
 5517 2980 54290000 		.4byte	0x2954
 5518 2984 1C       		.uleb128 0x1c
 5519 2985 14       		.byte	0x14
 5520 2986 0B       		.byte	0xb
 5521 2987 1D06     		.2byte	0x61d
 5522 2989 DC290000 		.4byte	0x29dc
 5523 298d 19       		.uleb128 0x19
 5524 298e 89250000 		.4byte	.LASF852
 5525 2992 0B       		.byte	0xb
 5526 2993 2006     		.2byte	0x620
 5527 2995 DC290000 		.4byte	0x29dc
 5528 2999 00       		.byte	0
 5529 299a 19       		.uleb128 0x19
 5530 299b D6380000 		.4byte	.LASF853
 5531 299f 0B       		.byte	0xb
 5532 29a0 2306     		.2byte	0x623
 5533 29a2 E2290000 		.4byte	0x29e2
 5534 29a6 04       		.byte	0x4
 5535 29a7 19       		.uleb128 0x19
 5536 29a8 7E400000 		.4byte	.LASF854
 5537 29ac 0B       		.byte	0xb
 5538 29ad 2606     		.2byte	0x626
 5539 29af E1000000 		.4byte	0xe1
 5540 29b3 08       		.byte	0x8
 5541 29b4 19       		.uleb128 0x19
 5542 29b5 600F0000 		.4byte	.LASF855
 5543 29b9 0B       		.byte	0xb
 5544 29ba 2906     		.2byte	0x629
 5545 29bc CB000000 		.4byte	0xcb
 5546 29c0 0A       		.byte	0xa
 5547 29c1 19       		.uleb128 0x19
 5548 29c2 81380000 		.4byte	.LASF856
 5549 29c6 0B       		.byte	0xb
 5550 29c7 2D06     		.2byte	0x62d
 5551 29c9 E8290000 		.4byte	0x29e8
 5552 29cd 0C       		.byte	0xc
 5553 29ce 19       		.uleb128 0x19
 5554 29cf 29010000 		.4byte	.LASF857
 5555 29d3 0B       		.byte	0xb
 5556 29d4 3006     		.2byte	0x630
 5557 29d6 EC000000 		.4byte	0xec
 5558 29da 10       		.byte	0x10
 5559 29db 00       		.byte	0
 5560 29dc 06       		.uleb128 0x6
 5561 29dd 04       		.byte	0x4
 5562 29de CB000000 		.4byte	0xcb
 5563 29e2 06       		.uleb128 0x6
ARM GAS  C:\Users\ASUS\AppData\Local\Temp\cczm8cZa.s 			page 129


 5564 29e3 04       		.byte	0x4
 5565 29e4 78290000 		.4byte	0x2978
 5566 29e8 06       		.uleb128 0x6
 5567 29e9 04       		.byte	0x4
 5568 29ea EE290000 		.4byte	0x29ee
 5569 29ee 09       		.uleb128 0x9
 5570 29ef CB000000 		.4byte	0xcb
 5571 29f3 12       		.uleb128 0x12
 5572 29f4 2B1F0000 		.4byte	.LASF858
 5573 29f8 0B       		.byte	0xb
 5574 29f9 3206     		.2byte	0x632
 5575 29fb 84290000 		.4byte	0x2984
 5576 29ff 1C       		.uleb128 0x1c
 5577 2a00 44       		.byte	0x44
 5578 2a01 0B       		.byte	0xb
 5579 2a02 3606     		.2byte	0x636
 5580 2a04 302A0000 		.4byte	0x2a30
 5581 2a08 19       		.uleb128 0x19
 5582 2a09 4A4F0000 		.4byte	.LASF859
 5583 2a0d 0B       		.byte	0xb
 5584 2a0e 3906     		.2byte	0x639
 5585 2a10 27270000 		.4byte	0x2727
 5586 2a14 00       		.byte	0
 5587 2a15 19       		.uleb128 0x19
 5588 2a16 84310000 		.4byte	.LASF860
 5589 2a1a 0B       		.byte	0xb
 5590 2a1b 3C06     		.2byte	0x63c
 5591 2a1d F3290000 		.4byte	0x29f3
 5592 2a21 04       		.byte	0x4
 5593 2a22 19       		.uleb128 0x19
 5594 2a23 CC450000 		.4byte	.LASF861
 5595 2a27 0B       		.byte	0xb
 5596 2a28 3F06     		.2byte	0x63f
 5597 2a2a 48290000 		.4byte	0x2948
 5598 2a2e 18       		.byte	0x18
 5599 2a2f 00       		.byte	0
 5600 2a30 12       		.uleb128 0x12
 5601 2a31 2A3F0000 		.4byte	.LASF862
 5602 2a35 0B       		.byte	0xb
 5603 2a36 4106     		.2byte	0x641
 5604 2a38 FF290000 		.4byte	0x29ff
 5605 2a3c 1D       		.uleb128 0x1d
 5606 2a3d 01       		.byte	0x1
 5607 2a3e 4C000000 		.4byte	0x4c
 5608 2a42 0B       		.byte	0xb
 5609 2a43 5706     		.2byte	0x657
 5610 2a45 6E2A0000 		.4byte	0x2a6e
 5611 2a49 10       		.uleb128 0x10
 5612 2a4a BD140000 		.4byte	.LASF863
 5613 2a4e 6C       		.sleb128 -20
 5614 2a4f 10       		.uleb128 0x10
 5615 2a50 FF480000 		.4byte	.LASF864
 5616 2a54 70       		.sleb128 -16
 5617 2a55 10       		.uleb128 0x10
 5618 2a56 450E0000 		.4byte	.LASF865
 5619 2a5a 74       		.sleb128 -12
 5620 2a5b 10       		.uleb128 0x10
ARM GAS  C:\Users\ASUS\AppData\Local\Temp\cczm8cZa.s 			page 130


 5621 2a5c 25240000 		.4byte	.LASF866
 5622 2a60 7A       		.sleb128 -6
 5623 2a61 11       		.uleb128 0x11
 5624 2a62 50160000 		.4byte	.LASF867
 5625 2a66 00       		.byte	0
 5626 2a67 11       		.uleb128 0x11
 5627 2a68 152F0000 		.4byte	.LASF868
 5628 2a6c 04       		.byte	0x4
 5629 2a6d 00       		.byte	0
 5630 2a6e 12       		.uleb128 0x12
 5631 2a6f 162A0000 		.4byte	.LASF869
 5632 2a73 0B       		.byte	0xb
 5633 2a74 6A06     		.2byte	0x66a
 5634 2a76 3C2A0000 		.4byte	0x2a3c
 5635 2a7a 1D       		.uleb128 0x1d
 5636 2a7b 01       		.byte	0x1
 5637 2a7c 5E000000 		.4byte	0x5e
 5638 2a80 0B       		.byte	0xb
 5639 2a81 BC06     		.2byte	0x6bc
 5640 2a83 9A2A0000 		.4byte	0x2a9a
 5641 2a87 11       		.uleb128 0x11
 5642 2a88 765A0000 		.4byte	.LASF870
 5643 2a8c 01       		.byte	0x1
 5644 2a8d 11       		.uleb128 0x11
 5645 2a8e C4390000 		.4byte	.LASF871
 5646 2a92 02       		.byte	0x2
 5647 2a93 11       		.uleb128 0x11
 5648 2a94 4F330000 		.4byte	.LASF872
 5649 2a98 FF       		.byte	0xff
 5650 2a99 00       		.byte	0
 5651 2a9a 12       		.uleb128 0x12
 5652 2a9b 792F0000 		.4byte	.LASF873
 5653 2a9f 0B       		.byte	0xb
 5654 2aa0 CD06     		.2byte	0x6cd
 5655 2aa2 7A2A0000 		.4byte	0x2a7a
 5656 2aa6 1D       		.uleb128 0x1d
 5657 2aa7 01       		.byte	0x1
 5658 2aa8 5E000000 		.4byte	0x5e
 5659 2aac 0B       		.byte	0xb
 5660 2aad D306     		.2byte	0x6d3
 5661 2aaf DE2A0000 		.4byte	0x2ade
 5662 2ab3 11       		.uleb128 0x11
 5663 2ab4 F14A0000 		.4byte	.LASF874
 5664 2ab8 01       		.byte	0x1
 5665 2ab9 11       		.uleb128 0x11
 5666 2aba EA330000 		.4byte	.LASF875
 5667 2abe 02       		.byte	0x2
 5668 2abf 11       		.uleb128 0x11
 5669 2ac0 CF260000 		.4byte	.LASF876
 5670 2ac4 03       		.byte	0x3
 5671 2ac5 11       		.uleb128 0x11
 5672 2ac6 4C340000 		.4byte	.LASF877
 5673 2aca 04       		.byte	0x4
 5674 2acb 11       		.uleb128 0x11
 5675 2acc 8E440000 		.4byte	.LASF878
 5676 2ad0 05       		.byte	0x5
 5677 2ad1 11       		.uleb128 0x11
ARM GAS  C:\Users\ASUS\AppData\Local\Temp\cczm8cZa.s 			page 131


 5678 2ad2 C10D0000 		.4byte	.LASF879
 5679 2ad6 06       		.byte	0x6
 5680 2ad7 11       		.uleb128 0x11
 5681 2ad8 B1180000 		.4byte	.LASF880
 5682 2adc FF       		.byte	0xff
 5683 2add 00       		.byte	0
 5684 2ade 12       		.uleb128 0x12
 5685 2adf F1320000 		.4byte	.LASF881
 5686 2ae3 0B       		.byte	0xb
 5687 2ae4 DB06     		.2byte	0x6db
 5688 2ae6 A62A0000 		.4byte	0x2aa6
 5689 2aea 1D       		.uleb128 0x1d
 5690 2aeb 01       		.byte	0x1
 5691 2aec 5E000000 		.4byte	0x5e
 5692 2af0 0B       		.byte	0xb
 5693 2af1 DF06     		.2byte	0x6df
 5694 2af3 042B0000 		.4byte	0x2b04
 5695 2af7 11       		.uleb128 0x11
 5696 2af8 D0370000 		.4byte	.LASF882
 5697 2afc 01       		.byte	0x1
 5698 2afd 11       		.uleb128 0x11
 5699 2afe D5500000 		.4byte	.LASF883
 5700 2b02 02       		.byte	0x2
 5701 2b03 00       		.byte	0
 5702 2b04 1C       		.uleb128 0x1c
 5703 2b05 02       		.byte	0x2
 5704 2b06 0C       		.byte	0xc
 5705 2b07 6001     		.2byte	0x160
 5706 2b09 282B0000 		.4byte	0x2b28
 5707 2b0d 19       		.uleb128 0x19
 5708 2b0e E1250000 		.4byte	.LASF884
 5709 2b12 0C       		.byte	0xc
 5710 2b13 6A01     		.2byte	0x16a
 5711 2b15 CB000000 		.4byte	0xcb
 5712 2b19 00       		.byte	0
 5713 2b1a 19       		.uleb128 0x19
 5714 2b1b 3B010000 		.4byte	.LASF885
 5715 2b1f 0C       		.byte	0xc
 5716 2b20 6E01     		.2byte	0x16e
 5717 2b22 CB000000 		.4byte	0xcb
 5718 2b26 01       		.byte	0x1
 5719 2b27 00       		.byte	0
 5720 2b28 12       		.uleb128 0x12
 5721 2b29 D41D0000 		.4byte	.LASF886
 5722 2b2d 0C       		.byte	0xc
 5723 2b2e 7001     		.2byte	0x170
 5724 2b30 042B0000 		.4byte	0x2b04
 5725 2b34 12       		.uleb128 0x12
 5726 2b35 E5420000 		.4byte	.LASF887
 5727 2b39 0D       		.byte	0xd
 5728 2b3a 7F01     		.2byte	0x17f
 5729 2b3c E1000000 		.4byte	0xe1
 5730 2b40 0F       		.uleb128 0xf
 5731 2b41 01       		.byte	0x1
 5732 2b42 5E000000 		.4byte	0x5e
 5733 2b46 0E       		.byte	0xe
 5734 2b47 D5       		.byte	0xd5
ARM GAS  C:\Users\ASUS\AppData\Local\Temp\cczm8cZa.s 			page 132


 5735 2b48 6B2B0000 		.4byte	0x2b6b
 5736 2b4c 11       		.uleb128 0x11
 5737 2b4d 48350000 		.4byte	.LASF888
 5738 2b51 00       		.byte	0
 5739 2b52 11       		.uleb128 0x11
 5740 2b53 D12B0000 		.4byte	.LASF889
 5741 2b57 01       		.byte	0x1
 5742 2b58 11       		.uleb128 0x11
 5743 2b59 FD4B0000 		.4byte	.LASF890
 5744 2b5d 02       		.byte	0x2
 5745 2b5e 11       		.uleb128 0x11
 5746 2b5f 733B0000 		.4byte	.LASF891
 5747 2b63 03       		.byte	0x3
 5748 2b64 11       		.uleb128 0x11
 5749 2b65 1D310000 		.4byte	.LASF892
 5750 2b69 04       		.byte	0x4
 5751 2b6a 00       		.byte	0
 5752 2b6b 04       		.uleb128 0x4
 5753 2b6c 9F410000 		.4byte	.LASF893
 5754 2b70 0E       		.byte	0xe
 5755 2b71 E7       		.byte	0xe7
 5756 2b72 402B0000 		.4byte	0x2b40
 5757 2b76 0F       		.uleb128 0xf
 5758 2b77 01       		.byte	0x1
 5759 2b78 5E000000 		.4byte	0x5e
 5760 2b7c 0E       		.byte	0xe
 5761 2b7d EB       		.byte	0xeb
 5762 2b7e E92B0000 		.4byte	0x2be9
 5763 2b82 11       		.uleb128 0x11
 5764 2b83 27520000 		.4byte	.LASF894
 5765 2b87 00       		.byte	0
 5766 2b88 11       		.uleb128 0x11
 5767 2b89 190F0000 		.4byte	.LASF895
 5768 2b8d 01       		.byte	0x1
 5769 2b8e 11       		.uleb128 0x11
 5770 2b8f 610D0000 		.4byte	.LASF896
 5771 2b93 02       		.byte	0x2
 5772 2b94 11       		.uleb128 0x11
 5773 2b95 48550000 		.4byte	.LASF897
 5774 2b99 03       		.byte	0x3
 5775 2b9a 11       		.uleb128 0x11
 5776 2b9b 94160000 		.4byte	.LASF898
 5777 2b9f 04       		.byte	0x4
 5778 2ba0 11       		.uleb128 0x11
 5779 2ba1 EB440000 		.4byte	.LASF899
 5780 2ba5 05       		.byte	0x5
 5781 2ba6 11       		.uleb128 0x11
 5782 2ba7 6E390000 		.4byte	.LASF900
 5783 2bab 06       		.byte	0x6
 5784 2bac 11       		.uleb128 0x11
 5785 2bad D3150000 		.4byte	.LASF901
 5786 2bb1 07       		.byte	0x7
 5787 2bb2 11       		.uleb128 0x11
 5788 2bb3 AF120000 		.4byte	.LASF902
 5789 2bb7 08       		.byte	0x8
 5790 2bb8 11       		.uleb128 0x11
 5791 2bb9 AA560000 		.4byte	.LASF903
ARM GAS  C:\Users\ASUS\AppData\Local\Temp\cczm8cZa.s 			page 133


 5792 2bbd 09       		.byte	0x9
 5793 2bbe 11       		.uleb128 0x11
 5794 2bbf 580C0000 		.4byte	.LASF904
 5795 2bc3 0A       		.byte	0xa
 5796 2bc4 11       		.uleb128 0x11
 5797 2bc5 77480000 		.4byte	.LASF905
 5798 2bc9 0B       		.byte	0xb
 5799 2bca 11       		.uleb128 0x11
 5800 2bcb A93F0000 		.4byte	.LASF906
 5801 2bcf 0C       		.byte	0xc
 5802 2bd0 11       		.uleb128 0x11
 5803 2bd1 510B0000 		.4byte	.LASF907
 5804 2bd5 0D       		.byte	0xd
 5805 2bd6 11       		.uleb128 0x11
 5806 2bd7 EE570000 		.4byte	.LASF908
 5807 2bdb 0E       		.byte	0xe
 5808 2bdc 11       		.uleb128 0x11
 5809 2bdd B5410000 		.4byte	.LASF909
 5810 2be1 15       		.byte	0x15
 5811 2be2 11       		.uleb128 0x11
 5812 2be3 802E0000 		.4byte	.LASF910
 5813 2be7 18       		.byte	0x18
 5814 2be8 00       		.byte	0
 5815 2be9 12       		.uleb128 0x12
 5816 2bea A40E0000 		.4byte	.LASF911
 5817 2bee 0E       		.byte	0xe
 5818 2bef 2801     		.2byte	0x128
 5819 2bf1 762B0000 		.4byte	0x2b76
 5820 2bf5 12       		.uleb128 0x12
 5821 2bf6 750F0000 		.4byte	.LASF912
 5822 2bfa 0E       		.byte	0xe
 5823 2bfb 6601     		.2byte	0x166
 5824 2bfd 7D270000 		.4byte	0x277d
 5825 2c01 1C       		.uleb128 0x1c
 5826 2c02 06       		.byte	0x6
 5827 2c03 0E       		.byte	0xe
 5828 2c04 EA01     		.2byte	0x1ea
 5829 2c06 592C0000 		.4byte	0x2c59
 5830 2c0a 19       		.uleb128 0x19
 5831 2c0b BB110000 		.4byte	.LASF913
 5832 2c0f 0E       		.byte	0xe
 5833 2c10 F301     		.2byte	0x1f3
 5834 2c12 CB000000 		.4byte	0xcb
 5835 2c16 00       		.byte	0
 5836 2c17 19       		.uleb128 0x19
 5837 2c18 79290000 		.4byte	.LASF914
 5838 2c1c 0E       		.byte	0xe
 5839 2c1d F901     		.2byte	0x1f9
 5840 2c1f CB000000 		.4byte	0xcb
 5841 2c23 01       		.byte	0x1
 5842 2c24 19       		.uleb128 0x19
 5843 2c25 414F0000 		.4byte	.LASF915
 5844 2c29 0E       		.byte	0xe
 5845 2c2a 0002     		.2byte	0x200
 5846 2c2c CB000000 		.4byte	0xcb
 5847 2c30 02       		.byte	0x2
 5848 2c31 19       		.uleb128 0x19
ARM GAS  C:\Users\ASUS\AppData\Local\Temp\cczm8cZa.s 			page 134


 5849 2c32 2D300000 		.4byte	.LASF916
 5850 2c36 0E       		.byte	0xe
 5851 2c37 0402     		.2byte	0x204
 5852 2c39 E92B0000 		.4byte	0x2be9
 5853 2c3d 03       		.byte	0x3
 5854 2c3e 19       		.uleb128 0x19
 5855 2c3f C72D0000 		.4byte	.LASF917
 5856 2c43 0E       		.byte	0xe
 5857 2c44 0E02     		.2byte	0x20e
 5858 2c46 CB000000 		.4byte	0xcb
 5859 2c4a 04       		.byte	0x4
 5860 2c4b 19       		.uleb128 0x19
 5861 2c4c E1250000 		.4byte	.LASF884
 5862 2c50 0E       		.byte	0xe
 5863 2c51 1102     		.2byte	0x211
 5864 2c53 CB000000 		.4byte	0xcb
 5865 2c57 05       		.byte	0x5
 5866 2c58 00       		.byte	0
 5867 2c59 12       		.uleb128 0x12
 5868 2c5a D0510000 		.4byte	.LASF918
 5869 2c5e 0E       		.byte	0xe
 5870 2c5f 1302     		.2byte	0x213
 5871 2c61 012C0000 		.4byte	0x2c01
 5872 2c65 0D       		.uleb128 0xd
 5873 2c66 0C       		.byte	0xc
 5874 2c67 0F       		.byte	0xf
 5875 2c68 6D       		.byte	0x6d
 5876 2c69 CE2C0000 		.4byte	0x2cce
 5877 2c6d 0E       		.uleb128 0xe
 5878 2c6e B5340000 		.4byte	.LASF919
 5879 2c72 0F       		.byte	0xf
 5880 2c73 74       		.byte	0x74
 5881 2c74 CB000000 		.4byte	0xcb
 5882 2c78 00       		.byte	0
 5883 2c79 0E       		.uleb128 0xe
 5884 2c7a B94E0000 		.4byte	.LASF920
 5885 2c7e 0F       		.byte	0xf
 5886 2c7f 7A       		.byte	0x7a
 5887 2c80 CB000000 		.4byte	0xcb
 5888 2c84 01       		.byte	0x1
 5889 2c85 0E       		.uleb128 0xe
 5890 2c86 2F560000 		.4byte	.LASF921
 5891 2c8a 0F       		.byte	0xf
 5892 2c8b 81       		.byte	0x81
 5893 2c8c E1000000 		.4byte	0xe1
 5894 2c90 02       		.byte	0x2
 5895 2c91 0E       		.uleb128 0xe
 5896 2c92 F6080000 		.4byte	.LASF922
 5897 2c96 0F       		.byte	0xf
 5898 2c97 88       		.byte	0x88
 5899 2c98 E1000000 		.4byte	0xe1
 5900 2c9c 04       		.byte	0x4
 5901 2c9d 0E       		.uleb128 0xe
 5902 2c9e 57290000 		.4byte	.LASF923
 5903 2ca2 0F       		.byte	0xf
 5904 2ca3 90       		.byte	0x90
 5905 2ca4 CB000000 		.4byte	0xcb
ARM GAS  C:\Users\ASUS\AppData\Local\Temp\cczm8cZa.s 			page 135


 5906 2ca8 06       		.byte	0x6
 5907 2ca9 0E       		.uleb128 0xe
 5908 2caa 1D1E0000 		.4byte	.LASF924
 5909 2cae 0F       		.byte	0xf
 5910 2caf 98       		.byte	0x98
 5911 2cb0 CB000000 		.4byte	0xcb
 5912 2cb4 07       		.byte	0x7
 5913 2cb5 0E       		.uleb128 0xe
 5914 2cb6 3E0E0000 		.4byte	.LASF925
 5915 2cba 0F       		.byte	0xf
 5916 2cbb 9C       		.byte	0x9c
 5917 2cbc E1000000 		.4byte	0xe1
 5918 2cc0 08       		.byte	0x8
 5919 2cc1 0E       		.uleb128 0xe
 5920 2cc2 BB0C0000 		.4byte	.LASF926
 5921 2cc6 0F       		.byte	0xf
 5922 2cc7 A6       		.byte	0xa6
 5923 2cc8 CB000000 		.4byte	0xcb
 5924 2ccc 0A       		.byte	0xa
 5925 2ccd 00       		.byte	0
 5926 2cce 04       		.uleb128 0x4
 5927 2ccf A0040000 		.4byte	.LASF927
 5928 2cd3 0F       		.byte	0xf
 5929 2cd4 A8       		.byte	0xa8
 5930 2cd5 652C0000 		.4byte	0x2c65
 5931 2cd9 0F       		.uleb128 0xf
 5932 2cda 01       		.byte	0x1
 5933 2cdb 5E000000 		.4byte	0x5e
 5934 2cdf 10       		.byte	0x10
 5935 2ce0 39       		.byte	0x39
 5936 2ce1 042D0000 		.4byte	0x2d04
 5937 2ce5 11       		.uleb128 0x11
 5938 2ce6 94110000 		.4byte	.LASF928
 5939 2cea 00       		.byte	0
 5940 2ceb 11       		.uleb128 0x11
 5941 2cec C0400000 		.4byte	.LASF929
 5942 2cf0 01       		.byte	0x1
 5943 2cf1 11       		.uleb128 0x11
 5944 2cf2 6E050000 		.4byte	.LASF930
 5945 2cf6 02       		.byte	0x2
 5946 2cf7 11       		.uleb128 0x11
 5947 2cf8 41100000 		.4byte	.LASF931
 5948 2cfc 03       		.byte	0x3
 5949 2cfd 11       		.uleb128 0x11
 5950 2cfe BE1C0000 		.4byte	.LASF932
 5951 2d02 04       		.byte	0x4
 5952 2d03 00       		.byte	0
 5953 2d04 04       		.uleb128 0x4
 5954 2d05 EF3C0000 		.4byte	.LASF933
 5955 2d09 10       		.byte	0x10
 5956 2d0a 49       		.byte	0x49
 5957 2d0b D92C0000 		.4byte	0x2cd9
 5958 2d0f 0D       		.uleb128 0xd
 5959 2d10 10       		.byte	0x10
 5960 2d11 10       		.byte	0x10
 5961 2d12 51       		.byte	0x51
 5962 2d13 782D0000 		.4byte	0x2d78
ARM GAS  C:\Users\ASUS\AppData\Local\Temp\cczm8cZa.s 			page 136


 5963 2d17 0E       		.uleb128 0xe
 5964 2d18 2D150000 		.4byte	.LASF934
 5965 2d1c 10       		.byte	0x10
 5966 2d1d 59       		.byte	0x59
 5967 2d1e E1000000 		.4byte	0xe1
 5968 2d22 00       		.byte	0
 5969 2d23 0E       		.uleb128 0xe
 5970 2d24 FA090000 		.4byte	.LASF935
 5971 2d28 10       		.byte	0x10
 5972 2d29 61       		.byte	0x61
 5973 2d2a E1000000 		.4byte	0xe1
 5974 2d2e 02       		.byte	0x2
 5975 2d2f 0E       		.uleb128 0xe
 5976 2d30 04040000 		.4byte	.LASF936
 5977 2d34 10       		.byte	0x10
 5978 2d35 6A       		.byte	0x6a
 5979 2d36 042D0000 		.4byte	0x2d04
 5980 2d3a 04       		.byte	0x4
 5981 2d3b 0E       		.uleb128 0xe
 5982 2d3c 57290000 		.4byte	.LASF923
 5983 2d40 10       		.byte	0x10
 5984 2d41 72       		.byte	0x72
 5985 2d42 CB000000 		.4byte	0xcb
 5986 2d46 05       		.byte	0x5
 5987 2d47 0E       		.uleb128 0xe
 5988 2d48 26080000 		.4byte	.LASF937
 5989 2d4c 10       		.byte	0x10
 5990 2d4d 79       		.byte	0x79
 5991 2d4e CB000000 		.4byte	0xcb
 5992 2d52 06       		.byte	0x6
 5993 2d53 0E       		.uleb128 0xe
 5994 2d54 893F0000 		.4byte	.LASF938
 5995 2d58 10       		.byte	0x10
 5996 2d59 7F       		.byte	0x7f
 5997 2d5a 6D270000 		.4byte	0x276d
 5998 2d5e 07       		.byte	0x7
 5999 2d5f 0E       		.uleb128 0xe
 6000 2d60 63070000 		.4byte	.LASF939
 6001 2d64 10       		.byte	0x10
 6002 2d65 87       		.byte	0x87
 6003 2d66 CB000000 		.4byte	0xcb
 6004 2d6a 0D       		.byte	0xd
 6005 2d6b 0E       		.uleb128 0xe
 6006 2d6c C4250000 		.4byte	.LASF940
 6007 2d70 10       		.byte	0x10
 6008 2d71 93       		.byte	0x93
 6009 2d72 CB000000 		.4byte	0xcb
 6010 2d76 0E       		.byte	0xe
 6011 2d77 00       		.byte	0
 6012 2d78 04       		.uleb128 0x4
 6013 2d79 5C000000 		.4byte	.LASF941
 6014 2d7d 10       		.byte	0x10
 6015 2d7e 95       		.byte	0x95
 6016 2d7f 0F2D0000 		.4byte	0x2d0f
 6017 2d83 0D       		.uleb128 0xd
 6018 2d84 20       		.byte	0x20
 6019 2d85 10       		.byte	0x10
ARM GAS  C:\Users\ASUS\AppData\Local\Temp\cczm8cZa.s 			page 137


 6020 2d86 98       		.byte	0x98
 6021 2d87 A42D0000 		.4byte	0x2da4
 6022 2d8b 0E       		.uleb128 0xe
 6023 2d8c A75B0000 		.4byte	.LASF942
 6024 2d90 10       		.byte	0x10
 6025 2d91 9B       		.byte	0x9b
 6026 2d92 A42D0000 		.4byte	0x2da4
 6027 2d96 00       		.byte	0
 6028 2d97 0E       		.uleb128 0xe
 6029 2d98 ED540000 		.4byte	.LASF943
 6030 2d9c 10       		.byte	0x10
 6031 2d9d 9E       		.byte	0x9e
 6032 2d9e CB000000 		.4byte	0xcb
 6033 2da2 1F       		.byte	0x1f
 6034 2da3 00       		.byte	0
 6035 2da4 0A       		.uleb128 0xa
 6036 2da5 CB000000 		.4byte	0xcb
 6037 2da9 B42D0000 		.4byte	0x2db4
 6038 2dad 0B       		.uleb128 0xb
 6039 2dae A9000000 		.4byte	0xa9
 6040 2db2 1E       		.byte	0x1e
 6041 2db3 00       		.byte	0
 6042 2db4 04       		.uleb128 0x4
 6043 2db5 423E0000 		.4byte	.LASF944
 6044 2db9 10       		.byte	0x10
 6045 2dba A0       		.byte	0xa0
 6046 2dbb 832D0000 		.4byte	0x2d83
 6047 2dbf 0D       		.uleb128 0xd
 6048 2dc0 20       		.byte	0x20
 6049 2dc1 10       		.byte	0x10
 6050 2dc2 A3       		.byte	0xa3
 6051 2dc3 E02D0000 		.4byte	0x2de0
 6052 2dc7 0E       		.uleb128 0xe
 6053 2dc8 E2290000 		.4byte	.LASF945
 6054 2dcc 10       		.byte	0x10
 6055 2dcd A7       		.byte	0xa7
 6056 2dce A42D0000 		.4byte	0x2da4
 6057 2dd2 00       		.byte	0
 6058 2dd3 0E       		.uleb128 0xe
 6059 2dd4 CD3C0000 		.4byte	.LASF946
 6060 2dd8 10       		.byte	0x10
 6061 2dd9 AA       		.byte	0xaa
 6062 2dda CB000000 		.4byte	0xcb
 6063 2dde 1F       		.byte	0x1f
 6064 2ddf 00       		.byte	0
 6065 2de0 04       		.uleb128 0x4
 6066 2de1 20330000 		.4byte	.LASF947
 6067 2de5 10       		.byte	0x10
 6068 2de6 AC       		.byte	0xac
 6069 2de7 BF2D0000 		.4byte	0x2dbf
 6070 2deb 0D       		.uleb128 0xd
 6071 2dec 14       		.byte	0x14
 6072 2ded 10       		.byte	0x10
 6073 2dee AF       		.byte	0xaf
 6074 2def 302E0000 		.4byte	0x2e30
 6075 2df3 0E       		.uleb128 0xe
 6076 2df4 38110000 		.4byte	.LASF948
ARM GAS  C:\Users\ASUS\AppData\Local\Temp\cczm8cZa.s 			page 138


 6077 2df8 10       		.byte	0x10
 6078 2df9 B7       		.byte	0xb7
 6079 2dfa CB000000 		.4byte	0xcb
 6080 2dfe 00       		.byte	0
 6081 2dff 0E       		.uleb128 0xe
 6082 2e00 E50B0000 		.4byte	.LASF949
 6083 2e04 10       		.byte	0x10
 6084 2e05 BC       		.byte	0xbc
 6085 2e06 302E0000 		.4byte	0x2e30
 6086 2e0a 04       		.byte	0x4
 6087 2e0b 0E       		.uleb128 0xe
 6088 2e0c A75B0000 		.4byte	.LASF942
 6089 2e10 10       		.byte	0x10
 6090 2e11 BE       		.byte	0xbe
 6091 2e12 362E0000 		.4byte	0x2e36
 6092 2e16 08       		.byte	0x8
 6093 2e17 0E       		.uleb128 0xe
 6094 2e18 E2290000 		.4byte	.LASF945
 6095 2e1c 10       		.byte	0x10
 6096 2e1d C0       		.byte	0xc0
 6097 2e1e 3C2E0000 		.4byte	0x2e3c
 6098 2e22 0C       		.byte	0xc
 6099 2e23 0E       		.uleb128 0xe
 6100 2e24 AB440000 		.4byte	.LASF950
 6101 2e28 10       		.byte	0x10
 6102 2e29 CA       		.byte	0xca
 6103 2e2a E1000000 		.4byte	0xe1
 6104 2e2e 10       		.byte	0x10
 6105 2e2f 00       		.byte	0
 6106 2e30 06       		.uleb128 0x6
 6107 2e31 04       		.byte	0x4
 6108 2e32 782D0000 		.4byte	0x2d78
 6109 2e36 06       		.uleb128 0x6
 6110 2e37 04       		.byte	0x4
 6111 2e38 B42D0000 		.4byte	0x2db4
 6112 2e3c 06       		.uleb128 0x6
 6113 2e3d 04       		.byte	0x4
 6114 2e3e E02D0000 		.4byte	0x2de0
 6115 2e42 04       		.uleb128 0x4
 6116 2e43 493D0000 		.4byte	.LASF951
 6117 2e47 10       		.byte	0x10
 6118 2e48 CC       		.byte	0xcc
 6119 2e49 EB2D0000 		.4byte	0x2deb
 6120 2e4d 0F       		.uleb128 0xf
 6121 2e4e 01       		.byte	0x1
 6122 2e4f 5E000000 		.4byte	0x5e
 6123 2e53 02       		.byte	0x2
 6124 2e54 69       		.byte	0x69
 6125 2e55 6C2E0000 		.4byte	0x2e6c
 6126 2e59 11       		.uleb128 0x11
 6127 2e5a BA570000 		.4byte	.LASF952
 6128 2e5e 00       		.byte	0
 6129 2e5f 11       		.uleb128 0x11
 6130 2e60 E72D0000 		.4byte	.LASF953
 6131 2e64 01       		.byte	0x1
 6132 2e65 11       		.uleb128 0x11
 6133 2e66 28020000 		.4byte	.LASF954
ARM GAS  C:\Users\ASUS\AppData\Local\Temp\cczm8cZa.s 			page 139


 6134 2e6a 02       		.byte	0x2
 6135 2e6b 00       		.byte	0
 6136 2e6c 04       		.uleb128 0x4
 6137 2e6d BB240000 		.4byte	.LASF955
 6138 2e71 02       		.byte	0x2
 6139 2e72 70       		.byte	0x70
 6140 2e73 4D2E0000 		.4byte	0x2e4d
 6141 2e77 0F       		.uleb128 0xf
 6142 2e78 01       		.byte	0x1
 6143 2e79 5E000000 		.4byte	0x5e
 6144 2e7d 02       		.byte	0x2
 6145 2e7e 7E       		.byte	0x7e
 6146 2e7f 9C2E0000 		.4byte	0x2e9c
 6147 2e83 11       		.uleb128 0x11
 6148 2e84 19230000 		.4byte	.LASF956
 6149 2e88 00       		.byte	0
 6150 2e89 11       		.uleb128 0x11
 6151 2e8a 8B470000 		.4byte	.LASF957
 6152 2e8e 01       		.byte	0x1
 6153 2e8f 11       		.uleb128 0x11
 6154 2e90 981C0000 		.4byte	.LASF958
 6155 2e94 02       		.byte	0x2
 6156 2e95 11       		.uleb128 0x11
 6157 2e96 14510000 		.4byte	.LASF959
 6158 2e9a 03       		.byte	0x3
 6159 2e9b 00       		.byte	0
 6160 2e9c 04       		.uleb128 0x4
 6161 2e9d B4100000 		.4byte	.LASF960
 6162 2ea1 02       		.byte	0x2
 6163 2ea2 83       		.byte	0x83
 6164 2ea3 772E0000 		.4byte	0x2e77
 6165 2ea7 0F       		.uleb128 0xf
 6166 2ea8 01       		.byte	0x1
 6167 2ea9 5E000000 		.4byte	0x5e
 6168 2ead 02       		.byte	0x2
 6169 2eae 87       		.byte	0x87
 6170 2eaf E42E0000 		.4byte	0x2ee4
 6171 2eb3 11       		.uleb128 0x11
 6172 2eb4 232E0000 		.4byte	.LASF961
 6173 2eb8 00       		.byte	0
 6174 2eb9 11       		.uleb128 0x11
 6175 2eba 931F0000 		.4byte	.LASF962
 6176 2ebe 01       		.byte	0x1
 6177 2ebf 11       		.uleb128 0x11
 6178 2ec0 C9470000 		.4byte	.LASF963
 6179 2ec4 02       		.byte	0x2
 6180 2ec5 11       		.uleb128 0x11
 6181 2ec6 A0480000 		.4byte	.LASF964
 6182 2eca 03       		.byte	0x3
 6183 2ecb 11       		.uleb128 0x11
 6184 2ecc 130B0000 		.4byte	.LASF965
 6185 2ed0 04       		.byte	0x4
 6186 2ed1 11       		.uleb128 0x11
 6187 2ed2 81420000 		.4byte	.LASF966
 6188 2ed6 05       		.byte	0x5
 6189 2ed7 11       		.uleb128 0x11
 6190 2ed8 284B0000 		.4byte	.LASF967
ARM GAS  C:\Users\ASUS\AppData\Local\Temp\cczm8cZa.s 			page 140


 6191 2edc 06       		.byte	0x6
 6192 2edd 11       		.uleb128 0x11
 6193 2ede 82200000 		.4byte	.LASF968
 6194 2ee2 07       		.byte	0x7
 6195 2ee3 00       		.byte	0
 6196 2ee4 04       		.uleb128 0x4
 6197 2ee5 29220000 		.4byte	.LASF969
 6198 2ee9 02       		.byte	0x2
 6199 2eea 90       		.byte	0x90
 6200 2eeb A72E0000 		.4byte	0x2ea7
 6201 2eef 0D       		.uleb128 0xd
 6202 2ef0 0C       		.byte	0xc
 6203 2ef1 02       		.byte	0x2
 6204 2ef2 93       		.byte	0x93
 6205 2ef3 402F0000 		.4byte	0x2f40
 6206 2ef7 0E       		.uleb128 0xe
 6207 2ef8 6F5B0000 		.4byte	.LASF970
 6208 2efc 02       		.byte	0x2
 6209 2efd 96       		.byte	0x96
 6210 2efe 342B0000 		.4byte	0x2b34
 6211 2f02 00       		.byte	0
 6212 2f03 0E       		.uleb128 0xe
 6213 2f04 6D450000 		.4byte	.LASF971
 6214 2f08 02       		.byte	0x2
 6215 2f09 99       		.byte	0x99
 6216 2f0a 342B0000 		.4byte	0x2b34
 6217 2f0e 02       		.byte	0x2
 6218 2f0f 0E       		.uleb128 0xe
 6219 2f10 0B590000 		.4byte	.LASF972
 6220 2f14 02       		.byte	0x2
 6221 2f15 9C       		.byte	0x9c
 6222 2f16 342B0000 		.4byte	0x2b34
 6223 2f1a 04       		.byte	0x4
 6224 2f1b 0E       		.uleb128 0xe
 6225 2f1c 1E3C0000 		.4byte	.LASF973
 6226 2f20 02       		.byte	0x2
 6227 2f21 9F       		.byte	0x9f
 6228 2f22 342B0000 		.4byte	0x2b34
 6229 2f26 06       		.byte	0x6
 6230 2f27 0E       		.uleb128 0xe
 6231 2f28 3C210000 		.4byte	.LASF974
 6232 2f2c 02       		.byte	0x2
 6233 2f2d A2       		.byte	0xa2
 6234 2f2e 342B0000 		.4byte	0x2b34
 6235 2f32 08       		.byte	0x8
 6236 2f33 0E       		.uleb128 0xe
 6237 2f34 C4110000 		.4byte	.LASF975
 6238 2f38 02       		.byte	0x2
 6239 2f39 A5       		.byte	0xa5
 6240 2f3a 342B0000 		.4byte	0x2b34
 6241 2f3e 0A       		.byte	0xa
 6242 2f3f 00       		.byte	0
 6243 2f40 04       		.uleb128 0x4
 6244 2f41 32260000 		.4byte	.LASF976
 6245 2f45 02       		.byte	0x2
 6246 2f46 A6       		.byte	0xa6
 6247 2f47 EF2E0000 		.4byte	0x2eef
ARM GAS  C:\Users\ASUS\AppData\Local\Temp\cczm8cZa.s 			page 141


 6248 2f4b 1C       		.uleb128 0x1c
 6249 2f4c 0E       		.byte	0xe
 6250 2f4d 02       		.byte	0x2
 6251 2f4e 2B01     		.2byte	0x12b
 6252 2f50 B02F0000 		.4byte	0x2fb0
 6253 2f54 19       		.uleb128 0x19
 6254 2f55 BC040000 		.4byte	.LASF977
 6255 2f59 02       		.byte	0x2
 6256 2f5a 2E01     		.2byte	0x12e
 6257 2f5c E1000000 		.4byte	0xe1
 6258 2f60 00       		.byte	0
 6259 2f61 19       		.uleb128 0x19
 6260 2f62 635A0000 		.4byte	.LASF978
 6261 2f66 02       		.byte	0x2
 6262 2f67 3101     		.2byte	0x131
 6263 2f69 E1000000 		.4byte	0xe1
 6264 2f6d 02       		.byte	0x2
 6265 2f6e 19       		.uleb128 0x19
 6266 2f6f 710A0000 		.4byte	.LASF979
 6267 2f73 02       		.byte	0x2
 6268 2f74 3401     		.2byte	0x134
 6269 2f76 E1000000 		.4byte	0xe1
 6270 2f7a 04       		.byte	0x4
 6271 2f7b 19       		.uleb128 0x19
 6272 2f7c D34D0000 		.4byte	.LASF980
 6273 2f80 02       		.byte	0x2
 6274 2f81 3701     		.2byte	0x137
 6275 2f83 CB000000 		.4byte	0xcb
 6276 2f87 06       		.byte	0x6
 6277 2f88 19       		.uleb128 0x19
 6278 2f89 03440000 		.4byte	.LASF981
 6279 2f8d 02       		.byte	0x2
 6280 2f8e 3A01     		.2byte	0x13a
 6281 2f90 E1000000 		.4byte	0xe1
 6282 2f94 08       		.byte	0x8
 6283 2f95 19       		.uleb128 0x19
 6284 2f96 963D0000 		.4byte	.LASF982
 6285 2f9a 02       		.byte	0x2
 6286 2f9b 3D01     		.2byte	0x13d
 6287 2f9d E1000000 		.4byte	0xe1
 6288 2fa1 0A       		.byte	0xa
 6289 2fa2 19       		.uleb128 0x19
 6290 2fa3 95350000 		.4byte	.LASF983
 6291 2fa7 02       		.byte	0x2
 6292 2fa8 4001     		.2byte	0x140
 6293 2faa E1000000 		.4byte	0xe1
 6294 2fae 0C       		.byte	0xc
 6295 2faf 00       		.byte	0
 6296 2fb0 12       		.uleb128 0x12
 6297 2fb1 76260000 		.4byte	.LASF984
 6298 2fb5 02       		.byte	0x2
 6299 2fb6 4101     		.2byte	0x141
 6300 2fb8 4B2F0000 		.4byte	0x2f4b
 6301 2fbc 1C       		.uleb128 0x1c
 6302 2fbd 16       		.byte	0x16
 6303 2fbe 02       		.byte	0x2
 6304 2fbf 4401     		.2byte	0x144
ARM GAS  C:\Users\ASUS\AppData\Local\Temp\cczm8cZa.s 			page 142


 6305 2fc1 55300000 		.4byte	0x3055
 6306 2fc5 19       		.uleb128 0x19
 6307 2fc6 224A0000 		.4byte	.LASF985
 6308 2fca 02       		.byte	0x2
 6309 2fcb 4701     		.2byte	0x147
 6310 2fcd E1000000 		.4byte	0xe1
 6311 2fd1 00       		.byte	0
 6312 2fd2 19       		.uleb128 0x19
 6313 2fd3 2F380000 		.4byte	.LASF986
 6314 2fd7 02       		.byte	0x2
 6315 2fd8 4A01     		.2byte	0x14a
 6316 2fda E1000000 		.4byte	0xe1
 6317 2fde 02       		.byte	0x2
 6318 2fdf 19       		.uleb128 0x19
 6319 2fe0 DD300000 		.4byte	.LASF987
 6320 2fe4 02       		.byte	0x2
 6321 2fe5 4D01     		.2byte	0x14d
 6322 2fe7 E1000000 		.4byte	0xe1
 6323 2feb 04       		.byte	0x4
 6324 2fec 19       		.uleb128 0x19
 6325 2fed 17210000 		.4byte	.LASF988
 6326 2ff1 02       		.byte	0x2
 6327 2ff2 5001     		.2byte	0x150
 6328 2ff4 CB000000 		.4byte	0xcb
 6329 2ff8 06       		.byte	0x6
 6330 2ff9 19       		.uleb128 0x19
 6331 2ffa 04250000 		.4byte	.LASF989
 6332 2ffe 02       		.byte	0x2
 6333 2fff 5301     		.2byte	0x153
 6334 3001 E1000000 		.4byte	0xe1
 6335 3005 08       		.byte	0x8
 6336 3006 19       		.uleb128 0x19
 6337 3007 A93D0000 		.4byte	.LASF990
 6338 300b 02       		.byte	0x2
 6339 300c 5601     		.2byte	0x156
 6340 300e E1000000 		.4byte	0xe1
 6341 3012 0A       		.byte	0xa
 6342 3013 19       		.uleb128 0x19
 6343 3014 55120000 		.4byte	.LASF991
 6344 3018 02       		.byte	0x2
 6345 3019 5901     		.2byte	0x159
 6346 301b E1000000 		.4byte	0xe1
 6347 301f 0C       		.byte	0xc
 6348 3020 19       		.uleb128 0x19
 6349 3021 820B0000 		.4byte	.LASF992
 6350 3025 02       		.byte	0x2
 6351 3026 5C01     		.2byte	0x15c
 6352 3028 E1000000 		.4byte	0xe1
 6353 302c 0E       		.byte	0xe
 6354 302d 19       		.uleb128 0x19
 6355 302e 0F470000 		.4byte	.LASF993
 6356 3032 02       		.byte	0x2
 6357 3033 5F01     		.2byte	0x15f
 6358 3035 E1000000 		.4byte	0xe1
 6359 3039 10       		.byte	0x10
 6360 303a 19       		.uleb128 0x19
 6361 303b 3E450000 		.4byte	.LASF994
ARM GAS  C:\Users\ASUS\AppData\Local\Temp\cczm8cZa.s 			page 143


 6362 303f 02       		.byte	0x2
 6363 3040 6301     		.2byte	0x163
 6364 3042 E1000000 		.4byte	0xe1
 6365 3046 12       		.byte	0x12
 6366 3047 19       		.uleb128 0x19
 6367 3048 DB4A0000 		.4byte	.LASF995
 6368 304c 02       		.byte	0x2
 6369 304d 6601     		.2byte	0x166
 6370 304f E1000000 		.4byte	0xe1
 6371 3053 14       		.byte	0x14
 6372 3054 00       		.byte	0
 6373 3055 12       		.uleb128 0x12
 6374 3056 99270000 		.4byte	.LASF996
 6375 305a 02       		.byte	0x2
 6376 305b 6701     		.2byte	0x167
 6377 305d BC2F0000 		.4byte	0x2fbc
 6378 3061 0D       		.uleb128 0xd
 6379 3062 08       		.byte	0x8
 6380 3063 11       		.byte	0x11
 6381 3064 D6       		.byte	0xd6
 6382 3065 82300000 		.4byte	0x3082
 6383 3069 0E       		.uleb128 0xe
 6384 306a E3230000 		.4byte	.LASF997
 6385 306e 11       		.byte	0x11
 6386 306f D9       		.byte	0xd9
 6387 3070 E1000000 		.4byte	0xe1
 6388 3074 00       		.byte	0
 6389 3075 0E       		.uleb128 0xe
 6390 3076 C4530000 		.4byte	.LASF998
 6391 307a 11       		.byte	0x11
 6392 307b DE       		.byte	0xde
 6393 307c B0000000 		.4byte	0xb0
 6394 3080 04       		.byte	0x4
 6395 3081 00       		.byte	0
 6396 3082 04       		.uleb128 0x4
 6397 3083 F0230000 		.4byte	.LASF999
 6398 3087 11       		.byte	0x11
 6399 3088 E0       		.byte	0xe0
 6400 3089 61300000 		.4byte	0x3061
 6401 308d 0D       		.uleb128 0xd
 6402 308e 08       		.byte	0x8
 6403 308f 11       		.byte	0x11
 6404 3090 E3       		.byte	0xe3
 6405 3091 AE300000 		.4byte	0x30ae
 6406 3095 0E       		.uleb128 0xe
 6407 3096 79550000 		.4byte	.LASF1000
 6408 309a 11       		.byte	0x11
 6409 309b E6       		.byte	0xe6
 6410 309c E1000000 		.4byte	0xe1
 6411 30a0 00       		.byte	0
 6412 30a1 0E       		.uleb128 0xe
 6413 30a2 E1210000 		.4byte	.LASF1001
 6414 30a6 11       		.byte	0x11
 6415 30a7 EB       		.byte	0xeb
 6416 30a8 AE300000 		.4byte	0x30ae
 6417 30ac 04       		.byte	0x4
 6418 30ad 00       		.byte	0
ARM GAS  C:\Users\ASUS\AppData\Local\Temp\cczm8cZa.s 			page 144


 6419 30ae 06       		.uleb128 0x6
 6420 30af 04       		.byte	0x4
 6421 30b0 82300000 		.4byte	0x3082
 6422 30b4 04       		.uleb128 0x4
 6423 30b5 644E0000 		.4byte	.LASF1002
 6424 30b9 11       		.byte	0x11
 6425 30ba ED       		.byte	0xed
 6426 30bb 8D300000 		.4byte	0x308d
 6427 30bf 24       		.uleb128 0x24
 6428 30c0 08       		.byte	0x8
 6429 30c1 11       		.byte	0x11
 6430 30c2 F0       		.byte	0xf0
 6431 30c3 DE300000 		.4byte	0x30de
 6432 30c7 25       		.uleb128 0x25
 6433 30c8 5E520000 		.4byte	.LASF1003
 6434 30cc 11       		.byte	0x11
 6435 30cd F6       		.byte	0xf6
 6436 30ce B4300000 		.4byte	0x30b4
 6437 30d2 25       		.uleb128 0x25
 6438 30d3 D4250000 		.4byte	.LASF1004
 6439 30d7 11       		.byte	0x11
 6440 30d8 F9       		.byte	0xf9
 6441 30d9 E1000000 		.4byte	0xe1
 6442 30dd 00       		.byte	0
 6443 30de 04       		.uleb128 0x4
 6444 30df 15070000 		.4byte	.LASF1005
 6445 30e3 11       		.byte	0x11
 6446 30e4 FB       		.byte	0xfb
 6447 30e5 BF300000 		.4byte	0x30bf
 6448 30e9 0D       		.uleb128 0xd
 6449 30ea 14       		.byte	0x14
 6450 30eb 11       		.byte	0x11
 6451 30ec FE       		.byte	0xfe
 6452 30ed 33310000 		.4byte	0x3133
 6453 30f1 19       		.uleb128 0x19
 6454 30f2 382C0000 		.4byte	.LASF1006
 6455 30f6 11       		.byte	0x11
 6456 30f7 0101     		.2byte	0x101
 6457 30f9 E1000000 		.4byte	0xe1
 6458 30fd 00       		.byte	0
 6459 30fe 19       		.uleb128 0x19
 6460 30ff ED1D0000 		.4byte	.LASF1007
 6461 3103 11       		.byte	0x11
 6462 3104 0701     		.2byte	0x107
 6463 3106 E1000000 		.4byte	0xe1
 6464 310a 02       		.byte	0x2
 6465 310b 19       		.uleb128 0x19
 6466 310c 3D1C0000 		.4byte	.LASF1008
 6467 3110 11       		.byte	0x11
 6468 3111 1501     		.2byte	0x115
 6469 3113 EC000000 		.4byte	0xec
 6470 3117 04       		.byte	0x4
 6471 3118 19       		.uleb128 0x19
 6472 3119 EB510000 		.4byte	.LASF1009
 6473 311d 11       		.byte	0x11
 6474 311e 1801     		.2byte	0x118
 6475 3120 E1000000 		.4byte	0xe1
ARM GAS  C:\Users\ASUS\AppData\Local\Temp\cczm8cZa.s 			page 145


 6476 3124 08       		.byte	0x8
 6477 3125 19       		.uleb128 0x19
 6478 3126 26560000 		.4byte	.LASF1010
 6479 312a 11       		.byte	0x11
 6480 312b 2101     		.2byte	0x121
 6481 312d DE300000 		.4byte	0x30de
 6482 3131 0C       		.byte	0xc
 6483 3132 00       		.byte	0
 6484 3133 12       		.uleb128 0x12
 6485 3134 47200000 		.4byte	.LASF1011
 6486 3138 11       		.byte	0x11
 6487 3139 2301     		.2byte	0x123
 6488 313b E9300000 		.4byte	0x30e9
 6489 313f 1C       		.uleb128 0x1c
 6490 3140 08       		.byte	0x8
 6491 3141 11       		.byte	0x11
 6492 3142 2601     		.2byte	0x126
 6493 3144 70310000 		.4byte	0x3170
 6494 3148 19       		.uleb128 0x19
 6495 3149 3C290000 		.4byte	.LASF1012
 6496 314d 11       		.byte	0x11
 6497 314e 2901     		.2byte	0x129
 6498 3150 70310000 		.4byte	0x3170
 6499 3154 00       		.byte	0
 6500 3155 19       		.uleb128 0x19
 6501 3156 A8260000 		.4byte	.LASF1013
 6502 315a 11       		.byte	0x11
 6503 315b 2C01     		.2byte	0x12c
 6504 315d E1000000 		.4byte	0xe1
 6505 3161 04       		.byte	0x4
 6506 3162 19       		.uleb128 0x19
 6507 3163 60400000 		.4byte	.LASF1014
 6508 3167 11       		.byte	0x11
 6509 3168 2F01     		.2byte	0x12f
 6510 316a E1000000 		.4byte	0xe1
 6511 316e 06       		.byte	0x6
 6512 316f 00       		.byte	0
 6513 3170 06       		.uleb128 0x6
 6514 3171 04       		.byte	0x4
 6515 3172 76310000 		.4byte	0x3176
 6516 3176 09       		.uleb128 0x9
 6517 3177 33310000 		.4byte	0x3133
 6518 317b 12       		.uleb128 0x12
 6519 317c 1D2C0000 		.4byte	.LASF1015
 6520 3180 11       		.byte	0x11
 6521 3181 3101     		.2byte	0x131
 6522 3183 3F310000 		.4byte	0x313f
 6523 3187 0D       		.uleb128 0xd
 6524 3188 06       		.byte	0x6
 6525 3189 12       		.byte	0x12
 6526 318a 87       		.byte	0x87
 6527 318b B4310000 		.4byte	0x31b4
 6528 318f 0E       		.uleb128 0xe
 6529 3190 6F5B0000 		.4byte	.LASF970
 6530 3194 12       		.byte	0x12
 6531 3195 89       		.byte	0x89
 6532 3196 342B0000 		.4byte	0x2b34
ARM GAS  C:\Users\ASUS\AppData\Local\Temp\cczm8cZa.s 			page 146


 6533 319a 00       		.byte	0
 6534 319b 0E       		.uleb128 0xe
 6535 319c 59050000 		.4byte	.LASF1016
 6536 31a0 12       		.byte	0x12
 6537 31a1 8A       		.byte	0x8a
 6538 31a2 342B0000 		.4byte	0x2b34
 6539 31a6 02       		.byte	0x2
 6540 31a7 0E       		.uleb128 0xe
 6541 31a8 4C580000 		.4byte	.LASF1017
 6542 31ac 12       		.byte	0x12
 6543 31ad 8B       		.byte	0x8b
 6544 31ae 342B0000 		.4byte	0x2b34
 6545 31b2 04       		.byte	0x4
 6546 31b3 00       		.byte	0
 6547 31b4 04       		.uleb128 0x4
 6548 31b5 80500000 		.4byte	.LASF1018
 6549 31b9 12       		.byte	0x12
 6550 31ba 8C       		.byte	0x8c
 6551 31bb 87310000 		.4byte	0x3187
 6552 31bf 04       		.uleb128 0x4
 6553 31c0 ED400000 		.4byte	.LASF1019
 6554 31c4 13       		.byte	0x13
 6555 31c5 40       		.byte	0x40
 6556 31c6 CA310000 		.4byte	0x31ca
 6557 31ca 06       		.uleb128 0x6
 6558 31cb 04       		.byte	0x4
 6559 31cc D0310000 		.4byte	0x31d0
 6560 31d0 23       		.uleb128 0x23
 6561 31d1 E0310000 		.4byte	0x31e0
 6562 31d5 20       		.uleb128 0x20
 6563 31d6 EC000000 		.4byte	0xec
 6564 31da 20       		.uleb128 0x20
 6565 31db B0000000 		.4byte	0xb0
 6566 31df 00       		.byte	0
 6567 31e0 03       		.uleb128 0x3
 6568 31e1 01       		.byte	0x1
 6569 31e2 02       		.byte	0x2
 6570 31e3 11210000 		.4byte	.LASF1020
 6571 31e7 18       		.uleb128 0x18
 6572 31e8 CB10     		.2byte	0x10cb
 6573 31ea 13       		.byte	0x13
 6574 31eb DB01     		.2byte	0x1db
 6575 31ed 29320000 		.4byte	0x3229
 6576 31f1 19       		.uleb128 0x19
 6577 31f2 1C3F0000 		.4byte	.LASF1021
 6578 31f6 13       		.byte	0x13
 6579 31f7 DE01     		.2byte	0x1de
 6580 31f9 29320000 		.4byte	0x3229
 6581 31fd 00       		.byte	0
 6582 31fe 16       		.uleb128 0x16
 6583 31ff 4D540000 		.4byte	.LASF1022
 6584 3203 13       		.byte	0x13
 6585 3204 E101     		.2byte	0x1e1
 6586 3206 3A320000 		.4byte	0x323a
 6587 320a 9610     		.2byte	0x1096
 6588 320c 16       		.uleb128 0x16
 6589 320d C0170000 		.4byte	.LASF1023
ARM GAS  C:\Users\ASUS\AppData\Local\Temp\cczm8cZa.s 			page 147


 6590 3211 13       		.byte	0x13
 6591 3212 E401     		.2byte	0x1e4
 6592 3214 CB000000 		.4byte	0xcb
 6593 3218 C910     		.2byte	0x10c9
 6594 321a 16       		.uleb128 0x16
 6595 321b 773D0000 		.4byte	.LASF1024
 6596 321f 13       		.byte	0x13
 6597 3220 E701     		.2byte	0x1e7
 6598 3222 CB000000 		.4byte	0xcb
 6599 3226 CA10     		.2byte	0x10ca
 6600 3228 00       		.byte	0
 6601 3229 0A       		.uleb128 0xa
 6602 322a CB000000 		.4byte	0xcb
 6603 322e 3A320000 		.4byte	0x323a
 6604 3232 0C       		.uleb128 0xc
 6605 3233 A9000000 		.4byte	0xa9
 6606 3237 9510     		.2byte	0x1095
 6607 3239 00       		.byte	0
 6608 323a 0A       		.uleb128 0xa
 6609 323b CB000000 		.4byte	0xcb
 6610 323f 50320000 		.4byte	0x3250
 6611 3243 0B       		.uleb128 0xb
 6612 3244 A9000000 		.4byte	0xa9
 6613 3248 10       		.byte	0x10
 6614 3249 0B       		.uleb128 0xb
 6615 324a A9000000 		.4byte	0xa9
 6616 324e 02       		.byte	0x2
 6617 324f 00       		.byte	0
 6618 3250 12       		.uleb128 0x12
 6619 3251 46150000 		.4byte	.LASF1025
 6620 3255 13       		.byte	0x13
 6621 3256 E801     		.2byte	0x1e8
 6622 3258 E7310000 		.4byte	0x31e7
 6623 325c 1C       		.uleb128 0x1c
 6624 325d 08       		.byte	0x8
 6625 325e 13       		.byte	0x13
 6626 325f EB01     		.2byte	0x1eb
 6627 3261 B4320000 		.4byte	0x32b4
 6628 3265 19       		.uleb128 0x19
 6629 3266 9B290000 		.4byte	.LASF1026
 6630 326a 13       		.byte	0x13
 6631 326b EE01     		.2byte	0x1ee
 6632 326d 6E2A0000 		.4byte	0x2a6e
 6633 3271 00       		.byte	0
 6634 3272 19       		.uleb128 0x19
 6635 3273 DC540000 		.4byte	.LASF1027
 6636 3277 13       		.byte	0x13
 6637 3278 F101     		.2byte	0x1f1
 6638 327a 6E2A0000 		.4byte	0x2a6e
 6639 327e 01       		.byte	0x1
 6640 327f 19       		.uleb128 0x19
 6641 3280 D5100000 		.4byte	.LASF1028
 6642 3284 13       		.byte	0x13
 6643 3285 F401     		.2byte	0x1f4
 6644 3287 6B2B0000 		.4byte	0x2b6b
 6645 328b 02       		.byte	0x2
 6646 328c 19       		.uleb128 0x19
ARM GAS  C:\Users\ASUS\AppData\Local\Temp\cczm8cZa.s 			page 148


 6647 328d EF590000 		.4byte	.LASF1029
 6648 3291 13       		.byte	0x13
 6649 3292 F701     		.2byte	0x1f7
 6650 3294 CB000000 		.4byte	0xcb
 6651 3298 03       		.byte	0x3
 6652 3299 19       		.uleb128 0x19
 6653 329a 3B420000 		.4byte	.LASF1030
 6654 329e 13       		.byte	0x13
 6655 329f FA01     		.2byte	0x1fa
 6656 32a1 CB000000 		.4byte	0xcb
 6657 32a5 04       		.byte	0x4
 6658 32a6 19       		.uleb128 0x19
 6659 32a7 80220000 		.4byte	.LASF1031
 6660 32ab 13       		.byte	0x13
 6661 32ac FD01     		.2byte	0x1fd
 6662 32ae E1000000 		.4byte	0xe1
 6663 32b2 06       		.byte	0x6
 6664 32b3 00       		.byte	0
 6665 32b4 12       		.uleb128 0x12
 6666 32b5 1C550000 		.4byte	.LASF1032
 6667 32b9 13       		.byte	0x13
 6668 32ba FE01     		.2byte	0x1fe
 6669 32bc 5C320000 		.4byte	0x325c
 6670 32c0 1C       		.uleb128 0x1c
 6671 32c1 3C       		.byte	0x3c
 6672 32c2 13       		.byte	0x13
 6673 32c3 0202     		.2byte	0x202
 6674 32c5 8D330000 		.4byte	0x338d
 6675 32c9 19       		.uleb128 0x19
 6676 32ca BA1E0000 		.4byte	.LASF1033
 6677 32ce 13       		.byte	0x13
 6678 32cf 0602     		.2byte	0x206
 6679 32d1 8D330000 		.4byte	0x338d
 6680 32d5 00       		.byte	0
 6681 32d6 19       		.uleb128 0x19
 6682 32d7 594F0000 		.4byte	.LASF1034
 6683 32db 13       		.byte	0x13
 6684 32dc 0902     		.2byte	0x209
 6685 32de 93330000 		.4byte	0x3393
 6686 32e2 04       		.byte	0x4
 6687 32e3 19       		.uleb128 0x19
 6688 32e4 AB150000 		.4byte	.LASF1035
 6689 32e8 13       		.byte	0x13
 6690 32e9 0C02     		.2byte	0x20c
 6691 32eb 99330000 		.4byte	0x3399
 6692 32ef 08       		.byte	0x8
 6693 32f0 19       		.uleb128 0x19
 6694 32f1 FF260000 		.4byte	.LASF1036
 6695 32f5 13       		.byte	0x13
 6696 32f6 0F02     		.2byte	0x20f
 6697 32f8 9F330000 		.4byte	0x339f
 6698 32fc 0C       		.byte	0xc
 6699 32fd 19       		.uleb128 0x19
 6700 32fe CF2E0000 		.4byte	.LASF1037
 6701 3302 13       		.byte	0x13
 6702 3303 1202     		.2byte	0x212
 6703 3305 A5330000 		.4byte	0x33a5
ARM GAS  C:\Users\ASUS\AppData\Local\Temp\cczm8cZa.s 			page 149


 6704 3309 10       		.byte	0x10
 6705 330a 19       		.uleb128 0x19
 6706 330b CC3D0000 		.4byte	.LASF1038
 6707 330f 13       		.byte	0x13
 6708 3310 1502     		.2byte	0x215
 6709 3312 B0330000 		.4byte	0x33b0
 6710 3316 14       		.byte	0x14
 6711 3317 19       		.uleb128 0x19
 6712 3318 E4050000 		.4byte	.LASF1039
 6713 331c 13       		.byte	0x13
 6714 331d 1802     		.2byte	0x218
 6715 331f BB330000 		.4byte	0x33bb
 6716 3323 18       		.byte	0x18
 6717 3324 19       		.uleb128 0x19
 6718 3325 D92D0000 		.4byte	.LASF1040
 6719 3329 13       		.byte	0x13
 6720 332a 1B02     		.2byte	0x21b
 6721 332c DC290000 		.4byte	0x29dc
 6722 3330 1C       		.byte	0x1c
 6723 3331 19       		.uleb128 0x19
 6724 3332 984C0000 		.4byte	.LASF1041
 6725 3336 13       		.byte	0x13
 6726 3337 1E02     		.2byte	0x21e
 6727 3339 70310000 		.4byte	0x3170
 6728 333d 20       		.byte	0x20
 6729 333e 19       		.uleb128 0x19
 6730 333f 1C200000 		.4byte	.LASF1042
 6731 3343 13       		.byte	0x13
 6732 3344 2102     		.2byte	0x221
 6733 3346 C6330000 		.4byte	0x33c6
 6734 334a 24       		.byte	0x24
 6735 334b 19       		.uleb128 0x19
 6736 334c C70E0000 		.4byte	.LASF1043
 6737 3350 13       		.byte	0x13
 6738 3351 2402     		.2byte	0x224
 6739 3353 CC330000 		.4byte	0x33cc
 6740 3357 28       		.byte	0x28
 6741 3358 19       		.uleb128 0x19
 6742 3359 61150000 		.4byte	.LASF1044
 6743 335d 13       		.byte	0x13
 6744 335e 2802     		.2byte	0x228
 6745 3360 BF310000 		.4byte	0x31bf
 6746 3364 2C       		.byte	0x2c
 6747 3365 19       		.uleb128 0x19
 6748 3366 C61D0000 		.4byte	.LASF1045
 6749 336a 13       		.byte	0x13
 6750 336b 2B02     		.2byte	0x22b
 6751 336d D7330000 		.4byte	0x33d7
 6752 3371 30       		.byte	0x30
 6753 3372 19       		.uleb128 0x19
 6754 3373 E2410000 		.4byte	.LASF1046
 6755 3377 13       		.byte	0x13
 6756 3378 2F02     		.2byte	0x22f
 6757 337a DD330000 		.4byte	0x33dd
 6758 337e 34       		.byte	0x34
 6759 337f 19       		.uleb128 0x19
 6760 3380 732B0000 		.4byte	.LASF844
ARM GAS  C:\Users\ASUS\AppData\Local\Temp\cczm8cZa.s 			page 150


 6761 3384 13       		.byte	0x13
 6762 3385 3202     		.2byte	0x232
 6763 3387 E8330000 		.4byte	0x33e8
 6764 338b 38       		.byte	0x38
 6765 338c 00       		.byte	0
 6766 338d 06       		.uleb128 0x6
 6767 338e 04       		.byte	0x4
 6768 338f 422E0000 		.4byte	0x2e42
 6769 3393 06       		.uleb128 0x6
 6770 3394 04       		.byte	0x4
 6771 3395 B02F0000 		.4byte	0x2fb0
 6772 3399 06       		.uleb128 0x6
 6773 339a 04       		.byte	0x4
 6774 339b CE2C0000 		.4byte	0x2cce
 6775 339f 06       		.uleb128 0x6
 6776 33a0 04       		.byte	0x4
 6777 33a1 55300000 		.4byte	0x3055
 6778 33a5 06       		.uleb128 0x6
 6779 33a6 04       		.byte	0x4
 6780 33a7 AB330000 		.4byte	0x33ab
 6781 33ab 09       		.uleb128 0x9
 6782 33ac 50320000 		.4byte	0x3250
 6783 33b0 06       		.uleb128 0x6
 6784 33b1 04       		.byte	0x4
 6785 33b2 B6330000 		.4byte	0x33b6
 6786 33b6 09       		.uleb128 0x9
 6787 33b7 B4310000 		.4byte	0x31b4
 6788 33bb 06       		.uleb128 0x6
 6789 33bc 04       		.byte	0x4
 6790 33bd C1330000 		.4byte	0x33c1
 6791 33c1 09       		.uleb128 0x9
 6792 33c2 402F0000 		.4byte	0x2f40
 6793 33c6 06       		.uleb128 0x6
 6794 33c7 04       		.byte	0x4
 6795 33c8 592C0000 		.4byte	0x2c59
 6796 33cc 06       		.uleb128 0x6
 6797 33cd 04       		.byte	0x4
 6798 33ce D2330000 		.4byte	0x33d2
 6799 33d2 09       		.uleb128 0x9
 6800 33d3 B4320000 		.4byte	0x32b4
 6801 33d7 06       		.uleb128 0x6
 6802 33d8 04       		.byte	0x4
 6803 33d9 F52B0000 		.4byte	0x2bf5
 6804 33dd 06       		.uleb128 0x6
 6805 33de 04       		.byte	0x4
 6806 33df E3330000 		.4byte	0x33e3
 6807 33e3 09       		.uleb128 0x9
 6808 33e4 16210000 		.4byte	0x2116
 6809 33e8 06       		.uleb128 0x6
 6810 33e9 04       		.byte	0x4
 6811 33ea BD280000 		.4byte	0x28bd
 6812 33ee 12       		.uleb128 0x12
 6813 33ef DA140000 		.4byte	.LASF1047
 6814 33f3 13       		.byte	0x13
 6815 33f4 4902     		.2byte	0x249
 6816 33f6 C0320000 		.4byte	0x32c0
 6817 33fa 12       		.uleb128 0x12
ARM GAS  C:\Users\ASUS\AppData\Local\Temp\cczm8cZa.s 			page 151


 6818 33fb 01090000 		.4byte	.LASF1048
 6819 33ff 13       		.byte	0x13
 6820 3400 4C02     		.2byte	0x24c
 6821 3402 B9000000 		.4byte	0xb9
 6822 3406 0F       		.uleb128 0xf
 6823 3407 04       		.byte	0x4
 6824 3408 2C000000 		.4byte	0x2c
 6825 340c 14       		.byte	0x14
 6826 340d 47       		.byte	0x47
 6827 340e 61340000 		.4byte	0x3461
 6828 3412 11       		.uleb128 0x11
 6829 3413 25200000 		.4byte	.LASF1049
 6830 3417 00       		.byte	0
 6831 3418 1E       		.uleb128 0x1e
 6832 3419 FE520000 		.4byte	.LASF1050
 6833 341d 01018A00 		.4byte	0x8a0101
 6834 3421 1E       		.uleb128 0x1e
 6835 3422 14380000 		.4byte	.LASF1051
 6836 3426 02018A00 		.4byte	0x8a0102
 6837 342a 1E       		.uleb128 0x1e
 6838 342b BC4B0000 		.4byte	.LASF1052
 6839 342f 03018A00 		.4byte	0x8a0103
 6840 3433 1E       		.uleb128 0x1e
 6841 3434 D6590000 		.4byte	.LASF1053
 6842 3438 04018A00 		.4byte	0x8a0104
 6843 343c 1E       		.uleb128 0x1e
 6844 343d 0E570000 		.4byte	.LASF1054
 6845 3441 02018800 		.4byte	0x880102
 6846 3445 1E       		.uleb128 0x1e
 6847 3446 1F120000 		.4byte	.LASF1055
 6848 344a 03018800 		.4byte	0x880103
 6849 344e 1E       		.uleb128 0x1e
 6850 344f C61A0000 		.4byte	.LASF1056
 6851 3453 01018800 		.4byte	0x880101
 6852 3457 1E       		.uleb128 0x1e
 6853 3458 6B560000 		.4byte	.LASF1057
 6854 345c 00018800 		.4byte	0x880100
 6855 3460 00       		.byte	0
 6856 3461 26       		.uleb128 0x26
 6857 3462 140D0000 		.4byte	.LASF1117
 6858 3466 02       		.byte	0x2
 6859 3467 F902     		.2byte	0x2f9
 6860 3469 03       		.byte	0x3
 6861 346a 7B340000 		.4byte	0x347b
 6862 346e 27       		.uleb128 0x27
 6863 346f D8450000 		.4byte	.LASF1118
 6864 3473 02       		.byte	0x2
 6865 3474 F902     		.2byte	0x2f9
 6866 3476 9C2E0000 		.4byte	0x2e9c
 6867 347a 00       		.byte	0
 6868 347b 28       		.uleb128 0x28
 6869 347c 17530000 		.4byte	.LASF1064
 6870 3480 01       		.byte	0x1
 6871 3481 0703     		.2byte	0x307
 6872 3483 63210000 		.4byte	0x2163
 6873 3487 00000000 		.4byte	.LFB175
 6874 348b C4000000 		.4byte	.LFE175-.LFB175
ARM GAS  C:\Users\ASUS\AppData\Local\Temp\cczm8cZa.s 			page 152


 6875 348f 01       		.uleb128 0x1
 6876 3490 9C       		.byte	0x9c
 6877 3491 98350000 		.4byte	0x3598
 6878 3495 29       		.uleb128 0x29
 6879 3496 5F390000 		.4byte	.LASF666
 6880 349a 01       		.byte	0x1
 6881 349b 0703     		.2byte	0x307
 6882 349d 49220000 		.4byte	0x2249
 6883 34a1 00000000 		.4byte	.LLST0
 6884 34a5 29       		.uleb128 0x29
 6885 34a6 4A560000 		.4byte	.LASF1058
 6886 34aa 01       		.byte	0x1
 6887 34ab 0803     		.2byte	0x308
 6888 34ad E7210000 		.4byte	0x21e7
 6889 34b1 53000000 		.4byte	.LLST1
 6890 34b5 2A       		.uleb128 0x2a
 6891 34b6 89430000 		.4byte	.LASF1059
 6892 34ba 01       		.byte	0x1
 6893 34bb 0C03     		.2byte	0x30c
 6894 34bd 63210000 		.4byte	0x2163
 6895 34c1 A6000000 		.4byte	.LLST2
 6896 34c5 2B       		.uleb128 0x2b
 6897 34c6 AB280000 		.4byte	.LASF1060
 6898 34ca 01       		.byte	0x1
 6899 34cb 0D03     		.2byte	0x30d
 6900 34cd EC000000 		.4byte	0xec
 6901 34d1 05       		.uleb128 0x5
 6902 34d2 03       		.byte	0x3
 6903 34d3 00000000 		.4byte	interruptState.14006
 6904 34d7 2A       		.uleb128 0x2a
 6905 34d8 DF380000 		.4byte	.LASF1061
 6906 34dc 01       		.byte	0x1
 6907 34dd 0E03     		.2byte	0x30e
 6908 34df DE2A0000 		.4byte	0x2ade
 6909 34e3 DB000000 		.4byte	.LLST3
 6910 34e7 2A       		.uleb128 0x2a
 6911 34e8 762E0000 		.4byte	.LASF1062
 6912 34ec 01       		.byte	0x1
 6913 34ed 1103     		.2byte	0x311
 6914 34ef 9A2A0000 		.4byte	0x2a9a
 6915 34f3 46010000 		.4byte	.LLST4
 6916 34f7 2C       		.uleb128 0x2c
 6917 34f8 28000000 		.4byte	.LBB5
 6918 34fc 6C000000 		.4byte	.LBE5-.LBB5
 6919 3500 72350000 		.4byte	0x3572
 6920 3504 2A       		.uleb128 0x2a
 6921 3505 B20B0000 		.4byte	.LASF1063
 6922 3509 01       		.byte	0x1
 6923 350a 3303     		.2byte	0x333
 6924 350c 1B270000 		.4byte	0x271b
 6925 3510 64010000 		.4byte	.LLST5
 6926 3514 2D       		.uleb128 0x2d
 6927 3515 2E000000 		.4byte	.LVL4
 6928 3519 37390000 		.4byte	0x3937
 6929 351d 27350000 		.4byte	0x3527
 6930 3521 2E       		.uleb128 0x2e
 6931 3522 01       		.uleb128 0x1
ARM GAS  C:\Users\ASUS\AppData\Local\Temp\cczm8cZa.s 			page 153


 6932 3523 50       		.byte	0x50
 6933 3524 01       		.uleb128 0x1
 6934 3525 32       		.byte	0x32
 6935 3526 00       		.byte	0
 6936 3527 2F       		.uleb128 0x2f
 6937 3528 34000000 		.4byte	.LVL6
 6938 352c 43390000 		.4byte	0x3943
 6939 3530 2F       		.uleb128 0x2f
 6940 3531 3C000000 		.4byte	.LVL7
 6941 3535 4F390000 		.4byte	0x394f
 6942 3539 2D       		.uleb128 0x2d
 6943 353a 4C000000 		.4byte	.LVL10
 6944 353e 5B390000 		.4byte	0x395b
 6945 3542 4C350000 		.4byte	0x354c
 6946 3546 2E       		.uleb128 0x2e
 6947 3547 01       		.uleb128 0x1
 6948 3548 50       		.byte	0x50
 6949 3549 01       		.uleb128 0x1
 6950 354a 32       		.byte	0x32
 6951 354b 00       		.byte	0
 6952 354c 2D       		.uleb128 0x2d
 6953 354d 62000000 		.4byte	.LVL14
 6954 3551 5B390000 		.4byte	0x395b
 6955 3555 5F350000 		.4byte	0x355f
 6956 3559 2E       		.uleb128 0x2e
 6957 355a 01       		.uleb128 0x1
 6958 355b 50       		.byte	0x50
 6959 355c 01       		.uleb128 0x1
 6960 355d 31       		.byte	0x31
 6961 355e 00       		.byte	0
 6962 355f 2F       		.uleb128 0x2f
 6963 3560 6E000000 		.4byte	.LVL15
 6964 3564 67390000 		.4byte	0x3967
 6965 3568 2F       		.uleb128 0x2f
 6966 3569 92000000 		.4byte	.LVL26
 6967 356d 73390000 		.4byte	0x3973
 6968 3571 00       		.byte	0
 6969 3572 2D       		.uleb128 0x2d
 6970 3573 1A000000 		.4byte	.LVL2
 6971 3577 7F390000 		.4byte	0x397f
 6972 357b 85350000 		.4byte	0x3585
 6973 357f 2E       		.uleb128 0x2e
 6974 3580 01       		.uleb128 0x1
 6975 3581 50       		.byte	0x50
 6976 3582 01       		.uleb128 0x1
 6977 3583 33       		.byte	0x33
 6978 3584 00       		.byte	0
 6979 3585 2F       		.uleb128 0x2f
 6980 3586 24000000 		.4byte	.LVL3
 6981 358a 8A390000 		.4byte	0x398a
 6982 358e 2F       		.uleb128 0x2f
 6983 358f 9C000000 		.4byte	.LVL29
 6984 3593 73390000 		.4byte	0x3973
 6985 3597 00       		.byte	0
 6986 3598 30       		.uleb128 0x30
 6987 3599 55260000 		.4byte	.LASF1073
 6988 359d 01       		.byte	0x1
ARM GAS  C:\Users\ASUS\AppData\Local\Temp\cczm8cZa.s 			page 154


 6989 359e 5F       		.byte	0x5f
 6990 359f 00000000 		.4byte	.LFB168
 6991 35a3 10000000 		.4byte	.LFE168-.LFB168
 6992 35a7 01       		.uleb128 0x1
 6993 35a8 9C       		.byte	0x9c
 6994 35a9 C1350000 		.4byte	0x35c1
 6995 35ad 31       		.uleb128 0x31
 6996 35ae 08000000 		.4byte	.LVL34
 6997 35b2 95390000 		.4byte	0x3995
 6998 35b6 2E       		.uleb128 0x2e
 6999 35b7 01       		.uleb128 0x1
 7000 35b8 50       		.byte	0x50
 7001 35b9 05       		.uleb128 0x5
 7002 35ba 03       		.byte	0x3
 7003 35bb 00000000 		.4byte	.LANCHOR1
 7004 35bf 00       		.byte	0
 7005 35c0 00       		.byte	0
 7006 35c1 32       		.uleb128 0x32
 7007 35c2 9C3A0000 		.4byte	.LASF1065
 7008 35c6 01       		.byte	0x1
 7009 35c7 85       		.byte	0x85
 7010 35c8 1B270000 		.4byte	0x271b
 7011 35cc 00000000 		.4byte	.LFB169
 7012 35d0 5C000000 		.4byte	.LFE169-.LFB169
 7013 35d4 01       		.uleb128 0x1
 7014 35d5 9C       		.byte	0x9c
 7015 35d6 02360000 		.4byte	0x3602
 7016 35da 33       		.uleb128 0x33
 7017 35db 9A060000 		.4byte	.LASF1066
 7018 35df 01       		.byte	0x1
 7019 35e0 85       		.byte	0x85
 7020 35e1 02360000 		.4byte	0x3602
 7021 35e5 8D010000 		.4byte	.LLST6
 7022 35e9 34       		.uleb128 0x34
 7023 35ea 20590000 		.4byte	.LASF1067
 7024 35ee 01       		.byte	0x1
 7025 35ef 87       		.byte	0x87
 7026 35f0 1B270000 		.4byte	0x271b
 7027 35f4 C7010000 		.4byte	.LLST7
 7028 35f8 2F       		.uleb128 0x2f
 7029 35f9 2A000000 		.4byte	.LVL37
 7030 35fd A1390000 		.4byte	0x39a1
 7031 3601 00       		.byte	0
 7032 3602 06       		.uleb128 0x6
 7033 3603 04       		.byte	0x4
 7034 3604 EE330000 		.4byte	0x33ee
 7035 3608 28       		.uleb128 0x28
 7036 3609 7D5B0000 		.4byte	.LASF1068
 7037 360d 01       		.byte	0x1
 7038 360e 0D01     		.2byte	0x10d
 7039 3610 1B270000 		.4byte	0x271b
 7040 3614 00000000 		.4byte	.LFB170
 7041 3618 F0000000 		.4byte	.LFE170-.LFB170
 7042 361c 01       		.uleb128 0x1
 7043 361d 9C       		.byte	0x9c
 7044 361e 39370000 		.4byte	0x3739
 7045 3622 2A       		.uleb128 0x2a
ARM GAS  C:\Users\ASUS\AppData\Local\Temp\cczm8cZa.s 			page 155


 7046 3623 20590000 		.4byte	.LASF1067
 7047 3627 01       		.byte	0x1
 7048 3628 0F01     		.2byte	0x10f
 7049 362a 1B270000 		.4byte	0x271b
 7050 362e E6010000 		.4byte	.LLST8
 7051 3632 2B       		.uleb128 0x2b
 7052 3633 B22D0000 		.4byte	.LASF1069
 7053 3637 01       		.byte	0x1
 7054 3638 1201     		.2byte	0x112
 7055 363a 39370000 		.4byte	0x3739
 7056 363e 02       		.uleb128 0x2
 7057 363f 91       		.byte	0x91
 7058 3640 60       		.sleb128 -32
 7059 3641 2B       		.uleb128 0x2b
 7060 3642 EE0B0000 		.4byte	.LASF1070
 7061 3646 01       		.byte	0x1
 7062 3647 1B01     		.2byte	0x11b
 7063 3649 302A0000 		.4byte	0x2a30
 7064 364d 03       		.uleb128 0x3
 7065 364e 91       		.byte	0x91
 7066 364f 9C7F     		.sleb128 -100
 7067 3651 35       		.uleb128 0x35
 7068 3652 61340000 		.4byte	0x3461
 7069 3656 9E000000 		.4byte	.LBB6
 7070 365a 04000000 		.4byte	.LBE6-.LBB6
 7071 365e 01       		.byte	0x1
 7072 365f 8D01     		.2byte	0x18d
 7073 3661 6F360000 		.4byte	0x366f
 7074 3665 36       		.uleb128 0x36
 7075 3666 6E340000 		.4byte	0x346e
 7076 366a 28020000 		.4byte	.LLST9
 7077 366e 00       		.byte	0
 7078 366f 2C       		.uleb128 0x2c
 7079 3670 A2000000 		.4byte	.LBB8
 7080 3674 18000000 		.4byte	.LBE8-.LBB8
 7081 3678 9E360000 		.4byte	0x369e
 7082 367c 2B       		.uleb128 0x2b
 7083 367d DE450000 		.4byte	.LASF1071
 7084 3681 01       		.byte	0x1
 7085 3682 9601     		.2byte	0x196
 7086 3684 7B310000 		.4byte	0x317b
 7087 3688 03       		.uleb128 0x3
 7088 3689 91       		.byte	0x91
 7089 368a 947F     		.sleb128 -108
 7090 368c 31       		.uleb128 0x31
 7091 368d BA000000 		.4byte	.LVL53
 7092 3691 AD390000 		.4byte	0x39ad
 7093 3695 2E       		.uleb128 0x2e
 7094 3696 01       		.uleb128 0x1
 7095 3697 50       		.byte	0x50
 7096 3698 03       		.uleb128 0x3
 7097 3699 91       		.byte	0x91
 7098 369a 947F     		.sleb128 -108
 7099 369c 00       		.byte	0
 7100 369d 00       		.byte	0
 7101 369e 2D       		.uleb128 0x2d
 7102 369f 12000000 		.4byte	.LVL41
ARM GAS  C:\Users\ASUS\AppData\Local\Temp\cczm8cZa.s 			page 156


 7103 36a3 B9390000 		.4byte	0x39b9
 7104 36a7 C1360000 		.4byte	0x36c1
 7105 36ab 2E       		.uleb128 0x2e
 7106 36ac 01       		.uleb128 0x1
 7107 36ad 50       		.byte	0x50
 7108 36ae 02       		.uleb128 0x2
 7109 36af 76       		.byte	0x76
 7110 36b0 00       		.sleb128 0
 7111 36b1 2E       		.uleb128 0x2e
 7112 36b2 01       		.uleb128 0x1
 7113 36b3 51       		.byte	0x51
 7114 36b4 05       		.uleb128 0x5
 7115 36b5 03       		.byte	0x3
 7116 36b6 00000000 		.4byte	.LANCHOR2
 7117 36ba 2E       		.uleb128 0x2e
 7118 36bb 01       		.uleb128 0x1
 7119 36bc 52       		.byte	0x52
 7120 36bd 02       		.uleb128 0x2
 7121 36be 75       		.byte	0x75
 7122 36bf 00       		.sleb128 0
 7123 36c0 00       		.byte	0
 7124 36c1 2D       		.uleb128 0x2d
 7125 36c2 1E000000 		.4byte	.LVL42
 7126 36c6 C2390000 		.4byte	0x39c2
 7127 36ca E0360000 		.4byte	0x36e0
 7128 36ce 2E       		.uleb128 0x2e
 7129 36cf 01       		.uleb128 0x1
 7130 36d0 50       		.byte	0x50
 7131 36d1 02       		.uleb128 0x2
 7132 36d2 74       		.byte	0x74
 7133 36d3 00       		.sleb128 0
 7134 36d4 2E       		.uleb128 0x2e
 7135 36d5 01       		.uleb128 0x1
 7136 36d6 51       		.byte	0x51
 7137 36d7 01       		.uleb128 0x1
 7138 36d8 30       		.byte	0x30
 7139 36d9 2E       		.uleb128 0x2e
 7140 36da 01       		.uleb128 0x1
 7141 36db 52       		.byte	0x52
 7142 36dc 02       		.uleb128 0x2
 7143 36dd 08       		.byte	0x8
 7144 36de 44       		.byte	0x44
 7145 36df 00       		.byte	0
 7146 36e0 2D       		.uleb128 0x2d
 7147 36e1 62000000 		.4byte	.LVL43
 7148 36e5 CB390000 		.4byte	0x39cb
 7149 36e9 F7360000 		.4byte	0x36f7
 7150 36ed 2E       		.uleb128 0x2e
 7151 36ee 01       		.uleb128 0x1
 7152 36ef 50       		.byte	0x50
 7153 36f0 05       		.uleb128 0x5
 7154 36f1 03       		.byte	0x3
 7155 36f2 00000000 		.4byte	.LANCHOR1
 7156 36f6 00       		.byte	0
 7157 36f7 2F       		.uleb128 0x2f
 7158 36f8 66000000 		.4byte	.LVL44
 7159 36fc D7390000 		.4byte	0x39d7
ARM GAS  C:\Users\ASUS\AppData\Local\Temp\cczm8cZa.s 			page 157


 7160 3700 2D       		.uleb128 0x2d
 7161 3701 6C000000 		.4byte	.LVL45
 7162 3705 E3390000 		.4byte	0x39e3
 7163 3709 15370000 		.4byte	0x3715
 7164 370d 2E       		.uleb128 0x2e
 7165 370e 01       		.uleb128 0x1
 7166 370f 50       		.byte	0x50
 7167 3710 03       		.uleb128 0x3
 7168 3711 91       		.byte	0x91
 7169 3712 B47F     		.sleb128 -76
 7170 3714 00       		.byte	0
 7171 3715 2D       		.uleb128 0x2d
 7172 3716 88000000 		.4byte	.LVL48
 7173 371a B9390000 		.4byte	0x39b9
 7174 371e 28370000 		.4byte	0x3728
 7175 3722 2E       		.uleb128 0x2e
 7176 3723 01       		.uleb128 0x1
 7177 3724 52       		.byte	0x52
 7178 3725 01       		.uleb128 0x1
 7179 3726 4A       		.byte	0x4a
 7180 3727 00       		.byte	0
 7181 3728 31       		.uleb128 0x31
 7182 3729 8E000000 		.4byte	.LVL49
 7183 372d EF390000 		.4byte	0x39ef
 7184 3731 2E       		.uleb128 0x2e
 7185 3732 01       		.uleb128 0x1
 7186 3733 50       		.byte	0x50
 7187 3734 02       		.uleb128 0x2
 7188 3735 74       		.byte	0x74
 7189 3736 00       		.sleb128 0
 7190 3737 00       		.byte	0
 7191 3738 00       		.byte	0
 7192 3739 0A       		.uleb128 0xa
 7193 373a 78290000 		.4byte	0x2978
 7194 373e 49370000 		.4byte	0x3749
 7195 3742 0B       		.uleb128 0xb
 7196 3743 A9000000 		.4byte	0xa9
 7197 3747 03       		.byte	0x3
 7198 3748 00       		.byte	0
 7199 3749 28       		.uleb128 0x28
 7200 374a 84410000 		.4byte	.LASF1072
 7201 374e 01       		.byte	0x1
 7202 374f CE01     		.2byte	0x1ce
 7203 3751 1B270000 		.4byte	0x271b
 7204 3755 00000000 		.4byte	.LFB171
 7205 3759 08000000 		.4byte	.LFE171-.LFB171
 7206 375d 01       		.uleb128 0x1
 7207 375e 9C       		.byte	0x9c
 7208 375f 7B370000 		.4byte	0x377b
 7209 3763 2B       		.uleb128 0x2b
 7210 3764 20590000 		.4byte	.LASF1067
 7211 3768 01       		.byte	0x1
 7212 3769 D001     		.2byte	0x1d0
 7213 376b 1B270000 		.4byte	0x271b
 7214 376f 01       		.uleb128 0x1
 7215 3770 50       		.byte	0x50
 7216 3771 2F       		.uleb128 0x2f
ARM GAS  C:\Users\ASUS\AppData\Local\Temp\cczm8cZa.s 			page 158


 7217 3772 06000000 		.4byte	.LVL54
 7218 3776 FB390000 		.4byte	0x39fb
 7219 377a 00       		.byte	0
 7220 377b 37       		.uleb128 0x37
 7221 377c 27570000 		.4byte	.LASF1074
 7222 3780 01       		.byte	0x1
 7223 3781 0602     		.2byte	0x206
 7224 3783 00000000 		.4byte	.LFB172
 7225 3787 10000000 		.4byte	.LFE172-.LFB172
 7226 378b 01       		.uleb128 0x1
 7227 378c 9C       		.byte	0x9c
 7228 378d A0370000 		.4byte	0x37a0
 7229 3791 38       		.uleb128 0x38
 7230 3792 B3400000 		.4byte	.LASF1075
 7231 3796 01       		.byte	0x1
 7232 3797 0602     		.2byte	0x206
 7233 3799 EC000000 		.4byte	0xec
 7234 379d 01       		.uleb128 0x1
 7235 379e 50       		.byte	0x50
 7236 379f 00       		.byte	0
 7237 37a0 28       		.uleb128 0x28
 7238 37a1 21430000 		.4byte	.LASF1076
 7239 37a5 01       		.byte	0x1
 7240 37a6 C502     		.2byte	0x2c5
 7241 37a8 1B270000 		.4byte	0x271b
 7242 37ac 00000000 		.4byte	.LFB173
 7243 37b0 18000000 		.4byte	.LFE173-.LFB173
 7244 37b4 01       		.uleb128 0x1
 7245 37b5 9C       		.byte	0x9c
 7246 37b6 DB370000 		.4byte	0x37db
 7247 37ba 29       		.uleb128 0x29
 7248 37bb 76470000 		.4byte	.LASF1077
 7249 37bf 01       		.byte	0x1
 7250 37c0 C502     		.2byte	0x2c5
 7251 37c2 FA330000 		.4byte	0x33fa
 7252 37c6 3C020000 		.4byte	.LLST10
 7253 37ca 2A       		.uleb128 0x2a
 7254 37cb 20590000 		.4byte	.LASF1067
 7255 37cf 01       		.byte	0x1
 7256 37d0 C702     		.2byte	0x2c7
 7257 37d2 1B270000 		.4byte	0x271b
 7258 37d6 77020000 		.4byte	.LLST11
 7259 37da 00       		.byte	0
 7260 37db 39       		.uleb128 0x39
 7261 37dc 3B000000 		.4byte	.LASF1119
 7262 37e0 01       		.byte	0x1
 7263 37e1 DB02     		.2byte	0x2db
 7264 37e3 00000000 		.4byte	.LFB174
 7265 37e7 0C000000 		.4byte	.LFE174-.LFB174
 7266 37eb 01       		.uleb128 0x1
 7267 37ec 9C       		.byte	0x9c
 7268 37ed 3A       		.uleb128 0x3a
 7269 37ee F90C0000 		.4byte	.LASF1078
 7270 37f2 01       		.byte	0x1
 7271 37f3 38       		.byte	0x38
 7272 37f4 17220000 		.4byte	0x2217
 7273 37f8 05       		.uleb128 0x5
ARM GAS  C:\Users\ASUS\AppData\Local\Temp\cczm8cZa.s 			page 159


 7274 37f9 03       		.byte	0x3
 7275 37fa 10000000 		.4byte	bleDeepSleepCallbackParams
 7276 37fe 3A       		.uleb128 0x3a
 7277 37ff 93260000 		.4byte	.LASF1079
 7278 3803 01       		.byte	0x1
 7279 3804 39       		.byte	0x39
 7280 3805 B1220000 		.4byte	0x22b1
 7281 3809 05       		.uleb128 0x5
 7282 380a 03       		.byte	0x3
 7283 380b 00000000 		.4byte	bleDeepSleepCallback
 7284 380f 3B       		.uleb128 0x3b
 7285 3810 46160000 		.4byte	.LASF1080
 7286 3814 05       		.byte	0x5
 7287 3815 A7       		.byte	0xa7
 7288 3816 1A380000 		.4byte	0x381a
 7289 381a 06       		.uleb128 0x6
 7290 381b 04       		.byte	0x4
 7291 381c 20380000 		.4byte	0x3820
 7292 3820 09       		.uleb128 0x9
 7293 3821 29060000 		.4byte	0x629
 7294 3825 3C       		.uleb128 0x3c
 7295 3826 791D0000 		.4byte	.LASF1081
 7296 382a 02       		.byte	0x2
 7297 382b 1802     		.2byte	0x218
 7298 382d B1010000 		.4byte	0x1b1
 7299 3831 3C       		.uleb128 0x3c
 7300 3832 DD1F0000 		.4byte	.LASF1082
 7301 3836 02       		.byte	0x2
 7302 3837 1B02     		.2byte	0x21b
 7303 3839 6C2E0000 		.4byte	0x2e6c
 7304 383d 3C       		.uleb128 0x3c
 7305 383e 15350000 		.4byte	.LASF1083
 7306 3842 02       		.byte	0x2
 7307 3843 2202     		.2byte	0x222
 7308 3845 9C2E0000 		.4byte	0x2e9c
 7309 3849 0A       		.uleb128 0xa
 7310 384a 282B0000 		.4byte	0x2b28
 7311 384e 59380000 		.4byte	0x3859
 7312 3852 0B       		.uleb128 0xb
 7313 3853 A9000000 		.4byte	0xa9
 7314 3857 00       		.byte	0
 7315 3858 00       		.byte	0
 7316 3859 3C       		.uleb128 0x3c
 7317 385a 51070000 		.4byte	.LASF1084
 7318 385e 02       		.byte	0x2
 7319 385f 2C02     		.2byte	0x22c
 7320 3861 49380000 		.4byte	0x3849
 7321 3865 0A       		.uleb128 0xa
 7322 3866 E42E0000 		.4byte	0x2ee4
 7323 386a 75380000 		.4byte	0x3875
 7324 386e 0B       		.uleb128 0xb
 7325 386f A9000000 		.4byte	0xa9
 7326 3873 00       		.byte	0
 7327 3874 00       		.byte	0
 7328 3875 3C       		.uleb128 0x3c
 7329 3876 A1060000 		.4byte	.LASF1085
 7330 387a 02       		.byte	0x2
ARM GAS  C:\Users\ASUS\AppData\Local\Temp\cczm8cZa.s 			page 160


 7331 387b 2D02     		.2byte	0x22d
 7332 387d 65380000 		.4byte	0x3865
 7333 3881 3C       		.uleb128 0x3c
 7334 3882 3A1E0000 		.4byte	.LASF1086
 7335 3886 02       		.byte	0x2
 7336 3887 5202     		.2byte	0x252
 7337 3889 CB000000 		.4byte	0xcb
 7338 388d 0A       		.uleb128 0xa
 7339 388e CB000000 		.4byte	0xcb
 7340 3892 9D380000 		.4byte	0x389d
 7341 3896 0B       		.uleb128 0xb
 7342 3897 A9000000 		.4byte	0xa9
 7343 389b 00       		.byte	0
 7344 389c 00       		.byte	0
 7345 389d 3C       		.uleb128 0x3c
 7346 389e A1100000 		.4byte	.LASF1087
 7347 38a2 02       		.byte	0x2
 7348 38a3 5902     		.2byte	0x259
 7349 38a5 8D380000 		.4byte	0x388d
 7350 38a9 3D       		.uleb128 0x3d
 7351 38aa 2B410000 		.4byte	.LASF1088
 7352 38ae 01       		.byte	0x1
 7353 38af 2E       		.byte	0x2e
 7354 38b0 FA330000 		.4byte	0x33fa
 7355 38b4 05       		.uleb128 0x5
 7356 38b5 03       		.byte	0x3
 7357 38b6 00000000 		.4byte	Cy_BLE_HostRegisteredCallback
 7358 38ba 3D       		.uleb128 0x3d
 7359 38bb 3D0B0000 		.4byte	.LASF1089
 7360 38bf 01       		.byte	0x1
 7361 38c0 2B       		.byte	0x2b
 7362 38c1 BF310000 		.4byte	0x31bf
 7363 38c5 05       		.uleb128 0x5
 7364 38c6 03       		.byte	0x3
 7365 38c7 00000000 		.4byte	Cy_BLE_ApplCallback
 7366 38cb 0A       		.uleb128 0xa
 7367 38cc CB000000 		.4byte	0xcb
 7368 38d0 DC380000 		.4byte	0x38dc
 7369 38d4 0C       		.uleb128 0xc
 7370 38d5 A9000000 		.4byte	0xa9
 7371 38d9 E728     		.2byte	0x28e7
 7372 38db 00       		.byte	0
 7373 38dc 3D       		.uleb128 0x3d
 7374 38dd 46360000 		.4byte	.LASF1090
 7375 38e1 01       		.byte	0x1
 7376 38e2 26       		.byte	0x26
 7377 38e3 CB380000 		.4byte	0x38cb
 7378 38e7 05       		.uleb128 0x5
 7379 38e8 03       		.byte	0x3
 7380 38e9 00000000 		.4byte	cy_ble_stackMemoryRam
 7381 38ed 3D       		.uleb128 0x3d
 7382 38ee 911D0000 		.4byte	.LASF1091
 7383 38f2 01       		.byte	0x1
 7384 38f3 33       		.byte	0x33
 7385 38f4 02360000 		.4byte	0x3602
 7386 38f8 05       		.uleb128 0x5
 7387 38f9 03       		.byte	0x3
ARM GAS  C:\Users\ASUS\AppData\Local\Temp\cczm8cZa.s 			page 161


 7388 38fa 00000000 		.4byte	cy_ble_configPtr
 7389 38fe 0A       		.uleb128 0xa
 7390 38ff B1010000 		.4byte	0x1b1
 7391 3903 0E390000 		.4byte	0x390e
 7392 3907 0B       		.uleb128 0xb
 7393 3908 A9000000 		.4byte	0xa9
 7394 390c 00       		.byte	0
 7395 390d 00       		.byte	0
 7396 390e 3C       		.uleb128 0x3c
 7397 390f BB320000 		.4byte	.LASF1092
 7398 3913 15       		.byte	0x15
 7399 3914 7409     		.2byte	0x974
 7400 3916 1A390000 		.4byte	0x391a
 7401 391a 08       		.uleb128 0x8
 7402 391b FE380000 		.4byte	0x38fe
 7403 391f 3C       		.uleb128 0x3c
 7404 3920 154D0000 		.4byte	.LASF1093
 7405 3924 15       		.byte	0x15
 7406 3925 7509     		.2byte	0x975
 7407 3927 F7000000 		.4byte	0xf7
 7408 392b 3C       		.uleb128 0x3c
 7409 392c CF570000 		.4byte	.LASF1094
 7410 3930 15       		.byte	0x15
 7411 3931 7809     		.2byte	0x978
 7412 3933 CB000000 		.4byte	0xcb
 7413 3937 3E       		.uleb128 0x3e
 7414 3938 5F4D0000 		.4byte	.LASF1095
 7415 393c 5F4D0000 		.4byte	.LASF1095
 7416 3940 0B       		.byte	0xb
 7417 3941 9108     		.2byte	0x891
 7418 3943 3E       		.uleb128 0x3e
 7419 3944 CE0E0000 		.4byte	.LASF1096
 7420 3948 CE0E0000 		.4byte	.LASF1096
 7421 394c 16       		.byte	0x16
 7422 394d B203     		.2byte	0x3b2
 7423 394f 3E       		.uleb128 0x3e
 7424 3950 5E110000 		.4byte	.LASF1097
 7425 3954 5E110000 		.4byte	.LASF1097
 7426 3958 0B       		.byte	0xb
 7427 3959 A808     		.2byte	0x8a8
 7428 395b 3E       		.uleb128 0x3e
 7429 395c 470D0000 		.4byte	.LASF1098
 7430 3960 470D0000 		.4byte	.LASF1098
 7431 3964 0B       		.byte	0xb
 7432 3965 C008     		.2byte	0x8c0
 7433 3967 3E       		.uleb128 0x3e
 7434 3968 68160000 		.4byte	.LASF1099
 7435 396c 68160000 		.4byte	.LASF1099
 7436 3970 0A       		.byte	0xa
 7437 3971 4706     		.2byte	0x647
 7438 3973 3E       		.uleb128 0x3e
 7439 3974 AD3E0000 		.4byte	.LASF1100
 7440 3978 AD3E0000 		.4byte	.LASF1100
 7441 397c 16       		.byte	0x16
 7442 397d C103     		.2byte	0x3c1
 7443 397f 3F       		.uleb128 0x3f
 7444 3980 BA280000 		.4byte	.LASF1101
ARM GAS  C:\Users\ASUS\AppData\Local\Temp\cczm8cZa.s 			page 162


 7445 3984 BA280000 		.4byte	.LASF1101
 7446 3988 14       		.byte	0x14
 7447 3989 77       		.byte	0x77
 7448 398a 3F       		.uleb128 0x3f
 7449 398b EB460000 		.4byte	.LASF1102
 7450 398f EB460000 		.4byte	.LASF1102
 7451 3993 17       		.byte	0x17
 7452 3994 A7       		.byte	0xa7
 7453 3995 3E       		.uleb128 0x3e
 7454 3996 88090000 		.4byte	.LASF1103
 7455 399a 88090000 		.4byte	.LASF1103
 7456 399e 0A       		.byte	0xa
 7457 399f 9E06     		.2byte	0x69e
 7458 39a1 3E       		.uleb128 0x3e
 7459 39a2 F1390000 		.4byte	.LASF1104
 7460 39a6 F1390000 		.4byte	.LASF1104
 7461 39aa 02       		.byte	0x2
 7462 39ab D801     		.2byte	0x1d8
 7463 39ad 3E       		.uleb128 0x3e
 7464 39ae FC500000 		.4byte	.LASF1105
 7465 39b2 FC500000 		.4byte	.LASF1105
 7466 39b6 11       		.byte	0x11
 7467 39b7 A201     		.2byte	0x1a2
 7468 39b9 40       		.uleb128 0x40
 7469 39ba BF210000 		.4byte	.LASF1106
 7470 39be BF210000 		.4byte	.LASF1106
 7471 39c2 40       		.uleb128 0x40
 7472 39c3 22030000 		.4byte	.LASF1107
 7473 39c7 22030000 		.4byte	.LASF1107
 7474 39cb 3E       		.uleb128 0x3e
 7475 39cc 18340000 		.4byte	.LASF1108
 7476 39d0 18340000 		.4byte	.LASF1108
 7477 39d4 0A       		.byte	0xa
 7478 39d5 9D06     		.2byte	0x69d
 7479 39d7 3E       		.uleb128 0x3e
 7480 39d8 B2060000 		.4byte	.LASF1109
 7481 39dc B2060000 		.4byte	.LASF1109
 7482 39e0 0B       		.byte	0xb
 7483 39e1 D708     		.2byte	0x8d7
 7484 39e3 3E       		.uleb128 0x3e
 7485 39e4 A83A0000 		.4byte	.LASF1110
 7486 39e8 A83A0000 		.4byte	.LASF1110
 7487 39ec 0B       		.byte	0xb
 7488 39ed 1908     		.2byte	0x819
 7489 39ef 3E       		.uleb128 0x3e
 7490 39f0 91140000 		.4byte	.LASF1111
 7491 39f4 91140000 		.4byte	.LASF1111
 7492 39f8 0B       		.byte	0xb
 7493 39f9 9007     		.2byte	0x790
 7494 39fb 3E       		.uleb128 0x3e
 7495 39fc 7F160000 		.4byte	.LASF1112
 7496 3a00 7F160000 		.4byte	.LASF1112
 7497 3a04 0B       		.byte	0xb
 7498 3a05 B207     		.2byte	0x7b2
 7499 3a07 00       		.byte	0
 7500              		.section	.debug_abbrev,"",%progbits
 7501              	.Ldebug_abbrev0:
ARM GAS  C:\Users\ASUS\AppData\Local\Temp\cczm8cZa.s 			page 163


 7502 0000 01       		.uleb128 0x1
 7503 0001 11       		.uleb128 0x11
 7504 0002 01       		.byte	0x1
 7505 0003 25       		.uleb128 0x25
 7506 0004 0E       		.uleb128 0xe
 7507 0005 13       		.uleb128 0x13
 7508 0006 0B       		.uleb128 0xb
 7509 0007 03       		.uleb128 0x3
 7510 0008 0E       		.uleb128 0xe
 7511 0009 1B       		.uleb128 0x1b
 7512 000a 0E       		.uleb128 0xe
 7513 000b 55       		.uleb128 0x55
 7514 000c 17       		.uleb128 0x17
 7515 000d 11       		.uleb128 0x11
 7516 000e 01       		.uleb128 0x1
 7517 000f 10       		.uleb128 0x10
 7518 0010 17       		.uleb128 0x17
 7519 0011 00       		.byte	0
 7520 0012 00       		.byte	0
 7521 0013 02       		.uleb128 0x2
 7522 0014 24       		.uleb128 0x24
 7523 0015 00       		.byte	0
 7524 0016 0B       		.uleb128 0xb
 7525 0017 0B       		.uleb128 0xb
 7526 0018 3E       		.uleb128 0x3e
 7527 0019 0B       		.uleb128 0xb
 7528 001a 03       		.uleb128 0x3
 7529 001b 08       		.uleb128 0x8
 7530 001c 00       		.byte	0
 7531 001d 00       		.byte	0
 7532 001e 03       		.uleb128 0x3
 7533 001f 24       		.uleb128 0x24
 7534 0020 00       		.byte	0
 7535 0021 0B       		.uleb128 0xb
 7536 0022 0B       		.uleb128 0xb
 7537 0023 3E       		.uleb128 0x3e
 7538 0024 0B       		.uleb128 0xb
 7539 0025 03       		.uleb128 0x3
 7540 0026 0E       		.uleb128 0xe
 7541 0027 00       		.byte	0
 7542 0028 00       		.byte	0
 7543 0029 04       		.uleb128 0x4
 7544 002a 16       		.uleb128 0x16
 7545 002b 00       		.byte	0
 7546 002c 03       		.uleb128 0x3
 7547 002d 0E       		.uleb128 0xe
 7548 002e 3A       		.uleb128 0x3a
 7549 002f 0B       		.uleb128 0xb
 7550 0030 3B       		.uleb128 0x3b
 7551 0031 0B       		.uleb128 0xb
 7552 0032 49       		.uleb128 0x49
 7553 0033 13       		.uleb128 0x13
 7554 0034 00       		.byte	0
 7555 0035 00       		.byte	0
 7556 0036 05       		.uleb128 0x5
 7557 0037 0F       		.uleb128 0xf
 7558 0038 00       		.byte	0
ARM GAS  C:\Users\ASUS\AppData\Local\Temp\cczm8cZa.s 			page 164


 7559 0039 0B       		.uleb128 0xb
 7560 003a 0B       		.uleb128 0xb
 7561 003b 00       		.byte	0
 7562 003c 00       		.byte	0
 7563 003d 06       		.uleb128 0x6
 7564 003e 0F       		.uleb128 0xf
 7565 003f 00       		.byte	0
 7566 0040 0B       		.uleb128 0xb
 7567 0041 0B       		.uleb128 0xb
 7568 0042 49       		.uleb128 0x49
 7569 0043 13       		.uleb128 0x13
 7570 0044 00       		.byte	0
 7571 0045 00       		.byte	0
 7572 0046 07       		.uleb128 0x7
 7573 0047 15       		.uleb128 0x15
 7574 0048 00       		.byte	0
 7575 0049 27       		.uleb128 0x27
 7576 004a 19       		.uleb128 0x19
 7577 004b 00       		.byte	0
 7578 004c 00       		.byte	0
 7579 004d 08       		.uleb128 0x8
 7580 004e 35       		.uleb128 0x35
 7581 004f 00       		.byte	0
 7582 0050 49       		.uleb128 0x49
 7583 0051 13       		.uleb128 0x13
 7584 0052 00       		.byte	0
 7585 0053 00       		.byte	0
 7586 0054 09       		.uleb128 0x9
 7587 0055 26       		.uleb128 0x26
 7588 0056 00       		.byte	0
 7589 0057 49       		.uleb128 0x49
 7590 0058 13       		.uleb128 0x13
 7591 0059 00       		.byte	0
 7592 005a 00       		.byte	0
 7593 005b 0A       		.uleb128 0xa
 7594 005c 01       		.uleb128 0x1
 7595 005d 01       		.byte	0x1
 7596 005e 49       		.uleb128 0x49
 7597 005f 13       		.uleb128 0x13
 7598 0060 01       		.uleb128 0x1
 7599 0061 13       		.uleb128 0x13
 7600 0062 00       		.byte	0
 7601 0063 00       		.byte	0
 7602 0064 0B       		.uleb128 0xb
 7603 0065 21       		.uleb128 0x21
 7604 0066 00       		.byte	0
 7605 0067 49       		.uleb128 0x49
 7606 0068 13       		.uleb128 0x13
 7607 0069 2F       		.uleb128 0x2f
 7608 006a 0B       		.uleb128 0xb
 7609 006b 00       		.byte	0
 7610 006c 00       		.byte	0
 7611 006d 0C       		.uleb128 0xc
 7612 006e 21       		.uleb128 0x21
 7613 006f 00       		.byte	0
 7614 0070 49       		.uleb128 0x49
 7615 0071 13       		.uleb128 0x13
ARM GAS  C:\Users\ASUS\AppData\Local\Temp\cczm8cZa.s 			page 165


 7616 0072 2F       		.uleb128 0x2f
 7617 0073 05       		.uleb128 0x5
 7618 0074 00       		.byte	0
 7619 0075 00       		.byte	0
 7620 0076 0D       		.uleb128 0xd
 7621 0077 13       		.uleb128 0x13
 7622 0078 01       		.byte	0x1
 7623 0079 0B       		.uleb128 0xb
 7624 007a 0B       		.uleb128 0xb
 7625 007b 3A       		.uleb128 0x3a
 7626 007c 0B       		.uleb128 0xb
 7627 007d 3B       		.uleb128 0x3b
 7628 007e 0B       		.uleb128 0xb
 7629 007f 01       		.uleb128 0x1
 7630 0080 13       		.uleb128 0x13
 7631 0081 00       		.byte	0
 7632 0082 00       		.byte	0
 7633 0083 0E       		.uleb128 0xe
 7634 0084 0D       		.uleb128 0xd
 7635 0085 00       		.byte	0
 7636 0086 03       		.uleb128 0x3
 7637 0087 0E       		.uleb128 0xe
 7638 0088 3A       		.uleb128 0x3a
 7639 0089 0B       		.uleb128 0xb
 7640 008a 3B       		.uleb128 0x3b
 7641 008b 0B       		.uleb128 0xb
 7642 008c 49       		.uleb128 0x49
 7643 008d 13       		.uleb128 0x13
 7644 008e 38       		.uleb128 0x38
 7645 008f 0B       		.uleb128 0xb
 7646 0090 00       		.byte	0
 7647 0091 00       		.byte	0
 7648 0092 0F       		.uleb128 0xf
 7649 0093 04       		.uleb128 0x4
 7650 0094 01       		.byte	0x1
 7651 0095 0B       		.uleb128 0xb
 7652 0096 0B       		.uleb128 0xb
 7653 0097 49       		.uleb128 0x49
 7654 0098 13       		.uleb128 0x13
 7655 0099 3A       		.uleb128 0x3a
 7656 009a 0B       		.uleb128 0xb
 7657 009b 3B       		.uleb128 0x3b
 7658 009c 0B       		.uleb128 0xb
 7659 009d 01       		.uleb128 0x1
 7660 009e 13       		.uleb128 0x13
 7661 009f 00       		.byte	0
 7662 00a0 00       		.byte	0
 7663 00a1 10       		.uleb128 0x10
 7664 00a2 28       		.uleb128 0x28
 7665 00a3 00       		.byte	0
 7666 00a4 03       		.uleb128 0x3
 7667 00a5 0E       		.uleb128 0xe
 7668 00a6 1C       		.uleb128 0x1c
 7669 00a7 0D       		.uleb128 0xd
 7670 00a8 00       		.byte	0
 7671 00a9 00       		.byte	0
 7672 00aa 11       		.uleb128 0x11
ARM GAS  C:\Users\ASUS\AppData\Local\Temp\cczm8cZa.s 			page 166


 7673 00ab 28       		.uleb128 0x28
 7674 00ac 00       		.byte	0
 7675 00ad 03       		.uleb128 0x3
 7676 00ae 0E       		.uleb128 0xe
 7677 00af 1C       		.uleb128 0x1c
 7678 00b0 0B       		.uleb128 0xb
 7679 00b1 00       		.byte	0
 7680 00b2 00       		.byte	0
 7681 00b3 12       		.uleb128 0x12
 7682 00b4 16       		.uleb128 0x16
 7683 00b5 00       		.byte	0
 7684 00b6 03       		.uleb128 0x3
 7685 00b7 0E       		.uleb128 0xe
 7686 00b8 3A       		.uleb128 0x3a
 7687 00b9 0B       		.uleb128 0xb
 7688 00ba 3B       		.uleb128 0x3b
 7689 00bb 05       		.uleb128 0x5
 7690 00bc 49       		.uleb128 0x49
 7691 00bd 13       		.uleb128 0x13
 7692 00be 00       		.byte	0
 7693 00bf 00       		.byte	0
 7694 00c0 13       		.uleb128 0x13
 7695 00c1 13       		.uleb128 0x13
 7696 00c2 01       		.byte	0x1
 7697 00c3 0B       		.uleb128 0xb
 7698 00c4 05       		.uleb128 0x5
 7699 00c5 3A       		.uleb128 0x3a
 7700 00c6 0B       		.uleb128 0xb
 7701 00c7 3B       		.uleb128 0x3b
 7702 00c8 0B       		.uleb128 0xb
 7703 00c9 01       		.uleb128 0x1
 7704 00ca 13       		.uleb128 0x13
 7705 00cb 00       		.byte	0
 7706 00cc 00       		.byte	0
 7707 00cd 14       		.uleb128 0x14
 7708 00ce 0D       		.uleb128 0xd
 7709 00cf 00       		.byte	0
 7710 00d0 03       		.uleb128 0x3
 7711 00d1 0E       		.uleb128 0xe
 7712 00d2 3A       		.uleb128 0x3a
 7713 00d3 0B       		.uleb128 0xb
 7714 00d4 3B       		.uleb128 0x3b
 7715 00d5 0B       		.uleb128 0xb
 7716 00d6 49       		.uleb128 0x49
 7717 00d7 13       		.uleb128 0x13
 7718 00d8 38       		.uleb128 0x38
 7719 00d9 05       		.uleb128 0x5
 7720 00da 00       		.byte	0
 7721 00db 00       		.byte	0
 7722 00dc 15       		.uleb128 0x15
 7723 00dd 13       		.uleb128 0x13
 7724 00de 01       		.byte	0x1
 7725 00df 0B       		.uleb128 0xb
 7726 00e0 06       		.uleb128 0x6
 7727 00e1 3A       		.uleb128 0x3a
 7728 00e2 0B       		.uleb128 0xb
 7729 00e3 3B       		.uleb128 0x3b
ARM GAS  C:\Users\ASUS\AppData\Local\Temp\cczm8cZa.s 			page 167


 7730 00e4 0B       		.uleb128 0xb
 7731 00e5 01       		.uleb128 0x1
 7732 00e6 13       		.uleb128 0x13
 7733 00e7 00       		.byte	0
 7734 00e8 00       		.byte	0
 7735 00e9 16       		.uleb128 0x16
 7736 00ea 0D       		.uleb128 0xd
 7737 00eb 00       		.byte	0
 7738 00ec 03       		.uleb128 0x3
 7739 00ed 0E       		.uleb128 0xe
 7740 00ee 3A       		.uleb128 0x3a
 7741 00ef 0B       		.uleb128 0xb
 7742 00f0 3B       		.uleb128 0x3b
 7743 00f1 05       		.uleb128 0x5
 7744 00f2 49       		.uleb128 0x49
 7745 00f3 13       		.uleb128 0x13
 7746 00f4 38       		.uleb128 0x38
 7747 00f5 05       		.uleb128 0x5
 7748 00f6 00       		.byte	0
 7749 00f7 00       		.byte	0
 7750 00f8 17       		.uleb128 0x17
 7751 00f9 0D       		.uleb128 0xd
 7752 00fa 00       		.byte	0
 7753 00fb 03       		.uleb128 0x3
 7754 00fc 0E       		.uleb128 0xe
 7755 00fd 3A       		.uleb128 0x3a
 7756 00fe 0B       		.uleb128 0xb
 7757 00ff 3B       		.uleb128 0x3b
 7758 0100 05       		.uleb128 0x5
 7759 0101 49       		.uleb128 0x49
 7760 0102 13       		.uleb128 0x13
 7761 0103 38       		.uleb128 0x38
 7762 0104 06       		.uleb128 0x6
 7763 0105 00       		.byte	0
 7764 0106 00       		.byte	0
 7765 0107 18       		.uleb128 0x18
 7766 0108 13       		.uleb128 0x13
 7767 0109 01       		.byte	0x1
 7768 010a 0B       		.uleb128 0xb
 7769 010b 05       		.uleb128 0x5
 7770 010c 3A       		.uleb128 0x3a
 7771 010d 0B       		.uleb128 0xb
 7772 010e 3B       		.uleb128 0x3b
 7773 010f 05       		.uleb128 0x5
 7774 0110 01       		.uleb128 0x1
 7775 0111 13       		.uleb128 0x13
 7776 0112 00       		.byte	0
 7777 0113 00       		.byte	0
 7778 0114 19       		.uleb128 0x19
 7779 0115 0D       		.uleb128 0xd
 7780 0116 00       		.byte	0
 7781 0117 03       		.uleb128 0x3
 7782 0118 0E       		.uleb128 0xe
 7783 0119 3A       		.uleb128 0x3a
 7784 011a 0B       		.uleb128 0xb
 7785 011b 3B       		.uleb128 0x3b
 7786 011c 05       		.uleb128 0x5
ARM GAS  C:\Users\ASUS\AppData\Local\Temp\cczm8cZa.s 			page 168


 7787 011d 49       		.uleb128 0x49
 7788 011e 13       		.uleb128 0x13
 7789 011f 38       		.uleb128 0x38
 7790 0120 0B       		.uleb128 0xb
 7791 0121 00       		.byte	0
 7792 0122 00       		.byte	0
 7793 0123 1A       		.uleb128 0x1a
 7794 0124 13       		.uleb128 0x13
 7795 0125 01       		.byte	0x1
 7796 0126 0B       		.uleb128 0xb
 7797 0127 06       		.uleb128 0x6
 7798 0128 3A       		.uleb128 0x3a
 7799 0129 0B       		.uleb128 0xb
 7800 012a 3B       		.uleb128 0x3b
 7801 012b 05       		.uleb128 0x5
 7802 012c 01       		.uleb128 0x1
 7803 012d 13       		.uleb128 0x13
 7804 012e 00       		.byte	0
 7805 012f 00       		.byte	0
 7806 0130 1B       		.uleb128 0x1b
 7807 0131 0D       		.uleb128 0xd
 7808 0132 00       		.byte	0
 7809 0133 03       		.uleb128 0x3
 7810 0134 08       		.uleb128 0x8
 7811 0135 3A       		.uleb128 0x3a
 7812 0136 0B       		.uleb128 0xb
 7813 0137 3B       		.uleb128 0x3b
 7814 0138 05       		.uleb128 0x5
 7815 0139 49       		.uleb128 0x49
 7816 013a 13       		.uleb128 0x13
 7817 013b 38       		.uleb128 0x38
 7818 013c 0B       		.uleb128 0xb
 7819 013d 00       		.byte	0
 7820 013e 00       		.byte	0
 7821 013f 1C       		.uleb128 0x1c
 7822 0140 13       		.uleb128 0x13
 7823 0141 01       		.byte	0x1
 7824 0142 0B       		.uleb128 0xb
 7825 0143 0B       		.uleb128 0xb
 7826 0144 3A       		.uleb128 0x3a
 7827 0145 0B       		.uleb128 0xb
 7828 0146 3B       		.uleb128 0x3b
 7829 0147 05       		.uleb128 0x5
 7830 0148 01       		.uleb128 0x1
 7831 0149 13       		.uleb128 0x13
 7832 014a 00       		.byte	0
 7833 014b 00       		.byte	0
 7834 014c 1D       		.uleb128 0x1d
 7835 014d 04       		.uleb128 0x4
 7836 014e 01       		.byte	0x1
 7837 014f 0B       		.uleb128 0xb
 7838 0150 0B       		.uleb128 0xb
 7839 0151 49       		.uleb128 0x49
 7840 0152 13       		.uleb128 0x13
 7841 0153 3A       		.uleb128 0x3a
 7842 0154 0B       		.uleb128 0xb
 7843 0155 3B       		.uleb128 0x3b
ARM GAS  C:\Users\ASUS\AppData\Local\Temp\cczm8cZa.s 			page 169


 7844 0156 05       		.uleb128 0x5
 7845 0157 01       		.uleb128 0x1
 7846 0158 13       		.uleb128 0x13
 7847 0159 00       		.byte	0
 7848 015a 00       		.byte	0
 7849 015b 1E       		.uleb128 0x1e
 7850 015c 28       		.uleb128 0x28
 7851 015d 00       		.byte	0
 7852 015e 03       		.uleb128 0x3
 7853 015f 0E       		.uleb128 0xe
 7854 0160 1C       		.uleb128 0x1c
 7855 0161 06       		.uleb128 0x6
 7856 0162 00       		.byte	0
 7857 0163 00       		.byte	0
 7858 0164 1F       		.uleb128 0x1f
 7859 0165 15       		.uleb128 0x15
 7860 0166 01       		.byte	0x1
 7861 0167 27       		.uleb128 0x27
 7862 0168 19       		.uleb128 0x19
 7863 0169 49       		.uleb128 0x49
 7864 016a 13       		.uleb128 0x13
 7865 016b 01       		.uleb128 0x1
 7866 016c 13       		.uleb128 0x13
 7867 016d 00       		.byte	0
 7868 016e 00       		.byte	0
 7869 016f 20       		.uleb128 0x20
 7870 0170 05       		.uleb128 0x5
 7871 0171 00       		.byte	0
 7872 0172 49       		.uleb128 0x49
 7873 0173 13       		.uleb128 0x13
 7874 0174 00       		.byte	0
 7875 0175 00       		.byte	0
 7876 0176 21       		.uleb128 0x21
 7877 0177 13       		.uleb128 0x13
 7878 0178 01       		.byte	0x1
 7879 0179 03       		.uleb128 0x3
 7880 017a 0E       		.uleb128 0xe
 7881 017b 0B       		.uleb128 0xb
 7882 017c 0B       		.uleb128 0xb
 7883 017d 3A       		.uleb128 0x3a
 7884 017e 0B       		.uleb128 0xb
 7885 017f 3B       		.uleb128 0x3b
 7886 0180 05       		.uleb128 0x5
 7887 0181 01       		.uleb128 0x1
 7888 0182 13       		.uleb128 0x13
 7889 0183 00       		.byte	0
 7890 0184 00       		.byte	0
 7891 0185 22       		.uleb128 0x22
 7892 0186 28       		.uleb128 0x28
 7893 0187 00       		.byte	0
 7894 0188 03       		.uleb128 0x3
 7895 0189 0E       		.uleb128 0xe
 7896 018a 1C       		.uleb128 0x1c
 7897 018b 05       		.uleb128 0x5
 7898 018c 00       		.byte	0
 7899 018d 00       		.byte	0
 7900 018e 23       		.uleb128 0x23
ARM GAS  C:\Users\ASUS\AppData\Local\Temp\cczm8cZa.s 			page 170


 7901 018f 15       		.uleb128 0x15
 7902 0190 01       		.byte	0x1
 7903 0191 27       		.uleb128 0x27
 7904 0192 19       		.uleb128 0x19
 7905 0193 01       		.uleb128 0x1
 7906 0194 13       		.uleb128 0x13
 7907 0195 00       		.byte	0
 7908 0196 00       		.byte	0
 7909 0197 24       		.uleb128 0x24
 7910 0198 17       		.uleb128 0x17
 7911 0199 01       		.byte	0x1
 7912 019a 0B       		.uleb128 0xb
 7913 019b 0B       		.uleb128 0xb
 7914 019c 3A       		.uleb128 0x3a
 7915 019d 0B       		.uleb128 0xb
 7916 019e 3B       		.uleb128 0x3b
 7917 019f 0B       		.uleb128 0xb
 7918 01a0 01       		.uleb128 0x1
 7919 01a1 13       		.uleb128 0x13
 7920 01a2 00       		.byte	0
 7921 01a3 00       		.byte	0
 7922 01a4 25       		.uleb128 0x25
 7923 01a5 0D       		.uleb128 0xd
 7924 01a6 00       		.byte	0
 7925 01a7 03       		.uleb128 0x3
 7926 01a8 0E       		.uleb128 0xe
 7927 01a9 3A       		.uleb128 0x3a
 7928 01aa 0B       		.uleb128 0xb
 7929 01ab 3B       		.uleb128 0x3b
 7930 01ac 0B       		.uleb128 0xb
 7931 01ad 49       		.uleb128 0x49
 7932 01ae 13       		.uleb128 0x13
 7933 01af 00       		.byte	0
 7934 01b0 00       		.byte	0
 7935 01b1 26       		.uleb128 0x26
 7936 01b2 2E       		.uleb128 0x2e
 7937 01b3 01       		.byte	0x1
 7938 01b4 03       		.uleb128 0x3
 7939 01b5 0E       		.uleb128 0xe
 7940 01b6 3A       		.uleb128 0x3a
 7941 01b7 0B       		.uleb128 0xb
 7942 01b8 3B       		.uleb128 0x3b
 7943 01b9 05       		.uleb128 0x5
 7944 01ba 27       		.uleb128 0x27
 7945 01bb 19       		.uleb128 0x19
 7946 01bc 20       		.uleb128 0x20
 7947 01bd 0B       		.uleb128 0xb
 7948 01be 01       		.uleb128 0x1
 7949 01bf 13       		.uleb128 0x13
 7950 01c0 00       		.byte	0
 7951 01c1 00       		.byte	0
 7952 01c2 27       		.uleb128 0x27
 7953 01c3 05       		.uleb128 0x5
 7954 01c4 00       		.byte	0
 7955 01c5 03       		.uleb128 0x3
 7956 01c6 0E       		.uleb128 0xe
 7957 01c7 3A       		.uleb128 0x3a
ARM GAS  C:\Users\ASUS\AppData\Local\Temp\cczm8cZa.s 			page 171


 7958 01c8 0B       		.uleb128 0xb
 7959 01c9 3B       		.uleb128 0x3b
 7960 01ca 05       		.uleb128 0x5
 7961 01cb 49       		.uleb128 0x49
 7962 01cc 13       		.uleb128 0x13
 7963 01cd 00       		.byte	0
 7964 01ce 00       		.byte	0
 7965 01cf 28       		.uleb128 0x28
 7966 01d0 2E       		.uleb128 0x2e
 7967 01d1 01       		.byte	0x1
 7968 01d2 3F       		.uleb128 0x3f
 7969 01d3 19       		.uleb128 0x19
 7970 01d4 03       		.uleb128 0x3
 7971 01d5 0E       		.uleb128 0xe
 7972 01d6 3A       		.uleb128 0x3a
 7973 01d7 0B       		.uleb128 0xb
 7974 01d8 3B       		.uleb128 0x3b
 7975 01d9 05       		.uleb128 0x5
 7976 01da 27       		.uleb128 0x27
 7977 01db 19       		.uleb128 0x19
 7978 01dc 49       		.uleb128 0x49
 7979 01dd 13       		.uleb128 0x13
 7980 01de 11       		.uleb128 0x11
 7981 01df 01       		.uleb128 0x1
 7982 01e0 12       		.uleb128 0x12
 7983 01e1 06       		.uleb128 0x6
 7984 01e2 40       		.uleb128 0x40
 7985 01e3 18       		.uleb128 0x18
 7986 01e4 9742     		.uleb128 0x2117
 7987 01e6 19       		.uleb128 0x19
 7988 01e7 01       		.uleb128 0x1
 7989 01e8 13       		.uleb128 0x13
 7990 01e9 00       		.byte	0
 7991 01ea 00       		.byte	0
 7992 01eb 29       		.uleb128 0x29
 7993 01ec 05       		.uleb128 0x5
 7994 01ed 00       		.byte	0
 7995 01ee 03       		.uleb128 0x3
 7996 01ef 0E       		.uleb128 0xe
 7997 01f0 3A       		.uleb128 0x3a
 7998 01f1 0B       		.uleb128 0xb
 7999 01f2 3B       		.uleb128 0x3b
 8000 01f3 05       		.uleb128 0x5
 8001 01f4 49       		.uleb128 0x49
 8002 01f5 13       		.uleb128 0x13
 8003 01f6 02       		.uleb128 0x2
 8004 01f7 17       		.uleb128 0x17
 8005 01f8 00       		.byte	0
 8006 01f9 00       		.byte	0
 8007 01fa 2A       		.uleb128 0x2a
 8008 01fb 34       		.uleb128 0x34
 8009 01fc 00       		.byte	0
 8010 01fd 03       		.uleb128 0x3
 8011 01fe 0E       		.uleb128 0xe
 8012 01ff 3A       		.uleb128 0x3a
 8013 0200 0B       		.uleb128 0xb
 8014 0201 3B       		.uleb128 0x3b
ARM GAS  C:\Users\ASUS\AppData\Local\Temp\cczm8cZa.s 			page 172


 8015 0202 05       		.uleb128 0x5
 8016 0203 49       		.uleb128 0x49
 8017 0204 13       		.uleb128 0x13
 8018 0205 02       		.uleb128 0x2
 8019 0206 17       		.uleb128 0x17
 8020 0207 00       		.byte	0
 8021 0208 00       		.byte	0
 8022 0209 2B       		.uleb128 0x2b
 8023 020a 34       		.uleb128 0x34
 8024 020b 00       		.byte	0
 8025 020c 03       		.uleb128 0x3
 8026 020d 0E       		.uleb128 0xe
 8027 020e 3A       		.uleb128 0x3a
 8028 020f 0B       		.uleb128 0xb
 8029 0210 3B       		.uleb128 0x3b
 8030 0211 05       		.uleb128 0x5
 8031 0212 49       		.uleb128 0x49
 8032 0213 13       		.uleb128 0x13
 8033 0214 02       		.uleb128 0x2
 8034 0215 18       		.uleb128 0x18
 8035 0216 00       		.byte	0
 8036 0217 00       		.byte	0
 8037 0218 2C       		.uleb128 0x2c
 8038 0219 0B       		.uleb128 0xb
 8039 021a 01       		.byte	0x1
 8040 021b 11       		.uleb128 0x11
 8041 021c 01       		.uleb128 0x1
 8042 021d 12       		.uleb128 0x12
 8043 021e 06       		.uleb128 0x6
 8044 021f 01       		.uleb128 0x1
 8045 0220 13       		.uleb128 0x13
 8046 0221 00       		.byte	0
 8047 0222 00       		.byte	0
 8048 0223 2D       		.uleb128 0x2d
 8049 0224 898201   		.uleb128 0x4109
 8050 0227 01       		.byte	0x1
 8051 0228 11       		.uleb128 0x11
 8052 0229 01       		.uleb128 0x1
 8053 022a 31       		.uleb128 0x31
 8054 022b 13       		.uleb128 0x13
 8055 022c 01       		.uleb128 0x1
 8056 022d 13       		.uleb128 0x13
 8057 022e 00       		.byte	0
 8058 022f 00       		.byte	0
 8059 0230 2E       		.uleb128 0x2e
 8060 0231 8A8201   		.uleb128 0x410a
 8061 0234 00       		.byte	0
 8062 0235 02       		.uleb128 0x2
 8063 0236 18       		.uleb128 0x18
 8064 0237 9142     		.uleb128 0x2111
 8065 0239 18       		.uleb128 0x18
 8066 023a 00       		.byte	0
 8067 023b 00       		.byte	0
 8068 023c 2F       		.uleb128 0x2f
 8069 023d 898201   		.uleb128 0x4109
 8070 0240 00       		.byte	0
 8071 0241 11       		.uleb128 0x11
ARM GAS  C:\Users\ASUS\AppData\Local\Temp\cczm8cZa.s 			page 173


 8072 0242 01       		.uleb128 0x1
 8073 0243 31       		.uleb128 0x31
 8074 0244 13       		.uleb128 0x13
 8075 0245 00       		.byte	0
 8076 0246 00       		.byte	0
 8077 0247 30       		.uleb128 0x30
 8078 0248 2E       		.uleb128 0x2e
 8079 0249 01       		.byte	0x1
 8080 024a 3F       		.uleb128 0x3f
 8081 024b 19       		.uleb128 0x19
 8082 024c 03       		.uleb128 0x3
 8083 024d 0E       		.uleb128 0xe
 8084 024e 3A       		.uleb128 0x3a
 8085 024f 0B       		.uleb128 0xb
 8086 0250 3B       		.uleb128 0x3b
 8087 0251 0B       		.uleb128 0xb
 8088 0252 27       		.uleb128 0x27
 8089 0253 19       		.uleb128 0x19
 8090 0254 11       		.uleb128 0x11
 8091 0255 01       		.uleb128 0x1
 8092 0256 12       		.uleb128 0x12
 8093 0257 06       		.uleb128 0x6
 8094 0258 40       		.uleb128 0x40
 8095 0259 18       		.uleb128 0x18
 8096 025a 9742     		.uleb128 0x2117
 8097 025c 19       		.uleb128 0x19
 8098 025d 01       		.uleb128 0x1
 8099 025e 13       		.uleb128 0x13
 8100 025f 00       		.byte	0
 8101 0260 00       		.byte	0
 8102 0261 31       		.uleb128 0x31
 8103 0262 898201   		.uleb128 0x4109
 8104 0265 01       		.byte	0x1
 8105 0266 11       		.uleb128 0x11
 8106 0267 01       		.uleb128 0x1
 8107 0268 31       		.uleb128 0x31
 8108 0269 13       		.uleb128 0x13
 8109 026a 00       		.byte	0
 8110 026b 00       		.byte	0
 8111 026c 32       		.uleb128 0x32
 8112 026d 2E       		.uleb128 0x2e
 8113 026e 01       		.byte	0x1
 8114 026f 3F       		.uleb128 0x3f
 8115 0270 19       		.uleb128 0x19
 8116 0271 03       		.uleb128 0x3
 8117 0272 0E       		.uleb128 0xe
 8118 0273 3A       		.uleb128 0x3a
 8119 0274 0B       		.uleb128 0xb
 8120 0275 3B       		.uleb128 0x3b
 8121 0276 0B       		.uleb128 0xb
 8122 0277 27       		.uleb128 0x27
 8123 0278 19       		.uleb128 0x19
 8124 0279 49       		.uleb128 0x49
 8125 027a 13       		.uleb128 0x13
 8126 027b 11       		.uleb128 0x11
 8127 027c 01       		.uleb128 0x1
 8128 027d 12       		.uleb128 0x12
ARM GAS  C:\Users\ASUS\AppData\Local\Temp\cczm8cZa.s 			page 174


 8129 027e 06       		.uleb128 0x6
 8130 027f 40       		.uleb128 0x40
 8131 0280 18       		.uleb128 0x18
 8132 0281 9742     		.uleb128 0x2117
 8133 0283 19       		.uleb128 0x19
 8134 0284 01       		.uleb128 0x1
 8135 0285 13       		.uleb128 0x13
 8136 0286 00       		.byte	0
 8137 0287 00       		.byte	0
 8138 0288 33       		.uleb128 0x33
 8139 0289 05       		.uleb128 0x5
 8140 028a 00       		.byte	0
 8141 028b 03       		.uleb128 0x3
 8142 028c 0E       		.uleb128 0xe
 8143 028d 3A       		.uleb128 0x3a
 8144 028e 0B       		.uleb128 0xb
 8145 028f 3B       		.uleb128 0x3b
 8146 0290 0B       		.uleb128 0xb
 8147 0291 49       		.uleb128 0x49
 8148 0292 13       		.uleb128 0x13
 8149 0293 02       		.uleb128 0x2
 8150 0294 17       		.uleb128 0x17
 8151 0295 00       		.byte	0
 8152 0296 00       		.byte	0
 8153 0297 34       		.uleb128 0x34
 8154 0298 34       		.uleb128 0x34
 8155 0299 00       		.byte	0
 8156 029a 03       		.uleb128 0x3
 8157 029b 0E       		.uleb128 0xe
 8158 029c 3A       		.uleb128 0x3a
 8159 029d 0B       		.uleb128 0xb
 8160 029e 3B       		.uleb128 0x3b
 8161 029f 0B       		.uleb128 0xb
 8162 02a0 49       		.uleb128 0x49
 8163 02a1 13       		.uleb128 0x13
 8164 02a2 02       		.uleb128 0x2
 8165 02a3 17       		.uleb128 0x17
 8166 02a4 00       		.byte	0
 8167 02a5 00       		.byte	0
 8168 02a6 35       		.uleb128 0x35
 8169 02a7 1D       		.uleb128 0x1d
 8170 02a8 01       		.byte	0x1
 8171 02a9 31       		.uleb128 0x31
 8172 02aa 13       		.uleb128 0x13
 8173 02ab 11       		.uleb128 0x11
 8174 02ac 01       		.uleb128 0x1
 8175 02ad 12       		.uleb128 0x12
 8176 02ae 06       		.uleb128 0x6
 8177 02af 58       		.uleb128 0x58
 8178 02b0 0B       		.uleb128 0xb
 8179 02b1 59       		.uleb128 0x59
 8180 02b2 05       		.uleb128 0x5
 8181 02b3 01       		.uleb128 0x1
 8182 02b4 13       		.uleb128 0x13
 8183 02b5 00       		.byte	0
 8184 02b6 00       		.byte	0
 8185 02b7 36       		.uleb128 0x36
ARM GAS  C:\Users\ASUS\AppData\Local\Temp\cczm8cZa.s 			page 175


 8186 02b8 05       		.uleb128 0x5
 8187 02b9 00       		.byte	0
 8188 02ba 31       		.uleb128 0x31
 8189 02bb 13       		.uleb128 0x13
 8190 02bc 02       		.uleb128 0x2
 8191 02bd 17       		.uleb128 0x17
 8192 02be 00       		.byte	0
 8193 02bf 00       		.byte	0
 8194 02c0 37       		.uleb128 0x37
 8195 02c1 2E       		.uleb128 0x2e
 8196 02c2 01       		.byte	0x1
 8197 02c3 3F       		.uleb128 0x3f
 8198 02c4 19       		.uleb128 0x19
 8199 02c5 03       		.uleb128 0x3
 8200 02c6 0E       		.uleb128 0xe
 8201 02c7 3A       		.uleb128 0x3a
 8202 02c8 0B       		.uleb128 0xb
 8203 02c9 3B       		.uleb128 0x3b
 8204 02ca 05       		.uleb128 0x5
 8205 02cb 27       		.uleb128 0x27
 8206 02cc 19       		.uleb128 0x19
 8207 02cd 11       		.uleb128 0x11
 8208 02ce 01       		.uleb128 0x1
 8209 02cf 12       		.uleb128 0x12
 8210 02d0 06       		.uleb128 0x6
 8211 02d1 40       		.uleb128 0x40
 8212 02d2 18       		.uleb128 0x18
 8213 02d3 9742     		.uleb128 0x2117
 8214 02d5 19       		.uleb128 0x19
 8215 02d6 01       		.uleb128 0x1
 8216 02d7 13       		.uleb128 0x13
 8217 02d8 00       		.byte	0
 8218 02d9 00       		.byte	0
 8219 02da 38       		.uleb128 0x38
 8220 02db 05       		.uleb128 0x5
 8221 02dc 00       		.byte	0
 8222 02dd 03       		.uleb128 0x3
 8223 02de 0E       		.uleb128 0xe
 8224 02df 3A       		.uleb128 0x3a
 8225 02e0 0B       		.uleb128 0xb
 8226 02e1 3B       		.uleb128 0x3b
 8227 02e2 05       		.uleb128 0x5
 8228 02e3 49       		.uleb128 0x49
 8229 02e4 13       		.uleb128 0x13
 8230 02e5 02       		.uleb128 0x2
 8231 02e6 18       		.uleb128 0x18
 8232 02e7 00       		.byte	0
 8233 02e8 00       		.byte	0
 8234 02e9 39       		.uleb128 0x39
 8235 02ea 2E       		.uleb128 0x2e
 8236 02eb 00       		.byte	0
 8237 02ec 3F       		.uleb128 0x3f
 8238 02ed 19       		.uleb128 0x19
 8239 02ee 03       		.uleb128 0x3
 8240 02ef 0E       		.uleb128 0xe
 8241 02f0 3A       		.uleb128 0x3a
 8242 02f1 0B       		.uleb128 0xb
ARM GAS  C:\Users\ASUS\AppData\Local\Temp\cczm8cZa.s 			page 176


 8243 02f2 3B       		.uleb128 0x3b
 8244 02f3 05       		.uleb128 0x5
 8245 02f4 27       		.uleb128 0x27
 8246 02f5 19       		.uleb128 0x19
 8247 02f6 11       		.uleb128 0x11
 8248 02f7 01       		.uleb128 0x1
 8249 02f8 12       		.uleb128 0x12
 8250 02f9 06       		.uleb128 0x6
 8251 02fa 40       		.uleb128 0x40
 8252 02fb 18       		.uleb128 0x18
 8253 02fc 9742     		.uleb128 0x2117
 8254 02fe 19       		.uleb128 0x19
 8255 02ff 00       		.byte	0
 8256 0300 00       		.byte	0
 8257 0301 3A       		.uleb128 0x3a
 8258 0302 34       		.uleb128 0x34
 8259 0303 00       		.byte	0
 8260 0304 03       		.uleb128 0x3
 8261 0305 0E       		.uleb128 0xe
 8262 0306 3A       		.uleb128 0x3a
 8263 0307 0B       		.uleb128 0xb
 8264 0308 3B       		.uleb128 0x3b
 8265 0309 0B       		.uleb128 0xb
 8266 030a 49       		.uleb128 0x49
 8267 030b 13       		.uleb128 0x13
 8268 030c 02       		.uleb128 0x2
 8269 030d 18       		.uleb128 0x18
 8270 030e 00       		.byte	0
 8271 030f 00       		.byte	0
 8272 0310 3B       		.uleb128 0x3b
 8273 0311 34       		.uleb128 0x34
 8274 0312 00       		.byte	0
 8275 0313 03       		.uleb128 0x3
 8276 0314 0E       		.uleb128 0xe
 8277 0315 3A       		.uleb128 0x3a
 8278 0316 0B       		.uleb128 0xb
 8279 0317 3B       		.uleb128 0x3b
 8280 0318 0B       		.uleb128 0xb
 8281 0319 49       		.uleb128 0x49
 8282 031a 13       		.uleb128 0x13
 8283 031b 3F       		.uleb128 0x3f
 8284 031c 19       		.uleb128 0x19
 8285 031d 3C       		.uleb128 0x3c
 8286 031e 19       		.uleb128 0x19
 8287 031f 00       		.byte	0
 8288 0320 00       		.byte	0
 8289 0321 3C       		.uleb128 0x3c
 8290 0322 34       		.uleb128 0x34
 8291 0323 00       		.byte	0
 8292 0324 03       		.uleb128 0x3
 8293 0325 0E       		.uleb128 0xe
 8294 0326 3A       		.uleb128 0x3a
 8295 0327 0B       		.uleb128 0xb
 8296 0328 3B       		.uleb128 0x3b
 8297 0329 05       		.uleb128 0x5
 8298 032a 49       		.uleb128 0x49
 8299 032b 13       		.uleb128 0x13
ARM GAS  C:\Users\ASUS\AppData\Local\Temp\cczm8cZa.s 			page 177


 8300 032c 3F       		.uleb128 0x3f
 8301 032d 19       		.uleb128 0x19
 8302 032e 3C       		.uleb128 0x3c
 8303 032f 19       		.uleb128 0x19
 8304 0330 00       		.byte	0
 8305 0331 00       		.byte	0
 8306 0332 3D       		.uleb128 0x3d
 8307 0333 34       		.uleb128 0x34
 8308 0334 00       		.byte	0
 8309 0335 03       		.uleb128 0x3
 8310 0336 0E       		.uleb128 0xe
 8311 0337 3A       		.uleb128 0x3a
 8312 0338 0B       		.uleb128 0xb
 8313 0339 3B       		.uleb128 0x3b
 8314 033a 0B       		.uleb128 0xb
 8315 033b 49       		.uleb128 0x49
 8316 033c 13       		.uleb128 0x13
 8317 033d 3F       		.uleb128 0x3f
 8318 033e 19       		.uleb128 0x19
 8319 033f 02       		.uleb128 0x2
 8320 0340 18       		.uleb128 0x18
 8321 0341 00       		.byte	0
 8322 0342 00       		.byte	0
 8323 0343 3E       		.uleb128 0x3e
 8324 0344 2E       		.uleb128 0x2e
 8325 0345 00       		.byte	0
 8326 0346 3F       		.uleb128 0x3f
 8327 0347 19       		.uleb128 0x19
 8328 0348 3C       		.uleb128 0x3c
 8329 0349 19       		.uleb128 0x19
 8330 034a 6E       		.uleb128 0x6e
 8331 034b 0E       		.uleb128 0xe
 8332 034c 03       		.uleb128 0x3
 8333 034d 0E       		.uleb128 0xe
 8334 034e 3A       		.uleb128 0x3a
 8335 034f 0B       		.uleb128 0xb
 8336 0350 3B       		.uleb128 0x3b
 8337 0351 05       		.uleb128 0x5
 8338 0352 00       		.byte	0
 8339 0353 00       		.byte	0
 8340 0354 3F       		.uleb128 0x3f
 8341 0355 2E       		.uleb128 0x2e
 8342 0356 00       		.byte	0
 8343 0357 3F       		.uleb128 0x3f
 8344 0358 19       		.uleb128 0x19
 8345 0359 3C       		.uleb128 0x3c
 8346 035a 19       		.uleb128 0x19
 8347 035b 6E       		.uleb128 0x6e
 8348 035c 0E       		.uleb128 0xe
 8349 035d 03       		.uleb128 0x3
 8350 035e 0E       		.uleb128 0xe
 8351 035f 3A       		.uleb128 0x3a
 8352 0360 0B       		.uleb128 0xb
 8353 0361 3B       		.uleb128 0x3b
 8354 0362 0B       		.uleb128 0xb
 8355 0363 00       		.byte	0
 8356 0364 00       		.byte	0
ARM GAS  C:\Users\ASUS\AppData\Local\Temp\cczm8cZa.s 			page 178


 8357 0365 40       		.uleb128 0x40
 8358 0366 2E       		.uleb128 0x2e
 8359 0367 00       		.byte	0
 8360 0368 3F       		.uleb128 0x3f
 8361 0369 19       		.uleb128 0x19
 8362 036a 3C       		.uleb128 0x3c
 8363 036b 19       		.uleb128 0x19
 8364 036c 6E       		.uleb128 0x6e
 8365 036d 0E       		.uleb128 0xe
 8366 036e 03       		.uleb128 0x3
 8367 036f 0E       		.uleb128 0xe
 8368 0370 00       		.byte	0
 8369 0371 00       		.byte	0
 8370 0372 00       		.byte	0
 8371              		.section	.debug_loc,"",%progbits
 8372              	.Ldebug_loc0:
 8373              	.LLST0:
 8374 0000 00000000 		.4byte	.LVL0
 8375 0004 16000000 		.4byte	.LVL1
 8376 0008 0100     		.2byte	0x1
 8377 000a 50       		.byte	0x50
 8378 000b 16000000 		.4byte	.LVL1
 8379 000f 94000000 		.4byte	.LVL27
 8380 0013 0400     		.2byte	0x4
 8381 0015 F3       		.byte	0xf3
 8382 0016 01       		.uleb128 0x1
 8383 0017 50       		.byte	0x50
 8384 0018 9F       		.byte	0x9f
 8385 0019 94000000 		.4byte	.LVL27
 8386 001d 98000000 		.4byte	.LVL28
 8387 0021 0100     		.2byte	0x1
 8388 0023 50       		.byte	0x50
 8389 0024 98000000 		.4byte	.LVL28
 8390 0028 A0000000 		.4byte	.LVL30
 8391 002c 0400     		.2byte	0x4
 8392 002e F3       		.byte	0xf3
 8393 002f 01       		.uleb128 0x1
 8394 0030 50       		.byte	0x50
 8395 0031 9F       		.byte	0x9f
 8396 0032 A0000000 		.4byte	.LVL30
 8397 0036 A8000000 		.4byte	.LVL31
 8398 003a 0100     		.2byte	0x1
 8399 003c 50       		.byte	0x50
 8400 003d A8000000 		.4byte	.LVL31
 8401 0041 C4000000 		.4byte	.LFE175
 8402 0045 0400     		.2byte	0x4
 8403 0047 F3       		.byte	0xf3
 8404 0048 01       		.uleb128 0x1
 8405 0049 50       		.byte	0x50
 8406 004a 9F       		.byte	0x9f
 8407 004b 00000000 		.4byte	0
 8408 004f 00000000 		.4byte	0
 8409              	.LLST1:
 8410 0053 00000000 		.4byte	.LVL0
 8411 0057 19000000 		.4byte	.LVL2-1
 8412 005b 0100     		.2byte	0x1
 8413 005d 51       		.byte	0x51
ARM GAS  C:\Users\ASUS\AppData\Local\Temp\cczm8cZa.s 			page 179


 8414 005e 19000000 		.4byte	.LVL2-1
 8415 0062 94000000 		.4byte	.LVL27
 8416 0066 0400     		.2byte	0x4
 8417 0068 F3       		.byte	0xf3
 8418 0069 01       		.uleb128 0x1
 8419 006a 51       		.byte	0x51
 8420 006b 9F       		.byte	0x9f
 8421 006c 94000000 		.4byte	.LVL27
 8422 0070 9B000000 		.4byte	.LVL29-1
 8423 0074 0100     		.2byte	0x1
 8424 0076 51       		.byte	0x51
 8425 0077 9B000000 		.4byte	.LVL29-1
 8426 007b A0000000 		.4byte	.LVL30
 8427 007f 0400     		.2byte	0x4
 8428 0081 F3       		.byte	0xf3
 8429 0082 01       		.uleb128 0x1
 8430 0083 51       		.byte	0x51
 8431 0084 9F       		.byte	0x9f
 8432 0085 A0000000 		.4byte	.LVL30
 8433 0089 A8000000 		.4byte	.LVL31
 8434 008d 0100     		.2byte	0x1
 8435 008f 51       		.byte	0x51
 8436 0090 A8000000 		.4byte	.LVL31
 8437 0094 C4000000 		.4byte	.LFE175
 8438 0098 0400     		.2byte	0x4
 8439 009a F3       		.byte	0xf3
 8440 009b 01       		.uleb128 0x1
 8441 009c 51       		.byte	0x51
 8442 009d 9F       		.byte	0x9f
 8443 009e 00000000 		.4byte	0
 8444 00a2 00000000 		.4byte	0
 8445              	.LLST2:
 8446 00a6 84000000 		.4byte	.LVL25
 8447 00aa 94000000 		.4byte	.LVL27
 8448 00ae 0100     		.2byte	0x1
 8449 00b0 54       		.byte	0x54
 8450 00b1 9C000000 		.4byte	.LVL29
 8451 00b5 A0000000 		.4byte	.LVL30
 8452 00b9 0200     		.2byte	0x2
 8453 00bb 30       		.byte	0x30
 8454 00bc 9F       		.byte	0x9f
 8455 00bd AE000000 		.4byte	.LVL32
 8456 00c1 B0000000 		.4byte	.LVL33
 8457 00c5 0100     		.2byte	0x1
 8458 00c7 54       		.byte	0x54
 8459 00c8 B0000000 		.4byte	.LVL33
 8460 00cc C4000000 		.4byte	.LFE175
 8461 00d0 0100     		.2byte	0x1
 8462 00d2 50       		.byte	0x50
 8463 00d3 00000000 		.4byte	0
 8464 00d7 00000000 		.4byte	0
 8465              	.LLST3:
 8466 00db 3E000000 		.4byte	.LVL8
 8467 00df 48000000 		.4byte	.LVL9
 8468 00e3 0100     		.2byte	0x1
 8469 00e5 50       		.byte	0x50
 8470 00e6 48000000 		.4byte	.LVL9
ARM GAS  C:\Users\ASUS\AppData\Local\Temp\cczm8cZa.s 			page 180


 8471 00ea 5A000000 		.4byte	.LVL11
 8472 00ee 0100     		.2byte	0x1
 8473 00f0 54       		.byte	0x54
 8474 00f1 5C000000 		.4byte	.LVL12
 8475 00f5 5E000000 		.4byte	.LVL13
 8476 00f9 0100     		.2byte	0x1
 8477 00fb 50       		.byte	0x50
 8478 00fc 5E000000 		.4byte	.LVL13
 8479 0100 70000000 		.4byte	.LVL16
 8480 0104 0100     		.2byte	0x1
 8481 0106 54       		.byte	0x54
 8482 0107 72000000 		.4byte	.LVL17
 8483 010b 76000000 		.4byte	.LVL18
 8484 010f 0100     		.2byte	0x1
 8485 0111 50       		.byte	0x50
 8486 0112 76000000 		.4byte	.LVL18
 8487 0116 78000000 		.4byte	.LVL19
 8488 011a 0100     		.2byte	0x1
 8489 011c 54       		.byte	0x54
 8490 011d 7A000000 		.4byte	.LVL20
 8491 0121 7C000000 		.4byte	.LVL21
 8492 0125 0100     		.2byte	0x1
 8493 0127 54       		.byte	0x54
 8494 0128 7E000000 		.4byte	.LVL22
 8495 012c 80000000 		.4byte	.LVL23
 8496 0130 0100     		.2byte	0x1
 8497 0132 54       		.byte	0x54
 8498 0133 82000000 		.4byte	.LVL24
 8499 0137 84000000 		.4byte	.LVL25
 8500 013b 0100     		.2byte	0x1
 8501 013d 54       		.byte	0x54
 8502 013e 00000000 		.4byte	0
 8503 0142 00000000 		.4byte	0
 8504              	.LLST4:
 8505 0146 30000000 		.4byte	.LVL5
 8506 014a 33000000 		.4byte	.LVL6-1
 8507 014e 0100     		.2byte	0x1
 8508 0150 50       		.byte	0x50
 8509 0151 33000000 		.4byte	.LVL6-1
 8510 0155 94000000 		.4byte	.LVL27
 8511 0159 0100     		.2byte	0x1
 8512 015b 55       		.byte	0x55
 8513 015c 00000000 		.4byte	0
 8514 0160 00000000 		.4byte	0
 8515              	.LLST5:
 8516 0164 4C000000 		.4byte	.LVL10
 8517 0168 5C000000 		.4byte	.LVL12
 8518 016c 0100     		.2byte	0x1
 8519 016e 50       		.byte	0x50
 8520 016f 62000000 		.4byte	.LVL14
 8521 0173 6D000000 		.4byte	.LVL15-1
 8522 0177 0100     		.2byte	0x1
 8523 0179 50       		.byte	0x50
 8524 017a 76000000 		.4byte	.LVL18
 8525 017e 84000000 		.4byte	.LVL25
 8526 0182 0100     		.2byte	0x1
 8527 0184 50       		.byte	0x50
ARM GAS  C:\Users\ASUS\AppData\Local\Temp\cczm8cZa.s 			page 181


 8528 0185 00000000 		.4byte	0
 8529 0189 00000000 		.4byte	0
 8530              	.LLST6:
 8531 018d 00000000 		.4byte	.LVL35
 8532 0191 29000000 		.4byte	.LVL37-1
 8533 0195 0100     		.2byte	0x1
 8534 0197 50       		.byte	0x50
 8535 0198 29000000 		.4byte	.LVL37-1
 8536 019c 36000000 		.4byte	.LVL38
 8537 01a0 0400     		.2byte	0x4
 8538 01a2 F3       		.byte	0xf3
 8539 01a3 01       		.uleb128 0x1
 8540 01a4 50       		.byte	0x50
 8541 01a5 9F       		.byte	0x9f
 8542 01a6 36000000 		.4byte	.LVL38
 8543 01aa 38000000 		.4byte	.LVL39
 8544 01ae 0100     		.2byte	0x1
 8545 01b0 50       		.byte	0x50
 8546 01b1 38000000 		.4byte	.LVL39
 8547 01b5 5C000000 		.4byte	.LFE169
 8548 01b9 0400     		.2byte	0x4
 8549 01bb F3       		.byte	0xf3
 8550 01bc 01       		.uleb128 0x1
 8551 01bd 50       		.byte	0x50
 8552 01be 9F       		.byte	0x9f
 8553 01bf 00000000 		.4byte	0
 8554 01c3 00000000 		.4byte	0
 8555              	.LLST7:
 8556 01c7 02000000 		.4byte	.LVL36
 8557 01cb 38000000 		.4byte	.LVL39
 8558 01cf 0200     		.2byte	0x2
 8559 01d1 30       		.byte	0x30
 8560 01d2 9F       		.byte	0x9f
 8561 01d3 38000000 		.4byte	.LVL39
 8562 01d7 5C000000 		.4byte	.LFE169
 8563 01db 0100     		.2byte	0x1
 8564 01dd 50       		.byte	0x50
 8565 01de 00000000 		.4byte	0
 8566 01e2 00000000 		.4byte	0
 8567              	.LLST8:
 8568 01e6 04000000 		.4byte	.LVL40
 8569 01ea 6C000000 		.4byte	.LVL45
 8570 01ee 0200     		.2byte	0x2
 8571 01f0 30       		.byte	0x30
 8572 01f1 9F       		.byte	0x9f
 8573 01f2 6C000000 		.4byte	.LVL45
 8574 01f6 82000000 		.4byte	.LVL46
 8575 01fa 0100     		.2byte	0x1
 8576 01fc 50       		.byte	0x50
 8577 01fd 82000000 		.4byte	.LVL46
 8578 0201 84000000 		.4byte	.LVL47
 8579 0205 0300     		.2byte	0x3
 8580 0207 70       		.byte	0x70
 8581 0208 52       		.sleb128 -46
 8582 0209 9F       		.byte	0x9f
 8583 020a 8E000000 		.4byte	.LVL49
 8584 020e A8000000 		.4byte	.LVL52
ARM GAS  C:\Users\ASUS\AppData\Local\Temp\cczm8cZa.s 			page 182


 8585 0212 0100     		.2byte	0x1
 8586 0214 50       		.byte	0x50
 8587 0215 BA000000 		.4byte	.LVL53
 8588 0219 F0000000 		.4byte	.LFE170
 8589 021d 0100     		.2byte	0x1
 8590 021f 50       		.byte	0x50
 8591 0220 00000000 		.4byte	0
 8592 0224 00000000 		.4byte	0
 8593              	.LLST9:
 8594 0228 9E000000 		.4byte	.LVL50
 8595 022c A2000000 		.4byte	.LVL51
 8596 0230 0200     		.2byte	0x2
 8597 0232 30       		.byte	0x30
 8598 0233 9F       		.byte	0x9f
 8599 0234 00000000 		.4byte	0
 8600 0238 00000000 		.4byte	0
 8601              	.LLST10:
 8602 023c 00000000 		.4byte	.LVL56
 8603 0240 0A000000 		.4byte	.LVL57
 8604 0244 0100     		.2byte	0x1
 8605 0246 50       		.byte	0x50
 8606 0247 0A000000 		.4byte	.LVL57
 8607 024b 0C000000 		.4byte	.LVL58
 8608 024f 0500     		.2byte	0x5
 8609 0251 03       		.byte	0x3
 8610 0252 00000000 		.4byte	Cy_BLE_HostRegisteredCallback
 8611 0256 0C000000 		.4byte	.LVL58
 8612 025a 0E000000 		.4byte	.LVL59
 8613 025e 0100     		.2byte	0x1
 8614 0260 50       		.byte	0x50
 8615 0261 0E000000 		.4byte	.LVL59
 8616 0265 18000000 		.4byte	.LFE173
 8617 0269 0400     		.2byte	0x4
 8618 026b F3       		.byte	0xf3
 8619 026c 01       		.uleb128 0x1
 8620 026d 50       		.byte	0x50
 8621 026e 9F       		.byte	0x9f
 8622 026f 00000000 		.4byte	0
 8623 0273 00000000 		.4byte	0
 8624              	.LLST11:
 8625 0277 00000000 		.4byte	.LVL56
 8626 027b 0E000000 		.4byte	.LVL59
 8627 027f 0200     		.2byte	0x2
 8628 0281 30       		.byte	0x30
 8629 0282 9F       		.byte	0x9f
 8630 0283 0E000000 		.4byte	.LVL59
 8631 0287 18000000 		.4byte	.LFE173
 8632 028b 0100     		.2byte	0x1
 8633 028d 50       		.byte	0x50
 8634 028e 00000000 		.4byte	0
 8635 0292 00000000 		.4byte	0
 8636              		.section	.debug_aranges,"",%progbits
 8637 0000 54000000 		.4byte	0x54
 8638 0004 0200     		.2byte	0x2
 8639 0006 00000000 		.4byte	.Ldebug_info0
 8640 000a 04       		.byte	0x4
 8641 000b 00       		.byte	0
ARM GAS  C:\Users\ASUS\AppData\Local\Temp\cczm8cZa.s 			page 183


 8642 000c 0000     		.2byte	0
 8643 000e 0000     		.2byte	0
 8644 0010 00000000 		.4byte	.LFB175
 8645 0014 C4000000 		.4byte	.LFE175-.LFB175
 8646 0018 00000000 		.4byte	.LFB168
 8647 001c 10000000 		.4byte	.LFE168-.LFB168
 8648 0020 00000000 		.4byte	.LFB169
 8649 0024 5C000000 		.4byte	.LFE169-.LFB169
 8650 0028 00000000 		.4byte	.LFB170
 8651 002c F0000000 		.4byte	.LFE170-.LFB170
 8652 0030 00000000 		.4byte	.LFB171
 8653 0034 08000000 		.4byte	.LFE171-.LFB171
 8654 0038 00000000 		.4byte	.LFB172
 8655 003c 10000000 		.4byte	.LFE172-.LFB172
 8656 0040 00000000 		.4byte	.LFB173
 8657 0044 18000000 		.4byte	.LFE173-.LFB173
 8658 0048 00000000 		.4byte	.LFB174
 8659 004c 0C000000 		.4byte	.LFE174-.LFB174
 8660 0050 00000000 		.4byte	0
 8661 0054 00000000 		.4byte	0
 8662              		.section	.debug_ranges,"",%progbits
 8663              	.Ldebug_ranges0:
 8664 0000 00000000 		.4byte	.LFB175
 8665 0004 C4000000 		.4byte	.LFE175
 8666 0008 00000000 		.4byte	.LFB168
 8667 000c 10000000 		.4byte	.LFE168
 8668 0010 00000000 		.4byte	.LFB169
 8669 0014 5C000000 		.4byte	.LFE169
 8670 0018 00000000 		.4byte	.LFB170
 8671 001c F0000000 		.4byte	.LFE170
 8672 0020 00000000 		.4byte	.LFB171
 8673 0024 08000000 		.4byte	.LFE171
 8674 0028 00000000 		.4byte	.LFB172
 8675 002c 10000000 		.4byte	.LFE172
 8676 0030 00000000 		.4byte	.LFB173
 8677 0034 18000000 		.4byte	.LFE173
 8678 0038 00000000 		.4byte	.LFB174
 8679 003c 0C000000 		.4byte	.LFE174
 8680 0040 00000000 		.4byte	0
 8681 0044 00000000 		.4byte	0
 8682              		.section	.debug_line,"",%progbits
 8683              	.Ldebug_line0:
 8684 0000 53050000 		.section	.debug_str,"MS",%progbits,1
 8684      02003F04 
 8684      00000201 
 8684      FB0E0D00 
 8684      01010101 
 8685              	.LASF394:
 8686 0000 44415441 		.ascii	"DATA_LIST_SENT_UPDATE__STATUS\000"
 8686      5F4C4953 
 8686      545F5345 
 8686      4E545F55 
 8686      50444154 
 8687              	.LASF28:
 8688 001e 6770696F 		.ascii	"gpioBase\000"
 8688      42617365 
 8688      00
ARM GAS  C:\Users\ASUS\AppData\Local\Temp\cczm8cZa.s 			page 184


 8689              	.LASF1:
 8690 0027 6C6F6E67 		.ascii	"long long int\000"
 8690      206C6F6E 
 8690      6720696E 
 8690      7400
 8691              	.LASF629:
 8692 0035 424C454C 		.ascii	"BLELL\000"
 8692      4C00
 8693              	.LASF1119:
 8694 003b 43795F42 		.ascii	"Cy_BLE_UnRegisterAppHostCallback\000"
 8694      4C455F55 
 8694      6E526567 
 8694      69737465 
 8694      72417070 
 8695              	.LASF941:
 8696 005c 63795F73 		.ascii	"cy_stc_ble_gapp_disc_param_t\000"
 8696      74635F62 
 8696      6C655F67 
 8696      6170705F 
 8696      64697363 
 8697              	.LASF842:
 8698 0079 626F6E64 		.ascii	"bondListConfig\000"
 8698      4C697374 
 8698      436F6E66 
 8698      696700
 8699              	.LASF192:
 8700 0088 7363625F 		.ascii	"scb_2_interrupt_IRQn\000"
 8700      325F696E 
 8700      74657272 
 8700      7570745F 
 8700      4952516E 
 8701              	.LASF653:
 8702 009d 63795F65 		.ascii	"cy_en_syspm_callback_type_t\000"
 8702      6E5F7379 
 8702      73706D5F 
 8702      63616C6C 
 8702      6261636B 
 8703              	.LASF282:
 8704 00b9 7564625F 		.ascii	"udb_interrupts_11_IRQn\000"
 8704      696E7465 
 8704      72727570 
 8704      74735F31 
 8704      315F4952 
 8705              	.LASF687:
 8706 00d0 43595F42 		.ascii	"CY_BLE_EVT_GET_PEER_RPA_COMPLETE\000"
 8706      4C455F45 
 8706      56545F47 
 8706      45545F50 
 8706      4545525F 
 8707              	.LASF13:
 8708 00f1 6C6F6E67 		.ascii	"long unsigned int\000"
 8708      20756E73 
 8708      69676E65 
 8708      6420696E 
 8708      7400
 8709              	.LASF194:
 8710 0103 7363625F 		.ascii	"scb_4_interrupt_IRQn\000"
ARM GAS  C:\Users\ASUS\AppData\Local\Temp\cczm8cZa.s 			page 185


 8710      345F696E 
 8710      74657272 
 8710      7570745F 
 8710      4952516E 
 8711              	.LASF56:
 8712 0118 73797350 		.ascii	"sysPmSimoPresent\000"
 8712      6D53696D 
 8712      6F507265 
 8712      73656E74 
 8712      00
 8713              	.LASF857:
 8714 0129 626C6553 		.ascii	"bleStackFlashSize\000"
 8714      7461636B 
 8714      466C6173 
 8714      6853697A 
 8714      6500
 8715              	.LASF885:
 8716 013b 61747449 		.ascii	"attId\000"
 8716      6400
 8717              	.LASF43:
 8718 0141 63707573 		.ascii	"cpussDwChNr\000"
 8718      73447743 
 8718      684E7200 
 8719              	.LASF824:
 8720 014d 646C654E 		.ascii	"dleNumRxBuffer\000"
 8720      756D5278 
 8720      42756666 
 8720      657200
 8721              	.LASF370:
 8722 015c 52455345 		.ascii	"RESERVED10\000"
 8722      52564544 
 8722      313000
 8723              	.LASF375:
 8724 0167 52455345 		.ascii	"RESERVED11\000"
 8724      52564544 
 8724      313100
 8725              	.LASF377:
 8726 0172 52455345 		.ascii	"RESERVED12\000"
 8726      52564544 
 8726      313200
 8727              	.LASF379:
 8728 017d 52455345 		.ascii	"RESERVED13\000"
 8728      52564544 
 8728      313300
 8729              	.LASF381:
 8730 0188 52455345 		.ascii	"RESERVED14\000"
 8730      52564544 
 8730      313400
 8731              	.LASF383:
 8732 0193 52455345 		.ascii	"RESERVED15\000"
 8732      52564544 
 8732      313500
 8733              	.LASF399:
 8734 019e 52455345 		.ascii	"RESERVED16\000"
 8734      52564544 
 8734      313600
 8735              	.LASF401:
ARM GAS  C:\Users\ASUS\AppData\Local\Temp\cczm8cZa.s 			page 186


 8736 01a9 52455345 		.ascii	"RESERVED17\000"
 8736      52564544 
 8736      313700
 8737              	.LASF404:
 8738 01b4 52455345 		.ascii	"RESERVED18\000"
 8738      52564544 
 8738      313800
 8739              	.LASF408:
 8740 01bf 52455345 		.ascii	"RESERVED19\000"
 8740      52564544 
 8740      313900
 8741              	.LASF338:
 8742 01ca 5343414E 		.ascii	"SCAN_NEXT_INSTANT\000"
 8742      5F4E4558 
 8742      545F494E 
 8742      5354414E 
 8742      5400
 8743              	.LASF196:
 8744 01dc 7363625F 		.ascii	"scb_6_interrupt_IRQn\000"
 8744      365F696E 
 8744      74657272 
 8744      7570745F 
 8744      4952516E 
 8745              	.LASF157:
 8746 01f1 696F7373 		.ascii	"ioss_interrupts_gpio_8_IRQn\000"
 8746      5F696E74 
 8746      65727275 
 8746      7074735F 
 8746      6770696F 
 8747              	.LASF258:
 8748 020d 74637077 		.ascii	"tcpwm_1_interrupts_11_IRQn\000"
 8748      6D5F315F 
 8748      696E7465 
 8748      72727570 
 8748      74735F31 
 8749              	.LASF954:
 8750 0228 43595F42 		.ascii	"CY_BLE_STATE_ON\000"
 8750      4C455F53 
 8750      54415445 
 8750      5F4F4E00 
 8751              	.LASF768:
 8752 0238 43595F42 		.ascii	"CY_BLE_EVT_GATTC_HANDLE_VALUE_IND\000"
 8752      4C455F45 
 8752      56545F47 
 8752      41545443 
 8752      5F48414E 
 8753              	.LASF410:
 8754 025a 52455345 		.ascii	"RESERVED20\000"
 8754      52564544 
 8754      323000
 8755              	.LASF412:
 8756 0265 52455345 		.ascii	"RESERVED21\000"
 8756      52564544 
 8756      323100
 8757              	.LASF422:
 8758 0270 52455345 		.ascii	"RESERVED22\000"
 8758      52564544 
ARM GAS  C:\Users\ASUS\AppData\Local\Temp\cczm8cZa.s 			page 187


 8758      323200
 8759              	.LASF428:
 8760 027b 52455345 		.ascii	"RESERVED23\000"
 8760      52564544 
 8760      323300
 8761              	.LASF434:
 8762 0286 52455345 		.ascii	"RESERVED24\000"
 8762      52564544 
 8762      323400
 8763              	.LASF445:
 8764 0291 52455345 		.ascii	"RESERVED25\000"
 8764      52564544 
 8764      323500
 8765              	.LASF454:
 8766 029c 52455345 		.ascii	"RESERVED26\000"
 8766      52564544 
 8766      323600
 8767              	.LASF456:
 8768 02a7 52455345 		.ascii	"RESERVED27\000"
 8768      52564544 
 8768      323700
 8769              	.LASF167:
 8770 02b2 7363625F 		.ascii	"scb_8_interrupt_IRQn\000"
 8770      385F696E 
 8770      74657272 
 8770      7570745F 
 8770      4952516E 
 8771              	.LASF465:
 8772 02c7 52455345 		.ascii	"RESERVED29\000"
 8772      52564544 
 8772      323900
 8773              	.LASF708:
 8774 02d2 43595F42 		.ascii	"CY_BLE_EVT_GET_CLK_CONFIG_COMPLETE\000"
 8774      4C455F45 
 8774      56545F47 
 8774      45545F43 
 8774      4C4B5F43 
 8775              	.LASF315:
 8776 02f5 54585F43 		.ascii	"TX_CTRL\000"
 8776      54524C00 
 8777              	.LASF738:
 8778 02fd 43595F42 		.ascii	"CY_BLE_EVT_GAP_ENHANCE_CONN_COMPLETE\000"
 8778      4C455F45 
 8778      56545F47 
 8778      41505F45 
 8778      4E48414E 
 8779              	.LASF1107:
 8780 0322 6D656D73 		.ascii	"memset\000"
 8780      657400
 8781              	.LASF187:
 8782 0329 63707573 		.ascii	"cpuss_interrupts_ipc_13_IRQn\000"
 8782      735F696E 
 8782      74657272 
 8782      75707473 
 8782      5F697063 
 8783              	.LASF478:
 8784 0346 52455345 		.ascii	"RESERVED30\000"
ARM GAS  C:\Users\ASUS\AppData\Local\Temp\cczm8cZa.s 			page 188


 8784      52564544 
 8784      333000
 8785              	.LASF490:
 8786 0351 52455345 		.ascii	"RESERVED31\000"
 8786      52564544 
 8786      333100
 8787              	.LASF494:
 8788 035c 52455345 		.ascii	"RESERVED32\000"
 8788      52564544 
 8788      333200
 8789              	.LASF496:
 8790 0367 52455345 		.ascii	"RESERVED33\000"
 8790      52564544 
 8790      333300
 8791              	.LASF502:
 8792 0372 52455345 		.ascii	"RESERVED34\000"
 8792      52564544 
 8792      333400
 8793              	.LASF504:
 8794 037d 52455345 		.ascii	"RESERVED35\000"
 8794      52564544 
 8794      333500
 8795              	.LASF506:
 8796 0388 52455345 		.ascii	"RESERVED36\000"
 8796      52564544 
 8796      333600
 8797              	.LASF508:
 8798 0393 52455345 		.ascii	"RESERVED37\000"
 8798      52564544 
 8798      333700
 8799              	.LASF510:
 8800 039e 52455345 		.ascii	"RESERVED38\000"
 8800      52564544 
 8800      333800
 8801              	.LASF512:
 8802 03a9 52455345 		.ascii	"RESERVED39\000"
 8802      52564544 
 8802      333900
 8803              	.LASF678:
 8804 03b4 43595F42 		.ascii	"CY_BLE_EVT_WRITE_AUTH_PAYLOAD_TO_COMPLETE\000"
 8804      4C455F45 
 8804      56545F57 
 8804      52495445 
 8804      5F415554 
 8805              	.LASF403:
 8806 03de 57494E44 		.ascii	"WINDOW_WIDEN_WINOFF\000"
 8806      4F575F57 
 8806      4944454E 
 8806      5F57494E 
 8806      4F464600 
 8807              	.LASF643:
 8808 03f2 43595F53 		.ascii	"CY_SYSPM_CANCELED\000"
 8808      5953504D 
 8808      5F43414E 
 8808      43454C45 
 8808      4400
 8809              	.LASF936:
ARM GAS  C:\Users\ASUS\AppData\Local\Temp\cczm8cZa.s 			page 189


 8810 0404 61647654 		.ascii	"advType\000"
 8810      79706500 
 8811              	.LASF681:
 8812 040c 43595F42 		.ascii	"CY_BLE_EVT_LE_SET_EVENT_MASK_COMPLETE\000"
 8812      4C455F45 
 8812      56545F4C 
 8812      455F5345 
 8812      545F4556 
 8813              	.LASF514:
 8814 0432 52455345 		.ascii	"RESERVED40\000"
 8814      52564544 
 8814      343000
 8815              	.LASF516:
 8816 043d 52455345 		.ascii	"RESERVED41\000"
 8816      52564544 
 8816      343100
 8817              	.LASF521:
 8818 0448 52455345 		.ascii	"RESERVED42\000"
 8818      52564544 
 8818      343200
 8819              	.LASF534:
 8820 0453 52455345 		.ascii	"RESERVED43\000"
 8820      52564544 
 8820      343300
 8821              	.LASF538:
 8822 045e 52455345 		.ascii	"RESERVED44\000"
 8822      52564544 
 8822      343400
 8823              	.LASF540:
 8824 0469 52455345 		.ascii	"RESERVED45\000"
 8824      52564544 
 8824      343500
 8825              	.LASF544:
 8826 0474 52455345 		.ascii	"RESERVED46\000"
 8826      52564544 
 8826      343600
 8827              	.LASF548:
 8828 047f 52455345 		.ascii	"RESERVED47\000"
 8828      52564544 
 8828      343700
 8829              	.LASF552:
 8830 048a 52455345 		.ascii	"RESERVED48\000"
 8830      52564544 
 8830      343800
 8831              	.LASF556:
 8832 0495 52455345 		.ascii	"RESERVED49\000"
 8832      52564544 
 8832      343900
 8833              	.LASF927:
 8834 04a0 63795F73 		.ascii	"cy_stc_ble_gapc_disc_info_t\000"
 8834      74635F62 
 8834      6C655F67 
 8834      6170635F 
 8834      64697363 
 8835              	.LASF977:
 8836 04bc 66617374 		.ascii	"fastAdvIntervalMin\000"
 8836      41647649 
ARM GAS  C:\Users\ASUS\AppData\Local\Temp\cczm8cZa.s 			page 190


 8836      6E746572 
 8836      76616C4D 
 8836      696E00
 8837              	.LASF125:
 8838 04cf 4E766963 		.ascii	"NvicMux10_IRQn\000"
 8838      4D757831 
 8838      305F4952 
 8838      516E00
 8839              	.LASF369:
 8840 04de 57414B45 		.ascii	"WAKEUP_CONFIG\000"
 8840      55505F43 
 8840      4F4E4649 
 8840      4700
 8841              	.LASF560:
 8842 04ec 52455345 		.ascii	"RESERVED50\000"
 8842      52564544 
 8842      353000
 8843              	.LASF563:
 8844 04f7 52455345 		.ascii	"RESERVED51\000"
 8844      52564544 
 8844      353100
 8845              	.LASF567:
 8846 0502 52455345 		.ascii	"RESERVED52\000"
 8846      52564544 
 8846      353200
 8847              	.LASF569:
 8848 050d 52455345 		.ascii	"RESERVED53\000"
 8848      52564544 
 8848      353300
 8849              	.LASF571:
 8850 0518 52455345 		.ascii	"RESERVED54\000"
 8850      52564544 
 8850      353400
 8851              	.LASF573:
 8852 0523 52455345 		.ascii	"RESERVED55\000"
 8852      52564544 
 8852      353500
 8853              	.LASF575:
 8854 052e 52455345 		.ascii	"RESERVED56\000"
 8854      52564544 
 8854      353600
 8855              	.LASF49:
 8856 0539 73727373 		.ascii	"srssNumPll\000"
 8856      4E756D50 
 8856      6C6C00
 8857              	.LASF579:
 8858 0544 52455345 		.ascii	"RESERVED58\000"
 8858      52564544 
 8858      353800
 8859              	.LASF365:
 8860 054f 434F4E4E 		.ascii	"CONN_INTR\000"
 8860      5F494E54 
 8860      5200
 8861              	.LASF1016:
 8862 0559 73657276 		.ascii	"serviceChangedHandle\000"
 8862      69636543 
 8862      68616E67 
ARM GAS  C:\Users\ASUS\AppData\Local\Temp\cczm8cZa.s 			page 191


 8862      65644861 
 8862      6E646C65 
 8863              	.LASF930:
 8864 056e 43595F42 		.ascii	"CY_BLE_GAPP_SCANNABLE_UNDIRECTED_ADV\000"
 8864      4C455F47 
 8864      4150505F 
 8864      5343414E 
 8864      4E41424C 
 8865              	.LASF213:
 8866 0593 63707573 		.ascii	"cpuss_interrupts_dw0_14_IRQn\000"
 8866      735F696E 
 8866      74657272 
 8866      75707473 
 8866      5F647730 
 8867              	.LASF771:
 8868 05b0 43595F42 		.ascii	"CY_BLE_EVT_GATTC_STOP_CMD_COMPLETE\000"
 8868      4C455F45 
 8868      56545F47 
 8868      41545443 
 8868      5F53544F 
 8869              	.LASF73:
 8870 05d3 64775374 		.ascii	"dwStatusChIdxPos\000"
 8870      61747573 
 8870      43684964 
 8870      78506F73 
 8870      00
 8871              	.LASF1039:
 8872 05e4 67617073 		.ascii	"gaps\000"
 8872      00
 8873              	.LASF168:
 8874 05e9 73727373 		.ascii	"srss_interrupt_mcwdt_0_IRQn\000"
 8874      5F696E74 
 8874      65727275 
 8874      70745F6D 
 8874      63776474 
 8875              	.LASF683:
 8876 0605 43595F42 		.ascii	"CY_BLE_EVT_SET_DATA_LENGTH_COMPLETE\000"
 8876      4C455F45 
 8876      56545F53 
 8876      45545F44 
 8876      4154415F 
 8877              	.LASF245:
 8878 0629 74637077 		.ascii	"tcpwm_0_interrupts_6_IRQn\000"
 8878      6D5F305F 
 8878      696E7465 
 8878      72727570 
 8878      74735F36 
 8879              	.LASF421:
 8880 0643 4445565F 		.ascii	"DEV_PUB_ADDR_H\000"
 8880      5055425F 
 8880      41444452 
 8880      5F4800
 8881              	.LASF419:
 8882 0652 4445565F 		.ascii	"DEV_PUB_ADDR_L\000"
 8882      5055425F 
 8882      41444452 
 8882      5F4C00
ARM GAS  C:\Users\ASUS\AppData\Local\Temp\cczm8cZa.s 			page 192


 8883              	.LASF420:
 8884 0661 4445565F 		.ascii	"DEV_PUB_ADDR_M\000"
 8884      5055425F 
 8884      41444452 
 8884      5F4D00
 8885              	.LASF280:
 8886 0670 7564625F 		.ascii	"udb_interrupts_9_IRQn\000"
 8886      696E7465 
 8886      72727570 
 8886      74735F39 
 8886      5F495251 
 8887              	.LASF21:
 8888 0686 75696E74 		.ascii	"uint32_t\000"
 8888      33325F74 
 8888      00
 8889              	.LASF497:
 8890 068f 4C4C5F43 		.ascii	"LL_CONTROL\000"
 8890      4F4E5452 
 8890      4F4C00
 8891              	.LASF1066:
 8892 069a 636F6E66 		.ascii	"config\000"
 8892      696700
 8893              	.LASF1085:
 8894 06a1 63795F62 		.ascii	"cy_ble_connState\000"
 8894      6C655F63 
 8894      6F6E6E53 
 8894      74617465 
 8894      00
 8895              	.LASF1109:
 8896 06b2 43795F42 		.ascii	"Cy_BLE_EnablePrivacyFeature\000"
 8896      4C455F45 
 8896      6E61626C 
 8896      65507269 
 8896      76616379 
 8897              	.LASF295:
 8898 06ce 70617373 		.ascii	"pass_interrupt_dacs_IRQn\000"
 8898      5F696E74 
 8898      65727275 
 8898      70745F64 
 8898      6163735F 
 8899              	.LASF427:
 8900 06e7 434F4E4E 		.ascii	"CONN_CONFIG\000"
 8900      5F434F4E 
 8900      46494700 
 8901              	.LASF91:
 8902 06f3 6770696F 		.ascii	"gpioPrtCfgSioOffset\000"
 8902      50727443 
 8902      66675369 
 8902      6F4F6666 
 8902      73657400 
 8903              	.LASF644:
 8904 0707 43595F53 		.ascii	"CY_SYSPM_FAIL\000"
 8904      5953504D 
 8904      5F464149 
 8904      4C00
 8905              	.LASF1005:
 8906 0715 63795F73 		.ascii	"cy_stc_ble_gatts_att_value_t\000"
ARM GAS  C:\Users\ASUS\AppData\Local\Temp\cczm8cZa.s 			page 193


 8906      74635F62 
 8906      6C655F67 
 8906      61747473 
 8906      5F617474 
 8907              	.LASF707:
 8908 0732 43595F42 		.ascii	"CY_BLE_EVT_SET_TX_PWR_COMPLETE\000"
 8908      4C455F45 
 8908      56545F53 
 8908      45545F54 
 8908      585F5057 
 8909              	.LASF1084:
 8910 0751 63795F62 		.ascii	"cy_ble_connHandle\000"
 8910      6C655F63 
 8910      6F6E6E48 
 8910      616E646C 
 8910      6500
 8911              	.LASF939:
 8912 0763 61647643 		.ascii	"advChannelMap\000"
 8912      68616E6E 
 8912      656C4D61 
 8912      7000
 8913              	.LASF171:
 8914 0771 73727373 		.ascii	"srss_interrupt_IRQn\000"
 8914      5F696E74 
 8914      65727275 
 8914      70745F49 
 8914      52516E00 
 8915              	.LASF390:
 8916 0785 434F4E4E 		.ascii	"CONN_CE_INSTANT\000"
 8916      5F43455F 
 8916      494E5354 
 8916      414E5400 
 8917              	.LASF154:
 8918 0795 696F7373 		.ascii	"ioss_interrupts_gpio_5_IRQn\000"
 8918      5F696E74 
 8918      65727275 
 8918      7074735F 
 8918      6770696F 
 8919              	.LASF22:
 8920 07b1 63707573 		.ascii	"cpussBase\000"
 8920      73426173 
 8920      6500
 8921              	.LASF2:
 8922 07bb 6C6F6E67 		.ascii	"long double\000"
 8922      20646F75 
 8922      626C6500 
 8923              	.LASF717:
 8924 07c7 43595F42 		.ascii	"CY_BLE_EVT_RADIO_VOLTAGE_LEVEL\000"
 8924      4C455F45 
 8924      56545F52 
 8924      4144494F 
 8924      5F564F4C 
 8925              	.LASF733:
 8926 07e6 43595F42 		.ascii	"CY_BLE_EVT_GAPC_SCAN_START_STOP\000"
 8926      4C455F45 
 8926      56545F47 
 8926      4150435F 
ARM GAS  C:\Users\ASUS\AppData\Local\Temp\cczm8cZa.s 			page 194


 8926      5343414E 
 8927              	.LASF238:
 8928 0806 63707573 		.ascii	"cpuss_interrupts_cm4_cti_1_IRQn\000"
 8928      735F696E 
 8928      74657272 
 8928      75707473 
 8928      5F636D34 
 8929              	.LASF937:
 8930 0826 64697265 		.ascii	"directAddrType\000"
 8930      63744164 
 8930      64725479 
 8930      706500
 8931              	.LASF535:
 8932 0835 4D4D4D53 		.ascii	"MMMS_MASTER_CREATE_BT_CAPT\000"
 8932      5F4D4153 
 8932      5445525F 
 8932      43524541 
 8932      54455F42 
 8933              	.LASF123:
 8934 0850 4E766963 		.ascii	"NvicMux8_IRQn\000"
 8934      4D757838 
 8934      5F495251 
 8934      6E00
 8935              	.LASF684:
 8936 085e 43595F42 		.ascii	"CY_BLE_EVT_SET_SUGGESTED_DATA_LENGTH_COMPLETE\000"
 8936      4C455F45 
 8936      56545F53 
 8936      45545F53 
 8936      55474745 
 8937              	.LASF483:
 8938 088c 57494E5F 		.ascii	"WIN_MIN_STEP_SIZE\000"
 8938      4D494E5F 
 8938      53544550 
 8938      5F53495A 
 8938      4500
 8939              	.LASF77:
 8940 089e 70657269 		.ascii	"periTrGrOffset\000"
 8940      54724772 
 8940      4F666673 
 8940      657400
 8941              	.LASF236:
 8942 08ad 63707573 		.ascii	"cpuss_interrupts_cm0_cti_1_IRQn\000"
 8942      735F696E 
 8942      74657272 
 8942      75707473 
 8942      5F636D30 
 8943              	.LASF554:
 8944 08cd 434F4E4E 		.ascii	"CONN_4_DATA_LIST_ACK\000"
 8944      5F345F44 
 8944      4154415F 
 8944      4C495354 
 8944      5F41434B 
 8945              	.LASF79:
 8946 08e2 70657269 		.ascii	"periDivCmdDivSelMsk\000"
 8946      44697643 
 8946      6D644469 
 8946      7653656C 
ARM GAS  C:\Users\ASUS\AppData\Local\Temp\cczm8cZa.s 			page 195


 8946      4D736B00 
 8947              	.LASF922:
 8948 08f6 7363616E 		.ascii	"scanWindow\000"
 8948      57696E64 
 8948      6F7700
 8949              	.LASF1048:
 8950 0901 63795F62 		.ascii	"cy_ble_app_notify_callback_t\000"
 8950      6C655F61 
 8950      70705F6E 
 8950      6F746966 
 8950      795F6361 
 8951              	.LASF677:
 8952 091e 43595F42 		.ascii	"CY_BLE_EVT_HARDWARE_ERROR\000"
 8952      4C455F45 
 8952      56545F48 
 8952      41524457 
 8952      4152455F 
 8953              	.LASF184:
 8954 0938 63707573 		.ascii	"cpuss_interrupts_ipc_10_IRQn\000"
 8954      735F696E 
 8954      74657272 
 8954      75707473 
 8954      5F697063 
 8955              	.LASF67:
 8956 0955 666C6173 		.ascii	"flashCtlMainWs3Freq\000"
 8956      6843746C 
 8956      4D61696E 
 8956      57733346 
 8956      72657100 
 8957              	.LASF542:
 8958 0969 434F4E4E 		.ascii	"CONN_1_DATA_LIST_ACK\000"
 8958      5F315F44 
 8958      4154415F 
 8958      4C495354 
 8958      5F41434B 
 8959              	.LASF354:
 8960 097e 574C5F45 		.ascii	"WL_ENABLE\000"
 8960      4E41424C 
 8960      4500
 8961              	.LASF1103:
 8962 0988 43795F53 		.ascii	"Cy_SysPm_UnregisterCallback\000"
 8962      7973506D 
 8962      5F556E72 
 8962      65676973 
 8962      74657243 
 8963              	.LASF743:
 8964 09a4 43595F42 		.ascii	"CY_BLE_EVT_GAP_RESOLVE_DEVICE_COMPLETE\000"
 8964      4C455F45 
 8964      56545F47 
 8964      41505F52 
 8964      45534F4C 
 8965              	.LASF561:
 8966 09cb 434F4E4E 		.ascii	"CONN_PARAM_NEXT_SUP_TO\000"
 8966      5F504152 
 8966      414D5F4E 
 8966      4558545F 
 8966      5355505F 
ARM GAS  C:\Users\ASUS\AppData\Local\Temp\cczm8cZa.s 			page 196


 8967              	.LASF423:
 8968 09e2 4F464653 		.ascii	"OFFSET_TO_FIRST_INSTANT\000"
 8968      45545F54 
 8968      4F5F4649 
 8968      5253545F 
 8968      494E5354 
 8969              	.LASF935:
 8970 09fa 61647649 		.ascii	"advIntvMax\000"
 8970      6E74764D 
 8970      617800
 8971              	.LASF545:
 8972 0a05 434F4E4E 		.ascii	"CONN_2_DATA_LIST_SENT\000"
 8972      5F325F44 
 8972      4154415F 
 8972      4C495354 
 8972      5F53454E 
 8973              	.LASF792:
 8974 0a1b 43595F42 		.ascii	"CY_BLE_ERROR_INSUFFICIENT_RESOURCES\000"
 8974      4C455F45 
 8974      52524F52 
 8974      5F494E53 
 8974      55464649 
 8975              	.LASF695:
 8976 0a3f 43595F42 		.ascii	"CY_BLE_EVT_REMOVE_DEVICE_FROM_WHITE_LIST_COMPLETE\000"
 8976      4C455F45 
 8976      56545F52 
 8976      454D4F56 
 8976      455F4445 
 8977              	.LASF979:
 8978 0a71 66617374 		.ascii	"fastAdvTimeOut\000"
 8978      41647654 
 8978      696D654F 
 8978      757400
 8979              	.LASF254:
 8980 0a80 74637077 		.ascii	"tcpwm_1_interrupts_7_IRQn\000"
 8980      6D5F315F 
 8980      696E7465 
 8980      72727570 
 8980      74735F37 
 8981              	.LASF611:
 8982 0a9a 49565F53 		.ascii	"IV_SLAVE0\000"
 8982      4C415645 
 8982      3000
 8983              	.LASF34:
 8984 0aa4 64775665 		.ascii	"dwVersion\000"
 8984      7273696F 
 8984      6E00
 8985              	.LASF291:
 8986 0aae 736D6966 		.ascii	"smif_interrupt_IRQn\000"
 8986      5F696E74 
 8986      65727275 
 8986      70745F49 
 8986      52516E00 
 8987              	.LASF324:
 8988 0ac2 5243424C 		.ascii	"RCBLL\000"
 8988      4C00
 8989              	.LASF297:
ARM GAS  C:\Users\ASUS\AppData\Local\Temp\cczm8cZa.s 			page 197


 8990 0ac8 63795F65 		.ascii	"cy_en_intr_t\000"
 8990      6E5F696E 
 8990      74725F74 
 8990      00
 8991              	.LASF553:
 8992 0ad5 434F4E4E 		.ascii	"CONN_4_DATA_LIST_SENT\000"
 8992      5F345F44 
 8992      4154415F 
 8992      4C495354 
 8992      5F53454E 
 8993              	.LASF42:
 8994 0aeb 63707573 		.ascii	"cpussIpcIrqNr\000"
 8994      73497063 
 8994      4972714E 
 8994      7200
 8995              	.LASF674:
 8996 0af9 43595F42 		.ascii	"CY_BLE_EVT_MEMORY_REQUEST\000"
 8996      4C455F45 
 8996      56545F4D 
 8996      454D4F52 
 8996      595F5245 
 8997              	.LASF965:
 8998 0b13 43595F42 		.ascii	"CY_BLE_CONN_STATE_CLIENT_INCL_DISCOVERING\000"
 8998      4C455F43 
 8998      4F4E4E5F 
 8998      53544154 
 8998      455F434C 
 8999              	.LASF1089:
 9000 0b3d 43795F42 		.ascii	"Cy_BLE_ApplCallback\000"
 9000      4C455F41 
 9000      70706C43 
 9000      616C6C62 
 9000      61636B00 
 9001              	.LASF907:
 9002 0b51 43595F42 		.ascii	"CY_BLE_GAP_AUTH_ERROR_BR_EDR_PAIRING_IN_PROGRESS\000"
 9002      4C455F47 
 9002      41505F41 
 9002      5554485F 
 9002      4552524F 
 9003              	.LASF992:
 9004 0b82 67617063 		.ascii	"gapcConnectionIntervalMin\000"
 9004      436F6E6E 
 9004      65637469 
 9004      6F6E496E 
 9004      74657276 
 9005              	.LASF97:
 9006 0b9c 63707573 		.ascii	"cpussTrimRamCtlOffset\000"
 9006      73547269 
 9006      6D52616D 
 9006      43746C4F 
 9006      66667365 
 9007              	.LASF1063:
 9008 0bb2 72657449 		.ascii	"retIsControllerActive\000"
 9008      73436F6E 
 9008      74726F6C 
 9008      6C657241 
 9008      63746976 
ARM GAS  C:\Users\ASUS\AppData\Local\Temp\cczm8cZa.s 			page 198


 9009              	.LASF210:
 9010 0bc8 63707573 		.ascii	"cpuss_interrupts_dw0_11_IRQn\000"
 9010      735F696E 
 9010      74657272 
 9010      75707473 
 9010      5F647730 
 9011              	.LASF949:
 9012 0be5 61647650 		.ascii	"advParam\000"
 9012      6172616D 
 9012      00
 9013              	.LASF1070:
 9014 0bee 73746163 		.ascii	"stackInitParam\000"
 9014      6B496E69 
 9014      74506172 
 9014      616D00
 9015              	.LASF597:
 9016 0bfd 4D495343 		.ascii	"MISC_EN_CTRL\000"
 9016      5F454E5F 
 9016      4354524C 
 9016      00
 9017              	.LASF307:
 9018 0c0a 52414449 		.ascii	"RADIO_REG4_ADDR\000"
 9018      4F5F5245 
 9018      47345F41 
 9018      44445200 
 9019              	.LASF517:
 9020 0c1a 4E495F54 		.ascii	"NI_TIMER\000"
 9020      494D4552 
 9020      00
 9021              	.LASF662:
 9022 0c23 43795F53 		.ascii	"Cy_SysPmCallback\000"
 9022      7973506D 
 9022      43616C6C 
 9022      6261636B 
 9022      00
 9023              	.LASF341:
 9024 0c34 494E4954 		.ascii	"INIT_PARAM\000"
 9024      5F504152 
 9024      414D00
 9025              	.LASF507:
 9026 0c3f 434F4E4E 		.ascii	"CONN_TXMEM_BASE_ADDR_DLE\000"
 9026      5F54584D 
 9026      454D5F42 
 9026      4153455F 
 9026      41444452 
 9027              	.LASF904:
 9028 0c58 43595F42 		.ascii	"CY_BLE_GAP_AUTH_ERROR_INVALID_PARAMETERS\000"
 9028      4C455F47 
 9028      41505F41 
 9028      5554485F 
 9028      4552524F 
 9029              	.LASF817:
 9030 0c81 63795F65 		.ascii	"cy_en_ble_api_result_t\000"
 9030      6E5F626C 
 9030      655F6170 
 9030      695F7265 
 9030      73756C74 
ARM GAS  C:\Users\ASUS\AppData\Local\Temp\cczm8cZa.s 			page 199


 9031              	.LASF520:
 9032 0c98 4E495F41 		.ascii	"NI_ABORT\000"
 9032      424F5254 
 9032      00
 9033              	.LASF242:
 9034 0ca1 74637077 		.ascii	"tcpwm_0_interrupts_3_IRQn\000"
 9034      6D5F305F 
 9034      696E7465 
 9034      72727570 
 9034      74735F33 
 9035              	.LASF926:
 9036 0cbb 66696C74 		.ascii	"filterDuplicates\000"
 9036      65724475 
 9036      706C6963 
 9036      61746573 
 9036      00
 9037              	.LASF505:
 9038 0ccc 434F4E4E 		.ascii	"CONN_RXMEM_BASE_ADDR_DLE\000"
 9038      5F52584D 
 9038      454D5F42 
 9038      4153455F 
 9038      41444452 
 9039              	.LASF525:
 9040 0ce5 42545F53 		.ascii	"BT_SLOT_CAPT_STATUS\000"
 9040      4C4F545F 
 9040      43415054 
 9040      5F535441 
 9040      54555300 
 9041              	.LASF1078:
 9042 0cf9 626C6544 		.ascii	"bleDeepSleepCallbackParams\000"
 9042      65657053 
 9042      6C656570 
 9042      43616C6C 
 9042      6261636B 
 9043              	.LASF1117:
 9044 0d14 43795F42 		.ascii	"Cy_BLE_SetAdvertisementState\000"
 9044      4C455F53 
 9044      65744164 
 9044      76657274 
 9044      6973656D 
 9045              	.LASF277:
 9046 0d31 7564625F 		.ascii	"udb_interrupts_6_IRQn\000"
 9046      696E7465 
 9046      72727570 
 9046      74735F36 
 9046      5F495251 
 9047              	.LASF1098:
 9048 0d47 43795F42 		.ascii	"Cy_BLE_IsControllerActive\000"
 9048      4C455F49 
 9048      73436F6E 
 9048      74726F6C 
 9048      6C657241 
 9049              	.LASF896:
 9050 0d61 43595F42 		.ascii	"CY_BLE_GAP_AUTH_ERROR_OOB_DATA_NOT_AVAILABLE\000"
 9050      4C455F47 
 9050      41505F41 
 9050      5554485F 
ARM GAS  C:\Users\ASUS\AppData\Local\Temp\cczm8cZa.s 			page 200


 9050      4552524F 
 9051              	.LASF448:
 9052 0d8e 50454552 		.ascii	"PEER_ADDR_INIT_H\000"
 9052      5F414444 
 9052      525F494E 
 9052      49545F48 
 9052      00
 9053              	.LASF446:
 9054 0d9f 50454552 		.ascii	"PEER_ADDR_INIT_L\000"
 9054      5F414444 
 9054      525F494E 
 9054      49545F4C 
 9054      00
 9055              	.LASF447:
 9056 0db0 50454552 		.ascii	"PEER_ADDR_INIT_M\000"
 9056      5F414444 
 9056      525F494E 
 9056      49545F4D 
 9056      00
 9057              	.LASF879:
 9058 0dc1 43595F42 		.ascii	"CY_BLE_BLESS_STATE_STOPPED\000"
 9058      4C455F42 
 9058      4C455353 
 9058      5F535441 
 9058      54455F53 
 9059              	.LASF223:
 9060 0ddc 63707573 		.ascii	"cpuss_interrupts_dw1_8_IRQn\000"
 9060      735F696E 
 9060      74657272 
 9060      75707473 
 9060      5F647731 
 9061              	.LASF747:
 9062 0df8 43595F42 		.ascii	"CY_BLE_EVT_GAPP_UPDATE_ADV_SCAN_DATA_COMPLETE\000"
 9062      4C455F45 
 9062      56545F47 
 9062      4150505F 
 9062      55504441 
 9063              	.LASF647:
 9064 0e26 43595F53 		.ascii	"CY_SYSPM_WAIT_FOR_EVENT\000"
 9064      5953504D 
 9064      5F574149 
 9064      545F464F 
 9064      525F4556 
 9065              	.LASF925:
 9066 0e3e 7363616E 		.ascii	"scanTo\000"
 9066      546F00
 9067              	.LASF865:
 9068 0e45 43595F42 		.ascii	"CY_BLE_LL_PWR_LVL_NEG_12_DBM\000"
 9068      4C455F4C 
 9068      4C5F5057 
 9068      525F4C56 
 9068      4C5F4E45 
 9069              	.LASF732:
 9070 0e62 43595F42 		.ascii	"CY_BLE_EVT_GAP_CONNECTION_UPDATE_COMPLETE\000"
 9070      4C455F45 
 9070      56545F47 
 9070      41505F43 
ARM GAS  C:\Users\ASUS\AppData\Local\Temp\cczm8cZa.s 			page 201


 9070      4F4E4E45 
 9071              	.LASF429:
 9072 0e8c 434F4E4E 		.ascii	"CONN_PARAM1\000"
 9072      5F504152 
 9072      414D3100 
 9073              	.LASF430:
 9074 0e98 434F4E4E 		.ascii	"CONN_PARAM2\000"
 9074      5F504152 
 9074      414D3200 
 9075              	.LASF911:
 9076 0ea4 63795F65 		.ascii	"cy_en_ble_gap_auth_failed_reason_t\000"
 9076      6E5F626C 
 9076      655F6761 
 9076      705F6175 
 9076      74685F66 
 9077              	.LASF1043:
 9078 0ec7 70617261 		.ascii	"params\000"
 9078      6D7300
 9079              	.LASF1096:
 9080 0ece 43795F53 		.ascii	"Cy_SysLib_EnterCriticalSection\000"
 9080      79734C69 
 9080      625F456E 
 9080      74657243 
 9080      72697469 
 9081              	.LASF228:
 9082 0eed 63707573 		.ascii	"cpuss_interrupts_dw1_13_IRQn\000"
 9082      735F696E 
 9082      74657272 
 9082      75707473 
 9082      5F647731 
 9083              	.LASF142:
 9084 0f0a 4E766963 		.ascii	"NvicMux27_IRQn\000"
 9084      4D757832 
 9084      375F4952 
 9084      516E00
 9085              	.LASF895:
 9086 0f19 43595F42 		.ascii	"CY_BLE_GAP_AUTH_ERROR_PASSKEY_ENTRY_FAILED\000"
 9086      4C455F47 
 9086      41505F41 
 9086      5554485F 
 9086      4552524F 
 9087              	.LASF151:
 9088 0f44 696F7373 		.ascii	"ioss_interrupts_gpio_2_IRQn\000"
 9088      5F696E74 
 9088      65727275 
 9088      7074735F 
 9088      6770696F 
 9089              	.LASF855:
 9090 0f60 746F7461 		.ascii	"totalDataBufferPools\000"
 9090      6C446174 
 9090      61427566 
 9090      66657250 
 9090      6F6F6C73 
 9091              	.LASF912:
 9092 0f75 63795F73 		.ascii	"cy_stc_ble_gap_bd_addr_t\000"
 9092      74635F62 
 9092      6C655F67 
ARM GAS  C:\Users\ASUS\AppData\Local\Temp\cczm8cZa.s 			page 202


 9092      61705F62 
 9092      645F6164 
 9093              	.LASF686:
 9094 0f8e 43595F42 		.ascii	"CY_BLE_EVT_DATA_LENGTH_CHANGE\000"
 9094      4C455F45 
 9094      56545F44 
 9094      4154415F 
 9094      4C454E47 
 9095              	.LASF120:
 9096 0fac 4E766963 		.ascii	"NvicMux5_IRQn\000"
 9096      4D757835 
 9096      5F495251 
 9096      6E00
 9097              	.LASF826:
 9098 0fba 6C326361 		.ascii	"l2capBufferPerConn\000"
 9098      70427566 
 9098      66657250 
 9098      6572436F 
 9098      6E6E00
 9099              	.LASF802:
 9100 0fcd 43595F42 		.ascii	"CY_BLE_ERROR_L2CAP_PSM_NOT_REGISTERED\000"
 9100      4C455F45 
 9100      52524F52 
 9100      5F4C3243 
 9100      41505F50 
 9101              	.LASF762:
 9102 0ff3 43595F42 		.ascii	"CY_BLE_EVT_GATTC_WRITE_RSP\000"
 9102      4C455F45 
 9102      56545F47 
 9102      41545443 
 9102      5F575249 
 9103              	.LASF834:
 9104 100e 6C6F6275 		.ascii	"lobuffTable\000"
 9104      66665461 
 9104      626C6500 
 9105              	.LASF774:
 9106 101a 43595F42 		.ascii	"CY_BLE_EVT_L2CAP_CONN_PARAM_UPDATE_REQ\000"
 9106      4C455F45 
 9106      56545F4C 
 9106      32434150 
 9106      5F434F4E 
 9107              	.LASF931:
 9108 1041 43595F42 		.ascii	"CY_BLE_GAPP_NON_CONNECTABLE_UNDIRECTED_ADV\000"
 9108      4C455F47 
 9108      4150505F 
 9108      4E4F4E5F 
 9108      434F4E4E 
 9109              	.LASF620:
 9110 106c 454E435F 		.ascii	"ENC_MEM_BASE_ADDR\000"
 9110      4D454D5F 
 9110      42415345 
 9110      5F414444 
 9110      5200
 9111              	.LASF292:
 9112 107e 7573625F 		.ascii	"usb_interrupt_hi_IRQn\000"
 9112      696E7465 
 9112      72727570 
ARM GAS  C:\Users\ASUS\AppData\Local\Temp\cczm8cZa.s 			page 203


 9112      745F6869 
 9112      5F495251 
 9113              	.LASF114:
 9114 1094 53797354 		.ascii	"SysTick_IRQn\000"
 9114      69636B5F 
 9114      4952516E 
 9114      00
 9115              	.LASF1087:
 9116 10a1 63795F62 		.ascii	"cy_ble_peerBonding\000"
 9116      6C655F70 
 9116      65657242 
 9116      6F6E6469 
 9116      6E6700
 9117              	.LASF960:
 9118 10b4 63795F65 		.ascii	"cy_en_ble_adv_state_t\000"
 9118      6E5F626C 
 9118      655F6164 
 9118      765F7374 
 9118      6174655F 
 9119              	.LASF622:
 9120 10ca 5452494D 		.ascii	"TRIM_LDO_1\000"
 9120      5F4C444F 
 9120      5F3100
 9121              	.LASF1028:
 9122 10d5 73656375 		.ascii	"securityIoCapability\000"
 9122      72697479 
 9122      496F4361 
 9122      70616269 
 9122      6C697479 
 9123              	.LASF99:
 9124 10ea 63707573 		.ascii	"cpussSysTickCtlOffset\000"
 9124      73537973 
 9124      5469636B 
 9124      43746C4F 
 9124      66667365 
 9125              	.LASF479:
 9126 1100 5044555F 		.ascii	"PDU_RESP_TIMER\000"
 9126      52455350 
 9126      5F54494D 
 9126      455200
 9127              	.LASF728:
 9128 110f 43595F42 		.ascii	"CY_BLE_EVT_GAPP_ADVERTISEMENT_START_STOP\000"
 9128      4C455F45 
 9128      56545F47 
 9128      4150505F 
 9128      41445645 
 9129              	.LASF948:
 9130 1138 64697363 		.ascii	"discMode\000"
 9130      4D6F6465 
 9130      00
 9131              	.LASF161:
 9132 1141 696F7373 		.ascii	"ioss_interrupts_gpio_12_IRQn\000"
 9132      5F696E74 
 9132      65727275 
 9132      7074735F 
 9132      6770696F 
 9133              	.LASF1097:
ARM GAS  C:\Users\ASUS\AppData\Local\Temp\cczm8cZa.s 			page 204


 9134 115e 43795F42 		.ascii	"Cy_BLE_StackGetBleSsState\000"
 9134      4C455F53 
 9134      7461636B 
 9134      47657442 
 9134      6C655373 
 9135              	.LASF208:
 9136 1178 63707573 		.ascii	"cpuss_interrupts_dw0_9_IRQn\000"
 9136      735F696E 
 9136      74657272 
 9136      75707473 
 9136      5F647730 
 9137              	.LASF928:
 9138 1194 43595F42 		.ascii	"CY_BLE_GAPP_CONNECTABLE_UNDIRECTED_ADV\000"
 9138      4C455F47 
 9138      4150505F 
 9138      434F4E4E 
 9138      45435441 
 9139              	.LASF913:
 9140 11bb 73656375 		.ascii	"security\000"
 9140      72697479 
 9140      00
 9141              	.LASF975:
 9142 11c4 7265736F 		.ascii	"resolvablePrivateAddressOnly\000"
 9142      6C766162 
 9142      6C655072 
 9142      69766174 
 9142      65416464 
 9143              	.LASF689:
 9144 11e1 43595F42 		.ascii	"CY_BLE_EVT_SET_RPA_TO_COMPLETE\000"
 9144      4C455F45 
 9144      56545F53 
 9144      45545F52 
 9144      50415F54 
 9145              	.LASF304:
 9146 1200 52414449 		.ascii	"RADIO_REG1_ADDR\000"
 9146      4F5F5245 
 9146      47315F41 
 9146      44445200 
 9147              	.LASF146:
 9148 1210 4E766963 		.ascii	"NvicMux31_IRQn\000"
 9148      4D757833 
 9148      315F4952 
 9148      516E00
 9149              	.LASF1055:
 9150 121f 43595F49 		.ascii	"CY_IPC_SEMA_LOCKED\000"
 9150      50435F53 
 9150      454D415F 
 9150      4C4F434B 
 9150      454400
 9151              	.LASF719:
 9152 1232 43595F42 		.ascii	"CY_BLE_EVT_SET_EVENT_MASK_COMPLETE\000"
 9152      4C455F45 
 9152      56545F53 
 9152      45545F45 
 9152      56454E54 
 9153              	.LASF991:
 9154 1255 736C6F77 		.ascii	"slowScanTimeOut\000"
ARM GAS  C:\Users\ASUS\AppData\Local\Temp\cczm8cZa.s 			page 205


 9154      5363616E 
 9154      54696D65 
 9154      4F757400 
 9155              	.LASF693:
 9156 1265 43595F42 		.ascii	"CY_BLE_EVT_REMOVE_DEVICE_FROM_RPA_LIST_COMPLETE\000"
 9156      4C455F45 
 9156      56545F52 
 9156      454D4F56 
 9156      455F4445 
 9157              	.LASF239:
 9158 1295 74637077 		.ascii	"tcpwm_0_interrupts_0_IRQn\000"
 9158      6D5F305F 
 9158      696E7465 
 9158      72727570 
 9158      74735F30 
 9159              	.LASF902:
 9160 12af 43595F42 		.ascii	"CY_BLE_GAP_AUTH_ERROR_UNSPECIFIED_REASON\000"
 9160      4C455F47 
 9160      41505F41 
 9160      5554485F 
 9160      4552524F 
 9161              	.LASF818:
 9162 12d8 63795F62 		.ascii	"cy_ble_app_ev_cb_t\000"
 9162      6C655F61 
 9162      70705F65 
 9162      765F6362 
 9162      5F7400
 9163              	.LASF795:
 9164 12eb 43595F42 		.ascii	"CY_BLE_ERROR_NO_DEVICE_ENTITY\000"
 9164      4C455F45 
 9164      52524F52 
 9164      5F4E4F5F 
 9164      44455649 
 9165              	.LASF38:
 9166 1309 69706356 		.ascii	"ipcVersion\000"
 9166      65727369 
 9166      6F6E00
 9167              	.LASF81:
 9168 1314 70657269 		.ascii	"periDivCmdPaDivSelPos\000"
 9168      44697643 
 9168      6D645061 
 9168      44697653 
 9168      656C506F 
 9169              	.LASF333:
 9170 132a 5343414E 		.ascii	"SCAN_INTERVAL\000"
 9170      5F494E54 
 9170      45525641 
 9170      4C00
 9171              	.LASF39:
 9172 1338 70657269 		.ascii	"periVersion\000"
 9172      56657273 
 9172      696F6E00 
 9173              	.LASF5:
 9174 1344 5F5F7569 		.ascii	"__uint8_t\000"
 9174      6E74385F 
 9174      7400
 9175              	.LASF415:
ARM GAS  C:\Users\ASUS\AppData\Local\Temp\cczm8cZa.s 			page 206


 9176 134e 4144565F 		.ascii	"ADV_CH_TX_POWER_LVL_LS\000"
 9176      43485F54 
 9176      585F504F 
 9176      5745525F 
 9176      4C564C5F 
 9177              	.LASF359:
 9178 1365 44415441 		.ascii	"DATA_CHANNELS_H0\000"
 9178      5F434841 
 9178      4E4E454C 
 9178      535F4830 
 9178      00
 9179              	.LASF363:
 9180 1376 44415441 		.ascii	"DATA_CHANNELS_H1\000"
 9180      5F434841 
 9180      4E4E454C 
 9180      535F4831 
 9180      00
 9181              	.LASF274:
 9182 1387 7564625F 		.ascii	"udb_interrupts_3_IRQn\000"
 9182      696E7465 
 9182      72727570 
 9182      74735F33 
 9182      5F495251 
 9183              	.LASF237:
 9184 139d 63707573 		.ascii	"cpuss_interrupts_cm4_cti_0_IRQn\000"
 9184      735F696E 
 9184      74657272 
 9184      75707473 
 9184      5F636D34 
 9185              	.LASF347:
 9186 13bd 44455649 		.ascii	"DEVICE_RAND_ADDR_H\000"
 9186      43455F52 
 9186      414E445F 
 9186      41444452 
 9186      5F4800
 9187              	.LASF527:
 9188 13d0 55535F4F 		.ascii	"US_OFFSET_STATUS\000"
 9188      46465345 
 9188      545F5354 
 9188      41545553 
 9188      00
 9189              	.LASF345:
 9190 13e1 44455649 		.ascii	"DEVICE_RAND_ADDR_L\000"
 9190      43455F52 
 9190      414E445F 
 9190      41444452 
 9190      5F4C00
 9191              	.LASF346:
 9192 13f4 44455649 		.ascii	"DEVICE_RAND_ADDR_M\000"
 9192      43455F52 
 9192      414E445F 
 9192      41444452 
 9192      5F4D00
 9193              	.LASF220:
 9194 1407 63707573 		.ascii	"cpuss_interrupts_dw1_5_IRQn\000"
 9194      735F696E 
 9194      74657272 
ARM GAS  C:\Users\ASUS\AppData\Local\Temp\cczm8cZa.s 			page 207


 9194      75707473 
 9194      5F647731 
 9195              	.LASF640:
 9196 1423 43595F53 		.ascii	"CY_SYSPM_BAD_PARAM\000"
 9196      5953504D 
 9196      5F424144 
 9196      5F504152 
 9196      414D00
 9197              	.LASF251:
 9198 1436 74637077 		.ascii	"tcpwm_1_interrupts_4_IRQn\000"
 9198      6D5F315F 
 9198      696E7465 
 9198      72727570 
 9198      74735F34 
 9199              	.LASF737:
 9200 1450 43595F42 		.ascii	"CY_BLE_EVT_GAP_OOB_GENERATED_NOTIFICATION\000"
 9200      4C455F45 
 9200      56545F47 
 9200      41505F4F 
 9200      4F425F47 
 9201              	.LASF416:
 9202 147a 4144565F 		.ascii	"ADV_CH_TX_POWER_LVL_MS\000"
 9202      43485F54 
 9202      585F504F 
 9202      5745525F 
 9202      4C564C5F 
 9203              	.LASF1111:
 9204 1491 43795F42 		.ascii	"Cy_BLE_StackInit\000"
 9204      4C455F53 
 9204      7461636B 
 9204      496E6974 
 9204      00
 9205              	.LASF265:
 9206 14a2 74637077 		.ascii	"tcpwm_1_interrupts_18_IRQn\000"
 9206      6D5F315F 
 9206      696E7465 
 9206      72727570 
 9206      74735F31 
 9207              	.LASF863:
 9208 14bd 43595F42 		.ascii	"CY_BLE_LL_PWR_LVL_NEG_20_DBM\000"
 9208      4C455F4C 
 9208      4C5F5057 
 9208      525F4C56 
 9208      4C5F4E45 
 9209              	.LASF1047:
 9210 14da 63795F73 		.ascii	"cy_stc_ble_config_t\000"
 9210      74635F62 
 9210      6C655F63 
 9210      6F6E6669 
 9210      675F7400 
 9211              	.LASF225:
 9212 14ee 63707573 		.ascii	"cpuss_interrupts_dw1_10_IRQn\000"
 9212      735F696E 
 9212      74657272 
 9212      75707473 
 9212      5F647731 
 9213              	.LASF670:
ARM GAS  C:\Users\ASUS\AppData\Local\Temp\cczm8cZa.s 			page 208


 9214 150b 43595F42 		.ascii	"CY_BLE_EVT_INVALID\000"
 9214      4C455F45 
 9214      56545F49 
 9214      4E56414C 
 9214      494400
 9215              	.LASF139:
 9216 151e 4E766963 		.ascii	"NvicMux24_IRQn\000"
 9216      4D757832 
 9216      345F4952 
 9216      516E00
 9217              	.LASF934:
 9218 152d 61647649 		.ascii	"advIntvMin\000"
 9218      6E74764D 
 9218      696E00
 9219              	.LASF117:
 9220 1538 4E766963 		.ascii	"NvicMux2_IRQn\000"
 9220      4D757832 
 9220      5F495251 
 9220      6E00
 9221              	.LASF1025:
 9222 1546 63795F73 		.ascii	"cy_stc_ble_flash_storage_t\000"
 9222      74635F62 
 9222      6C655F66 
 9222      6C617368 
 9222      5F73746F 
 9223              	.LASF1044:
 9224 1561 63616C6C 		.ascii	"callbackFunc\000"
 9224      6261636B 
 9224      46756E63 
 9224      00
 9225              	.LASF433:
 9226 156e 52454345 		.ascii	"RECEIVE_TRIG_CTRL\000"
 9226      4956455F 
 9226      54524947 
 9226      5F435452 
 9226      4C00
 9227              	.LASF617:
 9228 1580 454E435F 		.ascii	"ENC_INTR_EN\000"
 9228      494E5452 
 9228      5F454E00 
 9229              	.LASF568:
 9230 158c 434F4E4E 		.ascii	"CONN_RX_PKT_CNTR\000"
 9230      5F52585F 
 9230      504B545F 
 9230      434E5452 
 9230      00
 9231              	.LASF533:
 9232 159d 4541524C 		.ascii	"EARLY_INTR_NI\000"
 9232      595F494E 
 9232      54525F4E 
 9232      4900
 9233              	.LASF1035:
 9234 15ab 64697363 		.ascii	"discoveryInfo\000"
 9234      6F766572 
 9234      79496E66 
 9234      6F00
 9235              	.LASF248:
ARM GAS  C:\Users\ASUS\AppData\Local\Temp\cczm8cZa.s 			page 209


 9236 15b9 74637077 		.ascii	"tcpwm_1_interrupts_1_IRQn\000"
 9236      6D5F315F 
 9236      696E7465 
 9236      72727570 
 9236      74735F31 
 9237              	.LASF901:
 9238 15d3 43595F42 		.ascii	"CY_BLE_GAP_AUTH_ERROR_COMMAND_NOT_SUPPORTED\000"
 9238      4C455F47 
 9238      41505F41 
 9238      5554485F 
 9238      4552524F 
 9239              	.LASF675:
 9240 15ff 43595F42 		.ascii	"CY_BLE_EVT_PENDING_FLASH_WRITE\000"
 9240      4C455F45 
 9240      56545F50 
 9240      454E4449 
 9240      4E475F46 
 9241              	.LASF740:
 9242 161e 43595F42 		.ascii	"CY_BLE_EVT_GAP_SMP_NEGOTIATED_AUTH_INFO\000"
 9242      4C455F45 
 9242      56545F47 
 9242      41505F53 
 9242      4D505F4E 
 9243              	.LASF1080:
 9244 1646 63795F64 		.ascii	"cy_device\000"
 9244      65766963 
 9244      6500
 9245              	.LASF867:
 9246 1650 43595F42 		.ascii	"CY_BLE_LL_PWR_LVL_0_DBM\000"
 9246      4C455F4C 
 9246      4C5F5057 
 9246      525F4C56 
 9246      4C5F305F 
 9247              	.LASF1099:
 9248 1668 43795F53 		.ascii	"Cy_SysPm_CpuEnterSleep\000"
 9248      7973506D 
 9248      5F437075 
 9248      456E7465 
 9248      72536C65 
 9249              	.LASF1112:
 9250 167f 43795F42 		.ascii	"Cy_BLE_StackShutdown\000"
 9250      4C455F53 
 9250      7461636B 
 9250      53687574 
 9250      646F776E 
 9251              	.LASF898:
 9252 1694 43595F42 		.ascii	"CY_BLE_GAP_AUTH_ERROR_CONFIRM_VALUE_NOT_MATCH\000"
 9252      4C455F47 
 9252      41505F41 
 9252      5554485F 
 9252      4552524F 
 9253              	.LASF564:
 9254 16c2 48575F4C 		.ascii	"HW_LOAD_OFFSET\000"
 9254      4F41445F 
 9254      4F464653 
 9254      455400
 9255              	.LASF110:
ARM GAS  C:\Users\ASUS\AppData\Local\Temp\cczm8cZa.s 			page 210


 9256 16d1 4E6F6E4D 		.ascii	"NonMaskableInt_IRQn\000"
 9256      61736B61 
 9256      626C6549 
 9256      6E745F49 
 9256      52516E00 
 9257              	.LASF357:
 9258 16e5 44415441 		.ascii	"DATA_CHANNELS_L0\000"
 9258      5F434841 
 9258      4E4E454C 
 9258      535F4C30 
 9258      00
 9259              	.LASF327:
 9260 16f6 4556454E 		.ascii	"EVENT_INTR\000"
 9260      545F494E 
 9260      545200
 9261              	.LASF511:
 9262 1701 434F4E4E 		.ascii	"CONN_2_PARAM_MEM_BASE_ADDR\000"
 9262      5F325F50 
 9262      4152414D 
 9262      5F4D454D 
 9262      5F424153 
 9263              	.LASF132:
 9264 171c 4E766963 		.ascii	"NvicMux17_IRQn\000"
 9264      4D757831 
 9264      375F4952 
 9264      516E00
 9265              	.LASF103:
 9266 172b 63707573 		.ascii	"cpussRam0Ctl0\000"
 9266      7352616D 
 9266      3043746C 
 9266      3000
 9267              	.LASF205:
 9268 1739 63707573 		.ascii	"cpuss_interrupts_dw0_6_IRQn\000"
 9268      735F696E 
 9268      74657272 
 9268      75707473 
 9268      5F647730 
 9269              	.LASF697:
 9270 1755 43595F42 		.ascii	"CY_BLE_EVT_SET_DEFAULT_PHY_COMPLETE\000"
 9270      4C455F45 
 9270      56545F53 
 9270      45545F44 
 9270      45464155 
 9271              	.LASF770:
 9272 1779 43595F42 		.ascii	"CY_BLE_EVT_GATTS_DATA_SIGNED_CMD_REQ\000"
 9272      4C455F45 
 9272      56545F47 
 9272      41545453 
 9272      5F444154 
 9273              	.LASF358:
 9274 179e 44415441 		.ascii	"DATA_CHANNELS_M0\000"
 9274      5F434841 
 9274      4E4E454C 
 9274      535F4D30 
 9274      00
 9275              	.LASF362:
 9276 17af 44415441 		.ascii	"DATA_CHANNELS_M1\000"
ARM GAS  C:\Users\ASUS\AppData\Local\Temp\cczm8cZa.s 			page 211


 9276      5F434841 
 9276      4E4E454C 
 9276      535F4D31 
 9276      00
 9277              	.LASF1023:
 9278 17c0 63636364 		.ascii	"cccdCount\000"
 9278      436F756E 
 9278      7400
 9279              	.LASF785:
 9280 17ca 43595F42 		.ascii	"CY_BLE_EVT_MAX\000"
 9280      4C455F45 
 9280      56545F4D 
 9280      415800
 9281              	.LASF393:
 9282 17d9 434F4E4E 		.ascii	"CONN_CE_COUNTER\000"
 9282      5F43455F 
 9282      434F554E 
 9282      54455200 
 9283              	.LASF426:
 9284 17e9 494E4954 		.ascii	"INIT_CONFIG\000"
 9284      5F434F4E 
 9284      46494700 
 9285              	.LASF425:
 9286 17f5 5343414E 		.ascii	"SCAN_CONFIG\000"
 9286      5F434F4E 
 9286      46494700 
 9287              	.LASF667:
 9288 1801 70726576 		.ascii	"prevItm\000"
 9288      49746D00 
 9289              	.LASF1115:
 9290 1809 443A5C44 		.ascii	"D:\\Documents\\Lab2Part3.cydsn\\EasyMoo.cydsn\000"
 9290      6F63756D 
 9290      656E7473 
 9290      5C4C6162 
 9290      32506172 
 9291              	.LASF286:
 9292 1834 7564625F 		.ascii	"udb_interrupts_15_IRQn\000"
 9292      696E7465 
 9292      72727570 
 9292      74735F31 
 9292      355F4952 
 9293              	.LASF100:
 9294 184b 63707573 		.ascii	"cpussCm0NmiCtlOffset\000"
 9294      73436D30 
 9294      4E6D6943 
 9294      746C4F66 
 9294      66736574 
 9295              	.LASF147:
 9296 1860 756E636F 		.ascii	"unconnected_IRQn\000"
 9296      6E6E6563 
 9296      7465645F 
 9296      4952516E 
 9296      00
 9297              	.LASF68:
 9298 1871 666C6173 		.ascii	"flashCtlMainWs4Freq\000"
 9298      6843746C 
 9298      4D61696E 
ARM GAS  C:\Users\ASUS\AppData\Local\Temp\cczm8cZa.s 			page 212


 9298      57733446 
 9298      72657100 
 9299              	.LASF501:
 9300 1885 52534C56 		.ascii	"RSLV_LIST_ENABLE\000"
 9300      5F4C4953 
 9300      545F454E 
 9300      41424C45 
 9300      00
 9301              	.LASF269:
 9302 1896 74637077 		.ascii	"tcpwm_1_interrupts_22_IRQn\000"
 9302      6D5F315F 
 9302      696E7465 
 9302      72727570 
 9302      74735F32 
 9303              	.LASF880:
 9304 18b1 43595F42 		.ascii	"CY_BLE_BLESS_STATE_INVALID\000"
 9304      4C455F42 
 9304      4C455353 
 9304      5F535441 
 9304      54455F49 
 9305              	.LASF807:
 9306 18cc 43595F42 		.ascii	"CY_BLE_ERROR_FLASH_WRITE\000"
 9306      4C455F45 
 9306      52524F52 
 9306      5F464C41 
 9306      53485F57 
 9307              	.LASF271:
 9308 18e5 7564625F 		.ascii	"udb_interrupts_0_IRQn\000"
 9308      696E7465 
 9308      72727570 
 9308      74735F30 
 9308      5F495251 
 9309              	.LASF588:
 9310 18fb 42545F43 		.ascii	"BT_CLOCK_CAPT\000"
 9310      4C4F434B 
 9310      5F434150 
 9310      5400
 9311              	.LASF287:
 9312 1909 70617373 		.ascii	"pass_interrupt_sar_IRQn\000"
 9312      5F696E74 
 9312      65727275 
 9312      70745F73 
 9312      61725F49 
 9313              	.LASF750:
 9314 1921 43595F42 		.ascii	"CY_BLE_EVT_GATT_CONNECT_IND\000"
 9314      4C455F45 
 9314      56545F47 
 9314      4154545F 
 9314      434F4E4E 
 9315              	.LASF289:
 9316 193d 61756469 		.ascii	"audioss_interrupt_pdm_IRQn\000"
 9316      6F73735F 
 9316      696E7465 
 9316      72727570 
 9316      745F7064 
 9317              	.LASF80:
 9318 1958 70657269 		.ascii	"periDivCmdTypeSelPos\000"
ARM GAS  C:\Users\ASUS\AppData\Local\Temp\cczm8cZa.s 			page 213


 9318      44697643 
 9318      6D645479 
 9318      70655365 
 9318      6C506F73 
 9319              	.LASF466:
 9320 196d 434F4E4E 		.ascii	"CONN_REQ_WORD0\000"
 9320      5F524551 
 9320      5F574F52 
 9320      443000
 9321              	.LASF467:
 9322 197c 434F4E4E 		.ascii	"CONN_REQ_WORD1\000"
 9322      5F524551 
 9322      5F574F52 
 9322      443100
 9323              	.LASF468:
 9324 198b 434F4E4E 		.ascii	"CONN_REQ_WORD2\000"
 9324      5F524551 
 9324      5F574F52 
 9324      443200
 9325              	.LASF469:
 9326 199a 434F4E4E 		.ascii	"CONN_REQ_WORD3\000"
 9326      5F524551 
 9326      5F574F52 
 9326      443300
 9327              	.LASF470:
 9328 19a9 434F4E4E 		.ascii	"CONN_REQ_WORD4\000"
 9328      5F524551 
 9328      5F574F52 
 9328      443400
 9329              	.LASF471:
 9330 19b8 434F4E4E 		.ascii	"CONN_REQ_WORD5\000"
 9330      5F524551 
 9330      5F574F52 
 9330      443500
 9331              	.LASF472:
 9332 19c7 434F4E4E 		.ascii	"CONN_REQ_WORD6\000"
 9332      5F524551 
 9332      5F574F52 
 9332      443600
 9333              	.LASF473:
 9334 19d6 434F4E4E 		.ascii	"CONN_REQ_WORD7\000"
 9334      5F524551 
 9334      5F574F52 
 9334      443700
 9335              	.LASF474:
 9336 19e5 434F4E4E 		.ascii	"CONN_REQ_WORD8\000"
 9336      5F524551 
 9336      5F574F52 
 9336      443800
 9337              	.LASF475:
 9338 19f4 434F4E4E 		.ascii	"CONN_REQ_WORD9\000"
 9338      5F524551 
 9338      5F574F52 
 9338      443900
 9339              	.LASF178:
 9340 1a03 63707573 		.ascii	"cpuss_interrupts_ipc_4_IRQn\000"
 9340      735F696E 
ARM GAS  C:\Users\ASUS\AppData\Local\Temp\cczm8cZa.s 			page 214


 9340      74657272 
 9340      75707473 
 9340      5F697063 
 9341              	.LASF217:
 9342 1a1f 63707573 		.ascii	"cpuss_interrupts_dw1_2_IRQn\000"
 9342      735F696E 
 9342      74657272 
 9342      75707473 
 9342      5F647731 
 9343              	.LASF366:
 9344 1a3b 434F4E4E 		.ascii	"CONN_STATUS\000"
 9344      5F535441 
 9344      54555300 
 9345              	.LASF796:
 9346 1a47 43595F42 		.ascii	"CY_BLE_ERROR_DEVICE_ALREADY_EXISTS\000"
 9346      4C455F45 
 9346      52524F52 
 9346      5F444556 
 9346      4943455F 
 9347              	.LASF778:
 9348 1a6a 43595F42 		.ascii	"CY_BLE_EVT_L2CAP_CBFC_CONN_CNF\000"
 9348      4C455F45 
 9348      56545F4C 
 9348      32434150 
 9348      5F434246 
 9349              	.LASF598:
 9350 1a89 45465553 		.ascii	"EFUSE_CONFIG\000"
 9350      455F434F 
 9350      4E464947 
 9350      00
 9351              	.LASF376:
 9352 1a96 504F435F 		.ascii	"POC_REG__TIM_CONTROL\000"
 9352      5245475F 
 9352      5F54494D 
 9352      5F434F4E 
 9352      54524F4C 
 9353              	.LASF262:
 9354 1aab 74637077 		.ascii	"tcpwm_1_interrupts_15_IRQn\000"
 9354      6D5F315F 
 9354      696E7465 
 9354      72727570 
 9354      74735F31 
 9355              	.LASF1056:
 9356 1ac6 43595F49 		.ascii	"CY_IPC_SEMA_STATUS_LOCKED\000"
 9356      50435F53 
 9356      454D415F 
 9356      53544154 
 9356      55535F4C 
 9357              	.LASF543:
 9358 1ae0 434F4E4E 		.ascii	"CONN_1_CE_DATA_LIST_CFG\000"
 9358      5F315F43 
 9358      455F4441 
 9358      54415F4C 
 9358      4953545F 
 9359              	.LASF71:
 9360 1af8 64774368 		.ascii	"dwChCtlPrioPos\000"
 9360      43746C50 
ARM GAS  C:\Users\ASUS\AppData\Local\Temp\cczm8cZa.s 			page 215


 9360      72696F50 
 9360      6F7300
 9361              	.LASF596:
 9362 1b07 48564C44 		.ascii	"HVLDO_CTRL\000"
 9362      4F5F4354 
 9362      524C00
 9363              	.LASF632:
 9364 1b12 424C455F 		.ascii	"BLE_Type\000"
 9364      54797065 
 9364      00
 9365              	.LASF136:
 9366 1b1b 4E766963 		.ascii	"NvicMux21_IRQn\000"
 9366      4D757832 
 9366      315F4952 
 9366      516E00
 9367              	.LASF705:
 9368 1b2a 43595F42 		.ascii	"CY_BLE_EVT_GET_RSSI_COMPLETE\000"
 9368      4C455F45 
 9368      56545F47 
 9368      45545F52 
 9368      5353495F 
 9369              	.LASF775:
 9370 1b47 43595F42 		.ascii	"CY_BLE_EVT_L2CAP_CONN_PARAM_UPDATE_RSP\000"
 9370      4C455F45 
 9370      56545F4C 
 9370      32434150 
 9370      5F434F4E 
 9371              	.LASF41:
 9372 1b6e 63707573 		.ascii	"cpussIpcNr\000"
 9372      73497063 
 9372      4E7200
 9373              	.LASF461:
 9374 1b79 434F4E4E 		.ascii	"CONN_UPDATE_NEW_INTERVAL\000"
 9374      5F555044 
 9374      4154455F 
 9374      4E45575F 
 9374      494E5445 
 9375              	.LASF385:
 9376 1b92 5355505F 		.ascii	"SUP_TIMEOUT\000"
 9376      54494D45 
 9376      4F555400 
 9377              	.LASF52:
 9378 1b9e 736D6966 		.ascii	"smifDeviceNr\000"
 9378      44657669 
 9378      63654E72 
 9378      00
 9379              	.LASF690:
 9380 1bab 43595F42 		.ascii	"CY_BLE_EVT_SET_RPA_ENABLE_COMPLETE\000"
 9380      4C455F45 
 9380      56545F53 
 9380      45545F52 
 9380      50415F45 
 9381              	.LASF398:
 9382 1bce 434F4E4E 		.ascii	"CONN_EXT_INTR_MASK\000"
 9382      5F455854 
 9382      5F494E54 
 9382      525F4D41 
ARM GAS  C:\Users\ASUS\AppData\Local\Temp\cczm8cZa.s 			page 216


 9382      534B00
 9383              	.LASF293:
 9384 1be1 7573625F 		.ascii	"usb_interrupt_med_IRQn\000"
 9384      696E7465 
 9384      72727570 
 9384      745F6D65 
 9384      645F4952 
 9385              	.LASF587:
 9386 1bf8 4C4C5F50 		.ascii	"LL_PKT_RSSI_CH_ENERGY\000"
 9386      4B545F52 
 9386      5353495F 
 9386      43485F45 
 9386      4E455247 
 9387              	.LASF751:
 9388 1c0e 43595F42 		.ascii	"CY_BLE_EVT_GATT_DISCONNECT_IND\000"
 9388      4C455F45 
 9388      56545F47 
 9388      4154545F 
 9388      44495343 
 9389              	.LASF392:
 9390 1c2d 4E455854 		.ascii	"NEXT_CE_INSTANT\000"
 9390      5F43455F 
 9390      494E5354 
 9390      414E5400 
 9391              	.LASF1008:
 9392 1c3d 7065726D 		.ascii	"permission\000"
 9392      69737369 
 9392      6F6E00
 9393              	.LASF84:
 9394 1c48 70657269 		.ascii	"periDiv16CtlOffset\000"
 9394      44697631 
 9394      3643746C 
 9394      4F666673 
 9394      657400
 9395              	.LASF311:
 9396 1c5b 4350555F 		.ascii	"CPU_READ_REG\000"
 9396      52454144 
 9396      5F524547 
 9396      00
 9397              	.LASF396:
 9398 1c68 43455F43 		.ascii	"CE_CNFG_STS_REGISTER_EXT\000"
 9398      4E46475F 
 9398      5354535F 
 9398      52454749 
 9398      53544552 
 9399              	.LASF488:
 9400 1c81 4C455F50 		.ascii	"LE_PING_TIMER_NEXT_EXP\000"
 9400      494E475F 
 9400      54494D45 
 9400      525F4E45 
 9400      58545F45 
 9401              	.LASF958:
 9402 1c98 43595F42 		.ascii	"CY_BLE_ADV_STATE_ADVERTISING\000"
 9402      4C455F41 
 9402      44565F53 
 9402      54415445 
 9402      5F414456 
ARM GAS  C:\Users\ASUS\AppData\Local\Temp\cczm8cZa.s 			page 217


 9403              	.LASF331:
 9404 1cb5 4144565F 		.ascii	"ADV_INTR\000"
 9404      494E5452 
 9404      00
 9405              	.LASF932:
 9406 1cbe 43595F42 		.ascii	"CY_BLE_GAPP_CONNECTABLE_LOW_DC_DIRECTED_ADV\000"
 9406      4C455F47 
 9406      4150505F 
 9406      434F4E4E 
 9406      45435441 
 9407              	.LASF791:
 9408 1cea 43595F42 		.ascii	"CY_BLE_ERROR_MEMORY_ALLOCATION_FAILED\000"
 9408      4C455F45 
 9408      52524F52 
 9408      5F4D454D 
 9408      4F52595F 
 9409              	.LASF372:
 9410 1d10 434C4F43 		.ascii	"CLOCK_CONFIG\000"
 9410      4B5F434F 
 9410      4E464947 
 9410      00
 9411              	.LASF756:
 9412 1d1d 43595F42 		.ascii	"CY_BLE_EVT_GATTC_FIND_INFO_RSP\000"
 9412      4C455F45 
 9412      56545F47 
 9412      41545443 
 9412      5F46494E 
 9413              	.LASF129:
 9414 1d3c 4E766963 		.ascii	"NvicMux14_IRQn\000"
 9414      4D757831 
 9414      345F4952 
 9414      516E00
 9415              	.LASF70:
 9416 1d4b 64774368 		.ascii	"dwChSize\000"
 9416      53697A65 
 9416      00
 9417              	.LASF202:
 9418 1d54 63707573 		.ascii	"cpuss_interrupts_dw0_3_IRQn\000"
 9418      735F696E 
 9418      74657272 
 9418      75707473 
 9418      5F647730 
 9419              	.LASF24:
 9420 1d70 70657269 		.ascii	"periBase\000"
 9420      42617365 
 9420      00
 9421              	.LASF1081:
 9422 1d79 63795F62 		.ascii	"cy_ble_eventHandlerFlag\000"
 9422      6C655F65 
 9422      76656E74 
 9422      48616E64 
 9422      6C657246 
 9423              	.LASF1091:
 9424 1d91 63795F62 		.ascii	"cy_ble_configPtr\000"
 9424      6C655F63 
 9424      6F6E6669 
 9424      67507472 
ARM GAS  C:\Users\ASUS\AppData\Local\Temp\cczm8cZa.s 			page 218


 9424      00
 9425              	.LASF712:
 9426 1da2 43595F42 		.ascii	"CY_BLE_EVT_AES_CCM_ENCRYPT_COMPLETE\000"
 9426      4C455F45 
 9426      56545F41 
 9426      45535F43 
 9426      434D5F45 
 9427              	.LASF1045:
 9428 1dc6 64657669 		.ascii	"deviceAddress\000"
 9428      63654164 
 9428      64726573 
 9428      7300
 9429              	.LASF886:
 9430 1dd4 63795F73 		.ascii	"cy_stc_ble_conn_handle_t\000"
 9430      74635F62 
 9430      6C655F63 
 9430      6F6E6E5F 
 9430      68616E64 
 9431              	.LASF1007:
 9432 1ded 61747454 		.ascii	"attType\000"
 9432      79706500 
 9433              	.LASF754:
 9434 1df5 43595F42 		.ascii	"CY_BLE_EVT_GATTC_READ_BY_GROUP_TYPE_RSP\000"
 9434      4C455F45 
 9434      56545F47 
 9434      41545443 
 9434      5F524541 
 9435              	.LASF924:
 9436 1e1d 7363616E 		.ascii	"scanFilterPolicy\000"
 9436      46696C74 
 9436      6572506F 
 9436      6C696379 
 9436      00
 9437              	.LASF455:
 9438 1e2e 44504C4C 		.ascii	"DPLL_CONFIG\000"
 9438      5F434F4E 
 9438      46494700 
 9439              	.LASF1086:
 9440 1e3a 63795F62 		.ascii	"cy_ble_pendingFlashWrite\000"
 9440      6C655F70 
 9440      656E6469 
 9440      6E67466C 
 9440      61736857 
 9441              	.LASF33:
 9442 1e53 63727970 		.ascii	"cryptoVersion\000"
 9442      746F5665 
 9442      7273696F 
 9442      6E00
 9443              	.LASF491:
 9444 1e61 54585F45 		.ascii	"TX_EN_EXT_DELAY\000"
 9444      4E5F4558 
 9444      545F4445 
 9444      4C415900 
 9445              	.LASF391:
 9446 1e71 43455F43 		.ascii	"CE_CNFG_STS_REGISTER\000"
 9446      4E46475F 
 9446      5354535F 
ARM GAS  C:\Users\ASUS\AppData\Local\Temp\cczm8cZa.s 			page 219


 9446      52454749 
 9446      53544552 
 9447              	.LASF283:
 9448 1e86 7564625F 		.ascii	"udb_interrupts_12_IRQn\000"
 9448      696E7465 
 9448      72727570 
 9448      74735F31 
 9448      325F4952 
 9449              	.LASF9:
 9450 1e9d 5F5F7569 		.ascii	"__uint16_t\000"
 9450      6E743136 
 9450      5F7400
 9451              	.LASF424:
 9452 1ea8 4144565F 		.ascii	"ADV_CONFIG\000"
 9452      434F4E46 
 9452      494700
 9453              	.LASF634:
 9454 1eb3 646F7562 		.ascii	"double\000"
 9454      6C6500
 9455              	.LASF1033:
 9456 1eba 64697363 		.ascii	"discoveryModeInfo\000"
 9456      6F766572 
 9456      794D6F64 
 9456      65496E66 
 9456      6F00
 9457              	.LASF90:
 9458 1ecc 6770696F 		.ascii	"gpioPrtCfgOutOffset\000"
 9458      50727443 
 9458      66674F75 
 9458      744F6666 
 9458      73657400 
 9459              	.LASF82:
 9460 1ee0 70657269 		.ascii	"periDivCmdPaTypeSelPos\000"
 9460      44697643 
 9460      6D645061 
 9460      54797065 
 9460      53656C50 
 9461              	.LASF355:
 9462 1ef7 5452414E 		.ascii	"TRANSMIT_WINDOW_OFFSET\000"
 9462      534D4954 
 9462      5F57494E 
 9462      444F575F 
 9462      4F464653 
 9463              	.LASF83:
 9464 1f0e 70657269 		.ascii	"periDiv8CtlOffset\000"
 9464      44697638 
 9464      43746C4F 
 9464      66667365 
 9464      7400
 9465              	.LASF367:
 9466 1f20 434F4E4E 		.ascii	"CONN_INDEX\000"
 9466      5F494E44 
 9466      455800
 9467              	.LASF858:
 9468 1f2b 63795F73 		.ascii	"cy_stc_ble_stack_mgr_mem_cfg_param_t\000"
 9468      74635F62 
 9468      6C655F73 
ARM GAS  C:\Users\ASUS\AppData\Local\Temp\cczm8cZa.s 			page 220


 9468      7461636B 
 9468      5F6D6772 
 9469              	.LASF801:
 9470 1f50 43595F42 		.ascii	"CY_BLE_ERROR_L2CAP_PSM_ALREADY_REGISTERED\000"
 9470      4C455F45 
 9470      52524F52 
 9470      5F4C3243 
 9470      41505F50 
 9471              	.LASF386:
 9472 1f7a 534C4156 		.ascii	"SLAVE_LATENCY\000"
 9472      455F4C41 
 9472      54454E43 
 9472      5900
 9473              	.LASF616:
 9474 1f88 454E435F 		.ascii	"ENC_CONFIG\000"
 9474      434F4E46 
 9474      494700
 9475              	.LASF962:
 9476 1f93 43595F42 		.ascii	"CY_BLE_CONN_STATE_CLIENT_DISCONNECTED_DISCOVERED\000"
 9476      4C455F43 
 9476      4F4E4E5F 
 9476      53544154 
 9476      455F434C 
 9477              	.LASF539:
 9478 1fc4 4D4D4D53 		.ascii	"MMMS_DATA_MEM_DESCRIPTOR\000"
 9478      5F444154 
 9478      415F4D45 
 9478      4D5F4445 
 9478      53435249 
 9479              	.LASF1082:
 9480 1fdd 63795F62 		.ascii	"cy_ble_state\000"
 9480      6C655F73 
 9480      74617465 
 9480      00
 9481              	.LASF746:
 9482 1fea 43595F42 		.ascii	"CY_BLE_EVT_GAP_CONN_ESTB\000"
 9482      4C455F45 
 9482      56545F47 
 9482      41505F43 
 9482      4F4E4E5F 
 9483              	.LASF489:
 9484 2003 4C455F50 		.ascii	"LE_PING_TIMER_WRAP_COUNT\000"
 9484      494E475F 
 9484      54494D45 
 9484      525F5752 
 9484      41505F43 
 9485              	.LASF1042:
 9486 201c 61757468 		.ascii	"authInfo\000"
 9486      496E666F 
 9486      00
 9487              	.LASF1049:
 9488 2025 43595F49 		.ascii	"CY_IPC_SEMA_SUCCESS\000"
 9488      50435F53 
 9488      454D415F 
 9488      53554343 
 9488      45535300 
 9489              	.LASF35:
ARM GAS  C:\Users\ASUS\AppData\Local\Temp\cczm8cZa.s 			page 221


 9490 2039 666C6173 		.ascii	"flashcVersion\000"
 9490      68635665 
 9490      7273696F 
 9490      6E00
 9491              	.LASF1011:
 9492 2047 63795F73 		.ascii	"cy_stc_ble_gatts_db_t\000"
 9492      74635F62 
 9492      6C655F67 
 9492      61747473 
 9492      5F64625F 
 9493              	.LASF665:
 9494 205d 736B6970 		.ascii	"skipMode\000"
 9494      4D6F6465 
 9494      00
 9495              	.LASF158:
 9496 2066 696F7373 		.ascii	"ioss_interrupts_gpio_9_IRQn\000"
 9496      5F696E74 
 9496      65727275 
 9496      7074735F 
 9496      6770696F 
 9497              	.LASF968:
 9498 2082 43595F42 		.ascii	"CY_BLE_CONN_STATE_CLIENT_DISCOVERED\000"
 9498      4C455F43 
 9498      4F4E4E5F 
 9498      53544154 
 9498      455F434C 
 9499              	.LASF259:
 9500 20a6 74637077 		.ascii	"tcpwm_1_interrupts_12_IRQn\000"
 9500      6D5F315F 
 9500      696E7465 
 9500      72727570 
 9500      74735F31 
 9501              	.LASF729:
 9502 20c1 43595F42 		.ascii	"CY_BLE_EVT_GAP_DEVICE_CONNECTED\000"
 9502      4C455F45 
 9502      56545F47 
 9502      41505F44 
 9502      45564943 
 9503              	.LASF599:
 9504 20e1 45465553 		.ascii	"EFUSE_TIM_CTRL1\000"
 9504      455F5449 
 9504      4D5F4354 
 9504      524C3100 
 9505              	.LASF600:
 9506 20f1 45465553 		.ascii	"EFUSE_TIM_CTRL2\000"
 9506      455F5449 
 9506      4D5F4354 
 9506      524C3200 
 9507              	.LASF601:
 9508 2101 45465553 		.ascii	"EFUSE_TIM_CTRL3\000"
 9508      455F5449 
 9508      4D5F4354 
 9508      524C3300 
 9509              	.LASF1020:
 9510 2111 5F426F6F 		.ascii	"_Bool\000"
 9510      6C00
 9511              	.LASF988:
ARM GAS  C:\Users\ASUS\AppData\Local\Temp\cczm8cZa.s 			page 222


 9512 2117 736C6F77 		.ascii	"slowScanEnabled\000"
 9512      5363616E 
 9512      456E6162 
 9512      6C656400 
 9513              	.LASF94:
 9514 2127 63707573 		.ascii	"cpussCm4StatusOffset\000"
 9514      73436D34 
 9514      53746174 
 9514      75734F66 
 9514      66736574 
 9515              	.LASF974:
 9516 213c 63656E74 		.ascii	"centralAddrResolutionCharHandle\000"
 9516      72616C41 
 9516      64647252 
 9516      65736F6C 
 9516      7574696F 
 9517              	.LASF173:
 9518 215c 626C6573 		.ascii	"bless_interrupt_IRQn\000"
 9518      735F696E 
 9518      74657272 
 9518      7570745F 
 9518      4952516E 
 9519              	.LASF188:
 9520 2171 63707573 		.ascii	"cpuss_interrupts_ipc_14_IRQn\000"
 9520      735F696E 
 9520      74657272 
 9520      75707473 
 9520      5F697063 
 9521              	.LASF590:
 9522 218e 4D545F44 		.ascii	"MT_DELAY_CFG\000"
 9522      454C4159 
 9522      5F434647 
 9522      00
 9523              	.LASF773:
 9524 219b 43595F42 		.ascii	"CY_BLE_EVT_GATTC_LONG_PROCEDURE_END\000"
 9524      4C455F45 
 9524      56545F47 
 9524      41545443 
 9524      5F4C4F4E 
 9525              	.LASF1106:
 9526 21bf 6D656D63 		.ascii	"memcpy\000"
 9526      707900
 9527              	.LASF388:
 9528 21c6 5044555F 		.ascii	"PDU_ACCESS_ADDR_L_REGISTER\000"
 9528      41434345 
 9528      53535F41 
 9528      4444525F 
 9528      4C5F5245 
 9529              	.LASF1001:
 9530 21e1 61747447 		.ascii	"attGenericValLen\000"
 9530      656E6572 
 9530      69635661 
 9530      6C4C656E 
 9530      00
 9531              	.LASF526:
 9532 21f2 55535F43 		.ascii	"US_CAPT_STATUS\000"
 9532      4150545F 
ARM GAS  C:\Users\ASUS\AppData\Local\Temp\cczm8cZa.s 			page 223


 9532      53544154 
 9532      555300
 9533              	.LASF757:
 9534 2201 43595F42 		.ascii	"CY_BLE_EVT_GATTC_FIND_BY_TYPE_VALUE_RSP\000"
 9534      4C455F45 
 9534      56545F47 
 9534      41545443 
 9534      5F46494E 
 9535              	.LASF969:
 9536 2229 63795F65 		.ascii	"cy_en_ble_conn_state_t\000"
 9536      6E5F626C 
 9536      655F636F 
 9536      6E6E5F73 
 9536      74617465 
 9537              	.LASF126:
 9538 2240 4E766963 		.ascii	"NvicMux11_IRQn\000"
 9538      4D757831 
 9538      315F4952 
 9538      516E00
 9539              	.LASF199:
 9540 224f 63707573 		.ascii	"cpuss_interrupts_dw0_0_IRQn\000"
 9540      735F696E 
 9540      74657272 
 9540      75707473 
 9540      5F647730 
 9541              	.LASF613:
 9542 226b 4D49435F 		.ascii	"MIC_IN0\000"
 9542      494E3000 
 9543              	.LASF32:
 9544 2273 63707573 		.ascii	"cpussVersion\000"
 9544      73566572 
 9544      73696F6E 
 9544      00
 9545              	.LASF1031:
 9546 2280 67617474 		.ascii	"gattDbIndexCount\000"
 9546      4462496E 
 9546      64657843 
 9546      6F756E74 
 9546      00
 9547              	.LASF531:
 9548 2291 55535F43 		.ascii	"US_COUNTER\000"
 9548      4F554E54 
 9548      455200
 9549              	.LASF102:
 9550 229c 63707573 		.ascii	"cpussRomCtl\000"
 9550      73526F6D 
 9550      43746C00 
 9551              	.LASF214:
 9552 22a8 63707573 		.ascii	"cpuss_interrupts_dw0_15_IRQn\000"
 9552      735F696E 
 9552      74657272 
 9552      75707473 
 9552      5F647730 
 9553              	.LASF246:
 9554 22c5 74637077 		.ascii	"tcpwm_0_interrupts_7_IRQn\000"
 9554      6D5F305F 
 9554      696E7465 
ARM GAS  C:\Users\ASUS\AppData\Local\Temp\cczm8cZa.s 			page 224


 9554      72727570 
 9554      74735F37 
 9555              	.LASF169:
 9556 22df 73727373 		.ascii	"srss_interrupt_mcwdt_1_IRQn\000"
 9556      5F696E74 
 9556      65727275 
 9556      70745F6D 
 9556      63776474 
 9557              	.LASF231:
 9558 22fb 63707573 		.ascii	"cpuss_interrupts_fault_0_IRQn\000"
 9558      735F696E 
 9558      74657272 
 9558      75707473 
 9558      5F666175 
 9559              	.LASF956:
 9560 2319 43595F42 		.ascii	"CY_BLE_ADV_STATE_STOPPED\000"
 9560      4C455F41 
 9560      44565F53 
 9560      54415445 
 9560      5F53544F 
 9561              	.LASF614:
 9562 2332 4D49435F 		.ascii	"MIC_OUT0\000"
 9562      4F555430 
 9562      00
 9563              	.LASF840:
 9564 233b 6C326361 		.ascii	"l2capConfig\000"
 9564      70436F6E 
 9564      66696700 
 9565              	.LASF308:
 9566 2347 52414449 		.ascii	"RADIO_REG5_ADDR\000"
 9566      4F5F5245 
 9566      47355F41 
 9566      44445200 
 9567              	.LASF50:
 9568 2357 73727373 		.ascii	"srssNumHfroot\000"
 9568      4E756D48 
 9568      66726F6F 
 9568      7400
 9569              	.LASF337:
 9570 2365 5343414E 		.ascii	"SCAN_INTR\000"
 9570      5F494E54 
 9570      5200
 9571              	.LASF741:
 9572 236f 43595F42 		.ascii	"CY_BLE_EVT_GAP_DEVICE_ADDR_GEN_COMPLETE\000"
 9572      4C455F45 
 9572      56545F47 
 9572      41505F44 
 9572      45564943 
 9573              	.LASF60:
 9574 2397 666C6173 		.ascii	"flashPipeRequired\000"
 9574      68506970 
 9574      65526571 
 9574      75697265 
 9574      6400
 9575              	.LASF384:
 9576 23a9 434F4E4E 		.ascii	"CONN_INTERVAL\000"
 9576      5F494E54 
ARM GAS  C:\Users\ASUS\AppData\Local\Temp\cczm8cZa.s 			page 225


 9576      45525641 
 9576      4C00
 9577              	.LASF329:
 9578 23b7 4144565F 		.ascii	"ADV_PARAMS\000"
 9578      50415241 
 9578      4D5300
 9579              	.LASF104:
 9580 23c2 63707573 		.ascii	"cpussRam1Ctl0\000"
 9580      7352616D 
 9580      3143746C 
 9580      3000
 9581              	.LASF650:
 9582 23d0 43595F53 		.ascii	"CY_SYSPM_HIBERNATE\000"
 9582      5953504D 
 9582      5F484942 
 9582      45524E41 
 9582      544500
 9583              	.LASF997:
 9584 23e3 61637475 		.ascii	"actualLength\000"
 9584      616C4C65 
 9584      6E677468 
 9584      00
 9585              	.LASF999:
 9586 23f0 63795F73 		.ascii	"cy_stc_ble_gatts_att_gen_val_len_t\000"
 9586      74635F62 
 9586      6C655F67 
 9586      61747473 
 9586      5F617474 
 9587              	.LASF323:
 9588 2413 52585F46 		.ascii	"RX_FIFO_RD_SILENT\000"
 9588      49464F5F 
 9588      52445F53 
 9588      494C454E 
 9588      5400
 9589              	.LASF866:
 9590 2425 43595F42 		.ascii	"CY_BLE_LL_PWR_LVL_NEG_6_DBM\000"
 9590      4C455F4C 
 9590      4C5F5057 
 9590      525F4C56 
 9590      4C5F4E45 
 9591              	.LASF760:
 9592 2441 43595F42 		.ascii	"CY_BLE_EVT_GATTC_READ_MULTI_RSP\000"
 9592      4C455F45 
 9592      56545F47 
 9592      41545443 
 9592      5F524541 
 9593              	.LASF532:
 9594 2461 55535F43 		.ascii	"US_CAPT_PREV\000"
 9594      4150545F 
 9594      50524556 
 9594      00
 9595              	.LASF615:
 9596 246e 454E435F 		.ascii	"ENC_PARAMS\000"
 9596      50415241 
 9596      4D5300
 9597              	.LASF800:
 9598 2479 43595F42 		.ascii	"CY_BLE_ERROR_L2CAP_PSM_WRONG_ENCODING\000"
ARM GAS  C:\Users\ASUS\AppData\Local\Temp\cczm8cZa.s 			page 226


 9598      4C455F45 
 9598      52524F52 
 9598      5F4C3243 
 9598      41505F50 
 9599              	.LASF58:
 9600 249f 63727970 		.ascii	"cryptoMemSize\000"
 9600      746F4D65 
 9600      6D53697A 
 9600      6500
 9601              	.LASF373:
 9602 24ad 54494D5F 		.ascii	"TIM_COUNTER_L\000"
 9602      434F554E 
 9602      5445525F 
 9602      4C00
 9603              	.LASF955:
 9604 24bb 63795F65 		.ascii	"cy_en_ble_state_t\000"
 9604      6E5F626C 
 9604      655F7374 
 9604      6174655F 
 9604      7400
 9605              	.LASF558:
 9606 24cd 4D4D4D53 		.ascii	"MMMS_ADVCH_NI_VALID\000"
 9606      5F414456 
 9606      43485F4E 
 9606      495F5641 
 9606      4C494400 
 9607              	.LASF819:
 9608 24e1 62644164 		.ascii	"bdAddr\000"
 9608      647200
 9609              	.LASF155:
 9610 24e8 696F7373 		.ascii	"ioss_interrupts_gpio_6_IRQn\000"
 9610      5F696E74 
 9610      65727275 
 9610      7074735F 
 9610      6770696F 
 9611              	.LASF989:
 9612 2504 736C6F77 		.ascii	"slowScanInterval\000"
 9612      5363616E 
 9612      496E7465 
 9612      7276616C 
 9612      00
 9613              	.LASF63:
 9614 2515 666C6173 		.ascii	"flashEraseDelay\000"
 9614      68457261 
 9614      73654465 
 9614      6C617900 
 9615              	.LASF503:
 9616 2525 574C5F43 		.ascii	"WL_CONNECTION_STATUS\000"
 9616      4F4E4E45 
 9616      4354494F 
 9616      4E5F5354 
 9616      41545553 
 9617              	.LASF642:
 9618 253a 43595F53 		.ascii	"CY_SYSPM_INVALID_STATE\000"
 9618      5953504D 
 9618      5F494E56 
 9618      414C4944 
ARM GAS  C:\Users\ASUS\AppData\Local\Temp\cczm8cZa.s 			page 227


 9618      5F535441 
 9619              	.LASF124:
 9620 2551 4E766963 		.ascii	"NvicMux9_IRQn\000"
 9620      4D757839 
 9620      5F495251 
 9620      6E00
 9621              	.LASF603:
 9622 255f 45465553 		.ascii	"EFUSE_RDATA_H\000"
 9622      455F5244 
 9622      4154415F 
 9622      4800
 9623              	.LASF464:
 9624 256d 434F4E4E 		.ascii	"CONN_UPDATE_NEW_SL_INTERVAL\000"
 9624      5F555044 
 9624      4154455F 
 9624      4E45575F 
 9624      534C5F49 
 9625              	.LASF852:
 9626 2589 6D656D6F 		.ascii	"memoryHeapPtr\000"
 9626      72794865 
 9626      61705074 
 9626      7200
 9627              	.LASF602:
 9628 2597 45465553 		.ascii	"EFUSE_RDATA_L\000"
 9628      455F5244 
 9628      4154415F 
 9628      4C00
 9629              	.LASF4:
 9630 25a5 5F5F696E 		.ascii	"__int8_t\000"
 9630      74385F74 
 9630      00
 9631              	.LASF748:
 9632 25ae 43595F42 		.ascii	"CY_BLE_EVT_GAP_ADV_TX\000"
 9632      4C455F45 
 9632      56545F47 
 9632      41505F41 
 9632      44565F54 
 9633              	.LASF940:
 9634 25c4 61647646 		.ascii	"advFilterPolicy\000"
 9634      696C7465 
 9634      72506F6C 
 9634      69637900 
 9635              	.LASF1004:
 9636 25d4 61747456 		.ascii	"attValueUuid\000"
 9636      616C7565 
 9636      55756964 
 9636      00
 9637              	.LASF884:
 9638 25e1 62644861 		.ascii	"bdHandle\000"
 9638      6E646C65 
 9638      00
 9639              	.LASF406:
 9640 25ea 44544D5F 		.ascii	"DTM_RX_PKT_COUNT\000"
 9640      52585F50 
 9640      4B545F43 
 9640      4F554E54 
 9640      00
ARM GAS  C:\Users\ASUS\AppData\Local\Temp\cczm8cZa.s 			page 228


 9641              	.LASF185:
 9642 25fb 63707573 		.ascii	"cpuss_interrupts_ipc_11_IRQn\000"
 9642      735F696E 
 9642      74657272 
 9642      75707473 
 9642      5F697063 
 9643              	.LASF255:
 9644 2618 74637077 		.ascii	"tcpwm_1_interrupts_8_IRQn\000"
 9644      6D5F315F 
 9644      696E7465 
 9644      72727570 
 9644      74735F38 
 9645              	.LASF976:
 9646 2632 63795F73 		.ascii	"cy_stc_ble_gaps_t\000"
 9646      74635F62 
 9646      6C655F67 
 9646      6170735F 
 9646      7400
 9647              	.LASF641:
 9648 2644 43595F53 		.ascii	"CY_SYSPM_TIMEOUT\000"
 9648      5953504D 
 9648      5F54494D 
 9648      454F5554 
 9648      00
 9649              	.LASF1073:
 9650 2655 43795F42 		.ascii	"Cy_BLE_UnregisterHostPMCallbacks\000"
 9650      4C455F55 
 9650      6E726567 
 9650      69737465 
 9650      72486F73 
 9651              	.LASF984:
 9652 2676 63795F73 		.ascii	"cy_stc_ble_gapp_adv_params_t\000"
 9652      74635F62 
 9652      6C655F67 
 9652      6170705F 
 9652      6164765F 
 9653              	.LASF1079:
 9654 2693 626C6544 		.ascii	"bleDeepSleepCallback\000"
 9654      65657053 
 9654      6C656570 
 9654      43616C6C 
 9654      6261636B 
 9655              	.LASF1013:
 9656 26a8 67617474 		.ascii	"gattDbTotalEntries\000"
 9656      4462546F 
 9656      74616C45 
 9656      6E747269 
 9656      657300
 9657              	.LASF480:
 9658 26bb 4E455854 		.ascii	"NEXT_RESP_TIMER_EXP\000"
 9658      5F524553 
 9658      505F5449 
 9658      4D45525F 
 9658      45585000 
 9659              	.LASF876:
 9660 26cf 43595F42 		.ascii	"CY_BLE_BLESS_STATE_ECO_ON\000"
 9660      4C455F42 
ARM GAS  C:\Users\ASUS\AppData\Local\Temp\cczm8cZa.s 			page 229


 9660      4C455353 
 9660      5F535441 
 9660      54455F45 
 9661              	.LASF98:
 9662 26e9 63707573 		.ascii	"cpussTrimRomCtlOffset\000"
 9662      73547269 
 9662      6D526F6D 
 9662      43746C4F 
 9662      66667365 
 9663              	.LASF1036:
 9664 26ff 67617063 		.ascii	"gapcScanParams\000"
 9664      5363616E 
 9664      50617261 
 9664      6D7300
 9665              	.LASF673:
 9666 270e 43595F42 		.ascii	"CY_BLE_EVT_STACK_BUSY_STATUS\000"
 9666      4C455F45 
 9666      56545F53 
 9666      5441434B 
 9666      5F425553 
 9667              	.LASF679:
 9668 272b 43595F42 		.ascii	"CY_BLE_EVT_READ_AUTH_PAYLOAD_TO_COMPLETE\000"
 9668      4C455F45 
 9668      56545F52 
 9668      4541445F 
 9668      41555448 
 9669              	.LASF694:
 9670 2754 43595F42 		.ascii	"CY_BLE_EVT_ADD_DEVICE_TO_WHITE_LIST_COMPLETE\000"
 9670      4C455F45 
 9670      56545F41 
 9670      44445F44 
 9670      45564943 
 9671              	.LASF669:
 9672 2781 63795F73 		.ascii	"cy_stc_syspm_callback_t\000"
 9672      74635F73 
 9672      7973706D 
 9672      5F63616C 
 9672      6C626163 
 9673              	.LASF996:
 9674 2799 63795F73 		.ascii	"cy_stc_ble_gapc_scan_params_t\000"
 9674      74635F62 
 9674      6C655F67 
 9674      6170635F 
 9674      7363616E 
 9675              	.LASF808:
 9676 27b7 43595F42 		.ascii	"CY_BLE_ERROR_MIC_AUTH_FAILED\000"
 9676      4C455F45 
 9676      52524F52 
 9676      5F4D4943 
 9676      5F415554 
 9677              	.LASF211:
 9678 27d4 63707573 		.ascii	"cpuss_interrupts_dw0_12_IRQn\000"
 9678      735F696E 
 9678      74657272 
 9678      75707473 
 9678      5F647730 
 9679              	.LASF529:
ARM GAS  C:\Users\ASUS\AppData\Local\Temp\cczm8cZa.s 			page 230


 9680 27f1 4541524C 		.ascii	"EARLY_INTR_STATUS\000"
 9680      595F494E 
 9680      54525F53 
 9680      54415455 
 9680      5300
 9681              	.LASF1114:
 9682 2803 47656E65 		.ascii	"Generated_Source\\PSoC6\\pdl\\middleware\\ble\\cy_b"
 9682      72617465 
 9682      645F536F 
 9682      75726365 
 9682      5C50536F 
 9683 2831 6C652E63 		.ascii	"le.c\000"
 9683      00
 9684              	.LASF243:
 9685 2836 74637077 		.ascii	"tcpwm_0_interrupts_4_IRQn\000"
 9685      6D5F305F 
 9685      696E7465 
 9685      72727570 
 9685      74735F34 
 9686              	.LASF688:
 9687 2850 43595F42 		.ascii	"CY_BLE_EVT_GET_LOCAL_RPA_COMPLETE\000"
 9687      4C455F45 
 9687      56545F47 
 9687      45545F4C 
 9687      4F43414C 
 9688              	.LASF755:
 9689 2872 43595F42 		.ascii	"CY_BLE_EVT_GATTC_READ_BY_TYPE_RSP\000"
 9689      4C455F45 
 9689      56545F47 
 9689      41545443 
 9689      5F524541 
 9690              	.LASF452:
 9691 2894 494E4954 		.ascii	"INIT_WINDOW_TIMER_CTRL\000"
 9691      5F57494E 
 9691      444F575F 
 9691      54494D45 
 9691      525F4354 
 9692              	.LASF1060:
 9693 28ab 696E7465 		.ascii	"interruptState\000"
 9693      72727570 
 9693      74537461 
 9693      746500
 9694              	.LASF1101:
 9695 28ba 43795F49 		.ascii	"Cy_IPC_Sema_Status\000"
 9695      50435F53 
 9695      656D615F 
 9695      53746174 
 9695      757300
 9696              	.LASF776:
 9697 28cd 43595F42 		.ascii	"CY_BLE_EVT_L2CAP_COMMAND_REJ\000"
 9697      4C455F45 
 9697      56545F4C 
 9697      32434150 
 9697      5F434F4D 
 9698              	.LASF839:
 9699 28ea 646C6543 		.ascii	"dleConfig\000"
 9699      6F6E6669 
ARM GAS  C:\Users\ASUS\AppData\Local\Temp\cczm8cZa.s 			page 231


 9699      6700
 9700              	.LASF303:
 9701 28f4 494E5452 		.ascii	"INTR_MASKED\000"
 9701      5F4D4153 
 9701      4B454400 
 9702              	.LASF444:
 9703 2900 4C4C5F44 		.ascii	"LL_DBG_10\000"
 9703      42475F31 
 9703      3000
 9704              	.LASF301:
 9705 290a 494E5452 		.ascii	"INTR_SET\000"
 9705      5F534554 
 9705      00
 9706              	.LASF198:
 9707 2913 6373645F 		.ascii	"csd_interrupt_IRQn\000"
 9707      696E7465 
 9707      72727570 
 9707      745F4952 
 9707      516E00
 9708              	.LASF278:
 9709 2926 7564625F 		.ascii	"udb_interrupts_7_IRQn\000"
 9709      696E7465 
 9709      72727570 
 9709      74735F37 
 9709      5F495251 
 9710              	.LASF1012:
 9711 293c 67617474 		.ascii	"gattDbPtr\000"
 9711      44625074 
 9711      7200
 9712              	.LASF74:
 9713 2946 64775374 		.ascii	"dwStatusChIdxMsk\000"
 9713      61747573 
 9713      43684964 
 9713      784D736B 
 9713      00
 9714              	.LASF923:
 9715 2957 6F776E41 		.ascii	"ownAddrType\000"
 9715      64647254 
 9715      79706500 
 9716              	.LASF166:
 9717 2963 6C70636F 		.ascii	"lpcomp_interrupt_IRQn\000"
 9717      6D705F69 
 9717      6E746572 
 9717      72757074 
 9717      5F495251 
 9718              	.LASF914:
 9719 2979 626F6E64 		.ascii	"bonding\000"
 9719      696E6700 
 9720              	.LASF758:
 9721 2981 43595F42 		.ascii	"CY_BLE_EVT_GATTC_READ_RSP\000"
 9721      4C455F45 
 9721      56545F47 
 9721      41545443 
 9721      5F524541 
 9722              	.LASF1026:
 9723 299b 7478506F 		.ascii	"txPowerLevelAdv\000"
 9723      7765724C 
ARM GAS  C:\Users\ASUS\AppData\Local\Temp\cczm8cZa.s 			page 232


 9723      6576656C 
 9723      41647600 
 9724              	.LASF547:
 9725 29ab 434F4E4E 		.ascii	"CONN_2_CE_DATA_LIST_CFG\000"
 9725      5F325F43 
 9725      455F4441 
 9725      54415F4C 
 9725      4953545F 
 9726              	.LASF699:
 9727 29c3 43595F42 		.ascii	"CY_BLE_EVT_PHY_UPDATE_COMPLETE\000"
 9727      4C455F45 
 9727      56545F50 
 9727      48595F55 
 9727      50444154 
 9728              	.LASF945:
 9729 29e2 7363616E 		.ascii	"scanRspData\000"
 9729      52737044 
 9729      61746100 
 9730              	.LASF224:
 9731 29ee 63707573 		.ascii	"cpuss_interrupts_dw1_9_IRQn\000"
 9731      735F696E 
 9731      74657272 
 9731      75707473 
 9731      5F647731 
 9732              	.LASF481:
 9733 2a0a 4E455854 		.ascii	"NEXT_SUP_TO\000"
 9733      5F535550 
 9733      5F544F00 
 9734              	.LASF869:
 9735 2a16 63795F65 		.ascii	"cy_en_ble_bless_pwr_lvl_t\000"
 9735      6E5F626C 
 9735      655F626C 
 9735      6573735F 
 9735      7077725F 
 9736              	.LASF10:
 9737 2a30 73686F72 		.ascii	"short unsigned int\000"
 9737      7420756E 
 9737      7369676E 
 9737      65642069 
 9737      6E7400
 9738              	.LASF574:
 9739 2a43 52534C56 		.ascii	"RSLV_LIST_PEER_RPA_BASE_ADDR\000"
 9739      5F4C4953 
 9739      545F5045 
 9739      45525F52 
 9739      50415F42 
 9740              	.LASF696:
 9741 2a60 43595F42 		.ascii	"CY_BLE_EVT_GET_PHY_COMPLETE\000"
 9741      4C455F45 
 9741      56545F47 
 9741      45545F50 
 9741      48595F43 
 9742              	.LASF809:
 9743 2a7c 43595F42 		.ascii	"CY_BLE_ERROR_HARDWARE_FAILURE\000"
 9743      4C455F45 
 9743      52524F52 
 9743      5F484152 
ARM GAS  C:\Users\ASUS\AppData\Local\Temp\cczm8cZa.s 			page 233


 9743      44574152 
 9744              	.LASF700:
 9745 2a9a 43595F42 		.ascii	"CY_BLE_EVT_SET_PRIVACY_MODE_COMPLETE\000"
 9745      4C455F45 
 9745      56545F53 
 9745      45545F50 
 9745      52495641 
 9746              	.LASF309:
 9747 2abf 52455345 		.ascii	"RESERVED1\000"
 9747      52564544 
 9747      3100
 9748              	.LASF312:
 9749 2ac9 52455345 		.ascii	"RESERVED2\000"
 9749      52564544 
 9749      3200
 9750              	.LASF336:
 9751 2ad3 52455345 		.ascii	"RESERVED3\000"
 9751      52564544 
 9751      3300
 9752              	.LASF342:
 9753 2add 52455345 		.ascii	"RESERVED4\000"
 9753      52564544 
 9753      3400
 9754              	.LASF348:
 9755 2ae7 52455345 		.ascii	"RESERVED5\000"
 9755      52564544 
 9755      3500
 9756              	.LASF352:
 9757 2af1 52455345 		.ascii	"RESERVED6\000"
 9757      52564544 
 9757      3600
 9758              	.LASF360:
 9759 2afb 52455345 		.ascii	"RESERVED7\000"
 9759      52564544 
 9759      3700
 9760              	.LASF364:
 9761 2b05 52455345 		.ascii	"RESERVED8\000"
 9761      52564544 
 9761      3800
 9762              	.LASF368:
 9763 2b0f 52455345 		.ascii	"RESERVED9\000"
 9763      52564544 
 9763      3900
 9764              	.LASF143:
 9765 2b19 4E766963 		.ascii	"NvicMux28_IRQn\000"
 9765      4D757832 
 9765      385F4952 
 9765      516E00
 9766              	.LASF7:
 9767 2b28 5F5F696E 		.ascii	"__int16_t\000"
 9767      7431365F 
 9767      7400
 9768              	.LASF788:
 9769 2b32 43595F42 		.ascii	"CY_BLE_INFO_FLASH_WRITE_IN_PROGRESS\000"
 9769      4C455F49 
 9769      4E464F5F 
 9769      464C4153 
ARM GAS  C:\Users\ASUS\AppData\Local\Temp\cczm8cZa.s 			page 234


 9769      485F5752 
 9770              	.LASF229:
 9771 2b56 63707573 		.ascii	"cpuss_interrupts_dw1_14_IRQn\000"
 9771      735F696E 
 9771      74657272 
 9771      75707473 
 9771      5F647731 
 9772              	.LASF844:
 9773 2b73 70614361 		.ascii	"paCalConfig\000"
 9773      6C436F6E 
 9773      66696700 
 9774              	.LASF594:
 9775 2b7f 4D545F53 		.ascii	"MT_STATUS\000"
 9775      54415455 
 9775      5300
 9776              	.LASF586:
 9777 2b89 4558545F 		.ascii	"EXT_PA_LNA_CTRL\000"
 9777      50415F4C 
 9777      4E415F43 
 9777      54524C00 
 9778              	.LASF182:
 9779 2b99 63707573 		.ascii	"cpuss_interrupts_ipc_8_IRQn\000"
 9779      735F696E 
 9779      74657272 
 9779      75707473 
 9779      5F697063 
 9780              	.LASF152:
 9781 2bb5 696F7373 		.ascii	"ioss_interrupts_gpio_3_IRQn\000"
 9781      5F696E74 
 9781      65727275 
 9781      7074735F 
 9781      6770696F 
 9782              	.LASF889:
 9783 2bd1 43595F42 		.ascii	"CY_BLE_GAP_IOCAP_DISPLAY_YESNO\000"
 9783      4C455F47 
 9783      41505F49 
 9783      4F434150 
 9783      5F444953 
 9784              	.LASF482:
 9785 2bf0 4C4C485F 		.ascii	"LLH_FEATURE_CONFIG\000"
 9785      46454154 
 9785      5552455F 
 9785      434F4E46 
 9785      494700
 9786              	.LASF631:
 9787 2c03 424C455F 		.ascii	"BLE_V1_Type\000"
 9787      56315F54 
 9787      79706500 
 9788              	.LASF121:
 9789 2c0f 4E766963 		.ascii	"NvicMux6_IRQn\000"
 9789      4D757836 
 9789      5F495251 
 9789      6E00
 9790              	.LASF1015:
 9791 2c1d 63795F73 		.ascii	"cy_stc_ble_gatts_db_info_t\000"
 9791      74635F62 
 9791      6C655F67 
ARM GAS  C:\Users\ASUS\AppData\Local\Temp\cczm8cZa.s 			page 235


 9791      61747473 
 9791      5F64625F 
 9792              	.LASF1006:
 9793 2c38 61747448 		.ascii	"attHandle\000"
 9793      616E646C 
 9793      6500
 9794              	.LASF668:
 9795 2c42 6E657874 		.ascii	"nextItm\000"
 9795      49746D00 
 9796              	.LASF815:
 9797 2c4a 43595F42 		.ascii	"CY_BLE_ERROR_INVALID_STATE\000"
 9797      4C455F45 
 9797      52524F52 
 9797      5F494E56 
 9797      414C4944 
 9798              	.LASF843:
 9799 2c65 77686974 		.ascii	"whiteListConfig\000"
 9799      654C6973 
 9799      74436F6E 
 9799      66696700 
 9800              	.LASF659:
 9801 2c75 62617365 		.ascii	"base\000"
 9801      00
 9802              	.LASF595:
 9803 2c7a 5057525F 		.ascii	"PWR_CTRL_SM_ST\000"
 9803      4354524C 
 9803      5F534D5F 
 9803      535400
 9804              	.LASF53:
 9805 2c89 70617373 		.ascii	"passSarChannels\000"
 9805      53617243 
 9805      68616E6E 
 9805      656C7300 
 9806              	.LASF18:
 9807 2c99 75696E74 		.ascii	"uint8_t\000"
 9807      385F7400 
 9808              	.LASF252:
 9809 2ca1 74637077 		.ascii	"tcpwm_1_interrupts_5_IRQn\000"
 9809      6D5F315F 
 9809      696E7465 
 9809      72727570 
 9809      74735F35 
 9810              	.LASF765:
 9811 2cbb 43595F42 		.ascii	"CY_BLE_EVT_GATTS_EXEC_WRITE_REQ\000"
 9811      4C455F45 
 9811      56545F47 
 9811      41545453 
 9811      5F455845 
 9812              	.LASF321:
 9813 2cdb 52585F46 		.ascii	"RX_FIFO_STATUS\000"
 9813      49464F5F 
 9813      53544154 
 9813      555300
 9814              	.LASF407:
 9815 2cea 4C455F52 		.ascii	"LE_RF_TEST_MODE_EXT\000"
 9815      465F5445 
 9815      53545F4D 
ARM GAS  C:\Users\ASUS\AppData\Local\Temp\cczm8cZa.s 			page 236


 9815      4F44455F 
 9815      45585400 
 9816              	.LASF374:
 9817 2cfe 57414B45 		.ascii	"WAKEUP_CONFIG_EXTD\000"
 9817      55505F43 
 9817      4F4E4649 
 9817      475F4558 
 9817      544400
 9818              	.LASF170:
 9819 2d11 73727373 		.ascii	"srss_interrupt_backup_IRQn\000"
 9819      5F696E74 
 9819      65727275 
 9819      70745F62 
 9819      61636B75 
 9820              	.LASF162:
 9821 2d2c 696F7373 		.ascii	"ioss_interrupts_gpio_13_IRQn\000"
 9821      5F696E74 
 9821      65727275 
 9821      7074735F 
 9821      6770696F 
 9822              	.LASF722:
 9823 2d49 43595F42 		.ascii	"CY_BLE_EVT_GAPC_SCAN_PROGRESS_RESULT\000"
 9823      4C455F45 
 9823      56545F47 
 9823      4150435F 
 9823      5343414E 
 9824              	.LASF716:
 9825 2d6e 43595F42 		.ascii	"CY_BLE_EVT_RADIO_TEMPERATURE\000"
 9825      4C455F45 
 9825      56545F52 
 9825      4144494F 
 9825      5F54454D 
 9826              	.LASF288:
 9827 2d8b 61756469 		.ascii	"audioss_interrupt_i2s_IRQn\000"
 9827      6F73735F 
 9827      696E7465 
 9827      72727570 
 9827      745F6932 
 9828              	.LASF340:
 9829 2da6 494E4954 		.ascii	"INIT_WINDOW\000"
 9829      5F57494E 
 9829      444F5700 
 9830              	.LASF1069:
 9831 2db2 63795F62 		.ascii	"cy_ble_stackDataBuff\000"
 9831      6C655F73 
 9831      7461636B 
 9831      44617461 
 9831      42756666 
 9832              	.LASF917:
 9833 2dc7 70616972 		.ascii	"pairingProperties\000"
 9833      696E6750 
 9833      726F7065 
 9833      72746965 
 9833      7300
 9834              	.LASF1040:
 9835 2dd9 61747456 		.ascii	"attValuesCCCD\000"
 9835      616C7565 
ARM GAS  C:\Users\ASUS\AppData\Local\Temp\cczm8cZa.s 			page 237


 9835      73434343 
 9835      4400
 9836              	.LASF953:
 9837 2de7 43595F42 		.ascii	"CY_BLE_STATE_INITIALIZING\000"
 9837      4C455F53 
 9837      54415445 
 9837      5F494E49 
 9837      5449414C 
 9838              	.LASF698:
 9839 2e01 43595F42 		.ascii	"CY_BLE_EVT_SET_PHY_COMPLETE\000"
 9839      4C455F45 
 9839      56545F53 
 9839      45545F50 
 9839      48595F43 
 9840              	.LASF633:
 9841 2e1d 666C6F61 		.ascii	"float\000"
 9841      7400
 9842              	.LASF961:
 9843 2e23 43595F42 		.ascii	"CY_BLE_CONN_STATE_DISCONNECTED\000"
 9843      4C455F43 
 9843      4F4E4E5F 
 9843      53544154 
 9843      455F4449 
 9844              	.LASF745:
 9845 2e42 43595F42 		.ascii	"CY_BLE_EVT_GAP_CREATE_CONN_CANCEL_COMPLETE\000"
 9845      4C455F45 
 9845      56545F47 
 9845      41505F43 
 9845      52454154 
 9846              	.LASF29:
 9847 2e6d 70617373 		.ascii	"passBase\000"
 9847      42617365 
 9847      00
 9848              	.LASF1062:
 9849 2e76 736C6565 		.ascii	"sleepMode\000"
 9849      704D6F64 
 9849      6500
 9850              	.LASF910:
 9851 2e80 43595F42 		.ascii	"CY_BLE_GAP_AUTH_ERROR_LINK_DISCONNECTED\000"
 9851      4C455F47 
 9851      41505F41 
 9851      5554485F 
 9851      4552524F 
 9852              	.LASF6:
 9853 2ea8 756E7369 		.ascii	"unsigned char\000"
 9853      676E6564 
 9853      20636861 
 9853      7200
 9854              	.LASF635:
 9855 2eb6 696E7472 		.ascii	"intrSrc\000"
 9855      53726300 
 9856              	.LASF566:
 9857 2ebe 4D4D4D53 		.ascii	"MMMS_RX_PKT_CNTR\000"
 9857      5F52585F 
 9857      504B545F 
 9857      434E5452 
 9857      00
ARM GAS  C:\Users\ASUS\AppData\Local\Temp\cczm8cZa.s 			page 238


 9858              	.LASF1037:
 9859 2ecf 666C6173 		.ascii	"flashStorage\000"
 9859      6853746F 
 9859      72616765 
 9859      00
 9860              	.LASF305:
 9861 2edc 52414449 		.ascii	"RADIO_REG2_ADDR\000"
 9861      4F5F5245 
 9861      47325F41 
 9861      44445200 
 9862              	.LASF841:
 9863 2eec 70726976 		.ascii	"privacyConfig\000"
 9863      61637943 
 9863      6F6E6669 
 9863      6700
 9864              	.LASF749:
 9865 2efa 43595F42 		.ascii	"CY_BLE_EVT_GATTC_ERROR_RSP\000"
 9865      4C455F45 
 9865      56545F47 
 9865      41545443 
 9865      5F455252 
 9866              	.LASF868:
 9867 2f15 43595F42 		.ascii	"CY_BLE_LL_PWR_LVL_MAX\000"
 9867      4C455F4C 
 9867      4C5F5057 
 9867      525F4C56 
 9867      4C5F4D41 
 9868              	.LASF805:
 9869 2f2b 43595F42 		.ascii	"CY_BLE_ERROR_UNSUPPORTED_FEATURE_OR_PARAMETER_VALUE"
 9869      4C455F45 
 9869      52524F52 
 9869      5F554E53 
 9869      5550504F 
 9870 2f5e 00       		.ascii	"\000"
 9871              	.LASF240:
 9872 2f5f 74637077 		.ascii	"tcpwm_0_interrupts_1_IRQn\000"
 9872      6D5F305F 
 9872      696E7465 
 9872      72727570 
 9872      74735F31 
 9873              	.LASF873:
 9874 2f79 63795F65 		.ascii	"cy_en_ble_lp_mode_t\000"
 9874      6E5F626C 
 9874      655F6C70 
 9874      5F6D6F64 
 9874      655F7400 
 9875              	.LASF435:
 9876 2f8d 4C4C5F44 		.ascii	"LL_DBG_1\000"
 9876      42475F31 
 9876      00
 9877              	.LASF436:
 9878 2f96 4C4C5F44 		.ascii	"LL_DBG_2\000"
 9878      42475F32 
 9878      00
 9879              	.LASF437:
 9880 2f9f 4C4C5F44 		.ascii	"LL_DBG_3\000"
 9880      42475F33 
ARM GAS  C:\Users\ASUS\AppData\Local\Temp\cczm8cZa.s 			page 239


 9880      00
 9881              	.LASF438:
 9882 2fa8 4C4C5F44 		.ascii	"LL_DBG_4\000"
 9882      42475F34 
 9882      00
 9883              	.LASF439:
 9884 2fb1 4C4C5F44 		.ascii	"LL_DBG_5\000"
 9884      42475F35 
 9884      00
 9885              	.LASF440:
 9886 2fba 4C4C5F44 		.ascii	"LL_DBG_6\000"
 9886      42475F36 
 9886      00
 9887              	.LASF441:
 9888 2fc3 4C4C5F44 		.ascii	"LL_DBG_7\000"
 9888      42475F37 
 9888      00
 9889              	.LASF442:
 9890 2fcc 4C4C5F44 		.ascii	"LL_DBG_8\000"
 9890      42475F38 
 9890      00
 9891              	.LASF443:
 9892 2fd5 4C4C5F44 		.ascii	"LL_DBG_9\000"
 9892      42475F39 
 9892      00
 9893              	.LASF739:
 9894 2fde 43595F42 		.ascii	"CY_BLE_EVT_GAPC_DIRECT_ADV_REPORT\000"
 9894      4C455F45 
 9894      56545F47 
 9894      4150435F 
 9894      44495245 
 9895              	.LASF812:
 9896 3000 43595F42 		.ascii	"CY_BLE_ERROR_IND_DISABLED\000"
 9896      4C455F45 
 9896      52524F52 
 9896      5F494E44 
 9896      5F444953 
 9897              	.LASF486:
 9898 301a 4C455F50 		.ascii	"LE_PING_TIMER_ADDR\000"
 9898      494E475F 
 9898      54494D45 
 9898      525F4144 
 9898      445200
 9899              	.LASF916:
 9900 302d 61757468 		.ascii	"authErr\000"
 9900      45727200 
 9901              	.LASF191:
 9902 3035 7363625F 		.ascii	"scb_1_interrupt_IRQn\000"
 9902      315F696E 
 9902      74657272 
 9902      7570745F 
 9902      4952516E 
 9903              	.LASF275:
 9904 304a 7564625F 		.ascii	"udb_interrupts_4_IRQn\000"
 9904      696E7465 
 9904      72727570 
 9904      74735F34 
ARM GAS  C:\Users\ASUS\AppData\Local\Temp\cczm8cZa.s 			page 240


 9904      5F495251 
 9905              	.LASF772:
 9906 3060 43595F42 		.ascii	"CY_BLE_EVT_GATTS_READ_CHAR_VAL_ACCESS_REQ\000"
 9906      4C455F45 
 9906      56545F47 
 9906      41545453 
 9906      5F524541 
 9907              	.LASF652:
 9908 308a 43595F53 		.ascii	"CY_SYSPM_ULP\000"
 9908      5953504D 
 9908      5F554C50 
 9908      00
 9909              	.LASF59:
 9910 3097 666C6173 		.ascii	"flashRwwRequired\000"
 9910      68527777 
 9910      52657175 
 9910      69726564 
 9910      00
 9911              	.LASF221:
 9912 30a8 63707573 		.ascii	"cpuss_interrupts_dw1_6_IRQn\000"
 9912      735F696E 
 9912      74657272 
 9912      75707473 
 9912      5F647731 
 9913              	.LASF528:
 9914 30c4 41434355 		.ascii	"ACCU_WINDOW_WIDEN_STATUS\000"
 9914      5F57494E 
 9914      444F575F 
 9914      57494445 
 9914      4E5F5354 
 9915              	.LASF987:
 9916 30dd 66617374 		.ascii	"fastScanTimeOut\000"
 9916      5363616E 
 9916      54696D65 
 9916      4F757400 
 9917              	.LASF193:
 9918 30ed 7363625F 		.ascii	"scb_3_interrupt_IRQn\000"
 9918      335F696E 
 9918      74657272 
 9918      7570745F 
 9918      4952516E 
 9919              	.LASF522:
 9920 3102 434F4E4E 		.ascii	"CONN_NI_STATUS\000"
 9920      5F4E495F 
 9920      53544154 
 9920      555300
 9921              	.LASF334:
 9922 3111 5343414E 		.ascii	"SCAN_WINDOW\000"
 9922      5F57494E 
 9922      444F5700 
 9923              	.LASF892:
 9924 311d 43595F42 		.ascii	"CY_BLE_GAP_IOCAP_KEYBOARD_DISPLAY\000"
 9924      4C455F47 
 9924      41505F49 
 9924      4F434150 
 9924      5F4B4559 
 9925              	.LASF798:
ARM GAS  C:\Users\ASUS\AppData\Local\Temp\cczm8cZa.s 			page 241


 9926 313f 43595F42 		.ascii	"CY_BLE_ERROR_GAP_ROLE\000"
 9926      4C455F45 
 9926      52524F52 
 9926      5F474150 
 9926      5F524F4C 
 9927              	.LASF453:
 9928 3155 434F4E4E 		.ascii	"CONN_CONFIG_EXT\000"
 9928      5F434F4E 
 9928      4649475F 
 9928      45585400 
 9929              	.LASF557:
 9930 3165 4D4D4D53 		.ascii	"MMMS_ADVCH_NI_ENABLE\000"
 9930      5F414456 
 9930      43485F4E 
 9930      495F454E 
 9930      41424C45 
 9931              	.LASF343:
 9932 317a 494E4954 		.ascii	"INIT_INTR\000"
 9932      5F494E54 
 9932      5200
 9933              	.LASF860:
 9934 3184 6D656D50 		.ascii	"memParam\000"
 9934      6172616D 
 9934      00
 9935              	.LASF460:
 9936 318d 52455345 		.ascii	"RESERVED28\000"
 9936      52564544 
 9936      323800
 9937              	.LASF140:
 9938 3198 4E766963 		.ascii	"NvicMux25_IRQn\000"
 9938      4D757832 
 9938      355F4952 
 9938      516E00
 9939              	.LASF195:
 9940 31a7 7363625F 		.ascii	"scb_5_interrupt_IRQn\000"
 9940      355F696E 
 9940      74657272 
 9940      7570745F 
 9940      4952516E 
 9941              	.LASF164:
 9942 31bc 696F7373 		.ascii	"ioss_interrupt_gpio_IRQn\000"
 9942      5F696E74 
 9942      65727275 
 9942      70745F67 
 9942      70696F5F 
 9943              	.LASF742:
 9944 31d5 43595F42 		.ascii	"CY_BLE_EVT_GAP_KEYS_GEN_COMPLETE\000"
 9944      4C455F45 
 9944      56545F47 
 9944      41505F4B 
 9944      4559535F 
 9945              	.LASF266:
 9946 31f6 74637077 		.ascii	"tcpwm_1_interrupts_19_IRQn\000"
 9946      6D5F315F 
 9946      696E7465 
 9946      72727570 
 9946      74735F31 
ARM GAS  C:\Users\ASUS\AppData\Local\Temp\cczm8cZa.s 			page 242


 9947              	.LASF226:
 9948 3211 63707573 		.ascii	"cpuss_interrupts_dw1_11_IRQn\000"
 9948      735F696E 
 9948      74657272 
 9948      75707473 
 9948      5F647731 
 9949              	.LASF578:
 9950 322e 52534C56 		.ascii	"RSLV_LIST_TX_INIT_RPA_BASE_ADDR\000"
 9950      5F4C4953 
 9950      545F5458 
 9950      5F494E49 
 9950      545F5250 
 9951              	.LASF197:
 9952 324e 7363625F 		.ascii	"scb_7_interrupt_IRQn\000"
 9952      375F696E 
 9952      74657272 
 9952      7570745F 
 9952      4952516E 
 9953              	.LASF766:
 9954 3263 43595F42 		.ascii	"CY_BLE_EVT_GATTC_EXEC_WRITE_RSP\000"
 9954      4C455F45 
 9954      56545F47 
 9954      41545443 
 9954      5F455845 
 9955              	.LASF179:
 9956 3283 63707573 		.ascii	"cpuss_interrupts_ipc_5_IRQn\000"
 9956      735F696E 
 9956      74657272 
 9956      75707473 
 9956      5F697063 
 9957              	.LASF149:
 9958 329f 696F7373 		.ascii	"ioss_interrupts_gpio_0_IRQn\000"
 9958      5F696E74 
 9958      65727275 
 9958      7074735F 
 9958      6770696F 
 9959              	.LASF1092:
 9960 32bb 63795F62 		.ascii	"cy_ble_busyStatus\000"
 9960      6C655F62 
 9960      75737953 
 9960      74617475 
 9960      7300
 9961              	.LASF759:
 9962 32cd 43595F42 		.ascii	"CY_BLE_EVT_GATTC_READ_BLOB_RSP\000"
 9962      4C455F45 
 9962      56545F47 
 9962      41545443 
 9962      5F524541 
 9963              	.LASF664:
 9964 32ec 74797065 		.ascii	"type\000"
 9964      00
 9965              	.LASF881:
 9966 32f1 63795F65 		.ascii	"cy_en_ble_bless_state_t\000"
 9966      6E5F626C 
 9966      655F626C 
 9966      6573735F 
 9966      73746174 
ARM GAS  C:\Users\ASUS\AppData\Local\Temp\cczm8cZa.s 			page 243


 9967              	.LASF663:
 9968 3309 63616C6C 		.ascii	"callback\000"
 9968      6261636B 
 9968      00
 9969              	.LASF118:
 9970 3312 4E766963 		.ascii	"NvicMux3_IRQn\000"
 9970      4D757833 
 9970      5F495251 
 9970      6E00
 9971              	.LASF947:
 9972 3320 63795F73 		.ascii	"cy_stc_ble_gapp_scan_rsp_data_t\000"
 9972      74635F62 
 9972      6C655F67 
 9972      6170705F 
 9972      7363616E 
 9973              	.LASF111:
 9974 3340 48617264 		.ascii	"HardFault_IRQn\000"
 9974      4661756C 
 9974      745F4952 
 9974      516E00
 9975              	.LASF872:
 9976 334f 43595F42 		.ascii	"CY_BLE_BLESS_INVALID\000"
 9976      4C455F42 
 9976      4C455353 
 9976      5F494E56 
 9976      414C4944 
 9977              	.LASF93:
 9978 3364 63707573 		.ascii	"cpussCm4ClockCtlOffset\000"
 9978      73436D34 
 9978      436C6F63 
 9978      6B43746C 
 9978      4F666673 
 9979              	.LASF72:
 9980 337b 64774368 		.ascii	"dwChCtlPreemptablePos\000"
 9980      43746C50 
 9980      7265656D 
 9980      70746162 
 9980      6C65506F 
 9981              	.LASF570:
 9982 3391 57484954 		.ascii	"WHITELIST_BASE_ADDR\000"
 9982      454C4953 
 9982      545F4241 
 9982      53455F41 
 9982      44445200 
 9983              	.LASF562:
 9984 33a5 434F4E4E 		.ascii	"CONN_PARAM_ACC_WIN_WIDEN\000"
 9984      5F504152 
 9984      414D5F41 
 9984      43435F57 
 9984      494E5F57 
 9985              	.LASF828:
 9986 33be 7265736F 		.ascii	"resolvingListSize\000"
 9986      6C76696E 
 9986      674C6973 
 9986      7453697A 
 9986      6500
 9987              	.LASF249:
ARM GAS  C:\Users\ASUS\AppData\Local\Temp\cczm8cZa.s 			page 244


 9988 33d0 74637077 		.ascii	"tcpwm_1_interrupts_2_IRQn\000"
 9988      6D5F315F 
 9988      696E7465 
 9988      72727570 
 9988      74735F32 
 9989              	.LASF875:
 9990 33ea 43595F42 		.ascii	"CY_BLE_BLESS_STATE_EVENT_CLOSE\000"
 9990      4C455F42 
 9990      4C455353 
 9990      5F535441 
 9990      54455F45 
 9991              	.LASF133:
 9992 3409 4E766963 		.ascii	"NvicMux18_IRQn\000"
 9992      4D757831 
 9992      385F4952 
 9992      516E00
 9993              	.LASF1108:
 9994 3418 43795F53 		.ascii	"Cy_SysPm_RegisterCallback\000"
 9994      7973506D 
 9994      5F526567 
 9994      69737465 
 9994      7243616C 
 9995              	.LASF530:
 9996 3432 4D4D4D53 		.ascii	"MMMS_CONFIG\000"
 9996      5F434F4E 
 9996      46494700 
 9997              	.LASF105:
 9998 343e 63707573 		.ascii	"cpussRam2Ctl0\000"
 9998      7352616D 
 9998      3243746C 
 9998      3000
 9999              	.LASF877:
 10000 344c 43595F42 		.ascii	"CY_BLE_BLESS_STATE_ECO_STABLE\000"
 10000      4C455F42 
 10000      4C455353 
 10000      5F535441 
 10000      54455F45 
 10001              	.LASF726:
 10002 346a 43595F42 		.ascii	"CY_BLE_EVT_GAP_AUTH_COMPLETE\000"
 10002      4C455F45 
 10002      56545F47 
 10002      41505F41 
 10002      5554485F 
 10003              	.LASF832:
 10004 3487 77686974 		.ascii	"whiteListSize\000"
 10004      654C6973 
 10004      7453697A 
 10004      6500
 10005              	.LASF235:
 10006 3495 63707573 		.ascii	"cpuss_interrupts_cm0_cti_0_IRQn\000"
 10006      735F696E 
 10006      74657272 
 10006      75707473 
 10006      5F636D30 
 10007              	.LASF919:
 10008 34b5 64697363 		.ascii	"discProcedure\000"
 10008      50726F63 
ARM GAS  C:\Users\ASUS\AppData\Local\Temp\cczm8cZa.s 			page 245


 10008      65647572 
 10008      6500
 10009              	.LASF47:
 10010 34c3 63707573 		.ascii	"cpussNotConnectedIrq\000"
 10010      734E6F74 
 10010      436F6E6E 
 10010      65637465 
 10010      64497271 
 10011              	.LASF850:
 10012 34d8 62756666 		.ascii	"bufferUnits\000"
 10012      6572556E 
 10012      69747300 
 10013              	.LASF159:
 10014 34e4 696F7373 		.ascii	"ioss_interrupts_gpio_10_IRQn\000"
 10014      5F696E74 
 10014      65727275 
 10014      7074735F 
 10014      6770696F 
 10015              	.LASF582:
 10016 3501 5854414C 		.ascii	"XTAL_CLK_DIV_CONFIG\000"
 10016      5F434C4B 
 10016      5F444956 
 10016      5F434F4E 
 10016      46494700 
 10017              	.LASF1083:
 10018 3515 63795F62 		.ascii	"cy_ble_advState\000"
 10018      6C655F61 
 10018      64765374 
 10018      61746500 
 10019              	.LASF314:
 10020 3525 53544154 		.ascii	"STATUS\000"
 10020      555300
 10021              	.LASF206:
 10022 352c 63707573 		.ascii	"cpuss_interrupts_dw0_7_IRQn\000"
 10022      735F696E 
 10022      74657272 
 10022      75707473 
 10022      5F647730 
 10023              	.LASF888:
 10024 3548 43595F42 		.ascii	"CY_BLE_GAP_IOCAP_DISPLAY_ONLY\000"
 10024      4C455F47 
 10024      41505F49 
 10024      4F434150 
 10024      5F444953 
 10025              	.LASF638:
 10026 3566 63795F73 		.ascii	"cy_stc_sysint_t\000"
 10026      74635F73 
 10026      7973696E 
 10026      745F7400 
 10027              	.LASF793:
 10028 3576 43595F42 		.ascii	"CY_BLE_ERROR_OOB_NOT_AVAILABLE\000"
 10028      4C455F45 
 10028      52524F52 
 10028      5F4F4F42 
 10028      5F4E4F54 
 10029              	.LASF983:
 10030 3595 736C6F77 		.ascii	"slowAdvTimeOut\000"
ARM GAS  C:\Users\ASUS\AppData\Local\Temp\cczm8cZa.s 			page 246


 10030      41647654 
 10030      696D654F 
 10030      757400
 10031              	.LASF777:
 10032 35a4 43595F42 		.ascii	"CY_BLE_EVT_L2CAP_CBFC_CONN_IND\000"
 10032      4C455F45 
 10032      56545F4C 
 10032      32434150 
 10032      5F434246 
 10033              	.LASF12:
 10034 35c3 5F5F7569 		.ascii	"__uint32_t\000"
 10034      6E743332 
 10034      5F7400
 10035              	.LASF270:
 10036 35ce 74637077 		.ascii	"tcpwm_1_interrupts_23_IRQn\000"
 10036      6D5F315F 
 10036      696E7465 
 10036      72727570 
 10036      74735F32 
 10037              	.LASF607:
 10038 35e9 4449565F 		.ascii	"DIV_BY_625_STS\000"
 10038      42595F36 
 10038      32355F53 
 10038      545300
 10039              	.LASF657:
 10040 35f8 43595F53 		.ascii	"CY_SYSPM_AFTER_TRANSITION\000"
 10040      5953504D 
 10040      5F414654 
 10040      45525F54 
 10040      52414E53 
 10041              	.LASF583:
 10042 3612 494E5452 		.ascii	"INTR_STAT\000"
 10042      5F535441 
 10042      5400
 10043              	.LASF735:
 10044 361c 43595F42 		.ascii	"CY_BLE_EVT_GAP_NUMERIC_COMPARISON_REQUEST\000"
 10044      4C455F45 
 10044      56545F47 
 10044      41505F4E 
 10044      554D4552 
 10045              	.LASF1090:
 10046 3646 63795F62 		.ascii	"cy_ble_stackMemoryRam\000"
 10046      6C655F73 
 10046      7461636B 
 10046      4D656D6F 
 10046      72795261 
 10047              	.LASF702:
 10048 365c 43595F42 		.ascii	"CY_BLE_EVT_SOFT_RESET_COMPLETE\000"
 10048      4C455F45 
 10048      56545F53 
 10048      4F46545F 
 10048      52455345 
 10049              	.LASF720:
 10050 367b 43595F42 		.ascii	"CY_BLE_EVT_SET_CE_LENGTH_COMPLETE\000"
 10050      4C455F45 
 10050      56545F53 
 10050      45545F43 
ARM GAS  C:\Users\ASUS\AppData\Local\Temp\cczm8cZa.s 			page 247


 10050      455F4C45 
 10051              	.LASF458:
 10052 369d 494E4954 		.ascii	"INIT_WINDOW_OFFSET\000"
 10052      5F57494E 
 10052      444F575F 
 10052      4F464653 
 10052      455400
 10053              	.LASF823:
 10054 36b0 646C654E 		.ascii	"dleNumTxBuffer\000"
 10054      756D5478 
 10054      42756666 
 10054      657200
 10055              	.LASF577:
 10056 36bf 52455345 		.ascii	"RESERVED57\000"
 10056      52564544 
 10056      353700
 10057              	.LASF591:
 10058 36ca 4D545F44 		.ascii	"MT_DELAY_CFG2\000"
 10058      454C4159 
 10058      5F434647 
 10058      3200
 10059              	.LASF592:
 10060 36d8 4D545F44 		.ascii	"MT_DELAY_CFG3\000"
 10060      454C4159 
 10060      5F434647 
 10060      3300
 10061              	.LASF272:
 10062 36e6 7564625F 		.ascii	"udb_interrupts_1_IRQn\000"
 10062      696E7465 
 10062      72727570 
 10062      74735F31 
 10062      5F495251 
 10063              	.LASF825:
 10064 36fc 63795F73 		.ascii	"cy_stc_ble_dle_config_param_t\000"
 10064      74635F62 
 10064      6C655F64 
 10064      6C655F63 
 10064      6F6E6669 
 10065              	.LASF513:
 10066 371a 434F4E4E 		.ascii	"CONN_3_PARAM_MEM_BASE_ADDR\000"
 10066      5F335F50 
 10066      4152414D 
 10066      5F4D454D 
 10066      5F424153 
 10067              	.LASF318:
 10068 3735 54585F46 		.ascii	"TX_FIFO_WR\000"
 10068      49464F5F 
 10068      575200
 10069              	.LASF585:
 10070 3740 4C465F43 		.ascii	"LF_CLK_CTRL\000"
 10070      4C4B5F43 
 10070      54524C00 
 10071              	.LASF218:
 10072 374c 63707573 		.ascii	"cpuss_interrupts_dw1_3_IRQn\000"
 10072      735F696E 
 10072      74657272 
 10072      75707473 
ARM GAS  C:\Users\ASUS\AppData\Local\Temp\cczm8cZa.s 			page 248


 10072      5F647731 
 10073              	.LASF718:
 10074 3768 43595F42 		.ascii	"CY_BLE_EVT_AES_CMAC_GEN_COMPLETE\000"
 10074      4C455F45 
 10074      56545F41 
 10074      45535F43 
 10074      4D41435F 
 10075              	.LASF671:
 10076 3789 43595F42 		.ascii	"CY_BLE_EVT_STACK_ON\000"
 10076      4C455F45 
 10076      56545F53 
 10076      5441434B 
 10076      5F4F4E00 
 10077              	.LASF36:
 10078 379d 6770696F 		.ascii	"gpioVersion\000"
 10078      56657273 
 10078      696F6E00 
 10079              	.LASF725:
 10080 37a9 43595F42 		.ascii	"CY_BLE_EVT_GAP_PASSKEY_DISPLAY_REQUEST\000"
 10080      4C455F45 
 10080      56545F47 
 10080      41505F50 
 10080      4153534B 
 10081              	.LASF882:
 10082 37d0 43595F42 		.ascii	"CY_BLE_CONTROLLER_SLEEP_MODE_SLEEP\000"
 10082      4C455F43 
 10082      4F4E5452 
 10082      4F4C4C45 
 10082      525F534C 
 10083              	.LASF847:
 10084 37f3 6D617842 		.ascii	"maxBleConnections\000"
 10084      6C65436F 
 10084      6E6E6563 
 10084      74696F6E 
 10084      7300
 10085              	.LASF137:
 10086 3805 4E766963 		.ascii	"NvicMux22_IRQn\000"
 10086      4D757832 
 10086      325F4952 
 10086      516E00
 10087              	.LASF1051:
 10088 3814 43595F49 		.ascii	"CY_IPC_SEMA_ERROR_UNLOCKED\000"
 10088      50435F53 
 10088      454D415F 
 10088      4552524F 
 10088      525F554E 
 10089              	.LASF986:
 10090 382f 66617374 		.ascii	"fastScanWindow\000"
 10090      5363616E 
 10090      57696E64 
 10090      6F7700
 10091              	.LASF797:
 10092 383e 43595F42 		.ascii	"CY_BLE_ERROR_REPEATED_ATTEMPTS\000"
 10092      4C455F45 
 10092      52524F52 
 10092      5F524550 
 10092      45415445 
ARM GAS  C:\Users\ASUS\AppData\Local\Temp\cczm8cZa.s 			page 249


 10093              	.LASF565:
 10094 385d 4144565F 		.ascii	"ADV_RAND\000"
 10094      52414E44 
 10094      00
 10095              	.LASF263:
 10096 3866 74637077 		.ascii	"tcpwm_1_interrupts_16_IRQn\000"
 10096      6D5F315F 
 10096      696E7465 
 10096      72727570 
 10096      74735F31 
 10097              	.LASF856:
 10098 3881 626C6553 		.ascii	"bleStackFlashPointer\000"
 10098      7461636B 
 10098      466C6173 
 10098      68506F69 
 10098      6E746572 
 10099              	.LASF492:
 10100 3896 54585F52 		.ascii	"TX_RX_SYNTH_DELAY\000"
 10100      585F5359 
 10100      4E54485F 
 10100      44454C41 
 10100      5900
 10101              	.LASF176:
 10102 38a8 63707573 		.ascii	"cpuss_interrupts_ipc_2_IRQn\000"
 10102      735F696E 
 10102      74657272 
 10102      75707473 
 10102      5F697063 
 10103              	.LASF296:
 10104 38c4 64697363 		.ascii	"disconnected_IRQn\000"
 10104      6F6E6E65 
 10104      63746564 
 10104      5F495251 
 10104      6E00
 10105              	.LASF853:
 10106 38d6 64617461 		.ascii	"dataBuff\000"
 10106      42756666 
 10106      00
 10107              	.LASF1061:
 10108 38df 626C6573 		.ascii	"blessState\000"
 10108      73537461 
 10108      746500
 10109              	.LASF646:
 10110 38ea 43595F53 		.ascii	"CY_SYSPM_WAIT_FOR_INTERRUPT\000"
 10110      5953504D 
 10110      5F574149 
 10110      545F464F 
 10110      525F494E 
 10111              	.LASF541:
 10112 3906 434F4E4E 		.ascii	"CONN_1_DATA_LIST_SENT\000"
 10112      5F315F44 
 10112      4154415F 
 10112      4C495354 
 10112      5F53454E 
 10113              	.LASF682:
 10114 391c 43595F42 		.ascii	"CY_BLE_EVT_LE_PING_AUTH_TIMEOUT\000"
 10114      4C455F45 
ARM GAS  C:\Users\ASUS\AppData\Local\Temp\cczm8cZa.s 			page 250


 10114      56545F4C 
 10114      455F5049 
 10114      4E475F41 
 10115              	.LASF115:
 10116 393c 4E766963 		.ascii	"NvicMux0_IRQn\000"
 10116      4D757830 
 10116      5F495251 
 10116      6E00
 10117              	.LASF820:
 10118 394a 63795F73 		.ascii	"cy_stc_ble_bd_addr_t\000"
 10118      74635F62 
 10118      6C655F62 
 10118      645F6164 
 10118      64725F74 
 10119              	.LASF666:
 10120 395f 63616C6C 		.ascii	"callbackParams\000"
 10120      6261636B 
 10120      50617261 
 10120      6D7300
 10121              	.LASF900:
 10122 396e 43595F42 		.ascii	"CY_BLE_GAP_AUTH_ERROR_INSUFFICIENT_ENCRYPTION_KEY_S"
 10122      4C455F47 
 10122      41505F41 
 10122      5554485F 
 10122      4552524F 
 10123 39a1 495A4500 		.ascii	"IZE\000"
 10124              	.LASF618:
 10125 39a5 454E435F 		.ascii	"ENC_INTR\000"
 10125      494E5452 
 10125      00
 10126              	.LASF1116:
 10127 39ae 63795F73 		.ascii	"cy_stc_syspm_callback\000"
 10127      74635F73 
 10127      7973706D 
 10127      5F63616C 
 10127      6C626163 
 10128              	.LASF871:
 10129 39c4 43595F42 		.ascii	"CY_BLE_BLESS_DEEPSLEEP\000"
 10129      4C455F42 
 10129      4C455353 
 10129      5F444545 
 10129      50534C45 
 10130              	.LASF549:
 10131 39db 434F4E4E 		.ascii	"CONN_3_DATA_LIST_SENT\000"
 10131      5F335F44 
 10131      4154415F 
 10131      4C495354 
 10131      5F53454E 
 10132              	.LASF1104:
 10133 39f1 43795F42 		.ascii	"Cy_BLE_ServiceInit\000"
 10133      4C455F53 
 10133      65727669 
 10133      6365496E 
 10133      697400
 10134              	.LASF581:
 10135 3a04 44444654 		.ascii	"DDFT_CONFIG\000"
 10135      5F434F4E 
ARM GAS  C:\Users\ASUS\AppData\Local\Temp\cczm8cZa.s 			page 251


 10135      46494700 
 10136              	.LASF559:
 10137 3a10 4D4D4D53 		.ascii	"MMMS_ADVCH_NI_ABORT\000"
 10137      5F414456 
 10137      43485F4E 
 10137      495F4142 
 10137      4F525400 
 10138              	.LASF130:
 10139 3a24 4E766963 		.ascii	"NvicMux15_IRQn\000"
 10139      4D757831 
 10139      355F4952 
 10139      516E00
 10140              	.LASF763:
 10141 3a33 43595F42 		.ascii	"CY_BLE_EVT_GATTS_WRITE_CMD_REQ\000"
 10141      4C455F45 
 10141      56545F47 
 10141      41545453 
 10141      5F575249 
 10142              	.LASF784:
 10143 3a52 43595F42 		.ascii	"CY_BLE_EVT_L2CAP_CBFC_DATA_WRITE_IND\000"
 10143      4C455F45 
 10143      56545F4C 
 10143      32434150 
 10143      5F434246 
 10144              	.LASF691:
 10145 3a77 43595F42 		.ascii	"CY_BLE_EVT_SET_HOST_CHANNEL_COMPLETE\000"
 10145      4C455F45 
 10145      56545F53 
 10145      45545F48 
 10145      4F53545F 
 10146              	.LASF1065:
 10147 3a9c 43795F42 		.ascii	"Cy_BLE_Init\000"
 10147      4C455F49 
 10147      6E697400 
 10148              	.LASF1110:
 10149 3aa8 43795F42 		.ascii	"Cy_BLE_StackSetFeatureConfig\000"
 10149      4C455F53 
 10149      7461636B 
 10149      53657446 
 10149      65617475 
 10150              	.LASF203:
 10151 3ac5 63707573 		.ascii	"cpuss_interrupts_dw0_4_IRQn\000"
 10151      735F696E 
 10151      74657272 
 10151      75707473 
 10151      5F647730 
 10152              	.LASF1113:
 10153 3ae1 474E5520 		.ascii	"GNU C11 5.4.1 20160609 (release) [ARM/embedded-5-br"
 10153      43313120 
 10153      352E342E 
 10153      31203230 
 10153      31363036 
 10154 3b14 616E6368 		.ascii	"anch revision 237715] -mcpu=cortex-m0plus -mthumb -"
 10154      20726576 
 10154      6973696F 
 10154      6E203233 
 10154      37373135 
ARM GAS  C:\Users\ASUS\AppData\Local\Temp\cczm8cZa.s 			page 252


 10155 3b47 67202D4F 		.ascii	"g -Og -ffunction-sections -ffat-lto-objects\000"
 10155      67202D66 
 10155      66756E63 
 10155      74696F6E 
 10155      2D736563 
 10156              	.LASF891:
 10157 3b73 43595F42 		.ascii	"CY_BLE_GAP_IOCAP_NOINPUT_NOOUTPUT\000"
 10157      4C455F47 
 10157      41505F49 
 10157      4F434150 
 10157      5F4E4F49 
 10158              	.LASF487:
 10159 3b95 4C455F50 		.ascii	"LE_PING_TIMER_OFFSET\000"
 10159      494E475F 
 10159      54494D45 
 10159      525F4F46 
 10159      46534554 
 10160              	.LASF69:
 10161 3baa 64774368 		.ascii	"dwChOffset\000"
 10161      4F666673 
 10161      657400
 10162              	.LASF827:
 10163 3bb5 63795F73 		.ascii	"cy_stc_ble_l2cap_config_param_t\000"
 10163      74635F62 
 10163      6C655F6C 
 10163      32636170 
 10163      5F636F6E 
 10164              	.LASF57:
 10165 3bd5 70726F74 		.ascii	"protBusMasterMask\000"
 10165      4275734D 
 10165      61737465 
 10165      724D6173 
 10165      6B00
 10166              	.LASF233:
 10167 3be7 63707573 		.ascii	"cpuss_interrupt_crypto_IRQn\000"
 10167      735F696E 
 10167      74657272 
 10167      7570745F 
 10167      63727970 
 10168              	.LASF794:
 10169 3c03 43595F42 		.ascii	"CY_BLE_ERROR_NO_CONNECTION\000"
 10169      4C455F45 
 10169      52524F52 
 10169      5F4E4F5F 
 10169      434F4E4E 
 10170              	.LASF973:
 10171 3c1e 70726566 		.ascii	"prefConnParamCharHandle\000"
 10171      436F6E6E 
 10171      50617261 
 10171      6D436861 
 10171      7248616E 
 10172              	.LASF87:
 10173 3c36 6770696F 		.ascii	"gpioPrtIntrCfgOffset\000"
 10173      50727449 
 10173      6E747243 
 10173      66674F66 
 10173      66736574 
ARM GAS  C:\Users\ASUS\AppData\Local\Temp\cczm8cZa.s 			page 253


 10174              	.LASF701:
 10175 3c4b 43595F42 		.ascii	"CY_BLE_EVT_LL_CNTRL_PROC_PENDING_COMPLETE\000"
 10175      4C455F45 
 10175      56545F4C 
 10175      4C5F434E 
 10175      54524C5F 
 10176              	.LASF319:
 10177 3c75 52585F43 		.ascii	"RX_CTRL\000"
 10177      54524C00 
 10178              	.LASF75:
 10179 3c7d 70657269 		.ascii	"periTrCmdOffset\000"
 10179      5472436D 
 10179      644F6666 
 10179      73657400 
 10180              	.LASF37:
 10181 3c8d 6873696F 		.ascii	"hsiomVersion\000"
 10181      6D566572 
 10181      73696F6E 
 10181      00
 10182              	.LASF267:
 10183 3c9a 74637077 		.ascii	"tcpwm_1_interrupts_20_IRQn\000"
 10183      6D5F315F 
 10183      696E7465 
 10183      72727570 
 10183      74735F32 
 10184              	.LASF551:
 10185 3cb5 434F4E4E 		.ascii	"CONN_3_CE_DATA_LIST_CFG\000"
 10185      5F335F43 
 10185      455F4441 
 10185      54415F4C 
 10185      4953545F 
 10186              	.LASF946:
 10187 3ccd 7363616E 		.ascii	"scanRspDataLen\000"
 10187      52737044 
 10187      6174614C 
 10187      656E00
 10188              	.LASF649:
 10189 3cdc 43595F53 		.ascii	"CY_SYSPM_DEEPSLEEP\000"
 10189      5953504D 
 10189      5F444545 
 10189      50534C45 
 10189      455000
 10190              	.LASF933:
 10191 3cef 63795F65 		.ascii	"cy_en_ble_gapp_adv_t\000"
 10191      6E5F626C 
 10191      655F6761 
 10191      70705F61 
 10191      64765F74 
 10192              	.LASF284:
 10193 3d04 7564625F 		.ascii	"udb_interrupts_13_IRQn\000"
 10193      696E7465 
 10193      72727570 
 10193      74735F31 
 10193      335F4952 
 10194              	.LASF814:
 10195 3d1b 43595F42 		.ascii	"CY_BLE_ERROR_CONTROLLER_BUSY\000"
 10195      4C455F45 
ARM GAS  C:\Users\ASUS\AppData\Local\Temp\cczm8cZa.s 			page 254


 10195      52524F52 
 10195      5F434F4E 
 10195      54524F4C 
 10196              	.LASF485:
 10197 3d38 534C5F43 		.ascii	"SL_CONN_INTERVAL\000"
 10197      4F4E4E5F 
 10197      494E5445 
 10197      5256414C 
 10197      00
 10198              	.LASF951:
 10199 3d49 63795F73 		.ascii	"cy_stc_ble_gapp_disc_mode_info_t\000"
 10199      74635F62 
 10199      6C655F67 
 10199      6170705F 
 10199      64697363 
 10200              	.LASF328:
 10201 3d6a 4556454E 		.ascii	"EVENT_ENABLE\000"
 10201      545F454E 
 10201      41424C45 
 10201      00
 10202              	.LASF1024:
 10203 3d77 626F756E 		.ascii	"boundedDevCount\000"
 10203      64656444 
 10203      6576436F 
 10203      756E7400 
 10204              	.LASF48:
 10205 3d87 73727373 		.ascii	"srssNumClkpath\000"
 10205      4E756D43 
 10205      6C6B7061 
 10205      746800
 10206              	.LASF982:
 10207 3d96 736C6F77 		.ascii	"slowAdvIntervalMax\000"
 10207      41647649 
 10207      6E746572 
 10207      76616C4D 
 10207      617800
 10208              	.LASF990:
 10209 3da9 736C6F77 		.ascii	"slowScanWindow\000"
 10209      5363616E 
 10209      57696E64 
 10209      6F7700
 10210              	.LASF64:
 10211 3db8 666C6173 		.ascii	"flashCtlMainWs0Freq\000"
 10211      6843746C 
 10211      4D61696E 
 10211      57733046 
 10211      72657100 
 10212              	.LASF1038:
 10213 3dcc 67617474 		.ascii	"gatts\000"
 10213      7300
 10214              	.LASF215:
 10215 3dd2 63707573 		.ascii	"cpuss_interrupts_dw1_0_IRQn\000"
 10215      735F696E 
 10215      74657272 
 10215      75707473 
 10215      5F647731 
 10216              	.LASF744:
ARM GAS  C:\Users\ASUS\AppData\Local\Temp\cczm8cZa.s 			page 255


 10217 3dee 43595F42 		.ascii	"CY_BLE_EVT_GAP_GEN_SET_LOCAL_P256_KEYS_COMPLETE\000"
 10217      4C455F45 
 10217      56545F47 
 10217      41505F47 
 10217      454E5F53 
 10218              	.LASF782:
 10219 3e1e 43595F42 		.ascii	"CY_BLE_EVT_L2CAP_CBFC_RX_CREDIT_IND\000"
 10219      4C455F45 
 10219      56545F4C 
 10219      32434150 
 10219      5F434246 
 10220              	.LASF944:
 10221 3e42 63795F73 		.ascii	"cy_stc_ble_gapp_disc_data_t\000"
 10221      74635F62 
 10221      6C655F67 
 10221      6170705F 
 10221      64697363 
 10222              	.LASF709:
 10223 3e5e 43595F42 		.ascii	"CY_BLE_EVT_SET_CLK_CONFIG_COMPLETE\000"
 10223      4C455F45 
 10223      56545F53 
 10223      45545F43 
 10223      4C4B5F43 
 10224              	.LASF781:
 10225 3e81 43595F42 		.ascii	"CY_BLE_EVT_L2CAP_CBFC_DATA_READ\000"
 10225      4C455F45 
 10225      56545F4C 
 10225      32434150 
 10225      5F434246 
 10226              	.LASF593:
 10227 3ea1 4D545F56 		.ascii	"MT_VIO_CTRL\000"
 10227      494F5F43 
 10227      54524C00 
 10228              	.LASF1100:
 10229 3ead 43795F53 		.ascii	"Cy_SysLib_ExitCriticalSection\000"
 10229      79734C69 
 10229      625F4578 
 10229      69744372 
 10229      69746963 
 10230              	.LASF260:
 10231 3ecb 74637077 		.ascii	"tcpwm_1_interrupts_13_IRQn\000"
 10231      6D5F315F 
 10231      696E7465 
 10231      72727570 
 10231      74735F31 
 10232              	.LASF711:
 10233 3ee6 43595F42 		.ascii	"CY_BLE_EVT_AES_ENCRYPT_COMPLETE\000"
 10233      4C455F45 
 10233      56545F41 
 10233      45535F45 
 10233      4E435259 
 10234              	.LASF313:
 10235 3f06 424C455F 		.ascii	"BLE_RCB_RCBLL_V1_Type\000"
 10235      5243425F 
 10235      5243424C 
 10235      4C5F5631 
 10235      5F547970 
ARM GAS  C:\Users\ASUS\AppData\Local\Temp\cczm8cZa.s 			page 256


 10236              	.LASF1021:
 10237 3f1c 73746163 		.ascii	"stackFlashptr\000"
 10237      6B466C61 
 10237      73687074 
 10237      7200
 10238              	.LASF862:
 10239 3f2a 63795F73 		.ascii	"cy_stc_ble_stack_init_info_t\000"
 10239      74635F62 
 10239      6C655F73 
 10239      7461636B 
 10239      5F696E69 
 10240              	.LASF658:
 10241 3f47 63795F65 		.ascii	"cy_en_syspm_callback_mode_t\000"
 10241      6E5F7379 
 10241      73706D5F 
 10241      63616C6C 
 10241      6261636B 
 10242              	.LASF829:
 10243 3f63 63795F73 		.ascii	"cy_stc_ble_privacy_1_2_config_param_t\000"
 10243      74635F62 
 10243      6C655F70 
 10243      72697661 
 10243      63795F31 
 10244              	.LASF938:
 10245 3f89 64697265 		.ascii	"directAddr\000"
 10245      63744164 
 10245      647200
 10246              	.LASF330:
 10247 3f94 4144565F 		.ascii	"ADV_INTERVAL_TIMEOUT\000"
 10247      494E5445 
 10247      5256414C 
 10247      5F54494D 
 10247      454F5554 
 10248              	.LASF906:
 10249 3fa9 43595F42 		.ascii	"CY_BLE_GAP_AUTH_ERROR_NUMERIC_COMPARISON_FAILED\000"
 10249      4C455F47 
 10249      41505F41 
 10249      5554485F 
 10249      4552524F 
 10250              	.LASF706:
 10251 3fd9 43595F42 		.ascii	"CY_BLE_EVT_GET_TX_PWR_COMPLETE\000"
 10251      4C455F45 
 10251      56545F47 
 10251      45545F54 
 10251      585F5057 
 10252              	.LASF8:
 10253 3ff8 73686F72 		.ascii	"short int\000"
 10253      7420696E 
 10253      7400
 10254              	.LASF189:
 10255 4002 63707573 		.ascii	"cpuss_interrupts_ipc_15_IRQn\000"
 10255      735F696E 
 10255      74657272 
 10255      75707473 
 10255      5F697063 
 10256              	.LASF621:
 10257 401f 5452494D 		.ascii	"TRIM_LDO_0\000"
ARM GAS  C:\Users\ASUS\AppData\Local\Temp\cczm8cZa.s 			page 257


 10257      5F4C444F 
 10257      5F3000
 10258              	.LASF495:
 10259 402a 4C4C5F43 		.ascii	"LL_CONFIG\000"
 10259      4F4E4649 
 10259      4700
 10260              	.LASF623:
 10261 4034 5452494D 		.ascii	"TRIM_LDO_2\000"
 10261      5F4C444F 
 10261      5F3200
 10262              	.LASF624:
 10263 403f 5452494D 		.ascii	"TRIM_LDO_3\000"
 10263      5F4C444F 
 10263      5F3300
 10264              	.LASF626:
 10265 404a 5452494D 		.ascii	"TRIM_LDO_4\000"
 10265      5F4C444F 
 10265      5F3400
 10266              	.LASF627:
 10267 4055 5452494D 		.ascii	"TRIM_LDO_5\000"
 10267      5F4C444F 
 10267      5F3500
 10268              	.LASF1014:
 10269 4060 67617474 		.ascii	"gattDbMaxValue\000"
 10269      44624D61 
 10269      7856616C 
 10269      756500
 10270              	.LASF127:
 10271 406f 4E766963 		.ascii	"NvicMux12_IRQn\000"
 10271      4D757831 
 10271      325F4952 
 10271      516E00
 10272              	.LASF854:
 10273 407e 746F7461 		.ascii	"totalHeapSz\000"
 10273      6C486561 
 10273      70537A00 
 10274              	.LASF523:
 10275 408a 4E455854 		.ascii	"NEXT_SUP_TO_STATUS\000"
 10275      5F535550 
 10275      5F544F5F 
 10275      53544154 
 10275      555300
 10276              	.LASF299:
 10277 409d 52455345 		.ascii	"RESERVED\000"
 10277      52564544 
 10277      00
 10278              	.LASF320:
 10279 40a6 52585F46 		.ascii	"RX_FIFO_CTRL\000"
 10279      49464F5F 
 10279      4354524C 
 10279      00
 10280              	.LASF1075:
 10281 40b3 636F6E74 		.ascii	"controlValue\000"
 10281      726F6C56 
 10281      616C7565 
 10281      00
 10282              	.LASF929:
ARM GAS  C:\Users\ASUS\AppData\Local\Temp\cczm8cZa.s 			page 258


 10283 40c0 43595F42 		.ascii	"CY_BLE_GAPP_CONNECTABLE_HIGH_DC_DIRECTED_ADV\000"
 10283      4C455F47 
 10283      4150505F 
 10283      434F4E4E 
 10283      45435441 
 10284              	.LASF1019:
 10285 40ed 63795F62 		.ascii	"cy_ble_callback_t\000"
 10285      6C655F63 
 10285      616C6C62 
 10285      61636B5F 
 10285      7400
 10286              	.LASF395:
 10287 40ff 44415441 		.ascii	"DATA_LIST_ACK_UPDATE__STATUS\000"
 10287      5F4C4953 
 10287      545F4143 
 10287      4B5F5550 
 10287      44415445 
 10288              	.LASF606:
 10289 411c 4449565F 		.ascii	"DIV_BY_625_CFG\000"
 10289      42595F36 
 10289      32355F43 
 10289      464700
 10290              	.LASF1088:
 10291 412b 43795F42 		.ascii	"Cy_BLE_HostRegisteredCallback\000"
 10291      4C455F48 
 10291      6F737452 
 10291      65676973 
 10291      74657265 
 10292              	.LASF789:
 10293 4149 43595F42 		.ascii	"CY_BLE_ERROR_INVALID_PARAMETER\000"
 10293      4C455F45 
 10293      52524F52 
 10293      5F494E56 
 10293      414C4944 
 10294              	.LASF200:
 10295 4168 63707573 		.ascii	"cpuss_interrupts_dw0_1_IRQn\000"
 10295      735F696E 
 10295      74657272 
 10295      75707473 
 10295      5F647730 
 10296              	.LASF1072:
 10297 4184 43795F42 		.ascii	"Cy_BLE_Disable\000"
 10297      4C455F44 
 10297      69736162 
 10297      6C6500
 10298              	.LASF457:
 10299 4193 494E4954 		.ascii	"INIT_NI_VAL\000"
 10299      5F4E495F 
 10299      56414C00 
 10300              	.LASF893:
 10301 419f 63795F65 		.ascii	"cy_en_ble_gap_iocap_t\000"
 10301      6E5F626C 
 10301      655F6761 
 10301      705F696F 
 10301      6361705F 
 10302              	.LASF909:
 10303 41b5 43595F42 		.ascii	"CY_BLE_GAP_AUTH_ERROR_AUTHENTICATION_TIMEOUT\000"
ARM GAS  C:\Users\ASUS\AppData\Local\Temp\cczm8cZa.s 			page 259


 10303      4C455F47 
 10303      41505F41 
 10303      5554485F 
 10303      4552524F 
 10304              	.LASF1046:
 10305 41e2 626C6573 		.ascii	"blessIsrConfig\000"
 10305      73497372 
 10305      436F6E66 
 10305      696700
 10306              	.LASF353:
 10307 41f1 574C5F41 		.ascii	"WL_ADDR_TYPE\000"
 10307      4444525F 
 10307      54595045 
 10307      00
 10308              	.LASF30:
 10309 41fe 69706342 		.ascii	"ipcBase\000"
 10309      61736500 
 10310              	.LASF810:
 10311 4206 43595F42 		.ascii	"CY_BLE_ERROR_GATT_DB_INVALID_ATTR_HANDLE\000"
 10311      4C455F45 
 10311      52524F52 
 10311      5F474154 
 10311      545F4442 
 10312              	.LASF836:
 10313 422f 6C6F6275 		.ascii	"lobuffLimit\000"
 10313      66664C69 
 10313      6D697400 
 10314              	.LASF1030:
 10315 423b 73696C69 		.ascii	"siliconDeviceAddressEnabled\000"
 10315      636F6E44 
 10315      65766963 
 10315      65416464 
 10315      72657373 
 10316              	.LASF550:
 10317 4257 434F4E4E 		.ascii	"CONN_3_DATA_LIST_ACK\000"
 10317      5F335F44 
 10317      4154415F 
 10317      4C495354 
 10317      5F41434B 
 10318              	.LASF86:
 10319 426c 70657269 		.ascii	"periDiv24_5CtlOffset\000"
 10319      44697632 
 10319      345F3543 
 10319      746C4F66 
 10319      66736574 
 10320              	.LASF966:
 10321 4281 43595F42 		.ascii	"CY_BLE_CONN_STATE_CLIENT_CHAR_DISCOVERING\000"
 10321      4C455F43 
 10321      4F4E4E5F 
 10321      53544154 
 10321      455F434C 
 10322              	.LASF232:
 10323 42ab 63707573 		.ascii	"cpuss_interrupts_fault_1_IRQn\000"
 10323      735F696E 
 10323      74657272 
 10323      75707473 
 10323      5F666175 
ARM GAS  C:\Users\ASUS\AppData\Local\Temp\cczm8cZa.s 			page 260


 10324              	.LASF175:
 10325 42c9 63707573 		.ascii	"cpuss_interrupts_ipc_1_IRQn\000"
 10325      735F696E 
 10325      74657272 
 10325      75707473 
 10325      5F697063 
 10326              	.LASF887:
 10327 42e5 63795F62 		.ascii	"cy_ble_gatt_db_attr_handle_t\000"
 10327      6C655F67 
 10327      6174745F 
 10327      64625F61 
 10327      7474725F 
 10328              	.LASF572:
 10329 4302 52534C56 		.ascii	"RSLV_LIST_PEER_IDNTT_BASE_ADDR\000"
 10329      5F4C4953 
 10329      545F5045 
 10329      45525F49 
 10329      444E5454 
 10330              	.LASF1076:
 10331 4321 43795F42 		.ascii	"Cy_BLE_RegisterAppHostCallback\000"
 10331      4C455F52 
 10331      65676973 
 10331      74657241 
 10331      7070486F 
 10332              	.LASF536:
 10333 4340 4D4D4D53 		.ascii	"MMMS_SLAVE_CREATE_BT_CAPT\000"
 10333      5F534C41 
 10333      56455F43 
 10333      52454154 
 10333      455F4254 
 10334              	.LASF234:
 10335 435a 63707573 		.ascii	"cpuss_interrupt_fm_IRQn\000"
 10335      735F696E 
 10335      74657272 
 10335      7570745F 
 10335      666D5F49 
 10336              	.LASF281:
 10337 4372 7564625F 		.ascii	"udb_interrupts_10_IRQn\000"
 10337      696E7465 
 10337      72727570 
 10337      74735F31 
 10337      305F4952 
 10338              	.LASF1059:
 10339 4389 72657456 		.ascii	"retVal\000"
 10339      616C00
 10340              	.LASF302:
 10341 4390 494E5452 		.ascii	"INTR_MASK\000"
 10341      5F4D4153 
 10341      4B00
 10342              	.LASF96:
 10343 439a 63707573 		.ascii	"cpussCm4PwrCtlOffset\000"
 10343      73436D34 
 10343      50777243 
 10343      746C4F66 
 10343      66736574 
 10344              	.LASF61:
 10345 43af 666C6173 		.ascii	"flashWriteDelay\000"
ARM GAS  C:\Users\ASUS\AppData\Local\Temp\cczm8cZa.s 			page 261


 10345      68577269 
 10345      74654465 
 10345      6C617900 
 10346              	.LASF724:
 10347 43bf 43595F42 		.ascii	"CY_BLE_EVT_GAP_PASSKEY_ENTRY_REQUEST\000"
 10347      4C455F45 
 10347      56545F47 
 10347      41505F50 
 10347      4153534B 
 10348              	.LASF294:
 10349 43e4 7573625F 		.ascii	"usb_interrupt_lo_IRQn\000"
 10349      696E7465 
 10349      72727570 
 10349      745F6C6F 
 10349      5F495251 
 10350              	.LASF11:
 10351 43fa 6C6F6E67 		.ascii	"long int\000"
 10351      20696E74 
 10351      00
 10352              	.LASF981:
 10353 4403 736C6F77 		.ascii	"slowAdvIntervalMin\000"
 10353      41647649 
 10353      6E746572 
 10353      76616C4D 
 10353      696E00
 10354              	.LASF780:
 10355 4416 43595F42 		.ascii	"CY_BLE_EVT_L2CAP_CBFC_DISCONN_CNF\000"
 10355      4C455F45 
 10355      56545F4C 
 10355      32434150 
 10355      5F434246 
 10356              	.LASF380:
 10357 4438 4144565F 		.ascii	"ADV_SCN_RSP_TX_FIFO\000"
 10357      53434E5F 
 10357      5253505F 
 10357      54585F46 
 10357      49464F00 
 10358              	.LASF414:
 10359 444c 4144565F 		.ascii	"ADV_ACCADDR_H\000"
 10359      41434341 
 10359      4444525F 
 10359      4800
 10360              	.LASF721:
 10361 445a 43595F42 		.ascii	"CY_BLE_EVT_SET_CONN_PRIORITY_COMPLETE\000"
 10361      4C455F45 
 10361      56545F53 
 10361      45545F43 
 10361      4F4E4E5F 
 10362              	.LASF413:
 10363 4480 4144565F 		.ascii	"ADV_ACCADDR_L\000"
 10363      41434341 
 10363      4444525F 
 10363      4C00
 10364              	.LASF878:
 10365 448e 43595F42 		.ascii	"CY_BLE_BLESS_STATE_DEEPSLEEP\000"
 10365      4C455F42 
 10365      4C455353 
ARM GAS  C:\Users\ASUS\AppData\Local\Temp\cczm8cZa.s 			page 262


 10365      5F535441 
 10365      54455F44 
 10366              	.LASF950:
 10367 44ab 61647654 		.ascii	"advTo\000"
 10367      6F00
 10368              	.LASF608:
 10369 44b1 5041434B 		.ascii	"PACKET_COUNTER0\000"
 10369      45545F43 
 10369      4F554E54 
 10369      45523000 
 10370              	.LASF609:
 10371 44c1 5041434B 		.ascii	"PACKET_COUNTER2\000"
 10371      45545F43 
 10371      4F554E54 
 10371      45523200 
 10372              	.LASF317:
 10373 44d1 54585F46 		.ascii	"TX_FIFO_STATUS\000"
 10373      49464F5F 
 10373      53544154 
 10373      555300
 10374              	.LASF46:
 10375 44e0 63707573 		.ascii	"cpussFmIrq\000"
 10375      73466D49 
 10375      727100
 10376              	.LASF899:
 10377 44eb 43595F42 		.ascii	"CY_BLE_GAP_AUTH_ERROR_PAIRING_NOT_SUPPORTED\000"
 10377      4C455F47 
 10377      41505F41 
 10377      5554485F 
 10377      4552524F 
 10378              	.LASF835:
 10379 4517 74617267 		.ascii	"targetTable\000"
 10379      65745461 
 10379      626C6500 
 10380              	.LASF257:
 10381 4523 74637077 		.ascii	"tcpwm_1_interrupts_10_IRQn\000"
 10381      6D5F315F 
 10381      696E7465 
 10381      72727570 
 10381      74735F31 
 10382              	.LASF994:
 10383 453e 67617063 		.ascii	"gapcConnectionSlaveLatency\000"
 10383      436F6E6E 
 10383      65637469 
 10383      6F6E536C 
 10383      6176654C 
 10384              	.LASF655:
 10385 4559 43595F53 		.ascii	"CY_SYSPM_CHECK_FAIL\000"
 10385      5953504D 
 10385      5F434845 
 10385      434B5F46 
 10385      41494C00 
 10386              	.LASF971:
 10387 456d 64657669 		.ascii	"deviceNameCharHandle\000"
 10387      63654E61 
 10387      6D654368 
 10387      61724861 
ARM GAS  C:\Users\ASUS\AppData\Local\Temp\cczm8cZa.s 			page 263


 10387      6E646C65 
 10388              	.LASF156:
 10389 4582 696F7373 		.ascii	"ioss_interrupts_gpio_7_IRQn\000"
 10389      5F696E74 
 10389      65727275 
 10389      7074735F 
 10389      6770696F 
 10390              	.LASF431:
 10391 459e 434F4E4E 		.ascii	"CONN_INTR_MASK\000"
 10391      5F494E54 
 10391      525F4D41 
 10391      534B00
 10392              	.LASF584:
 10393 45ad 4C4C5F43 		.ascii	"LL_CLK_EN\000"
 10393      4C4B5F45 
 10393      4E00
 10394              	.LASF432:
 10395 45b7 534C4156 		.ascii	"SLAVE_TIMING_CONTROL\000"
 10395      455F5449 
 10395      4D494E47 
 10395      5F434F4E 
 10395      54524F4C 
 10396              	.LASF861:
 10397 45cc 73746163 		.ascii	"stackConfig\000"
 10397      6B436F6E 
 10397      66696700 
 10398              	.LASF1118:
 10399 45d8 73746174 		.ascii	"state\000"
 10399      6500
 10400              	.LASF1071:
 10401 45de 6462496E 		.ascii	"dbInfoParam\000"
 10401      666F5061 
 10401      72616D00 
 10402              	.LASF106:
 10403 45ea 69706353 		.ascii	"ipcStructSize\000"
 10403      74727563 
 10403      7453697A 
 10403      6500
 10404              	.LASF767:
 10405 45f8 43595F42 		.ascii	"CY_BLE_EVT_GATTC_HANDLE_VALUE_NTF\000"
 10405      4C455F45 
 10405      56545F47 
 10405      41545443 
 10405      5F48414E 
 10406              	.LASF325:
 10407 461a 424C455F 		.ascii	"BLE_RCB_V1_Type\000"
 10407      5243425F 
 10407      56315F54 
 10407      79706500 
 10408              	.LASF186:
 10409 462a 63707573 		.ascii	"cpuss_interrupts_ipc_12_IRQn\000"
 10409      735F696E 
 10409      74657272 
 10409      75707473 
 10409      5F697063 
 10410              	.LASF256:
 10411 4647 74637077 		.ascii	"tcpwm_1_interrupts_9_IRQn\000"
ARM GAS  C:\Users\ASUS\AppData\Local\Temp\cczm8cZa.s 			page 264


 10411      6D5F315F 
 10411      696E7465 
 10411      72727570 
 10411      74735F39 
 10412              	.LASF806:
 10413 4661 43595F42 		.ascii	"CY_BLE_ERROR_FLASH_WRITE_NOT_PERMITED\000"
 10413      4C455F45 
 10413      52524F52 
 10413      5F464C41 
 10413      53485F57 
 10414              	.LASF15:
 10415 4687 73697A65 		.ascii	"sizetype\000"
 10415      74797065 
 10415      00
 10416              	.LASF576:
 10417 4690 52534C56 		.ascii	"RSLV_LIST_RCVD_INIT_RPA_BASE_ADDR\000"
 10417      5F4C4953 
 10417      545F5243 
 10417      56445F49 
 10417      4E49545F 
 10418              	.LASF23:
 10419 46b2 666C6173 		.ascii	"flashcBase\000"
 10419      68634261 
 10419      736500
 10420              	.LASF378:
 10421 46bd 4144565F 		.ascii	"ADV_TX_DATA_FIFO\000"
 10421      54585F44 
 10421      4154415F 
 10421      4649464F 
 10421      00
 10422              	.LASF44:
 10423 46ce 63707573 		.ascii	"cpussFlashPaSize\000"
 10423      73466C61 
 10423      73685061 
 10423      53697A65 
 10423      00
 10424              	.LASF837:
 10425 46df 63616C56 		.ascii	"calValLimit\000"
 10425      616C4C69 
 10425      6D697400 
 10426              	.LASF1102:
 10427 46eb 43795F42 		.ascii	"Cy_BLE_HAL_IsEcoCpuClockSrc\000"
 10427      4C455F48 
 10427      414C5F49 
 10427      7345636F 
 10427      43707543 
 10428              	.LASF19:
 10429 4707 696E7431 		.ascii	"int16_t\000"
 10429      365F7400 
 10430              	.LASF993:
 10431 470f 67617063 		.ascii	"gapcConnectionIntervalMax\000"
 10431      436F6E6E 
 10431      65637469 
 10431      6F6E496E 
 10431      74657276 
 10432              	.LASF405:
 10433 4729 4C455F52 		.ascii	"LE_RF_TEST_MODE\000"
ARM GAS  C:\Users\ASUS\AppData\Local\Temp\cczm8cZa.s 			page 265


 10433      465F5445 
 10433      53545F4D 
 10433      4F444500 
 10434              	.LASF212:
 10435 4739 63707573 		.ascii	"cpuss_interrupts_dw0_13_IRQn\000"
 10435      735F696E 
 10435      74657272 
 10435      75707473 
 10435      5F647730 
 10436              	.LASF397:
 10437 4756 434F4E4E 		.ascii	"CONN_EXT_INTR\000"
 10437      5F455854 
 10437      5F494E54 
 10437      5200
 10438              	.LASF786:
 10439 4764 63795F65 		.ascii	"cy_en_ble_event_t\000"
 10439      6E5F626C 
 10439      655F6576 
 10439      656E745F 
 10439      7400
 10440              	.LASF1077:
 10441 4776 43616C6C 		.ascii	"CallBack\000"
 10441      4261636B 
 10441      00
 10442              	.LASF40:
 10443 477f 70726F74 		.ascii	"protVersion\000"
 10443      56657273 
 10443      696F6E00 
 10444              	.LASF957:
 10445 478b 43595F42 		.ascii	"CY_BLE_ADV_STATE_ADV_INITIATED\000"
 10445      4C455F41 
 10445      44565F53 
 10445      54415445 
 10445      5F414456 
 10446              	.LASF753:
 10447 47aa 43595F42 		.ascii	"CY_BLE_EVT_GATTC_XCHNG_MTU_RSP\000"
 10447      4C455F45 
 10447      56545F47 
 10447      41545443 
 10447      5F584348 
 10448              	.LASF963:
 10449 47c9 43595F42 		.ascii	"CY_BLE_CONN_STATE_CONNECTED\000"
 10449      4C455F43 
 10449      4F4E4E5F 
 10449      53544154 
 10449      455F434F 
 10450              	.LASF816:
 10451 47e5 43595F42 		.ascii	"CY_BLE_ERROR_MAX\000"
 10451      4C455F45 
 10451      52524F52 
 10451      5F4D4158 
 10451      00
 10452              	.LASF731:
 10453 47f6 43595F42 		.ascii	"CY_BLE_EVT_GAP_ENCRYPT_CHANGE\000"
 10453      4C455F45 
 10453      56545F47 
 10453      41505F45 
ARM GAS  C:\Users\ASUS\AppData\Local\Temp\cczm8cZa.s 			page 266


 10453      4E435259 
 10454              	.LASF830:
 10455 4814 626F6E64 		.ascii	"bondListSize\000"
 10455      4C697374 
 10455      53697A65 
 10455      00
 10456              	.LASF537:
 10457 4821 4D4D4D53 		.ascii	"MMMS_SLAVE_CREATE_US_CAPT\000"
 10457      5F534C41 
 10457      56455F43 
 10457      52454154 
 10457      455F5553 
 10458              	.LASF244:
 10459 483b 74637077 		.ascii	"tcpwm_0_interrupts_5_IRQn\000"
 10459      6D5F305F 
 10459      696E7465 
 10459      72727570 
 10459      74735F35 
 10460              	.LASF660:
 10461 4855 636F6E74 		.ascii	"context\000"
 10461      65787400 
 10462              	.LASF31:
 10463 485d 63727970 		.ascii	"cryptoBase\000"
 10463      746F4261 
 10463      736500
 10464              	.LASF787:
 10465 4868 43595F42 		.ascii	"CY_BLE_SUCCESS\000"
 10465      4C455F53 
 10465      55434345 
 10465      535300
 10466              	.LASF905:
 10467 4877 43595F42 		.ascii	"CY_BLE_GAP_AUTH_ERROR_DHKEY_CHECK_FAILED\000"
 10467      4C455F47 
 10467      41505F41 
 10467      5554485F 
 10467      4552524F 
 10468              	.LASF964:
 10469 48a0 43595F42 		.ascii	"CY_BLE_CONN_STATE_CLIENT_SRVC_DISCOVERING\000"
 10469      4C455F43 
 10469      4F4E4E5F 
 10469      53544154 
 10469      455F434C 
 10470              	.LASF148:
 10471 48ca 4952516E 		.ascii	"IRQn_Type\000"
 10471      5F547970 
 10471      6500
 10472              	.LASF692:
 10473 48d4 43595F42 		.ascii	"CY_BLE_EVT_ADD_DEVICE_TO_RPA_LIST_COMPLETE\000"
 10473      4C455F45 
 10473      56545F41 
 10473      44445F44 
 10473      45564943 
 10474              	.LASF864:
 10475 48ff 43595F42 		.ascii	"CY_BLE_LL_PWR_LVL_NEG_16_DBM\000"
 10475      4C455F4C 
 10475      4C5F5057 
 10475      525F4C56 
ARM GAS  C:\Users\ASUS\AppData\Local\Temp\cczm8cZa.s 			page 267


 10475      4C5F4E45 
 10476              	.LASF715:
 10477 491c 43595F42 		.ascii	"CY_BLE_EVT_STACK_SHUTDOWN_COMPLETE\000"
 10477      4C455F45 
 10477      56545F53 
 10477      5441434B 
 10477      5F534855 
 10478              	.LASF279:
 10479 493f 7564625F 		.ascii	"udb_interrupts_8_IRQn\000"
 10479      696E7465 
 10479      72727570 
 10479      74735F38 
 10479      5F495251 
 10480              	.LASF25:
 10481 4955 75646242 		.ascii	"udbBase\000"
 10481      61736500 
 10482              	.LASF107:
 10483 495d 6970634C 		.ascii	"ipcLockStatusOffset\000"
 10483      6F636B53 
 10483      74617475 
 10483      734F6666 
 10483      73657400 
 10484              	.LASF803:
 10485 4971 43595F42 		.ascii	"CY_BLE_ERROR_L2CAP_CONNECTION_ENTITY_NOT_FOUND\000"
 10485      4C455F45 
 10485      52524F52 
 10485      5F4C3243 
 10485      41505F43 
 10486              	.LASF831:
 10487 49a0 63795F73 		.ascii	"cy_stc_ble_bonded_device_list_config_param_t\000"
 10487      74635F62 
 10487      6C655F62 
 10487      6F6E6465 
 10487      645F6465 
 10488              	.LASF648:
 10489 49cd 43595F53 		.ascii	"CY_SYSPM_SLEEP\000"
 10489      5953504D 
 10489      5F534C45 
 10489      455000
 10490              	.LASF849:
 10491 49dc 62756666 		.ascii	"bufferSize\000"
 10491      65725369 
 10491      7A6500
 10492              	.LASF813:
 10493 49e7 43595F42 		.ascii	"CY_BLE_ERROR_CHAR_IS_NOT_DISCOVERED\000"
 10493      4C455F45 
 10493      52524F52 
 10493      5F434841 
 10493      525F4953 
 10494              	.LASF463:
 10495 4a0b 434F4E4E 		.ascii	"CONN_UPDATE_NEW_SUP_TO\000"
 10495      5F555044 
 10495      4154455F 
 10495      4E45575F 
 10495      5355505F 
 10496              	.LASF985:
 10497 4a22 66617374 		.ascii	"fastScanInterval\000"
ARM GAS  C:\Users\ASUS\AppData\Local\Temp\cczm8cZa.s 			page 268


 10497      5363616E 
 10497      496E7465 
 10497      7276616C 
 10497      00
 10498              	.LASF451:
 10499 4a33 50454552 		.ascii	"PEER_SEC_ADDR_ADV_H\000"
 10499      5F534543 
 10499      5F414444 
 10499      525F4144 
 10499      565F4800 
 10500              	.LASF449:
 10501 4a47 50454552 		.ascii	"PEER_SEC_ADDR_ADV_L\000"
 10501      5F534543 
 10501      5F414444 
 10501      525F4144 
 10501      565F4C00 
 10502              	.LASF450:
 10503 4a5b 50454552 		.ascii	"PEER_SEC_ADDR_ADV_M\000"
 10503      5F534543 
 10503      5F414444 
 10503      525F4144 
 10503      565F4D00 
 10504              	.LASF734:
 10505 4a6f 43595F42 		.ascii	"CY_BLE_EVT_GAP_KEYINFO_EXCHNGE_CMPLT\000"
 10505      4C455F45 
 10505      56545F47 
 10505      41505F4B 
 10505      4559494E 
 10506              	.LASF144:
 10507 4a94 4E766963 		.ascii	"NvicMux29_IRQn\000"
 10507      4D757832 
 10507      395F4952 
 10507      516E00
 10508              	.LASF459:
 10509 4aa3 494E4954 		.ascii	"INIT_WINDOW_NI_ANCHOR_PT\000"
 10509      5F57494E 
 10509      444F575F 
 10509      4E495F41 
 10509      4E43484F 
 10510              	.LASF822:
 10511 4abc 646C654D 		.ascii	"dleMaxRxCapability\000"
 10511      61785278 
 10511      43617061 
 10511      62696C69 
 10511      747900
 10512              	.LASF619:
 10513 4acf 42315F44 		.ascii	"B1_DATA_REG\000"
 10513      4154415F 
 10513      52454700 
 10514              	.LASF995:
 10515 4adb 67617063 		.ascii	"gapcConnectionTimeOut\000"
 10515      436F6E6E 
 10515      65637469 
 10515      6F6E5469 
 10515      6D654F75 
 10516              	.LASF874:
 10517 4af1 43595F42 		.ascii	"CY_BLE_BLESS_STATE_ACTIVE\000"
ARM GAS  C:\Users\ASUS\AppData\Local\Temp\cczm8cZa.s 			page 269


 10517      4C455F42 
 10517      4C455353 
 10517      5F535441 
 10517      54455F41 
 10518              	.LASF230:
 10519 4b0b 63707573 		.ascii	"cpuss_interrupts_dw1_15_IRQn\000"
 10519      735F696E 
 10519      74657272 
 10519      75707473 
 10519      5F647731 
 10520              	.LASF967:
 10521 4b28 43595F42 		.ascii	"CY_BLE_CONN_STATE_CLIENT_DESCR_DISCOVERING\000"
 10521      4C455F43 
 10521      4F4E4E5F 
 10521      53544154 
 10521      455F434C 
 10522              	.LASF183:
 10523 4b53 63707573 		.ascii	"cpuss_interrupts_ipc_9_IRQn\000"
 10523      735F696E 
 10523      74657272 
 10523      75707473 
 10523      5F697063 
 10524              	.LASF153:
 10525 4b6f 696F7373 		.ascii	"ioss_interrupts_gpio_4_IRQn\000"
 10525      5F696E74 
 10525      65727275 
 10525      7074735F 
 10525      6770696F 
 10526              	.LASF85:
 10527 4b8b 70657269 		.ascii	"periDiv16_5CtlOffset\000"
 10527      44697631 
 10527      365F3543 
 10527      746C4F66 
 10527      66736574 
 10528              	.LASF339:
 10529 4ba0 494E4954 		.ascii	"INIT_INTERVAL\000"
 10529      5F494E54 
 10529      45525641 
 10529      4C00
 10530              	.LASF122:
 10531 4bae 4E766963 		.ascii	"NvicMux7_IRQn\000"
 10531      4D757837 
 10531      5F495251 
 10531      6E00
 10532              	.LASF1052:
 10533 4bbc 43595F49 		.ascii	"CY_IPC_SEMA_BAD_PARAM\000"
 10533      50435F53 
 10533      454D415F 
 10533      4241445F 
 10533      50415241 
 10534              	.LASF769:
 10535 4bd2 43595F42 		.ascii	"CY_BLE_EVT_GATTS_HANDLE_VALUE_CNF\000"
 10535      4C455F45 
 10535      56545F47 
 10535      41545453 
 10535      5F48414E 
 10536              	.LASF625:
ARM GAS  C:\Users\ASUS\AppData\Local\Temp\cczm8cZa.s 			page 270


 10537 4bf4 5452494D 		.ascii	"TRIM_MXD\000"
 10537      5F4D5844 
 10537      00
 10538              	.LASF890:
 10539 4bfd 43595F42 		.ascii	"CY_BLE_GAP_IOCAP_KEYBOARD_ONLY\000"
 10539      4C455F47 
 10539      41505F49 
 10539      4F434150 
 10539      5F4B4559 
 10540              	.LASF833:
 10541 4c1c 63795F73 		.ascii	"cy_stc_ble_white_list_config_param_t\000"
 10541      74635F62 
 10541      6C655F77 
 10541      68697465 
 10541      5F6C6973 
 10542              	.LASF65:
 10543 4c41 666C6173 		.ascii	"flashCtlMainWs1Freq\000"
 10543      6843746C 
 10543      4D61696E 
 10543      57733146 
 10543      72657100 
 10544              	.LASF253:
 10545 4c55 74637077 		.ascii	"tcpwm_1_interrupts_6_IRQn\000"
 10545      6D5F315F 
 10545      696E7465 
 10545      72727570 
 10545      74735F36 
 10546              	.LASF3:
 10547 4c6f 7369676E 		.ascii	"signed char\000"
 10547      65642063 
 10547      68617200 
 10548              	.LASF636:
 10549 4c7b 636D3070 		.ascii	"cm0pSrc\000"
 10549      53726300 
 10550              	.LASF610:
 10551 4c83 49565F4D 		.ascii	"IV_MASTER0\000"
 10551      41535445 
 10551      523000
 10552              	.LASF27:
 10553 4c8e 6873696F 		.ascii	"hsiomBase\000"
 10553      6D426173 
 10553      6500
 10554              	.LASF1041:
 10555 4c98 67617474 		.ascii	"gattDB\000"
 10555      444200
 10556              	.LASF298:
 10557 4c9f 4354524C 		.ascii	"CTRL\000"
 10557      00
 10558              	.LASF389:
 10559 4ca4 5044555F 		.ascii	"PDU_ACCESS_ADDR_H_REGISTER\000"
 10559      41434345 
 10559      53535F41 
 10559      4444525F 
 10559      485F5245 
 10560              	.LASF752:
 10561 4cbf 43595F42 		.ascii	"CY_BLE_EVT_GATTS_XCNHG_MTU_REQ\000"
 10561      4C455F45 
ARM GAS  C:\Users\ASUS\AppData\Local\Temp\cczm8cZa.s 			page 271


 10561      56545F47 
 10561      41545453 
 10561      5F58434E 
 10562              	.LASF555:
 10563 4cde 434F4E4E 		.ascii	"CONN_4_CE_DATA_LIST_CFG\000"
 10563      5F345F43 
 10563      455F4441 
 10563      54415F4C 
 10563      4953545F 
 10564              	.LASF790:
 10565 4cf6 43595F42 		.ascii	"CY_BLE_ERROR_INVALID_OPERATION\000"
 10565      4C455F45 
 10565      52524F52 
 10565      5F494E56 
 10565      414C4944 
 10566              	.LASF1093:
 10567 4d15 63795F62 		.ascii	"cy_ble_cmdStatus\000"
 10567      6C655F63 
 10567      6D645374 
 10567      61747573 
 10567      00
 10568              	.LASF589:
 10569 4d26 4D545F43 		.ascii	"MT_CFG\000"
 10569      464700
 10570              	.LASF163:
 10571 4d2d 696F7373 		.ascii	"ioss_interrupts_gpio_14_IRQn\000"
 10571      5F696E74 
 10571      65727275 
 10571      7074735F 
 10571      6770696F 
 10572              	.LASF101:
 10573 4d4a 63707573 		.ascii	"cpussCm4NmiCtlOffset\000"
 10573      73436D34 
 10573      4E6D6943 
 10573      746C4F66 
 10573      66736574 
 10574              	.LASF1095:
 10575 4d5f 43795F42 		.ascii	"Cy_BLE_StackEnterLPM\000"
 10575      4C455F53 
 10575      7461636B 
 10575      456E7465 
 10575      724C504D 
 10576              	.LASF656:
 10577 4d74 43595F53 		.ascii	"CY_SYSPM_BEFORE_TRANSITION\000"
 10577      5953504D 
 10577      5F424546 
 10577      4F52455F 
 10577      5452414E 
 10578              	.LASF209:
 10579 4d8f 63707573 		.ascii	"cpuss_interrupts_dw0_10_IRQn\000"
 10579      735F696E 
 10579      74657272 
 10579      75707473 
 10579      5F647730 
 10580              	.LASF628:
 10581 4dac 424C455F 		.ascii	"BLE_BLESS_V1_Type\000"
 10581      424C4553 
ARM GAS  C:\Users\ASUS\AppData\Local\Temp\cczm8cZa.s 			page 272


 10581      535F5631 
 10581      5F547970 
 10581      6500
 10582              	.LASF95:
 10583 4dbe 63707573 		.ascii	"cpussCm0StatusOffset\000"
 10583      73436D30 
 10583      53746174 
 10583      75734F66 
 10583      66736574 
 10584              	.LASF980:
 10585 4dd3 736C6F77 		.ascii	"slowAdvEnable\000"
 10585      41647645 
 10585      6E61626C 
 10585      6500
 10586              	.LASF306:
 10587 4de1 52414449 		.ascii	"RADIO_REG3_ADDR\000"
 10587      4F5F5245 
 10587      47335F41 
 10587      44445200 
 10588              	.LASF241:
 10589 4df1 74637077 		.ascii	"tcpwm_0_interrupts_2_IRQn\000"
 10589      6D5F305F 
 10589      696E7465 
 10589      72727570 
 10589      74735F32 
 10590              	.LASF17:
 10591 4e0b 696E7438 		.ascii	"int8_t\000"
 10591      5F7400
 10592              	.LASF630:
 10593 4e12 424C4553 		.ascii	"BLESS\000"
 10593      5300
 10594              	.LASF290:
 10595 4e18 70726F66 		.ascii	"profile_interrupt_IRQn\000"
 10595      696C655F 
 10595      696E7465 
 10595      72727570 
 10595      745F4952 
 10596              	.LASF361:
 10597 4e2f 44415441 		.ascii	"DATA_CHANNELS_L1\000"
 10597      5F434841 
 10597      4E4E454C 
 10597      535F4C31 
 10597      00
 10598              	.LASF713:
 10599 4e40 43595F42 		.ascii	"CY_BLE_EVT_AES_CCM_DECRYPT_COMPLETE\000"
 10599      4C455F45 
 10599      56545F41 
 10599      45535F43 
 10599      434D5F44 
 10600              	.LASF1002:
 10601 4e64 63795F73 		.ascii	"cy_stc_ble_gatts_att_pack_val_len_t\000"
 10601      74635F62 
 10601      6C655F67 
 10601      61747473 
 10601      5F617474 
 10602              	.LASF276:
 10603 4e88 7564625F 		.ascii	"udb_interrupts_5_IRQn\000"
ARM GAS  C:\Users\ASUS\AppData\Local\Temp\cczm8cZa.s 			page 273


 10603      696E7465 
 10603      72727570 
 10603      74735F35 
 10603      5F495251 
 10604              	.LASF727:
 10605 4e9e 43595F42 		.ascii	"CY_BLE_EVT_GAP_AUTH_FAILED\000"
 10605      4C455F45 
 10605      56545F47 
 10605      41505F41 
 10605      5554485F 
 10606              	.LASF920:
 10607 4eb9 7363616E 		.ascii	"scanType\000"
 10607      54797065 
 10607      00
 10608              	.LASF222:
 10609 4ec2 63707573 		.ascii	"cpuss_interrupts_dw1_7_IRQn\000"
 10609      735F696E 
 10609      74657272 
 10609      75707473 
 10609      5F647731 
 10610              	.LASF704:
 10611 4ede 43595F42 		.ascii	"CY_BLE_EVT_GET_DEVICE_ADDR_COMPLETE\000"
 10611      4C455F45 
 10611      56545F47 
 10611      45545F44 
 10611      45564943 
 10612              	.LASF20:
 10613 4f02 75696E74 		.ascii	"uint16_t\000"
 10613      31365F74 
 10613      00
 10614              	.LASF62:
 10615 4f0b 666C6173 		.ascii	"flashProgramDelay\000"
 10615      6850726F 
 10615      6772616D 
 10615      44656C61 
 10615      7900
 10616              	.LASF804:
 10617 4f1d 43595F42 		.ascii	"CY_BLE_ERROR_L2CAP_PSM_NOT_IN_RANGE\000"
 10617      4C455F45 
 10617      52524F52 
 10617      5F4C3243 
 10617      41505F50 
 10618              	.LASF915:
 10619 4f41 656B6579 		.ascii	"ekeySize\000"
 10619      53697A65 
 10619      00
 10620              	.LASF859:
 10621 4f4a 4379426C 		.ascii	"CyBleAppCbFunc\000"
 10621      65417070 
 10621      43624675 
 10621      6E6300
 10622              	.LASF1034:
 10623 4f59 67617070 		.ascii	"gappAdvParams\000"
 10623      41647650 
 10623      6172616D 
 10623      7300
 10624              	.LASF14:
ARM GAS  C:\Users\ASUS\AppData\Local\Temp\cczm8cZa.s 			page 274


 10625 4f67 6C6F6E67 		.ascii	"long long unsigned int\000"
 10625      206C6F6E 
 10625      6720756E 
 10625      7369676E 
 10625      65642069 
 10626              	.LASF141:
 10627 4f7e 4E766963 		.ascii	"NvicMux26_IRQn\000"
 10627      4D757832 
 10627      365F4952 
 10627      516E00
 10628              	.LASF300:
 10629 4f8d 494E5452 		.ascii	"INTR\000"
 10629      00
 10630              	.LASF332:
 10631 4f92 4144565F 		.ascii	"ADV_NEXT_INSTANT\000"
 10631      4E455854 
 10631      5F494E53 
 10631      54414E54 
 10631      00
 10632              	.LASF714:
 10633 4fa3 43595F42 		.ascii	"CY_BLE_EVT_SET_SLAVE_LATENCY_MODE_COMPLETE\000"
 10633      4C455F45 
 10633      56545F53 
 10633      45545F53 
 10633      4C415645 
 10634              	.LASF637:
 10635 4fce 696E7472 		.ascii	"intrPriority\000"
 10635      5072696F 
 10635      72697479 
 10635      00
 10636              	.LASF227:
 10637 4fdb 63707573 		.ascii	"cpuss_interrupts_dw1_12_IRQn\000"
 10637      735F696E 
 10637      74657272 
 10637      75707473 
 10637      5F647731 
 10638              	.LASF476:
 10639 4ff8 434F4E4E 		.ascii	"CONN_REQ_WORD10\000"
 10639      5F524551 
 10639      5F574F52 
 10639      44313000 
 10640              	.LASF477:
 10641 5008 434F4E4E 		.ascii	"CONN_REQ_WORD11\000"
 10641      5F524551 
 10641      5F574F52 
 10641      44313100 
 10642              	.LASF851:
 10643 5018 63795F73 		.ascii	"cy_stc_ble_stk_app_data_buff_t\000"
 10643      74635F62 
 10643      6C655F73 
 10643      746B5F61 
 10643      70705F64 
 10644              	.LASF326:
 10645 5037 434F4D4D 		.ascii	"COMMAND_REGISTER\000"
 10645      414E445F 
 10645      52454749 
 10645      53544552 
ARM GAS  C:\Users\ASUS\AppData\Local\Temp\cczm8cZa.s 			page 275


 10645      00
 10646              	.LASF180:
 10647 5048 63707573 		.ascii	"cpuss_interrupts_ipc_6_IRQn\000"
 10647      735F696E 
 10647      74657272 
 10647      75707473 
 10647      5F697063 
 10648              	.LASF150:
 10649 5064 696F7373 		.ascii	"ioss_interrupts_gpio_1_IRQn\000"
 10649      5F696E74 
 10649      65727275 
 10649      7074735F 
 10649      6770696F 
 10650              	.LASF1018:
 10651 5080 63795F73 		.ascii	"cy_stc_ble_gatts_t\000"
 10651      74635F62 
 10651      6C655F67 
 10651      61747473 
 10651      5F7400
 10652              	.LASF119:
 10653 5093 4E766963 		.ascii	"NvicMux4_IRQn\000"
 10653      4D757834 
 10653      5F495251 
 10653      6E00
 10654              	.LASF78:
 10655 50a1 70657269 		.ascii	"periTrGrSize\000"
 10655      54724772 
 10655      53697A65 
 10655      00
 10656              	.LASF181:
 10657 50ae 63707573 		.ascii	"cpuss_interrupts_ipc_7_IRQn\000"
 10657      735F696E 
 10657      74657272 
 10657      75707473 
 10657      5F697063 
 10658              	.LASF335:
 10659 50ca 5343414E 		.ascii	"SCAN_PARAM\000"
 10659      5F504152 
 10659      414D00
 10660              	.LASF883:
 10661 50d5 43595F42 		.ascii	"CY_BLE_CONTROLLER_SLEEP_MODE_DEEPSLEEP\000"
 10661      4C455F43 
 10661      4F4E5452 
 10661      4F4C4C45 
 10661      525F534C 
 10662              	.LASF1105:
 10663 50fc 43795F42 		.ascii	"Cy_BLE_GATTS_DbRegister\000"
 10663      4C455F47 
 10663      41545453 
 10663      5F446252 
 10663      65676973 
 10664              	.LASF959:
 10665 5114 43595F42 		.ascii	"CY_BLE_ADV_STATE_STOP_INITIATED\000"
 10665      4C455F41 
 10665      44565F53 
 10665      54415445 
 10665      5F53544F 
ARM GAS  C:\Users\ASUS\AppData\Local\Temp\cczm8cZa.s 			page 276


 10666              	.LASF417:
 10667 5134 434F4E4E 		.ascii	"CONN_CH_TX_POWER_LVL_LS\000"
 10667      5F43485F 
 10667      54585F50 
 10667      4F574552 
 10667      5F4C564C 
 10668              	.LASF250:
 10669 514c 74637077 		.ascii	"tcpwm_1_interrupts_3_IRQn\000"
 10669      6D5F315F 
 10669      696E7465 
 10669      72727570 
 10669      74735F33 
 10670              	.LASF134:
 10671 5166 4E766963 		.ascii	"NvicMux19_IRQn\000"
 10671      4D757831 
 10671      395F4952 
 10671      516E00
 10672              	.LASF54:
 10673 5175 65704D6F 		.ascii	"epMonitorNr\000"
 10673      6E69746F 
 10673      724E7200 
 10674              	.LASF493:
 10675 5181 4558545F 		.ascii	"EXT_PA_LNA_DLY_CNFG\000"
 10675      50415F4C 
 10675      4E415F44 
 10675      4C595F43 
 10675      4E464700 
 10676              	.LASF55:
 10677 5195 75646250 		.ascii	"udbPresent\000"
 10677      72657365 
 10677      6E7400
 10678              	.LASF418:
 10679 51a0 434F4E4E 		.ascii	"CONN_CH_TX_POWER_LVL_MS\000"
 10679      5F43485F 
 10679      54585F50 
 10679      4F574552 
 10679      5F4C564C 
 10680              	.LASF165:
 10681 51b8 696F7373 		.ascii	"ioss_interrupt_vdd_IRQn\000"
 10681      5F696E74 
 10681      65727275 
 10681      70745F76 
 10681      64645F49 
 10682              	.LASF918:
 10683 51d0 63795F73 		.ascii	"cy_stc_ble_gap_auth_info_t\000"
 10683      74635F62 
 10683      6C655F67 
 10683      61705F61 
 10683      7574685F 
 10684              	.LASF1009:
 10685 51eb 61747445 		.ascii	"attEndHandle\000"
 10685      6E644861 
 10685      6E646C65 
 10685      00
 10686              	.LASF160:
 10687 51f8 696F7373 		.ascii	"ioss_interrupts_gpio_11_IRQn\000"
 10687      5F696E74 
ARM GAS  C:\Users\ASUS\AppData\Local\Temp\cczm8cZa.s 			page 277


 10687      65727275 
 10687      7074735F 
 10687      6770696F 
 10688              	.LASF76:
 10689 5215 70657269 		.ascii	"periTrCmdGrSelMsk\000"
 10689      5472436D 
 10689      64477253 
 10689      656C4D73 
 10689      6B00
 10690              	.LASF894:
 10691 5227 43595F42 		.ascii	"CY_BLE_GAP_AUTH_ERROR_NONE\000"
 10691      4C455F47 
 10691      41505F41 
 10691      5554485F 
 10691      4552524F 
 10692              	.LASF207:
 10693 5242 63707573 		.ascii	"cpuss_interrupts_dw0_8_IRQn\000"
 10693      735F696E 
 10693      74657272 
 10693      75707473 
 10693      5F647730 
 10694              	.LASF1003:
 10695 525e 61747446 		.ascii	"attFormatValue\000"
 10695      6F726D61 
 10695      7456616C 
 10695      756500
 10696              	.LASF51:
 10697 526d 70657269 		.ascii	"periClockNr\000"
 10697      436C6F63 
 10697      6B4E7200 
 10698              	.LASF356:
 10699 5279 5452414E 		.ascii	"TRANSMIT_WINDOW_SIZE\000"
 10699      534D4954 
 10699      5F57494E 
 10699      444F575F 
 10699      53495A45 
 10700              	.LASF821:
 10701 528e 646C654D 		.ascii	"dleMaxTxCapability\000"
 10701      61785478 
 10701      43617061 
 10701      62696C69 
 10701      747900
 10702              	.LASF351:
 10703 52a1 50454552 		.ascii	"PEER_ADDR_H\000"
 10703      5F414444 
 10703      525F4800 
 10704              	.LASF145:
 10705 52ad 4E766963 		.ascii	"NvicMux30_IRQn\000"
 10705      4D757833 
 10705      305F4952 
 10705      516E00
 10706              	.LASF349:
 10707 52bc 50454552 		.ascii	"PEER_ADDR_L\000"
 10707      5F414444 
 10707      525F4C00 
 10708              	.LASF350:
 10709 52c8 50454552 		.ascii	"PEER_ADDR_M\000"
ARM GAS  C:\Users\ASUS\AppData\Local\Temp\cczm8cZa.s 			page 278


 10709      5F414444 
 10709      525F4D00 
 10710              	.LASF92:
 10711 52d4 63707573 		.ascii	"cpussCm0ClockCtlOffset\000"
 10711      73436D30 
 10711      436C6F63 
 10711      6B43746C 
 10711      4F666673 
 10712              	.LASF310:
 10713 52eb 4350555F 		.ascii	"CPU_WRITE_REG\000"
 10713      57524954 
 10713      455F5245 
 10713      4700
 10714              	.LASF16:
 10715 52f9 63686172 		.ascii	"char\000"
 10715      00
 10716              	.LASF1050:
 10717 52fe 43595F49 		.ascii	"CY_IPC_SEMA_ERROR_LOCKED\000"
 10717      50435F53 
 10717      454D415F 
 10717      4552524F 
 10717      525F4C4F 
 10718              	.LASF1064:
 10719 5317 43795F42 		.ascii	"Cy_BLE_DeepSleepCallback\000"
 10719      4C455F44 
 10719      65657053 
 10719      6C656570 
 10719      43616C6C 
 10720              	.LASF273:
 10721 5330 7564625F 		.ascii	"udb_interrupts_2_IRQn\000"
 10721      696E7465 
 10721      72727570 
 10721      74735F32 
 10721      5F495251 
 10722              	.LASF500:
 10723 5346 4445565F 		.ascii	"DEV_PA_ADDR_H\000"
 10723      50415F41 
 10723      4444525F 
 10723      4800
 10724              	.LASF498:
 10725 5354 4445565F 		.ascii	"DEV_PA_ADDR_L\000"
 10725      50415F41 
 10725      4444525F 
 10725      4C00
 10726              	.LASF499:
 10727 5362 4445565F 		.ascii	"DEV_PA_ADDR_M\000"
 10727      50415F41 
 10727      4444525F 
 10727      4D00
 10728              	.LASF382:
 10729 5370 494E4954 		.ascii	"INIT_SCN_ADV_RX_FIFO\000"
 10729      5F53434E 
 10729      5F414456 
 10729      5F52585F 
 10729      4649464F 
 10730              	.LASF219:
 10731 5385 63707573 		.ascii	"cpuss_interrupts_dw1_4_IRQn\000"
ARM GAS  C:\Users\ASUS\AppData\Local\Temp\cczm8cZa.s 			page 279


 10731      735F696E 
 10731      74657272 
 10731      75707473 
 10731      5F647731 
 10732              	.LASF710:
 10733 53a1 43595F42 		.ascii	"CY_BLE_EVT_RANDOM_NUM_GEN_COMPLETE\000"
 10733      4C455F45 
 10733      56545F52 
 10733      414E444F 
 10733      4D5F4E55 
 10734              	.LASF998:
 10735 53c4 61747447 		.ascii	"attGenericVal\000"
 10735      656E6572 
 10735      69635661 
 10735      6C00
 10736              	.LASF402:
 10737 53d2 57494E44 		.ascii	"WINDOW_WIDEN_INTVL\000"
 10737      4F575F57 
 10737      4944454E 
 10737      5F494E54 
 10737      564C00
 10738              	.LASF509:
 10739 53e5 434F4E4E 		.ascii	"CONN_1_PARAM_MEM_BASE_ADDR\000"
 10739      5F315F50 
 10739      4152414D 
 10739      5F4D454D 
 10739      5F424153 
 10740              	.LASF736:
 10741 5400 43595F42 		.ascii	"CY_BLE_EVT_GAP_KEYPRESS_NOTIFICATION\000"
 10741      4C455F45 
 10741      56545F47 
 10741      41505F4B 
 10741      45595052 
 10742              	.LASF316:
 10743 5425 54585F46 		.ascii	"TX_FIFO_CTRL\000"
 10743      49464F5F 
 10743      4354524C 
 10743      00
 10744              	.LASF264:
 10745 5432 74637077 		.ascii	"tcpwm_1_interrupts_17_IRQn\000"
 10745      6D5F315F 
 10745      696E7465 
 10745      72727570 
 10745      74735F31 
 10746              	.LASF1022:
 10747 544d 61747456 		.ascii	"attValuesCCCDFlashMemory\000"
 10747      616C7565 
 10747      73434343 
 10747      44466C61 
 10747      73684D65 
 10748              	.LASF685:
 10749 5466 43595F42 		.ascii	"CY_BLE_EVT_GET_DATA_LENGTH_COMPLETE\000"
 10749      4C455F45 
 10749      56545F47 
 10749      45545F44 
 10749      4154415F 
 10750              	.LASF138:
ARM GAS  C:\Users\ASUS\AppData\Local\Temp\cczm8cZa.s 			page 280


 10751 548a 4E766963 		.ascii	"NvicMux23_IRQn\000"
 10751      4D757832 
 10751      335F4952 
 10751      516E00
 10752              	.LASF484:
 10753 5499 534C565F 		.ascii	"SLV_WIN_ADJ\000"
 10753      57494E5F 
 10753      41444A00 
 10754              	.LASF116:
 10755 54a5 4E766963 		.ascii	"NvicMux1_IRQn\000"
 10755      4D757831 
 10755      5F495251 
 10755      6E00
 10756              	.LASF88:
 10757 54b3 6770696F 		.ascii	"gpioPrtCfgOffset\000"
 10757      50727443 
 10757      66674F66 
 10757      66736574 
 10757      00
 10758              	.LASF799:
 10759 54c4 43595F42 		.ascii	"CY_BLE_ERROR_SEC_FAILED\000"
 10759      4C455F45 
 10759      52524F52 
 10759      5F534543 
 10759      5F464149 
 10760              	.LASF1027:
 10761 54dc 7478506F 		.ascii	"txPowerLevelConn\000"
 10761      7765724C 
 10761      6576656C 
 10761      436F6E6E 
 10761      00
 10762              	.LASF943:
 10763 54ed 61647644 		.ascii	"advDataLen\000"
 10763      6174614C 
 10763      656E00
 10764              	.LASF177:
 10765 54f8 63707573 		.ascii	"cpuss_interrupts_ipc_3_IRQn\000"
 10765      735F696E 
 10765      74657272 
 10765      75707473 
 10765      5F697063 
 10766              	.LASF612:
 10767 5514 454E435F 		.ascii	"ENC_KEY\000"
 10767      4B455900 
 10768              	.LASF1032:
 10769 551c 63795F73 		.ascii	"cy_stc_ble_params_t\000"
 10769      74635F62 
 10769      6C655F70 
 10769      6172616D 
 10769      735F7400 
 10770              	.LASF723:
 10771 5530 43595F42 		.ascii	"CY_BLE_EVT_GAP_AUTH_REQ\000"
 10771      4C455F45 
 10771      56545F47 
 10771      41505F41 
 10771      5554485F 
 10772              	.LASF897:
ARM GAS  C:\Users\ASUS\AppData\Local\Temp\cczm8cZa.s 			page 281


 10773 5548 43595F42 		.ascii	"CY_BLE_GAP_AUTH_ERROR_AUTHENTICATION_REQ_NOT_MET\000"
 10773      4C455F47 
 10773      41505F41 
 10773      5554485F 
 10773      4552524F 
 10774              	.LASF1000:
 10775 5579 6D617841 		.ascii	"maxAttrLength\000"
 10775      7474724C 
 10775      656E6774 
 10775      6800
 10776              	.LASF783:
 10777 5587 43595F42 		.ascii	"CY_BLE_EVT_L2CAP_CBFC_TX_CREDIT_IND\000"
 10777      4C455F45 
 10777      56545F4C 
 10777      32434150 
 10777      5F434246 
 10778              	.LASF515:
 10779 55ab 434F4E4E 		.ascii	"CONN_4_PARAM_MEM_BASE_ADDR\000"
 10779      5F345F50 
 10779      4152414D 
 10779      5F4D454D 
 10779      5F424153 
 10780              	.LASF764:
 10781 55c6 43595F42 		.ascii	"CY_BLE_EVT_GATTS_PREP_WRITE_REQ\000"
 10781      4C455F45 
 10781      56545F47 
 10781      41545453 
 10781      5F505245 
 10782              	.LASF247:
 10783 55e6 74637077 		.ascii	"tcpwm_1_interrupts_0_IRQn\000"
 10783      6D5F315F 
 10783      696E7465 
 10783      72727570 
 10783      74735F30 
 10784              	.LASF109:
 10785 5600 52657365 		.ascii	"Reset_IRQn\000"
 10785      745F4952 
 10785      516E00
 10786              	.LASF131:
 10787 560b 4E766963 		.ascii	"NvicMux16_IRQn\000"
 10787      4D757831 
 10787      365F4952 
 10787      516E00
 10788              	.LASF651:
 10789 561a 43595F53 		.ascii	"CY_SYSPM_LP\000"
 10789      5953504D 
 10789      5F4C5000 
 10790              	.LASF1010:
 10791 5626 61747456 		.ascii	"attValue\000"
 10791      616C7565 
 10791      00
 10792              	.LASF921:
 10793 562f 7363616E 		.ascii	"scanIntv\000"
 10793      496E7476 
 10793      00
 10794              	.LASF344:
 10795 5638 494E4954 		.ascii	"INIT_NEXT_INSTANT\000"
ARM GAS  C:\Users\ASUS\AppData\Local\Temp\cczm8cZa.s 			page 282


 10795      5F4E4558 
 10795      545F494E 
 10795      5354414E 
 10795      5400
 10796              	.LASF1058:
 10797 564a 6D6F6465 		.ascii	"mode\000"
 10797      00
 10798              	.LASF204:
 10799 564f 63707573 		.ascii	"cpuss_interrupts_dw0_5_IRQn\000"
 10799      735F696E 
 10799      74657272 
 10799      75707473 
 10799      5F647730 
 10800              	.LASF1057:
 10801 566b 43595F49 		.ascii	"CY_IPC_SEMA_STATUS_UNLOCKED\000"
 10801      50435F53 
 10801      454D415F 
 10801      53544154 
 10801      55535F55 
 10802              	.LASF730:
 10803 5687 43595F42 		.ascii	"CY_BLE_EVT_GAP_DEVICE_DISCONNECTED\000"
 10803      4C455F45 
 10803      56545F47 
 10803      41505F44 
 10803      45564943 
 10804              	.LASF903:
 10805 56aa 43595F42 		.ascii	"CY_BLE_GAP_AUTH_ERROR_REPEATED_ATTEMPTS\000"
 10805      4C455F47 
 10805      41505F41 
 10805      5554485F 
 10805      4552524F 
 10806              	.LASF400:
 10807 56d2 44415441 		.ascii	"DATA_MEM_DESCRIPTOR\000"
 10807      5F4D454D 
 10807      5F444553 
 10807      43524950 
 10807      544F5200 
 10808              	.LASF268:
 10809 56e6 74637077 		.ascii	"tcpwm_1_interrupts_21_IRQn\000"
 10809      6D5F315F 
 10809      696E7465 
 10809      72727570 
 10809      74735F32 
 10810              	.LASF45:
 10811 5701 63707573 		.ascii	"cpussIpc0Irq\000"
 10811      73497063 
 10811      30497271 
 10811      00
 10812              	.LASF1054:
 10813 570e 43595F49 		.ascii	"CY_IPC_SEMA_NOT_ACQUIRED\000"
 10813      50435F53 
 10813      454D415F 
 10813      4E4F545F 
 10813      41435155 
 10814              	.LASF1074:
 10815 5727 43795F42 		.ascii	"Cy_BLE_ConfigureExtPA\000"
 10815      4C455F43 
ARM GAS  C:\Users\ASUS\AppData\Local\Temp\cczm8cZa.s 			page 283


 10815      6F6E6669 
 10815      67757265 
 10815      45787450 
 10816              	.LASF580:
 10817 573d 424C455F 		.ascii	"BLE_BLELL_V1_Type\000"
 10817      424C454C 
 10817      4C5F5631 
 10817      5F547970 
 10817      6500
 10818              	.LASF680:
 10819 574f 43595F42 		.ascii	"CY_BLE_EVT_GET_CHANNEL_MAP_COMPLETE\000"
 10819      4C455F45 
 10819      56545F47 
 10819      45545F43 
 10819      48414E4E 
 10820              	.LASF285:
 10821 5773 7564625F 		.ascii	"udb_interrupts_14_IRQn\000"
 10821      696E7465 
 10821      72727570 
 10821      74735F31 
 10821      345F4952 
 10822              	.LASF66:
 10823 578a 666C6173 		.ascii	"flashCtlMainWs2Freq\000"
 10823      6843746C 
 10823      4D61696E 
 10823      57733246 
 10823      72657100 
 10824              	.LASF672:
 10825 579e 43595F42 		.ascii	"CY_BLE_EVT_TIMEOUT\000"
 10825      4C455F45 
 10825      56545F54 
 10825      494D454F 
 10825      555400
 10826              	.LASF26:
 10827 57b1 70726F74 		.ascii	"protBase\000"
 10827      42617365 
 10827      00
 10828              	.LASF952:
 10829 57ba 43595F42 		.ascii	"CY_BLE_STATE_STOPPED\000"
 10829      4C455F53 
 10829      54415445 
 10829      5F53544F 
 10829      50504544 
 10830              	.LASF1094:
 10831 57cf 63795F62 		.ascii	"cy_ble_advertisingIntervalType\000"
 10831      6C655F61 
 10831      64766572 
 10831      74697369 
 10831      6E67496E 
 10832              	.LASF908:
 10833 57ee 43595F42 		.ascii	"CY_BLE_GAP_AUTH_ERROR_CROSS_TRANSPORT_KEY_GEN_DER_N"
 10833      4C455F47 
 10833      41505F41 
 10833      5554485F 
 10833      4552524F 
 10834 5821 4F545F41 		.ascii	"OT_ALLOWED\000"
 10834      4C4C4F57 
ARM GAS  C:\Users\ASUS\AppData\Local\Temp\cczm8cZa.s 			page 284


 10834      454400
 10835              	.LASF322:
 10836 582c 52585F46 		.ascii	"RX_FIFO_RD\000"
 10836      49464F5F 
 10836      524400
 10837              	.LASF546:
 10838 5837 434F4E4E 		.ascii	"CONN_2_DATA_LIST_ACK\000"
 10838      5F325F44 
 10838      4154415F 
 10838      4C495354 
 10838      5F41434B 
 10839              	.LASF1017:
 10840 584c 63636364 		.ascii	"cccdHandle\000"
 10840      48616E64 
 10840      6C6500
 10841              	.LASF108:
 10842 5857 63795F73 		.ascii	"cy_stc_device_t\000"
 10842      74635F64 
 10842      65766963 
 10842      655F7400 
 10843              	.LASF848:
 10844 5867 63795F73 		.ascii	"cy_stc_ble_stack_config_param_t\000"
 10844      74635F62 
 10844      6C655F73 
 10844      7461636B 
 10844      5F636F6E 
 10845              	.LASF518:
 10846 5887 55535F4F 		.ascii	"US_OFFSET\000"
 10846      46465345 
 10846      5400
 10847              	.LASF216:
 10848 5891 63707573 		.ascii	"cpuss_interrupts_dw1_1_IRQn\000"
 10848      735F696E 
 10848      74657272 
 10848      75707473 
 10848      5F647731 
 10849              	.LASF112:
 10850 58ad 53564361 		.ascii	"SVCall_IRQn\000"
 10850      6C6C5F49 
 10850      52516E00 
 10851              	.LASF409:
 10852 58b9 54585258 		.ascii	"TXRX_HOP\000"
 10852      5F484F50 
 10852      00
 10853              	.LASF661:
 10854 58c2 63795F73 		.ascii	"cy_stc_syspm_callback_params_t\000"
 10854      74635F73 
 10854      7973706D 
 10854      5F63616C 
 10854      6C626163 
 10855              	.LASF261:
 10856 58e1 74637077 		.ascii	"tcpwm_1_interrupts_14_IRQn\000"
 10856      6D5F315F 
 10856      696E7465 
 10856      72727570 
 10856      74735F31 
 10857              	.LASF846:
ARM GAS  C:\Users\ASUS\AppData\Local\Temp\cczm8cZa.s 			page 285


 10858 58fc 66656174 		.ascii	"featureHeapReq\000"
 10858      75726548 
 10858      65617052 
 10858      657100
 10859              	.LASF972:
 10860 590b 61707065 		.ascii	"appearanceCharHandle\000"
 10860      6172616E 
 10860      63654368 
 10860      61724861 
 10860      6E646C65 
 10861              	.LASF1067:
 10862 5920 61706952 		.ascii	"apiResult\000"
 10862      6573756C 
 10862      7400
 10863              	.LASF135:
 10864 592a 4E766963 		.ascii	"NvicMux20_IRQn\000"
 10864      4D757832 
 10864      305F4952 
 10864      516E00
 10865              	.LASF845:
 10866 5939 66656174 		.ascii	"featureMask\000"
 10866      7572654D 
 10866      61736B00 
 10867              	.LASF411:
 10868 5945 54585F52 		.ascii	"TX_RX_ON_DELAY\000"
 10868      585F4F4E 
 10868      5F44454C 
 10868      415900
 10869              	.LASF524:
 10870 5954 4D4D4D53 		.ascii	"MMMS_CONN_STATUS\000"
 10870      5F434F4E 
 10870      4E5F5354 
 10870      41545553 
 10870      00
 10871              	.LASF113:
 10872 5965 50656E64 		.ascii	"PendSV_IRQn\000"
 10872      53565F49 
 10872      52516E00 
 10873              	.LASF761:
 10874 5971 43595F42 		.ascii	"CY_BLE_EVT_GATTS_WRITE_REQ\000"
 10874      4C455F45 
 10874      56545F47 
 10874      41545453 
 10874      5F575249 
 10875              	.LASF676:
 10876 598c 43595F42 		.ascii	"CY_BLE_EVT_FLASH_CORRUPT\000"
 10876      4C455F45 
 10876      56545F46 
 10876      4C415348 
 10876      5F434F52 
 10877              	.LASF654:
 10878 59a5 43595F53 		.ascii	"CY_SYSPM_CHECK_READY\000"
 10878      5953504D 
 10878      5F434845 
 10878      434B5F52 
 10878      45414459 
 10879              	.LASF174:
ARM GAS  C:\Users\ASUS\AppData\Local\Temp\cczm8cZa.s 			page 286


 10880 59ba 63707573 		.ascii	"cpuss_interrupts_ipc_0_IRQn\000"
 10880      735F696E 
 10880      74657272 
 10880      75707473 
 10880      5F697063 
 10881              	.LASF1053:
 10882 59d6 43595F49 		.ascii	"CY_IPC_SEMA_OUT_OF_RANGE\000"
 10882      50435F53 
 10882      454D415F 
 10882      4F55545F 
 10882      4F465F52 
 10883              	.LASF1029:
 10884 59ef 73656375 		.ascii	"securityPairingMethod\000"
 10884      72697479 
 10884      50616972 
 10884      696E674D 
 10884      6574686F 
 10885              	.LASF172:
 10886 5a05 70617373 		.ascii	"pass_interrupt_ctbs_IRQn\000"
 10886      5F696E74 
 10886      65727275 
 10886      70745F63 
 10886      7462735F 
 10887              	.LASF639:
 10888 5a1e 43595F53 		.ascii	"CY_SYSPM_SUCCESS\000"
 10888      5953504D 
 10888      5F535543 
 10888      43455353 
 10888      00
 10889              	.LASF462:
 10890 5a2f 434F4E4E 		.ascii	"CONN_UPDATE_NEW_LATENCY\000"
 10890      5F555044 
 10890      4154455F 
 10890      4E45575F 
 10890      4C415445 
 10891              	.LASF605:
 10892 5a47 45465553 		.ascii	"EFUSE_WDATA_H\000"
 10892      455F5744 
 10892      4154415F 
 10892      4800
 10893              	.LASF604:
 10894 5a55 45465553 		.ascii	"EFUSE_WDATA_L\000"
 10894      455F5744 
 10894      4154415F 
 10894      4C00
 10895              	.LASF978:
 10896 5a63 66617374 		.ascii	"fastAdvIntervalMax\000"
 10896      41647649 
 10896      6E746572 
 10896      76616C4D 
 10896      617800
 10897              	.LASF870:
 10898 5a76 43595F42 		.ascii	"CY_BLE_BLESS_ACTIVE\000"
 10898      4C455F42 
 10898      4C455353 
 10898      5F414354 
 10898      49564500 
ARM GAS  C:\Users\ASUS\AppData\Local\Temp\cczm8cZa.s 			page 287


 10899              	.LASF128:
 10900 5a8a 4E766963 		.ascii	"NvicMux13_IRQn\000"
 10900      4D757831 
 10900      335F4952 
 10900      516E00
 10901              	.LASF387:
 10902 5a99 43455F4C 		.ascii	"CE_LENGTH\000"
 10902      454E4754 
 10902      4800
 10903              	.LASF519:
 10904 5aa3 4E455854 		.ascii	"NEXT_CONN\000"
 10904      5F434F4E 
 10904      4E00
 10905              	.LASF89:
 10906 5aad 6770696F 		.ascii	"gpioPrtCfgInOffset\000"
 10906      50727443 
 10906      6667496E 
 10906      4F666673 
 10906      657400
 10907              	.LASF779:
 10908 5ac0 43595F42 		.ascii	"CY_BLE_EVT_L2CAP_CBFC_DISCONN_IND\000"
 10908      4C455F45 
 10908      56545F4C 
 10908      32434150 
 10908      5F434246 
 10909              	.LASF703:
 10910 5ae2 43595F42 		.ascii	"CY_BLE_EVT_SET_DEVICE_ADDR_COMPLETE\000"
 10910      4C455F45 
 10910      56545F53 
 10910      45545F44 
 10910      45564943 
 10911              	.LASF838:
 10912 5b06 63795F73 		.ascii	"cy_stc_ble_mxd_pa_cal_param_t\000"
 10912      74635F62 
 10912      6C655F6D 
 10912      78645F70 
 10912      615F6361 
 10913              	.LASF645:
 10914 5b24 63795F65 		.ascii	"cy_en_syspm_status_t\000"
 10914      6E5F7379 
 10914      73706D5F 
 10914      73746174 
 10914      75735F74 
 10915              	.LASF201:
 10916 5b39 63707573 		.ascii	"cpuss_interrupts_dw0_2_IRQn\000"
 10916      735F696E 
 10916      74657272 
 10916      75707473 
 10916      5F647730 
 10917              	.LASF811:
 10918 5b55 43595F42 		.ascii	"CY_BLE_ERROR_NTF_DISABLED\000"
 10918      4C455F45 
 10918      52524F52 
 10918      5F4E5446 
 10918      5F444953 
 10919              	.LASF970:
 10920 5b6f 73657276 		.ascii	"serviceHandle\000"
ARM GAS  C:\Users\ASUS\AppData\Local\Temp\cczm8cZa.s 			page 288


 10920      69636548 
 10920      616E646C 
 10920      6500
 10921              	.LASF1068:
 10922 5b7d 43795F42 		.ascii	"Cy_BLE_Enable\000"
 10922      4C455F45 
 10922      6E61626C 
 10922      6500
 10923              	.LASF0:
 10924 5b8b 756E7369 		.ascii	"unsigned int\000"
 10924      676E6564 
 10924      20696E74 
 10924      00
 10925              	.LASF371:
 10926 5b98 57414B45 		.ascii	"WAKEUP_CONTROL\000"
 10926      55505F43 
 10926      4F4E5452 
 10926      4F4C00
 10927              	.LASF942:
 10928 5ba7 61647644 		.ascii	"advData\000"
 10928      61746100 
 10929              	.LASF190:
 10930 5baf 7363625F 		.ascii	"scb_0_interrupt_IRQn\000"
 10930      305F696E 
 10930      74657272 
 10930      7570745F 
 10930      4952516E 
 10931              		.ident	"GCC: (GNU Tools for ARM Embedded Processors) 5.4.1 20160609 (release) [ARM/embedded-5-bran
