ARM GAS  C:\Users\ASUS\AppData\Local\Temp\ccj4BS4H.s 			page 1


   1              		.syntax unified
   2              		.cpu cortex-m0plus
   3              		.fpu softvfp
   4              		.eabi_attribute 20, 1
   5              		.eabi_attribute 21, 1
   6              		.eabi_attribute 23, 3
   7              		.eabi_attribute 24, 1
   8              		.eabi_attribute 25, 1
   9              		.eabi_attribute 26, 1
  10              		.eabi_attribute 30, 1
  11              		.eabi_attribute 34, 0
  12              		.eabi_attribute 18, 4
  13              		.thumb
  14              		.syntax unified
  15              		.file	"main_cm0p.c"
  16              		.text
  17              	.Ltext0:
  18              		.cfi_sections	.debug_frame
  19              		.section	.text.RtcInterruptHandler,"ax",%progbits
  20              		.align	2
  21              		.global	RtcInterruptHandler
  22              		.code	16
  23              		.thumb_func
  24              		.type	RtcInterruptHandler, %function
  25              	RtcInterruptHandler:
  26              	.LFB483:
  27              		.file 1 "RTC_Alarm.h"
   1:RTC_Alarm.h   **** /******************************************************************************
   2:RTC_Alarm.h   **** * File Name: RTC_Alarm.h
   3:RTC_Alarm.h   **** *
   4:RTC_Alarm.h   **** * Version: Beta
   5:RTC_Alarm.h   **** *
   6:RTC_Alarm.h   **** * Description: This is the firmware for setting up the RTC counter clock. The
   7:RTC_Alarm.h   **** * RTC is used for waking up the CPU from deep sleep at a select interval. The
   8:RTC_Alarm.h   **** * interval can be adjusted by modifying the macros in this file.
   9:RTC_Alarm.h   **** *
  10:RTC_Alarm.h   **** * Related Document: CE218542_PSoC_Custom_TickTimer_RTC.pdf
  11:RTC_Alarm.h   **** * Hardware Dependency:  CY8CKIT-063-BLE PSoC 6 BLE Pioneer kit
  12:RTC_Alarm.h   **** *
  13:RTC_Alarm.h   **** * Author(s):
  14:RTC_Alarm.h   **** *	Adapted from the PSoC CE218542 Code Example
  15:RTC_Alarm.h   **** *
  16:RTC_Alarm.h   **** *	Yousef H. Akbar & and Cow Team
  17:RTC_Alarm.h   **** *	Dept. Electrical and Computer Engineering
  18:RTC_Alarm.h   **** *	University of California, Davis
  19:RTC_Alarm.h   **** ******************************************************************************/
  20:RTC_Alarm.h   **** 
  21:RTC_Alarm.h   **** #include "project.h"
  22:RTC_Alarm.h   **** 
  23:RTC_Alarm.h   **** /* Macros */
  24:RTC_Alarm.h   **** #define MAX_ATTEMPTS        (500u)  /* Number of attempts for RTC operation */ 
  25:RTC_Alarm.h   **** #define INIT_DELAY          (5u)    /* Delay 5 milliseconds before each trial */
  26:RTC_Alarm.h   **** 
  27:RTC_Alarm.h   **** #define SECONDS_PER_MIN     (60u)   /* used to keep values in range */
  28:RTC_Alarm.h   **** #define MINUTES_PER_HOUR    (60u)
  29:RTC_Alarm.h   **** 
  30:RTC_Alarm.h   **** #define TICK_INTERVAL       (5u)    /* Seconds or minutes. 1-59 Range */
ARM GAS  C:\Users\ASUS\AppData\Local\Temp\ccj4BS4H.s 			page 2


  31:RTC_Alarm.h   **** #define USE_SECONDS         (1u)    /* set to one to use, to zero to not use */
  32:RTC_Alarm.h   **** #define USE_MINUTES         (0u)    /* use seconds OR minutes, not both  */
  33:RTC_Alarm.h   **** 
  34:RTC_Alarm.h   **** /* The interrupt status variable */
  35:RTC_Alarm.h   **** static uint32_t alarmFlag = 0u;
  36:RTC_Alarm.h   **** 
  37:RTC_Alarm.h   **** /* 
  38:RTC_Alarm.h   ****     If an En field is set to CY_RTC_ALARM_DISABLE, the alarm
  39:RTC_Alarm.h   ****     function ignores the disabled field when looking for a match.
  40:RTC_Alarm.h   ****     Configured to ignore all matches but enable the alarm, and
  41:RTC_Alarm.h   ****     the alarm goes off once per second, because the RTC uses 
  42:RTC_Alarm.h   ****     one-second resolution. 
  43:RTC_Alarm.h   **** */
  44:RTC_Alarm.h   **** cy_stc_rtc_alarm_t alarmConfig = 
  45:RTC_Alarm.h   **** {
  46:RTC_Alarm.h   ****     .sec            = RTC_INITIAL_DATE_SEC,
  47:RTC_Alarm.h   ****     .secEn          = CY_RTC_ALARM_DISABLE,
  48:RTC_Alarm.h   ****     .min            = RTC_INITIAL_DATE_MIN,
  49:RTC_Alarm.h   ****     .minEn          = CY_RTC_ALARM_DISABLE,
  50:RTC_Alarm.h   ****     .hour           = RTC_INITIAL_DATE_HOUR,
  51:RTC_Alarm.h   ****     .hourEn         = CY_RTC_ALARM_DISABLE,
  52:RTC_Alarm.h   ****     .dayOfWeek      = RTC_INITIAL_DATE_DOW,
  53:RTC_Alarm.h   ****     .dayOfWeekEn    = CY_RTC_ALARM_DISABLE,
  54:RTC_Alarm.h   ****     .date           = RTC_INITIAL_DATE_DOM,
  55:RTC_Alarm.h   ****     .dateEn         = CY_RTC_ALARM_DISABLE,
  56:RTC_Alarm.h   ****     .month          = RTC_INITIAL_DATE_MONTH,
  57:RTC_Alarm.h   ****     .monthEn        = CY_RTC_ALARM_DISABLE,
  58:RTC_Alarm.h   ****     .almEn          = CY_RTC_ALARM_ENABLE
  59:RTC_Alarm.h   **** };
  60:RTC_Alarm.h   **** 
  61:RTC_Alarm.h   **** /*****************************************************************************/
  62:RTC_Alarm.h   **** /*                      Function Prototypes                                  */
  63:RTC_Alarm.h   **** /*****************************************************************************/
  64:RTC_Alarm.h   **** cy_en_rtc_status_t RtcInit(void);
  65:RTC_Alarm.h   **** cy_en_rtc_status_t RtcAlarmConfig(void);
  66:RTC_Alarm.h   **** void RtcInterruptHandler(void);
  67:RTC_Alarm.h   **** void RtcStepAlarm(void);
  68:RTC_Alarm.h   **** 
  69:RTC_Alarm.h   **** /******************************************************************************
  70:RTC_Alarm.h   **** * Function Name: main
  71:RTC_Alarm.h   **** *******************************************************************************
  72:RTC_Alarm.h   **** *
  73:RTC_Alarm.h   **** * Summary: This is the system entrance point for Cortex-M4.
  74:RTC_Alarm.h   **** * This function generates a custom tick time interrupt using RTC alarm function.
  75:RTC_Alarm.h   **** *
  76:RTC_Alarm.h   **** * Parameters:
  77:RTC_Alarm.h   **** *  None
  78:RTC_Alarm.h   **** *
  79:RTC_Alarm.h   **** * Return:
  80:RTC_Alarm.h   **** *  int
  81:RTC_Alarm.h   **** *
  82:RTC_Alarm.h   **** * Side Effects:
  83:RTC_Alarm.h   **** *  None  
  84:RTC_Alarm.h   **** *
  85:RTC_Alarm.h   **** ******************************************************************************/
  86:RTC_Alarm.h   **** void init_RTC(void)
  87:RTC_Alarm.h   **** {
ARM GAS  C:\Users\ASUS\AppData\Local\Temp\ccj4BS4H.s 			page 3


  88:RTC_Alarm.h   ****     /* Init RTC - Configure the time and date */
  89:RTC_Alarm.h   ****     if(RtcInit() != CY_RTC_SUCCESS)
  90:RTC_Alarm.h   ****     {
  91:RTC_Alarm.h   ****         /* If operation fails, halt */
  92:RTC_Alarm.h   ****         CY_ASSERT(0u);
  93:RTC_Alarm.h   ****     }
  94:RTC_Alarm.h   ****     else  /* Configures the alarm to enable interrupt */
  95:RTC_Alarm.h   ****     {   
  96:RTC_Alarm.h   ****         /*
  97:RTC_Alarm.h   ****             To create a periodic alarm once per minute, enable the seconds match.
  98:RTC_Alarm.h   ****             Do not enable the minutes match, because all that matters is the
  99:RTC_Alarm.h   ****             seconds number. If it's zero, then every time the RTC second wraps
 100:RTC_Alarm.h   ****             around to zero, there is a match, and the alarm goes off.
 101:RTC_Alarm.h   ****         */
 102:RTC_Alarm.h   ****         if( (TICK_INTERVAL == 1u) && (USE_MINUTES == 1u))
 103:RTC_Alarm.h   ****         {
 104:RTC_Alarm.h   ****             alarmConfig.secEn = CY_RTC_ALARM_ENABLE;
 105:RTC_Alarm.h   ****         }
 106:RTC_Alarm.h   **** 
 107:RTC_Alarm.h   ****         /* Now configure the alarm */
 108:RTC_Alarm.h   ****         if(RtcAlarmConfig() != CY_RTC_SUCCESS)
 109:RTC_Alarm.h   ****         {
 110:RTC_Alarm.h   ****            /* If operation fails, halt */
 111:RTC_Alarm.h   ****            CY_ASSERT(0u);
 112:RTC_Alarm.h   ****         }
 113:RTC_Alarm.h   ****         else
 114:RTC_Alarm.h   ****         {
 115:RTC_Alarm.h   **** 	        /* This CE uses Alarm2, enable that interrupt */
 116:RTC_Alarm.h   **** 		    Cy_RTC_SetInterruptMask(CY_RTC_INTR_ALARM2);
 117:RTC_Alarm.h   ****         }
 118:RTC_Alarm.h   ****     }
 119:RTC_Alarm.h   ****     
 120:RTC_Alarm.h   ****     /* Enable RTC interrupt handler function */
 121:RTC_Alarm.h   ****     Cy_SysInt_Init(&RTC_RTC_IRQ_cfg, RtcInterruptHandler);
 122:RTC_Alarm.h   ****     NVIC_EnableIRQ(RTC_RTC_IRQ_cfg.intrSrc);
 123:RTC_Alarm.h   **** }
 124:RTC_Alarm.h   **** 
 125:RTC_Alarm.h   **** /******************************************************************************
 126:RTC_Alarm.h   **** * Function Name: RtcInit
 127:RTC_Alarm.h   **** *******************************************************************************
 128:RTC_Alarm.h   **** *
 129:RTC_Alarm.h   **** * Summary: 
 130:RTC_Alarm.h   **** *  This function configures the RTC registers.
 131:RTC_Alarm.h   **** *
 132:RTC_Alarm.h   **** * Parameters:
 133:RTC_Alarm.h   **** *  None
 134:RTC_Alarm.h   **** *
 135:RTC_Alarm.h   **** * Return:
 136:RTC_Alarm.h   **** *  cy_en_rtc_status_t
 137:RTC_Alarm.h   **** *       CY_RTC_SUCCESS      : Time and date configuration is successfully done.
 138:RTC_Alarm.h   **** *       CY_RTC_BAD_PARAM    : Date values are not valid.
 139:RTC_Alarm.h   **** *       CY_RTC_INVALID_STATE: RTC is busy state
 140:RTC_Alarm.h   **** *
 141:RTC_Alarm.h   **** ******************************************************************************/
 142:RTC_Alarm.h   **** cy_en_rtc_status_t RtcInit(void)
 143:RTC_Alarm.h   **** {
 144:RTC_Alarm.h   ****     uint32_t attempts = MAX_ATTEMPTS;
ARM GAS  C:\Users\ASUS\AppData\Local\Temp\ccj4BS4H.s 			page 4


 145:RTC_Alarm.h   ****     cy_en_rtc_status_t result;
 146:RTC_Alarm.h   ****     
 147:RTC_Alarm.h   ****     /* Setting the time and date can fail. For example the RTC might be busy.
 148:RTC_Alarm.h   ****        Check the result and try again, if necessary.  */
 149:RTC_Alarm.h   ****     do
 150:RTC_Alarm.h   ****     {
 151:RTC_Alarm.h   ****         result = Cy_RTC_Init(&RTC_config);
 152:RTC_Alarm.h   ****         attempts--;
 153:RTC_Alarm.h   ****         
 154:RTC_Alarm.h   ****         Cy_SysLib_Delay(INIT_DELAY);
 155:RTC_Alarm.h   ****     } while(( result != CY_RTC_SUCCESS) && (attempts != 0u));
 156:RTC_Alarm.h   ****     
 157:RTC_Alarm.h   **** 	return (result);
 158:RTC_Alarm.h   **** }
 159:RTC_Alarm.h   **** 
 160:RTC_Alarm.h   **** /******************************************************************************
 161:RTC_Alarm.h   **** * Function Name: RtcAlarmConfig
 162:RTC_Alarm.h   **** *******************************************************************************
 163:RTC_Alarm.h   **** *
 164:RTC_Alarm.h   **** * Summary: 
 165:RTC_Alarm.h   **** *  This function configures the custom RTC alarm to utilize the custom tick
 166:RTC_Alarm.h   **** *  timer interrupt.
 167:RTC_Alarm.h   **** *
 168:RTC_Alarm.h   **** * Parameters:
 169:RTC_Alarm.h   **** *  None
 170:RTC_Alarm.h   **** *
 171:RTC_Alarm.h   **** * Return:
 172:RTC_Alarm.h   **** *  cy_en_rtc_status_t
 173:RTC_Alarm.h   **** *       CY_RTC_SUCCESS      : Time and date configuration is successfully done.
 174:RTC_Alarm.h   **** *       CY_RTC_BAD_PARAM    : Date values are not valid.
 175:RTC_Alarm.h   **** *       CY_RTC_INVALID_STATE: RTC is busy state
 176:RTC_Alarm.h   **** *
 177:RTC_Alarm.h   **** ******************************************************************************/
 178:RTC_Alarm.h   **** cy_en_rtc_status_t RtcAlarmConfig(void)
 179:RTC_Alarm.h   **** {
 180:RTC_Alarm.h   ****     uint32_t attempts = MAX_ATTEMPTS;
 181:RTC_Alarm.h   ****     cy_en_rtc_status_t result;
 182:RTC_Alarm.h   **** 
 183:RTC_Alarm.h   ****     /* 
 184:RTC_Alarm.h   ****        Setting the alarm can fail. For example the RTC might be busy. 
 185:RTC_Alarm.h   ****        Check the result and try again, if necessary.
 186:RTC_Alarm.h   ****     */
 187:RTC_Alarm.h   ****     do
 188:RTC_Alarm.h   **** 	{
 189:RTC_Alarm.h   **** 		result = Cy_RTC_SetAlarmDateAndTime((cy_stc_rtc_alarm_t const
 190:RTC_Alarm.h   **** 					*)&alarmConfig, CY_RTC_ALARM_2);
 191:RTC_Alarm.h   **** 		attempts--;
 192:RTC_Alarm.h   ****         
 193:RTC_Alarm.h   **** 		Cy_SysLib_Delay(INIT_DELAY);
 194:RTC_Alarm.h   ****     } while(( result != CY_RTC_SUCCESS) && (attempts != 0u));
 195:RTC_Alarm.h   ****     
 196:RTC_Alarm.h   **** 	return (result);
 197:RTC_Alarm.h   **** }
 198:RTC_Alarm.h   **** 
 199:RTC_Alarm.h   **** /******************************************************************************
 200:RTC_Alarm.h   **** * Function Name: RtcInterruptHandler
 201:RTC_Alarm.h   **** *******************************************************************************
ARM GAS  C:\Users\ASUS\AppData\Local\Temp\ccj4BS4H.s 			page 5


 202:RTC_Alarm.h   **** *
 203:RTC_Alarm.h   **** * Summary: 
 204:RTC_Alarm.h   **** *  This is the general RTC interrupt handler in CPU NVIC.
 205:RTC_Alarm.h   **** *  It calls the Alarm2 interrupt handler if that is the interrupt that occurs.
 206:RTC_Alarm.h   **** *
 207:RTC_Alarm.h   **** * Parameters:
 208:RTC_Alarm.h   **** *  None
 209:RTC_Alarm.h   **** *
 210:RTC_Alarm.h   **** * Return:
 211:RTC_Alarm.h   **** *  None
 212:RTC_Alarm.h   **** *
 213:RTC_Alarm.h   **** ******************************************************************************/
 214:RTC_Alarm.h   **** void RtcInterruptHandler(void)
 215:RTC_Alarm.h   **** {
  28              		.loc 1 215 0
  29              		.cfi_startproc
  30              		@ args = 0, pretend = 0, frame = 0
  31              		@ frame_needed = 0, uses_anonymous_args = 0
  32 0000 10B5     		push	{r4, lr}
  33              		.cfi_def_cfa_offset 8
  34              		.cfi_offset 4, -8
  35              		.cfi_offset 14, -4
 216:RTC_Alarm.h   ****     /* No DST parameters are required for the custom tick. */
 217:RTC_Alarm.h   ****     Cy_RTC_Interrupt(NULL, false);
  36              		.loc 1 217 0
  37 0002 0021     		movs	r1, #0
  38 0004 0020     		movs	r0, #0
  39 0006 FFF7FEFF 		bl	Cy_RTC_Interrupt
  40              	.LVL0:
 218:RTC_Alarm.h   **** }
  41              		.loc 1 218 0
  42              		@ sp needed
  43 000a 10BD     		pop	{r4, pc}
  44              		.cfi_endproc
  45              	.LFE483:
  46              		.size	RtcInterruptHandler, .-RtcInterruptHandler
  47              		.section	.text.genericEventHandler,"ax",%progbits
  48              		.align	2
  49              		.global	genericEventHandler
  50              		.code	16
  51              		.thumb_func
  52              		.type	genericEventHandler, %function
  53              	genericEventHandler:
  54              	.LFB486:
  55              		.file 2 "BLE.h"
   1:BLE.h         **** /******************************************************************************
   2:BLE.h         **** * File Name: BLE.h
   3:BLE.h         **** *
   4:BLE.h         **** * Version: Beta
   5:BLE.h         **** *
   6:BLE.h         **** * Description: This file contains the firmware for setting up communication
   7:BLE.h         **** * between the PSoC and the AS73211 True Color Sensor using the I2C protocol.
   8:BLE.h         **** *
   9:BLE.h         **** * Related Document: TrueColor_LightSensor.pdf
  10:BLE.h         **** * Hardware Dependency:  CY8CKIT-063-BLE PSoC 6 BLE Pioneer kit
  11:BLE.h         **** *                       AS73211 True Color Sensor
  12:BLE.h         **** *
ARM GAS  C:\Users\ASUS\AppData\Local\Temp\ccj4BS4H.s 			page 6


  13:BLE.h         **** * Author(s):
  14:BLE.h         **** *	Yousef H. Akbar & and Cow Team
  15:BLE.h         **** *	Dept. Electrical and Computer Engineering
  16:BLE.h         **** *	University of California, Davis
  17:BLE.h         **** ******************************************************************************/
  18:BLE.h         **** 
  19:BLE.h         **** #include "stdio.h"
  20:BLE.h         **** #include "project.h"
  21:BLE.h         **** 
  22:BLE.h         **** uint16_t xChannel, yChannel, zChannel, temperature;	// Light Sensor Vars
  23:BLE.h         **** uint16_t accX, accY, accZ;				// Accelerometer
  24:BLE.h         **** uint16_t gyroX, gyroY, gyroZ;				// Gyroscope
  25:BLE.h         **** int tempFlag;
  26:BLE.h         **** int accInactive;
  27:BLE.h         **** int lightFlag;
  28:BLE.h         **** static uint8 data[1] = {0};
  29:BLE.h         **** 
  30:BLE.h         **** void genericEventHandler(uint32_t event, void *eventParameter)
  31:BLE.h         **** {
  56              		.loc 2 31 0
  57              		.cfi_startproc
  58              		@ args = 0, pretend = 0, frame = 0
  59              		@ frame_needed = 0, uses_anonymous_args = 0
  60              	.LVL1:
  61 0000 10B5     		push	{r4, lr}
  62              		.cfi_def_cfa_offset 8
  63              		.cfi_offset 4, -8
  64              		.cfi_offset 14, -4
  32:BLE.h         ****     switch(event)
  65              		.loc 2 32 0
  66 0002 0D4B     		ldr	r3, .L6
  67 0004 9842     		cmp	r0, r3
  68 0006 06D0     		beq	.L4
  69 0008 0C4B     		ldr	r3, .L6+4
  70 000a 9842     		cmp	r0, r3
  71 000c 08D0     		beq	.L5
  72 000e 8023     		movs	r3, #128
  73 0010 5B01     		lsls	r3, r3, #5
  74 0012 9842     		cmp	r0, r3
  75 0014 0ED1     		bne	.L2
  76              	.L4:
  33:BLE.h         ****     {
  34:BLE.h         ****         case CY_BLE_EVT_STACK_ON:
  35:BLE.h         ****         case CY_BLE_EVT_GAP_DEVICE_DISCONNECTED:
  36:BLE.h         ****         {
  37:BLE.h         ****             Cy_BLE_GAPP_StartAdvertisement(CY_BLE_ADVERTISING_FAST, CY_BLE_PERIPHERAL_CONFIGURATION
  77              		.loc 2 37 0
  78 0016 0021     		movs	r1, #0
  79              	.LVL2:
  80 0018 0020     		movs	r0, #0
  81              	.LVL3:
  82 001a FFF7FEFF 		bl	Cy_BLE_GAPP_StartAdvertisement
  83              	.LVL4:
  38:BLE.h         ****             break;
  84              		.loc 2 38 0
  85 001e 09E0     		b	.L2
  86              	.LVL5:
ARM GAS  C:\Users\ASUS\AppData\Local\Temp\ccj4BS4H.s 			page 7


  87              	.L5:
  88              	.LBB47:
  39:BLE.h         ****         }
  40:BLE.h         ****         case CY_BLE_EVT_GATT_CONNECT_IND:
  41:BLE.h         ****         {
  42:BLE.h         ****             break;
  43:BLE.h         ****         }
  44:BLE.h         ****         case CY_BLE_EVT_GATTS_WRITE_CMD_REQ:
  45:BLE.h         ****         {
  46:BLE.h         ****             cy_stc_ble_gatts_write_cmd_req_param_t *writeReqParameter = (cy_stc_ble_gatts_write_cmd
  47:BLE.h         ****             
  48:BLE.h         ****             if (CY_BLE_DEVICE_INTERFACE_DEVICE_INBOUND_CHAR_HANDLE == writeReqParameter->handleValP
  89              		.loc 2 48 0
  90 0020 0B89     		ldrh	r3, [r1, #8]
  91 0022 122B     		cmp	r3, #18
  92 0024 06D1     		bne	.L2
  49:BLE.h         ****             {
  50:BLE.h         ****                 data[0] = writeReqParameter->handleValPair.value.val[0];
  93              		.loc 2 50 0
  94 0026 0B68     		ldr	r3, [r1]
  95 0028 1A78     		ldrb	r2, [r3]
  96 002a 054B     		ldr	r3, .L6+8
  97 002c 1A70     		strb	r2, [r3]
  51:BLE.h         ****                 Cy_BLE_GATTS_WriteRsp(writeReqParameter->connHandle);
  98              		.loc 2 51 0
  99 002e C868     		ldr	r0, [r1, #12]
 100              	.LVL6:
 101 0030 FFF7FEFF 		bl	Cy_BLE_GATTS_WriteRsp
 102              	.LVL7:
 103              	.L2:
 104              	.LBE47:
  52:BLE.h         ****             }
  53:BLE.h         ****             break;
  54:BLE.h         ****         }
  55:BLE.h         ****     }
  56:BLE.h         **** }
 105              		.loc 2 56 0
 106              		@ sp needed
 107 0034 10BD     		pop	{r4, pc}
 108              	.L7:
 109 0036 C046     		.align	2
 110              	.L6:
 111 0038 08400000 		.word	16392
 112 003c 0E500000 		.word	20494
 113 0040 00000000 		.word	.LANCHOR0
 114              		.cfi_endproc
 115              	.LFE486:
 116              		.size	genericEventHandler, .-genericEventHandler
 117              		.section	.text.bleInterruptNotify,"ax",%progbits
 118              		.align	2
 119              		.global	bleInterruptNotify
 120              		.code	16
 121              		.thumb_func
 122              		.type	bleInterruptNotify, %function
 123              	bleInterruptNotify:
 124              	.LFB487:
  57:BLE.h         **** void bleInterruptNotify()
ARM GAS  C:\Users\ASUS\AppData\Local\Temp\ccj4BS4H.s 			page 8


  58:BLE.h         **** {
 125              		.loc 2 58 0
 126              		.cfi_startproc
 127              		@ args = 0, pretend = 0, frame = 0
 128              		@ frame_needed = 0, uses_anonymous_args = 0
 129 0000 10B5     		push	{r4, lr}
 130              		.cfi_def_cfa_offset 8
 131              		.cfi_offset 4, -8
 132              		.cfi_offset 14, -4
  59:BLE.h         ****     Cy_BLE_ProcessEvents();
 133              		.loc 2 59 0
 134 0002 FFF7FEFF 		bl	Cy_BLE_ProcessEvents
 135              	.LVL8:
  60:BLE.h         **** }
 136              		.loc 2 60 0
 137              		@ sp needed
 138 0006 10BD     		pop	{r4, pc}
 139              		.cfi_endproc
 140              	.LFE487:
 141              		.size	bleInterruptNotify, .-bleInterruptNotify
 142              		.section	.text.toggleState,"ax",%progbits
 143              		.align	2
 144              		.global	toggleState
 145              		.code	16
 146              		.thumb_func
 147              		.type	toggleState, %function
 148              	toggleState:
 149              	.LFB462:
 150              		.file 3 "FSM.h"
   1:FSM.h         **** /******************************************************************************
   2:FSM.h         **** * File Name: FSM.h
   3:FSM.h         **** *
   4:FSM.h         **** * Version: Beta
   5:FSM.h         **** *
   6:FSM.h         **** * Description: This file contains the definition of the Finite State Machine,
   7:FSM.h         **** * part of the firmware for the HappyCow/EasyMoo Electronic Design (EEC136)
   8:FSM.h         **** * Capstone Project.
   9:FSM.h         **** *
  10:FSM.h         **** * Related Document: HappyCowReport.pdf
  11:FSM.h         **** * Hardware Dependency: CY8CKIT-063-BLE PSoC 6 BLE Pioneer kit
  12:FSM.h         **** *
  13:FSM.h         **** * Author(s):
  14:FSM.h         **** *	Yousef H. Akbar & Cow Team
  15:FSM.h         **** *	Dept. Electrical and Computer Engineering
  16:FSM.h         **** *	University of California, Davis
  17:FSM.h         **** *******************************************************************************
  18:FSM.h         **** * The current list of states in our FSM are:
  19:FSM.h         **** * 	0) OFF:		    Default starting state, switched off using button.
  20:FSM.h         **** * 	1) SENSOR:	    When PSoC switched on; active sensor reading mode.
  21:FSM.h         **** * 	2) SLEEP:	    When inactivity detected; use minimal resources.
  22:FSM.h         **** * 	3) CRITICAL:	When sensors read critical info; alert user until off.
  23:FSM.h         **** * 	4) TALK:	    When connected to BLE; send info to CySmart.
  24:FSM.h         **** * States are either 0 or 1; One state will always be 1, others must be 0.
  25:FSM.h         **** * As mentioned, OFF is the starting state.
  26:FSM.h         **** ******************************************************************************/
  27:FSM.h         **** 
  28:FSM.h         **** #include "stdio.h"
ARM GAS  C:\Users\ASUS\AppData\Local\Temp\ccj4BS4H.s 			page 9


  29:FSM.h         **** 
  30:FSM.h         **** #define NUM_STATES      (5)
  31:FSM.h         **** #define CRIT_INACTIVE   (600)
  32:FSM.h         **** 
  33:FSM.h         **** enum STATES{OFF, SENSOR, SLEEP, CRITICAL, TALK};
  34:FSM.h         **** 
  35:FSM.h         **** struct State {
  36:FSM.h         **** 	int id;
  37:FSM.h         **** 	int val;
  38:FSM.h         **** 	int prev;
  39:FSM.h         **** };
  40:FSM.h         **** 
  41:FSM.h         **** typedef struct FSM {
  42:FSM.h         **** 	struct State states[5];
  43:FSM.h         **** 	struct State *curr;
  44:FSM.h         **** } FSM;
  45:FSM.h         **** 
  46:FSM.h         **** /* Function Name: toggleState
  47:FSM.h         ****  *
  48:FSM.h         ****  * Summary:
  49:FSM.h         ****  * This function toggles the value (0 or 1, off or on) of the state specified
  50:FSM.h         ****  * by the @target argument. It saves its value pre-toggle to the `prev`
  51:FSM.h         ****  * variable.
  52:FSM.h         ****  *
  53:FSM.h         ****  * Parameters:
  54:FSM.h         ****  * 	@*target:	pointer to state we would like to toggle.
  55:FSM.h         ****  *
  56:FSM.h         ****  * Return:
  57:FSM.h         ****  * 	None.
  58:FSM.h         ****  */
  59:FSM.h         **** void toggleState(struct State *target)
  60:FSM.h         **** {
 151              		.loc 3 60 0
 152              		.cfi_startproc
 153              		@ args = 0, pretend = 0, frame = 0
 154              		@ frame_needed = 0, uses_anonymous_args = 0
 155              		@ link register save eliminated.
 156              	.LVL9:
  61:FSM.h         **** 	int *previous = &(target->prev);
  62:FSM.h         **** 	int *value = &(target->val);
  63:FSM.h         **** 	
  64:FSM.h         **** 	*previous = target->val;
 157              		.loc 3 64 0
 158 0000 4368     		ldr	r3, [r0, #4]
 159 0002 8360     		str	r3, [r0, #8]
  65:FSM.h         **** 	if (*value == 1)
 160              		.loc 3 65 0
 161 0004 012B     		cmp	r3, #1
 162 0006 02D1     		bne	.L10
  66:FSM.h         **** 		*value = 0;
 163              		.loc 3 66 0
 164 0008 0023     		movs	r3, #0
 165 000a 4360     		str	r3, [r0, #4]
 166 000c 01E0     		b	.L9
 167              	.L10:
  67:FSM.h         **** 	else
  68:FSM.h         **** 		*value = 1;
ARM GAS  C:\Users\ASUS\AppData\Local\Temp\ccj4BS4H.s 			page 10


 168              		.loc 3 68 0
 169 000e 0123     		movs	r3, #1
 170 0010 4360     		str	r3, [r0, #4]
 171              	.L9:
  69:FSM.h         **** }
 172              		.loc 3 69 0
 173              		@ sp needed
 174 0012 7047     		bx	lr
 175              		.cfi_endproc
 176              	.LFE462:
 177              		.size	toggleState, .-toggleState
 178              		.section	.text.setCurrState,"ax",%progbits
 179              		.align	2
 180              		.global	setCurrState
 181              		.code	16
 182              		.thumb_func
 183              		.type	setCurrState, %function
 184              	setCurrState:
 185              	.LFB463:
  70:FSM.h         **** 
  71:FSM.h         **** /* Function Name: setCurrState
  72:FSM.h         ****  *
  73:FSM.h         ****  * Summary:
  74:FSM.h         ****  * This function changes the current active state of the FSM. It toggles
  75:FSM.h         ****  * whatever the current active state is and sets the state specified by @id as
  76:FSM.h         ****  * the new active state. Both changes are done using toggleState()
  77:FSM.h         ****  *
  78:FSM.h         ****  * Parameters:
  79:FSM.h         ****  * 	@*machine:	global state machine struct variable.
  80:FSM.h         ****  * 	@id:		target state id number. refer to enum for order.
  81:FSM.h         ****  *
  82:FSM.h         ****  * Return:
  83:FSM.h         ****  * 	None.
  84:FSM.h         ****  */
  85:FSM.h         **** void setCurrState(FSM *machine, int id)
  86:FSM.h         **** {
 186              		.loc 3 86 0
 187              		.cfi_startproc
 188              		@ args = 0, pretend = 0, frame = 0
 189              		@ frame_needed = 0, uses_anonymous_args = 0
 190              	.LVL10:
 191 0000 70B5     		push	{r4, r5, r6, lr}
 192              		.cfi_def_cfa_offset 16
 193              		.cfi_offset 4, -16
 194              		.cfi_offset 5, -12
 195              		.cfi_offset 6, -8
 196              		.cfi_offset 14, -4
 197 0002 0500     		movs	r5, r0
 198 0004 0C00     		movs	r4, r1
  87:FSM.h         **** 	if (machine->curr)
 199              		.loc 3 87 0
 200 0006 C06B     		ldr	r0, [r0, #60]
 201              	.LVL11:
 202 0008 0028     		cmp	r0, #0
 203 000a 01D0     		beq	.L13
  88:FSM.h         **** 		toggleState(machine->curr);
 204              		.loc 3 88 0
ARM GAS  C:\Users\ASUS\AppData\Local\Temp\ccj4BS4H.s 			page 11


 205 000c FFF7FEFF 		bl	toggleState
 206              	.LVL12:
 207              	.L13:
  89:FSM.h         **** 	toggleState(&(machine->states[id]));
 208              		.loc 3 89 0
 209 0010 6300     		lsls	r3, r4, #1
 210 0012 1B19     		adds	r3, r3, r4
 211 0014 9C00     		lsls	r4, r3, #2
 212              	.LVL13:
 213 0016 2C19     		adds	r4, r5, r4
 214 0018 2000     		movs	r0, r4
 215 001a FFF7FEFF 		bl	toggleState
 216              	.LVL14:
  90:FSM.h         **** 	machine->curr = &(machine->states[id]);
 217              		.loc 3 90 0
 218 001e EC63     		str	r4, [r5, #60]
  91:FSM.h         **** }
 219              		.loc 3 91 0
 220              		@ sp needed
 221              	.LVL15:
 222 0020 70BD     		pop	{r4, r5, r6, pc}
 223              		.cfi_endproc
 224              	.LFE463:
 225              		.size	setCurrState, .-setCurrState
 226 0022 C046     		.section	.text.updateFSM,"ax",%progbits
 227              		.align	2
 228              		.global	updateFSM
 229              		.code	16
 230              		.thumb_func
 231              		.type	updateFSM, %function
 232              	updateFSM:
 233              	.LFB464:
  92:FSM.h         **** 
  93:FSM.h         **** void updateFSM(FSM *machine, int accInactive, int lightFlag, int tempFlag)
  94:FSM.h         **** {
 234              		.loc 3 94 0
 235              		.cfi_startproc
 236              		@ args = 0, pretend = 0, frame = 0
 237              		@ frame_needed = 0, uses_anonymous_args = 0
 238              	.LVL16:
 239 0000 70B5     		push	{r4, r5, r6, lr}
 240              		.cfi_def_cfa_offset 16
 241              		.cfi_offset 4, -16
 242              		.cfi_offset 5, -12
 243              		.cfi_offset 6, -8
 244              		.cfi_offset 14, -4
 245 0002 0600     		movs	r6, r0
 246 0004 1500     		movs	r5, r2
 247 0006 1C00     		movs	r4, r3
  95:FSM.h         **** 	switch(machine->curr->id)
 248              		.loc 3 95 0
 249 0008 C36B     		ldr	r3, [r0, #60]
 250              	.LVL17:
 251 000a 1B68     		ldr	r3, [r3]
 252 000c 042B     		cmp	r3, #4
 253 000e 29D8     		bhi	.L14
 254 0010 9B00     		lsls	r3, r3, #2
ARM GAS  C:\Users\ASUS\AppData\Local\Temp\ccj4BS4H.s 			page 12


 255 0012 154A     		ldr	r2, .L24
 256              	.LVL18:
 257 0014 D358     		ldr	r3, [r2, r3]
 258 0016 9F46     		mov	pc, r3
 259              		.section	.rodata
 260              		.align	2
 261              	.L17:
 262 0000 18000000 		.word	.L16
 263 0004 20000000 		.word	.L18
 264 0008 38000000 		.word	.L19
 265 000c 50000000 		.word	.L20
 266 0010 5E000000 		.word	.L21
 267              		.section	.text.updateFSM
 268              	.L16:
  96:FSM.h         ****     {
  97:FSM.h         ****         case OFF:       
  98:FSM.h         ****             setCurrState(machine, SENSOR);
 269              		.loc 3 98 0
 270 0018 0121     		movs	r1, #1
 271              	.LVL19:
 272 001a FFF7FEFF 		bl	setCurrState
 273              	.LVL20:
  99:FSM.h         ****             break;
 274              		.loc 3 99 0
 275 001e 21E0     		b	.L14
 276              	.LVL21:
 277              	.L18:
 100:FSM.h         ****         case SENSOR:
 101:FSM.h         ****             if (accInactive)
 278              		.loc 3 101 0
 279 0020 0029     		cmp	r1, #0
 280 0022 02D0     		beq	.L22
 102:FSM.h         ****                 setCurrState(machine, SLEEP);
 281              		.loc 3 102 0
 282 0024 0221     		movs	r1, #2
 283              	.LVL22:
 284 0026 FFF7FEFF 		bl	setCurrState
 285              	.LVL23:
 286              	.L22:
 103:FSM.h         ****             if (lightFlag || tempFlag)
 287              		.loc 3 103 0
 288 002a 2C43     		orrs	r4, r5
 289              	.LVL24:
 290 002c 1AD0     		beq	.L14
 104:FSM.h         ****                 setCurrState(machine, CRITICAL);
 291              		.loc 3 104 0
 292 002e 0321     		movs	r1, #3
 293 0030 3000     		movs	r0, r6
 294 0032 FFF7FEFF 		bl	setCurrState
 295              	.LVL25:
 296 0036 15E0     		b	.L14
 297              	.LVL26:
 298              	.L19:
 105:FSM.h         ****             break;
 106:FSM.h         ****         case SLEEP:
 107:FSM.h         ****             if (!accInactive)
 299              		.loc 3 107 0
ARM GAS  C:\Users\ASUS\AppData\Local\Temp\ccj4BS4H.s 			page 13


 300 0038 0029     		cmp	r1, #0
 301 003a 02D1     		bne	.L23
 108:FSM.h         ****                 setCurrState(machine, SENSOR);
 302              		.loc 3 108 0
 303 003c 0131     		adds	r1, r1, #1
 304              	.LVL27:
 305 003e FFF7FEFF 		bl	setCurrState
 306              	.LVL28:
 307              	.L23:
 109:FSM.h         ****             if (lightFlag || tempFlag)
 308              		.loc 3 109 0
 309 0042 2C43     		orrs	r4, r5
 310              	.LVL29:
 311 0044 0ED0     		beq	.L14
 110:FSM.h         ****                 setCurrState(machine, CRITICAL);
 312              		.loc 3 110 0
 313 0046 0321     		movs	r1, #3
 314 0048 3000     		movs	r0, r6
 315 004a FFF7FEFF 		bl	setCurrState
 316              	.LVL30:
 317 004e 09E0     		b	.L14
 318              	.LVL31:
 319              	.L20:
 111:FSM.h         ****             break;
 112:FSM.h         ****         case CRITICAL:
 113:FSM.h         ****             if (!lightFlag && !tempFlag && !accInactive)
 320              		.loc 3 113 0
 321 0050 2C43     		orrs	r4, r5
 322              	.LVL32:
 323 0052 2143     		orrs	r1, r4
 324              	.LVL33:
 325 0054 06D1     		bne	.L14
 114:FSM.h         ****                 setCurrState(machine, SLEEP);
 326              		.loc 3 114 0
 327 0056 0231     		adds	r1, r1, #2
 328 0058 FFF7FEFF 		bl	setCurrState
 329              	.LVL34:
 330 005c 02E0     		b	.L14
 331              	.LVL35:
 332              	.L21:
 115:FSM.h         ****             break;
 116:FSM.h         ****         case TALK:
 117:FSM.h         ****             if (1) // when BLE disconnects FIXME
 118:FSM.h         ****                 setCurrState(machine, SLEEP);
 333              		.loc 3 118 0
 334 005e 0221     		movs	r1, #2
 335              	.LVL36:
 336 0060 FFF7FEFF 		bl	setCurrState
 337              	.LVL37:
 338              	.L14:
 119:FSM.h         ****             break;
 120:FSM.h         ****     }
 121:FSM.h         **** }
 339              		.loc 3 121 0
 340              		@ sp needed
 341              	.LVL38:
 342              	.LVL39:
ARM GAS  C:\Users\ASUS\AppData\Local\Temp\ccj4BS4H.s 			page 14


 343 0064 70BD     		pop	{r4, r5, r6, pc}
 344              	.L25:
 345 0066 C046     		.align	2
 346              	.L24:
 347 0068 00000000 		.word	.L17
 348              		.cfi_endproc
 349              	.LFE464:
 350              		.size	updateFSM, .-updateFSM
 351              		.section	.text.printFSM,"ax",%progbits
 352              		.align	2
 353              		.global	printFSM
 354              		.code	16
 355              		.thumb_func
 356              		.type	printFSM, %function
 357              	printFSM:
 358              	.LFB465:
 122:FSM.h         **** 
 123:FSM.h         **** void printFSM(FSM machine)
 124:FSM.h         **** {
 359              		.loc 3 124 0
 360              		.cfi_startproc
 361              		@ args = 64, pretend = 16, frame = 0
 362              		@ frame_needed = 0, uses_anonymous_args = 0
 363 0000 84B0     		sub	sp, sp, #16
 364              		.cfi_def_cfa_offset 16
 365 0002 10B5     		push	{r4, lr}
 366              		.cfi_def_cfa_offset 24
 367              		.cfi_offset 4, -24
 368              		.cfi_offset 14, -20
 369 0004 0290     		str	r0, [sp, #8]
 370 0006 0391     		str	r1, [sp, #12]
 371 0008 0492     		str	r2, [sp, #16]
 372 000a 0593     		str	r3, [sp, #20]
 125:FSM.h         ****     printf("\r\n");
 373              		.loc 3 125 0
 374 000c 0D48     		ldr	r0, .L29
 375 000e FFF7FEFF 		bl	puts
 376              	.LVL40:
 377              	.LBB48:
 126:FSM.h         ****     for (int i=OFF; i <= TALK; i++) {
 378              		.loc 3 126 0
 379 0012 0024     		movs	r4, #0
 380 0014 0FE0     		b	.L27
 381              	.LVL41:
 382              	.L28:
 127:FSM.h         ****         printf("ID: %d      Value: %d       Previous: %d\r\n",
 383              		.loc 3 127 0 discriminator 3
 384 0016 6100     		lsls	r1, r4, #1
 385 0018 0B19     		adds	r3, r1, r4
 386 001a 9A00     		lsls	r2, r3, #2
 387 001c 02AB     		add	r3, sp, #8
 388 001e 9C46     		mov	ip, r3
 389 0020 6244     		add	r2, r2, ip
 390 0022 9368     		ldr	r3, [r2, #8]
 391 0024 5268     		ldr	r2, [r2, #4]
 392 0026 0919     		adds	r1, r1, r4
 393 0028 8800     		lsls	r0, r1, #2
ARM GAS  C:\Users\ASUS\AppData\Local\Temp\ccj4BS4H.s 			page 15


 394 002a 6146     		mov	r1, ip
 395 002c 0958     		ldr	r1, [r1, r0]
 396 002e 0648     		ldr	r0, .L29+4
 397 0030 FFF7FEFF 		bl	printf
 398              	.LVL42:
 126:FSM.h         ****     for (int i=OFF; i <= TALK; i++) {
 399              		.loc 3 126 0 discriminator 3
 400 0034 0134     		adds	r4, r4, #1
 401              	.LVL43:
 402              	.L27:
 126:FSM.h         ****     for (int i=OFF; i <= TALK; i++) {
 403              		.loc 3 126 0 is_stmt 0 discriminator 1
 404 0036 042C     		cmp	r4, #4
 405 0038 EDDD     		ble	.L28
 406              	.LBE48:
 128:FSM.h         **** 	    machine.states[i].id, machine.states[i].val,
 129:FSM.h         **** 	    machine.states[i].prev);
 130:FSM.h         ****     }
 131:FSM.h         **** }
 407              		.loc 3 131 0 is_stmt 1
 408              		@ sp needed
 409              	.LVL44:
 410 003a 10BC     		pop	{r4}
 411 003c 08BC     		pop	{r3}
 412 003e 04B0     		add	sp, sp, #16
 413 0040 1847     		bx	r3
 414              	.L30:
 415 0042 C046     		.align	2
 416              	.L29:
 417 0044 00000000 		.word	.LC2
 418 0048 04000000 		.word	.LC4
 419              		.cfi_endproc
 420              	.LFE465:
 421              		.size	printFSM, .-printFSM
 422              		.section	.text.initFSM,"ax",%progbits
 423              		.align	2
 424              		.global	initFSM
 425              		.code	16
 426              		.thumb_func
 427              		.type	initFSM, %function
 428              	initFSM:
 429              	.LFB466:
 132:FSM.h         **** 
 133:FSM.h         **** /* Function Name: initFSM
 134:FSM.h         ****  *
 135:FSM.h         ****  * Summary:
 136:FSM.h         ****  * This function initializes the 5(?) states in the finite state machine (FSM).
 137:FSM.h         ****  * OFF is the default state. Therefore, all states should start 0, OFF 1.
 138:FSM.h         ****  *
 139:FSM.h         ****  * Parameters:
 140:FSM.h         ****  * 	@*machine:	global state machine struct variable
 141:FSM.h         ****  *
 142:FSM.h         ****  * Return:
 143:FSM.h         ****  * 	None.
 144:FSM.h         ****  */
 145:FSM.h         **** void initFSM(FSM *machine)
 146:FSM.h         **** {
ARM GAS  C:\Users\ASUS\AppData\Local\Temp\ccj4BS4H.s 			page 16


 430              		.loc 3 146 0
 431              		.cfi_startproc
 432              		@ args = 0, pretend = 0, frame = 0
 433              		@ frame_needed = 0, uses_anonymous_args = 0
 434              	.LVL45:
 435 0000 10B5     		push	{r4, lr}
 436              		.cfi_def_cfa_offset 8
 437              		.cfi_offset 4, -8
 438              		.cfi_offset 14, -4
 439              	.LVL46:
 440              	.LBB49:
 147:FSM.h         **** 	for (int i=0; i<NUM_STATES; i++) {
 441              		.loc 3 147 0
 442 0002 0023     		movs	r3, #0
 443 0004 08E0     		b	.L32
 444              	.LVL47:
 445              	.L33:
 148:FSM.h         **** 		machine->states[i].id = i;
 446              		.loc 3 148 0 discriminator 3
 447 0006 5900     		lsls	r1, r3, #1
 448 0008 CC18     		adds	r4, r1, r3
 449 000a A200     		lsls	r2, r4, #2
 450 000c 1350     		str	r3, [r2, r0]
 149:FSM.h         **** 		machine->states[i].prev = 0;
 451              		.loc 3 149 0 discriminator 3
 452 000e 8218     		adds	r2, r0, r2
 453 0010 0021     		movs	r1, #0
 454 0012 9160     		str	r1, [r2, #8]
 150:FSM.h         **** 		machine->states[i].val = 0;
 455              		.loc 3 150 0 discriminator 3
 456 0014 5160     		str	r1, [r2, #4]
 147:FSM.h         **** 		machine->states[i].id = i;
 457              		.loc 3 147 0 discriminator 3
 458 0016 0133     		adds	r3, r3, #1
 459              	.LVL48:
 460              	.L32:
 147:FSM.h         **** 		machine->states[i].id = i;
 461              		.loc 3 147 0 is_stmt 0 discriminator 1
 462 0018 042B     		cmp	r3, #4
 463 001a F4DD     		ble	.L33
 464              	.LBE49:
 151:FSM.h         **** 	}
 152:FSM.h         **** 	setCurrState(machine, OFF);
 465              		.loc 3 152 0 is_stmt 1
 466 001c 0021     		movs	r1, #0
 467 001e FFF7FEFF 		bl	setCurrState
 468              	.LVL49:
 153:FSM.h         **** }
 469              		.loc 3 153 0
 470              		@ sp needed
 471 0022 10BD     		pop	{r4, pc}
 472              		.cfi_endproc
 473              	.LFE466:
 474              		.size	initFSM, .-initFSM
 475              		.section	.text.lightI2CRead,"ax",%progbits
 476              		.align	2
 477              		.global	lightI2CRead
ARM GAS  C:\Users\ASUS\AppData\Local\Temp\ccj4BS4H.s 			page 17


 478              		.code	16
 479              		.thumb_func
 480              		.type	lightI2CRead, %function
 481              	lightI2CRead:
 482              	.LFB467:
 483              		.file 4 "Light.h"
   1:Light.h       **** /******************************************************************************
   2:Light.h       **** * File Name: Light.h
   3:Light.h       **** *
   4:Light.h       **** * Version: Beta
   5:Light.h       **** *
   6:Light.h       **** * Description: This file contains the firmware for setting up communication
   7:Light.h       **** * between the PSoC and the AS73211 True Color Sensor using the I2C protocol.
   8:Light.h       **** *
   9:Light.h       **** * Related Document: TrueColor_LightSensor.pdf
  10:Light.h       **** * Hardware Dependency:  CY8CKIT-063-BLE PSoC 6 BLE Pioneer kit
  11:Light.h       **** *                       AS73211 True Color Sensor
  12:Light.h       **** *
  13:Light.h       **** * Author(s):
  14:Light.h       **** *	Yousef H. Akbar & and Cow Team
  15:Light.h       **** *	Dept. Electrical and Computer Engineering
  16:Light.h       **** *	University of California, Davis
  17:Light.h       **** *******************************************************************************
  18:Light.h       **** * Refer to Section 7.18 of TrueColor_LightSensor.pdf for I2C R/W Protocols.
  19:Light.h       **** *
  20:Light.h       **** * General I2C Procedure (7.21):
  21:Light.h       **** *  - After supplying power: device in CONF state, but Powered Down.
  22:Light.h       **** *  	- This is where we set control registers for options.
  23:Light.h       **** *  	- Check by reading those same control registers.
  24:Light.h       **** *  - Switch to MEAS state while specifying what mode you want.
  25:Light.h       **** *
  26:Light.h       **** * Figure 42 and 43 for example reading/writing.
  27:Light.h       **** * Section 8 contains register bank information.
  28:Light.h       **** ******************************************************************************/
  29:Light.h       **** 
  30:Light.h       **** #include "project.h"
  31:Light.h       **** #include "stdio.h"
  32:Light.h       **** #include "Queue.h"
  33:Light.h       **** 
  34:Light.h       **** /* Slave addresses */
  35:Light.h       **** #define LIGHT_ADDRESS 0x74    // 1110100[0|1]
  36:Light.h       **** 
  37:Light.h       **** /* Control Register Bank */
  38:Light.h       **** #define OSR     0x00        // Operational State Register (default 0x42)
  39:Light.h       **** #define CREG1   0x06        // Config Register 1
  40:Light.h       **** #define CREG2   0x07        // Config Register 2
  41:Light.h       **** #define CREG3   0x08        // Config Register 3
  42:Light.h       **** #define TBREAK  0x09        // Break time between measurements
  43:Light.h       **** 
  44:Light.h       **** /* Output Register Bank */
  45:Light.h       **** #define TEMP    0x01        // Temperature (0h + 12 bit temp result)
  46:Light.h       **** #define MRES1   0x02        // Measurement X-Channel RED
  47:Light.h       **** #define MRES2   0x03        // Y-Channel GREEN
  48:Light.h       **** #define MRES3   0x04        // Z-Channel BLUE
  49:Light.h       **** 
  50:Light.h       **** /* Macro for converting 16 bit temp. to celcius (Refer to Section 7.16) */
  51:Light.h       **** uint16_t temperature;       // declaration of existing temp in main_cm0p.c
ARM GAS  C:\Users\ASUS\AppData\Local\Temp\ccj4BS4H.s 			page 18


  52:Light.h       **** #define CHIPTEMP temperature * 0.05 - 66.9
  53:Light.h       **** #define LIGHT_CUTOFF    (50)
  54:Light.h       **** 
  55:Light.h       **** #define CRIT_TEMP       (20)
  56:Light.h       **** #define CRIT_LIGHT      (10)
  57:Light.h       **** 
  58:Light.h       **** /* Global Variables */
  59:Light.h       **** int tempFlag, lightFlag;
  60:Light.h       **** 
  61:Light.h       **** /* Function Name: lightI2CRead
  62:Light.h       ****  *
  63:Light.h       ****  * Summary:
  64:Light.h       ****  * This function reads 2 bytes of data from the light sensor register
  65:Light.h       ****  * @reg using the I2C protocol and returns the result. The general
  66:Light.h       ****  * procedure for read sequences is detailed in 7.19 and Figure 40.
  67:Light.h       ****  * For any register, the low byte is read first followed by the high
  68:Light.h       ****  * byte.
  69:Light.h       ****  *
  70:Light.h       ****  * Parameters:
  71:Light.h       ****  *	@reg:		The register from which you want to read data.
  72:Light.h       ****  *
  73:Light.h       ****  * Return:
  74:Light.h       ****  *	readBuf:	Two byte buffer with register data.
  75:Light.h       ****  */
  76:Light.h       **** uint16_t lightI2CRead(uint8_t reg)
  77:Light.h       **** {
 484              		.loc 4 77 0
 485              		.cfi_startproc
 486              		@ args = 0, pretend = 0, frame = 32
 487              		@ frame_needed = 0, uses_anonymous_args = 0
 488              	.LVL50:
 489 0000 F0B5     		push	{r4, r5, r6, r7, lr}
 490              		.cfi_def_cfa_offset 20
 491              		.cfi_offset 4, -20
 492              		.cfi_offset 5, -16
 493              		.cfi_offset 6, -12
 494              		.cfi_offset 7, -8
 495              		.cfi_offset 14, -4
 496 0002 8DB0     		sub	sp, sp, #52
 497              		.cfi_def_cfa_offset 72
 498 0004 0600     		movs	r6, r0
  78:Light.h       ****     volatile cy_en_scb_i2c_status_t ret0 = 0;
 499              		.loc 4 78 0
 500 0006 0023     		movs	r3, #0
 501 0008 0B93     		str	r3, [sp, #44]
  79:Light.h       ****     volatile cy_en_scb_i2c_status_t ret1 = 0;
 502              		.loc 4 79 0
 503 000a 0A93     		str	r3, [sp, #40]
  80:Light.h       ****     volatile cy_en_scb_i2c_status_t ret2 = 0;
 504              		.loc 4 80 0
 505 000c 0993     		str	r3, [sp, #36]
  81:Light.h       ****     volatile cy_en_scb_i2c_status_t ret3 = 0;
 506              		.loc 4 81 0
 507 000e 0893     		str	r3, [sp, #32]
  82:Light.h       ****     volatile cy_en_scb_i2c_status_t ret4 = 0;
 508              		.loc 4 82 0
 509 0010 0793     		str	r3, [sp, #28]
ARM GAS  C:\Users\ASUS\AppData\Local\Temp\ccj4BS4H.s 			page 19


  83:Light.h       ****     volatile cy_en_scb_i2c_status_t ret5 = 0;
 510              		.loc 4 83 0
 511 0012 0693     		str	r3, [sp, #24]
  84:Light.h       ****     uint8_t readBuf[2] = {0, 0};
 512              		.loc 4 84 0
 513 0014 05AD     		add	r5, sp, #20
 514 0016 2B70     		strb	r3, [r5]
 515 0018 6B70     		strb	r3, [r5, #1]
 516              	.LVL51:
 517              	.LBB50:
 518              	.LBB51:
 519              		.file 5 "Generated_Source\\PSoC6/I2C.h"
   1:Generated_Source\PSoC6/I2C.h **** /***************************************************************************//**
   2:Generated_Source\PSoC6/I2C.h **** * \file I2C.c
   3:Generated_Source\PSoC6/I2C.h **** * \version 2.0
   4:Generated_Source\PSoC6/I2C.h **** *
   5:Generated_Source\PSoC6/I2C.h **** *  This file provides constants and parameter values for the I2C component.
   6:Generated_Source\PSoC6/I2C.h **** *
   7:Generated_Source\PSoC6/I2C.h **** ********************************************************************************
   8:Generated_Source\PSoC6/I2C.h **** * \copyright
   9:Generated_Source\PSoC6/I2C.h **** * Copyright 2016-2017, Cypress Semiconductor Corporation. All rights reserved.
  10:Generated_Source\PSoC6/I2C.h **** * You may use this file only in accordance with the license, terms, conditions,
  11:Generated_Source\PSoC6/I2C.h **** * disclaimers, and limitations in the end user license agreement accompanying
  12:Generated_Source\PSoC6/I2C.h **** * the software package with which this file was provided.
  13:Generated_Source\PSoC6/I2C.h **** *******************************************************************************/
  14:Generated_Source\PSoC6/I2C.h **** 
  15:Generated_Source\PSoC6/I2C.h **** #if !defined(I2C_CY_SCB_I2C_PDL_H)
  16:Generated_Source\PSoC6/I2C.h **** #define I2C_CY_SCB_I2C_PDL_H
  17:Generated_Source\PSoC6/I2C.h **** 
  18:Generated_Source\PSoC6/I2C.h **** #include "cyfitter.h"
  19:Generated_Source\PSoC6/I2C.h **** #include "scb/cy_scb_i2c.h"
  20:Generated_Source\PSoC6/I2C.h **** 
  21:Generated_Source\PSoC6/I2C.h **** #if defined(__cplusplus)
  22:Generated_Source\PSoC6/I2C.h **** extern "C" {
  23:Generated_Source\PSoC6/I2C.h **** #endif
  24:Generated_Source\PSoC6/I2C.h **** 
  25:Generated_Source\PSoC6/I2C.h **** /***************************************
  26:Generated_Source\PSoC6/I2C.h **** *   Initial Parameter Constants
  27:Generated_Source\PSoC6/I2C.h **** ****************************************/
  28:Generated_Source\PSoC6/I2C.h **** 
  29:Generated_Source\PSoC6/I2C.h **** #define I2C_MODE               (0x2U)
  30:Generated_Source\PSoC6/I2C.h **** #define I2C_MODE_SLAVE_MASK    (0x1U)
  31:Generated_Source\PSoC6/I2C.h **** #define I2C_MODE_MASTER_MASK   (0x2U)
  32:Generated_Source\PSoC6/I2C.h **** 
  33:Generated_Source\PSoC6/I2C.h **** #define I2C_ENABLE_SLAVE       (0UL != (I2C_MODE & I2C_MODE_SLAVE_MASK))
  34:Generated_Source\PSoC6/I2C.h **** #define I2C_ENABLE_MASTER      (0UL != (I2C_MODE & I2C_MODE_MASTER_MASK))
  35:Generated_Source\PSoC6/I2C.h **** #define I2C_MANUAL_SCL_CONTROL (0U)
  36:Generated_Source\PSoC6/I2C.h **** 
  37:Generated_Source\PSoC6/I2C.h **** 
  38:Generated_Source\PSoC6/I2C.h **** /***************************************
  39:Generated_Source\PSoC6/I2C.h **** *        Function Prototypes
  40:Generated_Source\PSoC6/I2C.h **** ***************************************/
  41:Generated_Source\PSoC6/I2C.h **** /**
  42:Generated_Source\PSoC6/I2C.h **** * \addtogroup group_general
  43:Generated_Source\PSoC6/I2C.h **** * @{
  44:Generated_Source\PSoC6/I2C.h **** */
  45:Generated_Source\PSoC6/I2C.h **** /* Component only APIs. */
ARM GAS  C:\Users\ASUS\AppData\Local\Temp\ccj4BS4H.s 			page 20


  46:Generated_Source\PSoC6/I2C.h **** void I2C_Start(void);
  47:Generated_Source\PSoC6/I2C.h **** 
  48:Generated_Source\PSoC6/I2C.h **** /* Basic functions. */
  49:Generated_Source\PSoC6/I2C.h **** __STATIC_INLINE cy_en_scb_i2c_status_t I2C_Init(cy_stc_scb_i2c_config_t const *config);
  50:Generated_Source\PSoC6/I2C.h **** __STATIC_INLINE void I2C_DeInit (void);
  51:Generated_Source\PSoC6/I2C.h **** __STATIC_INLINE void I2C_Enable (void);
  52:Generated_Source\PSoC6/I2C.h **** __STATIC_INLINE void I2C_Disable(void);
  53:Generated_Source\PSoC6/I2C.h **** 
  54:Generated_Source\PSoC6/I2C.h **** /* Data rate configuration functions. */
  55:Generated_Source\PSoC6/I2C.h **** __STATIC_INLINE uint32_t I2C_SetDataRate(uint32_t dataRateHz, uint32_t scbClockHz);
  56:Generated_Source\PSoC6/I2C.h **** __STATIC_INLINE uint32_t I2C_GetDataRate(uint32_t scbClockHz);
  57:Generated_Source\PSoC6/I2C.h **** 
  58:Generated_Source\PSoC6/I2C.h **** /* Register callbacks. */
  59:Generated_Source\PSoC6/I2C.h **** __STATIC_INLINE void I2C_RegisterEventCallback(cy_cb_scb_i2c_handle_events_t callback);
  60:Generated_Source\PSoC6/I2C.h **** #if (I2C_ENABLE_SLAVE)
  61:Generated_Source\PSoC6/I2C.h **** __STATIC_INLINE void I2C_RegisterAddrCallback (cy_cb_scb_i2c_handle_addr_t callback);
  62:Generated_Source\PSoC6/I2C.h **** #endif /* (I2C_ENABLE_SLAVE) */
  63:Generated_Source\PSoC6/I2C.h **** 
  64:Generated_Source\PSoC6/I2C.h **** /* Configuration functions. */
  65:Generated_Source\PSoC6/I2C.h **** #if (I2C_ENABLE_SLAVE)
  66:Generated_Source\PSoC6/I2C.h **** __STATIC_INLINE void     I2C_SlaveSetAddress(uint8_t addr);
  67:Generated_Source\PSoC6/I2C.h **** __STATIC_INLINE uint32_t I2C_SlaveGetAddress(void);
  68:Generated_Source\PSoC6/I2C.h **** __STATIC_INLINE void     I2C_SlaveSetAddressMask(uint8_t addrMask);
  69:Generated_Source\PSoC6/I2C.h **** __STATIC_INLINE uint32_t I2C_SlaveGetAddressMask(void);
  70:Generated_Source\PSoC6/I2C.h **** #endif /* (I2C_ENABLE_SLAVE) */
  71:Generated_Source\PSoC6/I2C.h **** 
  72:Generated_Source\PSoC6/I2C.h **** #if (I2C_ENABLE_MASTER)
  73:Generated_Source\PSoC6/I2C.h **** __STATIC_INLINE void I2C_MasterSetLowPhaseDutyCycle (uint32_t clockCycles);
  74:Generated_Source\PSoC6/I2C.h **** __STATIC_INLINE void I2C_MasterSetHighPhaseDutyCycle(uint32_t clockCycles);
  75:Generated_Source\PSoC6/I2C.h **** #endif /* (I2C_ENABLE_MASTER) */
  76:Generated_Source\PSoC6/I2C.h **** 
  77:Generated_Source\PSoC6/I2C.h **** /* Bus status. */
  78:Generated_Source\PSoC6/I2C.h **** __STATIC_INLINE bool     I2C_IsBusBusy(void);
  79:Generated_Source\PSoC6/I2C.h **** 
  80:Generated_Source\PSoC6/I2C.h **** /* Slave functions. */
  81:Generated_Source\PSoC6/I2C.h **** #if (I2C_ENABLE_SLAVE)
  82:Generated_Source\PSoC6/I2C.h **** __STATIC_INLINE uint32_t I2C_SlaveGetStatus(void);
  83:Generated_Source\PSoC6/I2C.h **** 
  84:Generated_Source\PSoC6/I2C.h **** __STATIC_INLINE void     I2C_SlaveConfigReadBuf(uint8_t *buffer, uint32_t size);
  85:Generated_Source\PSoC6/I2C.h **** __STATIC_INLINE void     I2C_SlaveAbortRead(void);
  86:Generated_Source\PSoC6/I2C.h **** __STATIC_INLINE uint32_t I2C_SlaveGetReadTransferCount(void);
  87:Generated_Source\PSoC6/I2C.h **** __STATIC_INLINE uint32_t I2C_SlaveClearReadStatus(void);
  88:Generated_Source\PSoC6/I2C.h **** 
  89:Generated_Source\PSoC6/I2C.h **** __STATIC_INLINE void     I2C_SlaveConfigWriteBuf(uint8_t *buffer, uint32_t size);
  90:Generated_Source\PSoC6/I2C.h **** __STATIC_INLINE void     I2C_SlaveAbortWrite(void);
  91:Generated_Source\PSoC6/I2C.h **** __STATIC_INLINE uint32_t I2C_SlaveGetWriteTransferCount(void);
  92:Generated_Source\PSoC6/I2C.h **** __STATIC_INLINE uint32_t I2C_SlaveClearWriteStatus(void);
  93:Generated_Source\PSoC6/I2C.h **** #endif /* (I2C_ENABLE_SLAVE) */
  94:Generated_Source\PSoC6/I2C.h **** 
  95:Generated_Source\PSoC6/I2C.h **** /* Master interrupt processing functions. */
  96:Generated_Source\PSoC6/I2C.h **** #if (I2C_ENABLE_MASTER)
  97:Generated_Source\PSoC6/I2C.h **** __STATIC_INLINE uint32_t I2C_MasterGetStatus(void);
  98:Generated_Source\PSoC6/I2C.h **** 
  99:Generated_Source\PSoC6/I2C.h **** __STATIC_INLINE cy_en_scb_i2c_status_t I2C_MasterRead(cy_stc_scb_i2c_master_xfer_config_t *xferConf
 100:Generated_Source\PSoC6/I2C.h **** __STATIC_INLINE void I2C_MasterAbortRead(void);
 101:Generated_Source\PSoC6/I2C.h **** __STATIC_INLINE cy_en_scb_i2c_status_t I2C_MasterWrite(cy_stc_scb_i2c_master_xfer_config_t *xferCon
 102:Generated_Source\PSoC6/I2C.h **** __STATIC_INLINE void I2C_MasterAbortWrite(void);
ARM GAS  C:\Users\ASUS\AppData\Local\Temp\ccj4BS4H.s 			page 21


 103:Generated_Source\PSoC6/I2C.h **** __STATIC_INLINE uint32_t I2C_MasterGetTransferCount(void);
 104:Generated_Source\PSoC6/I2C.h **** 
 105:Generated_Source\PSoC6/I2C.h **** /* Master manual processing functions. */
 106:Generated_Source\PSoC6/I2C.h **** __STATIC_INLINE cy_en_scb_i2c_status_t I2C_MasterSendStart(uint32_t address, cy_en_scb_i2c_directio
 107:Generated_Source\PSoC6/I2C.h **** __STATIC_INLINE cy_en_scb_i2c_status_t I2C_MasterSendReStart(uint32_t address, cy_en_scb_i2c_direct
 108:Generated_Source\PSoC6/I2C.h **** __STATIC_INLINE cy_en_scb_i2c_status_t I2C_MasterSendStop(uint32_t timeoutMs);
 109:Generated_Source\PSoC6/I2C.h **** __STATIC_INLINE cy_en_scb_i2c_status_t I2C_MasterReadByte(cy_en_scb_i2c_command_t ackNack, uint8_t 
 110:Generated_Source\PSoC6/I2C.h **** __STATIC_INLINE cy_en_scb_i2c_status_t I2C_MasterWriteByte(uint8_t byte, uint32_t timeoutMs);
 111:Generated_Source\PSoC6/I2C.h **** #endif /* (I2C_ENABLE_MASTER) */
 112:Generated_Source\PSoC6/I2C.h **** 
 113:Generated_Source\PSoC6/I2C.h **** /* Interrupt handler. */
 114:Generated_Source\PSoC6/I2C.h **** __STATIC_INLINE void I2C_Interrupt(void);
 115:Generated_Source\PSoC6/I2C.h **** /** @} group_general */
 116:Generated_Source\PSoC6/I2C.h **** 
 117:Generated_Source\PSoC6/I2C.h **** 
 118:Generated_Source\PSoC6/I2C.h **** /***************************************
 119:Generated_Source\PSoC6/I2C.h **** *    Variables with External Linkage
 120:Generated_Source\PSoC6/I2C.h **** ***************************************/
 121:Generated_Source\PSoC6/I2C.h **** /**
 122:Generated_Source\PSoC6/I2C.h **** * \addtogroup group_globals
 123:Generated_Source\PSoC6/I2C.h **** * @{
 124:Generated_Source\PSoC6/I2C.h **** */
 125:Generated_Source\PSoC6/I2C.h **** extern uint8_t I2C_initVar;
 126:Generated_Source\PSoC6/I2C.h **** extern cy_stc_scb_i2c_config_t const I2C_config;
 127:Generated_Source\PSoC6/I2C.h **** extern cy_stc_scb_i2c_context_t I2C_context;
 128:Generated_Source\PSoC6/I2C.h **** /** @} group_globals */
 129:Generated_Source\PSoC6/I2C.h **** 
 130:Generated_Source\PSoC6/I2C.h **** 
 131:Generated_Source\PSoC6/I2C.h **** /***************************************
 132:Generated_Source\PSoC6/I2C.h **** *         Preprocessor Macros
 133:Generated_Source\PSoC6/I2C.h **** ***************************************/
 134:Generated_Source\PSoC6/I2C.h **** /**
 135:Generated_Source\PSoC6/I2C.h **** * \addtogroup group_macros
 136:Generated_Source\PSoC6/I2C.h **** * @{
 137:Generated_Source\PSoC6/I2C.h **** */
 138:Generated_Source\PSoC6/I2C.h **** /** The pointer to the base address of the SCB instance */
 139:Generated_Source\PSoC6/I2C.h **** #define I2C_HW     ((CySCB_Type *) I2C_SCB__HW)
 140:Generated_Source\PSoC6/I2C.h **** 
 141:Generated_Source\PSoC6/I2C.h **** /** The desired data rate in Hz */
 142:Generated_Source\PSoC6/I2C.h **** #define I2C_DATA_RATE_HZ      (100000U)
 143:Generated_Source\PSoC6/I2C.h **** 
 144:Generated_Source\PSoC6/I2C.h **** /** The frequency of the clock used by the Component in Hz */
 145:Generated_Source\PSoC6/I2C.h **** #define I2C_CLK_FREQ_HZ       (1562500U)
 146:Generated_Source\PSoC6/I2C.h **** 
 147:Generated_Source\PSoC6/I2C.h **** /** The number of Component clocks used by the master to generate the SCL
 148:Generated_Source\PSoC6/I2C.h **** * low phase. This number is calculated by GUI based on the selected data rate.
 149:Generated_Source\PSoC6/I2C.h **** */
 150:Generated_Source\PSoC6/I2C.h **** #define I2C_LOW_PHASE_DUTY_CYCLE   (8U)
 151:Generated_Source\PSoC6/I2C.h **** 
 152:Generated_Source\PSoC6/I2C.h **** /** The number of Component clocks used by the master to generate the SCL
 153:Generated_Source\PSoC6/I2C.h **** * high phase. This number is calculated by GUI based on the selected data rate.
 154:Generated_Source\PSoC6/I2C.h **** */
 155:Generated_Source\PSoC6/I2C.h **** #define I2C_HIGH_PHASE_DUTY_CYCLE  (8U)
 156:Generated_Source\PSoC6/I2C.h **** /** @} group_macros */
 157:Generated_Source\PSoC6/I2C.h **** 
 158:Generated_Source\PSoC6/I2C.h **** 
 159:Generated_Source\PSoC6/I2C.h **** /***************************************
ARM GAS  C:\Users\ASUS\AppData\Local\Temp\ccj4BS4H.s 			page 22


 160:Generated_Source\PSoC6/I2C.h **** *    In-line Function Implementation
 161:Generated_Source\PSoC6/I2C.h **** ***************************************/
 162:Generated_Source\PSoC6/I2C.h **** 
 163:Generated_Source\PSoC6/I2C.h **** /*******************************************************************************
 164:Generated_Source\PSoC6/I2C.h **** * Function Name: I2C_Init
 165:Generated_Source\PSoC6/I2C.h **** ****************************************************************************//**
 166:Generated_Source\PSoC6/I2C.h **** *
 167:Generated_Source\PSoC6/I2C.h **** * Invokes the Cy_SCB_I2C_Init() PDL driver function.
 168:Generated_Source\PSoC6/I2C.h **** *
 169:Generated_Source\PSoC6/I2C.h **** *******************************************************************************/
 170:Generated_Source\PSoC6/I2C.h **** __STATIC_INLINE cy_en_scb_i2c_status_t I2C_Init(cy_stc_scb_i2c_config_t const *config)
 171:Generated_Source\PSoC6/I2C.h **** {
 172:Generated_Source\PSoC6/I2C.h ****     return Cy_SCB_I2C_Init(I2C_HW, config, &I2C_context);
 173:Generated_Source\PSoC6/I2C.h **** }
 174:Generated_Source\PSoC6/I2C.h **** 
 175:Generated_Source\PSoC6/I2C.h **** 
 176:Generated_Source\PSoC6/I2C.h **** /*******************************************************************************
 177:Generated_Source\PSoC6/I2C.h **** *  Function Name: I2C_DeInit
 178:Generated_Source\PSoC6/I2C.h **** ****************************************************************************//**
 179:Generated_Source\PSoC6/I2C.h **** *
 180:Generated_Source\PSoC6/I2C.h **** * Invokes the Cy_SCB_I2C_DeInit() PDL driver function.
 181:Generated_Source\PSoC6/I2C.h **** *
 182:Generated_Source\PSoC6/I2C.h **** *******************************************************************************/
 183:Generated_Source\PSoC6/I2C.h **** __STATIC_INLINE void I2C_DeInit(void)
 184:Generated_Source\PSoC6/I2C.h **** {
 185:Generated_Source\PSoC6/I2C.h ****     Cy_SCB_I2C_DeInit(I2C_HW);
 186:Generated_Source\PSoC6/I2C.h **** }
 187:Generated_Source\PSoC6/I2C.h **** 
 188:Generated_Source\PSoC6/I2C.h **** 
 189:Generated_Source\PSoC6/I2C.h **** /*******************************************************************************
 190:Generated_Source\PSoC6/I2C.h **** * Function Name: I2C_Enable
 191:Generated_Source\PSoC6/I2C.h **** ****************************************************************************//**
 192:Generated_Source\PSoC6/I2C.h **** *
 193:Generated_Source\PSoC6/I2C.h **** * Invokes the Cy_SCB_I2C_Enable() PDL driver function.
 194:Generated_Source\PSoC6/I2C.h **** *
 195:Generated_Source\PSoC6/I2C.h **** *******************************************************************************/
 196:Generated_Source\PSoC6/I2C.h **** __STATIC_INLINE void I2C_Enable(void)
 197:Generated_Source\PSoC6/I2C.h **** {
 198:Generated_Source\PSoC6/I2C.h ****     Cy_SCB_I2C_Enable(I2C_HW);
 199:Generated_Source\PSoC6/I2C.h **** }
 200:Generated_Source\PSoC6/I2C.h **** 
 201:Generated_Source\PSoC6/I2C.h **** 
 202:Generated_Source\PSoC6/I2C.h **** /*******************************************************************************
 203:Generated_Source\PSoC6/I2C.h **** * Function Name: I2C_Disable
 204:Generated_Source\PSoC6/I2C.h **** ****************************************************************************//**
 205:Generated_Source\PSoC6/I2C.h **** *
 206:Generated_Source\PSoC6/I2C.h **** * Invokes the Cy_SCB_I2C_Disable() PDL driver function.
 207:Generated_Source\PSoC6/I2C.h **** *
 208:Generated_Source\PSoC6/I2C.h **** *******************************************************************************/
 209:Generated_Source\PSoC6/I2C.h **** __STATIC_INLINE void I2C_Disable(void)
 210:Generated_Source\PSoC6/I2C.h **** {
 211:Generated_Source\PSoC6/I2C.h ****     Cy_SCB_I2C_Disable(I2C_HW, &I2C_context);
 212:Generated_Source\PSoC6/I2C.h **** }
 213:Generated_Source\PSoC6/I2C.h **** 
 214:Generated_Source\PSoC6/I2C.h **** 
 215:Generated_Source\PSoC6/I2C.h **** /*******************************************************************************
 216:Generated_Source\PSoC6/I2C.h **** * Function Name: I2C_SetDataRate
ARM GAS  C:\Users\ASUS\AppData\Local\Temp\ccj4BS4H.s 			page 23


 217:Generated_Source\PSoC6/I2C.h **** ****************************************************************************//**
 218:Generated_Source\PSoC6/I2C.h **** *
 219:Generated_Source\PSoC6/I2C.h **** * Invokes the Cy_SCB_I2C_SetDataRate() PDL driver function.
 220:Generated_Source\PSoC6/I2C.h **** *
 221:Generated_Source\PSoC6/I2C.h **** *******************************************************************************/
 222:Generated_Source\PSoC6/I2C.h **** __STATIC_INLINE uint32_t I2C_SetDataRate(uint32_t dataRateHz, uint32_t scbClockHz)
 223:Generated_Source\PSoC6/I2C.h **** {
 224:Generated_Source\PSoC6/I2C.h ****     return Cy_SCB_I2C_SetDataRate(I2C_HW, dataRateHz, scbClockHz);
 225:Generated_Source\PSoC6/I2C.h **** }
 226:Generated_Source\PSoC6/I2C.h **** 
 227:Generated_Source\PSoC6/I2C.h **** 
 228:Generated_Source\PSoC6/I2C.h **** /*******************************************************************************
 229:Generated_Source\PSoC6/I2C.h **** * Function Name: I2C_GetDataRate
 230:Generated_Source\PSoC6/I2C.h **** ****************************************************************************//**
 231:Generated_Source\PSoC6/I2C.h **** *
 232:Generated_Source\PSoC6/I2C.h **** * Invokes the Cy_SCB_I2C_GetDataRate() PDL driver function.
 233:Generated_Source\PSoC6/I2C.h **** *
 234:Generated_Source\PSoC6/I2C.h **** *******************************************************************************/
 235:Generated_Source\PSoC6/I2C.h **** __STATIC_INLINE uint32_t I2C_GetDataRate(uint32_t scbClockHz)
 236:Generated_Source\PSoC6/I2C.h **** {
 237:Generated_Source\PSoC6/I2C.h ****     return Cy_SCB_I2C_GetDataRate(I2C_HW, scbClockHz);
 238:Generated_Source\PSoC6/I2C.h **** }
 239:Generated_Source\PSoC6/I2C.h **** 
 240:Generated_Source\PSoC6/I2C.h **** 
 241:Generated_Source\PSoC6/I2C.h **** /*******************************************************************************
 242:Generated_Source\PSoC6/I2C.h **** * Function Name: I2C_RegisterEventCallback
 243:Generated_Source\PSoC6/I2C.h **** ****************************************************************************//**
 244:Generated_Source\PSoC6/I2C.h **** *
 245:Generated_Source\PSoC6/I2C.h **** * Invokes the Cy_SCB_I2C_RegisterEventCallback() PDL driver function.
 246:Generated_Source\PSoC6/I2C.h **** *
 247:Generated_Source\PSoC6/I2C.h **** *******************************************************************************/
 248:Generated_Source\PSoC6/I2C.h **** __STATIC_INLINE void I2C_RegisterEventCallback(cy_cb_scb_i2c_handle_events_t callback)
 249:Generated_Source\PSoC6/I2C.h **** {
 250:Generated_Source\PSoC6/I2C.h ****     Cy_SCB_I2C_RegisterEventCallback(I2C_HW, callback, &I2C_context);
 251:Generated_Source\PSoC6/I2C.h **** }
 252:Generated_Source\PSoC6/I2C.h **** 
 253:Generated_Source\PSoC6/I2C.h **** 
 254:Generated_Source\PSoC6/I2C.h **** #if (I2C_ENABLE_SLAVE)
 255:Generated_Source\PSoC6/I2C.h **** /*******************************************************************************
 256:Generated_Source\PSoC6/I2C.h **** * Function Name: I2C_RegisterAddrCallback
 257:Generated_Source\PSoC6/I2C.h **** ****************************************************************************//**
 258:Generated_Source\PSoC6/I2C.h **** *
 259:Generated_Source\PSoC6/I2C.h **** * Invokes the Cy_SCB_I2C_RegisterAddrCallback() PDL driver function.
 260:Generated_Source\PSoC6/I2C.h **** *
 261:Generated_Source\PSoC6/I2C.h **** *******************************************************************************/
 262:Generated_Source\PSoC6/I2C.h **** __STATIC_INLINE void I2C_RegisterAddrCallback(cy_cb_scb_i2c_handle_addr_t callback)
 263:Generated_Source\PSoC6/I2C.h **** {
 264:Generated_Source\PSoC6/I2C.h ****     Cy_SCB_I2C_RegisterAddrCallback(I2C_HW, callback, &I2C_context);
 265:Generated_Source\PSoC6/I2C.h **** }
 266:Generated_Source\PSoC6/I2C.h **** #endif /* (I2C_ENABLE_SLAVE) */
 267:Generated_Source\PSoC6/I2C.h **** 
 268:Generated_Source\PSoC6/I2C.h **** 
 269:Generated_Source\PSoC6/I2C.h **** /*******************************************************************************
 270:Generated_Source\PSoC6/I2C.h **** * Function Name: I2C_IsBusBusy
 271:Generated_Source\PSoC6/I2C.h **** ****************************************************************************//**
 272:Generated_Source\PSoC6/I2C.h **** *
 273:Generated_Source\PSoC6/I2C.h **** * Invokes the Cy_SCB_I2C_IsBusBusy() PDL driver function.
ARM GAS  C:\Users\ASUS\AppData\Local\Temp\ccj4BS4H.s 			page 24


 274:Generated_Source\PSoC6/I2C.h **** *
 275:Generated_Source\PSoC6/I2C.h **** *******************************************************************************/
 276:Generated_Source\PSoC6/I2C.h **** __STATIC_INLINE bool I2C_IsBusBusy(void)
 277:Generated_Source\PSoC6/I2C.h **** {
 278:Generated_Source\PSoC6/I2C.h ****     return Cy_SCB_I2C_IsBusBusy(I2C_HW);
 279:Generated_Source\PSoC6/I2C.h **** }
 280:Generated_Source\PSoC6/I2C.h **** 
 281:Generated_Source\PSoC6/I2C.h **** 
 282:Generated_Source\PSoC6/I2C.h **** #if (I2C_ENABLE_SLAVE)
 283:Generated_Source\PSoC6/I2C.h **** /*******************************************************************************
 284:Generated_Source\PSoC6/I2C.h **** * Function Name: I2C_SlaveSetAddress
 285:Generated_Source\PSoC6/I2C.h **** ****************************************************************************//**
 286:Generated_Source\PSoC6/I2C.h **** *
 287:Generated_Source\PSoC6/I2C.h **** * Invokes the Cy_SCB_I2C_SlaveGetAddress() PDL driver function.
 288:Generated_Source\PSoC6/I2C.h **** *
 289:Generated_Source\PSoC6/I2C.h **** *******************************************************************************/
 290:Generated_Source\PSoC6/I2C.h **** __STATIC_INLINE void I2C_SlaveSetAddress(uint8_t addr)
 291:Generated_Source\PSoC6/I2C.h **** {
 292:Generated_Source\PSoC6/I2C.h ****     Cy_SCB_I2C_SlaveSetAddress(I2C_HW, addr);
 293:Generated_Source\PSoC6/I2C.h **** }
 294:Generated_Source\PSoC6/I2C.h **** 
 295:Generated_Source\PSoC6/I2C.h **** 
 296:Generated_Source\PSoC6/I2C.h **** /*******************************************************************************
 297:Generated_Source\PSoC6/I2C.h **** * Function Name: I2C_SlaveGetAddress
 298:Generated_Source\PSoC6/I2C.h **** ****************************************************************************//**
 299:Generated_Source\PSoC6/I2C.h **** *
 300:Generated_Source\PSoC6/I2C.h **** * Invokes the Cy_SCB_I2C_SlaveGetAddress() PDL driver function.
 301:Generated_Source\PSoC6/I2C.h **** *
 302:Generated_Source\PSoC6/I2C.h **** *******************************************************************************/
 303:Generated_Source\PSoC6/I2C.h **** __STATIC_INLINE uint32_t I2C_SlaveGetAddress(void)
 304:Generated_Source\PSoC6/I2C.h **** {
 305:Generated_Source\PSoC6/I2C.h ****     return Cy_SCB_I2C_SlaveGetAddress(I2C_HW);
 306:Generated_Source\PSoC6/I2C.h **** }
 307:Generated_Source\PSoC6/I2C.h **** 
 308:Generated_Source\PSoC6/I2C.h **** 
 309:Generated_Source\PSoC6/I2C.h **** /*******************************************************************************
 310:Generated_Source\PSoC6/I2C.h **** * Function Name: I2C_SlaveSetAddressMask
 311:Generated_Source\PSoC6/I2C.h **** ****************************************************************************//**
 312:Generated_Source\PSoC6/I2C.h **** *
 313:Generated_Source\PSoC6/I2C.h **** * Invokes the Cy_SCB_I2C_SlaveSetAddressMask() PDL driver function.
 314:Generated_Source\PSoC6/I2C.h **** *
 315:Generated_Source\PSoC6/I2C.h **** *******************************************************************************/
 316:Generated_Source\PSoC6/I2C.h **** __STATIC_INLINE void I2C_SlaveSetAddressMask(uint8_t addrMask)
 317:Generated_Source\PSoC6/I2C.h **** {
 318:Generated_Source\PSoC6/I2C.h ****     Cy_SCB_I2C_SlaveSetAddressMask(I2C_HW, addrMask);
 319:Generated_Source\PSoC6/I2C.h **** }
 320:Generated_Source\PSoC6/I2C.h **** 
 321:Generated_Source\PSoC6/I2C.h **** 
 322:Generated_Source\PSoC6/I2C.h **** /*******************************************************************************
 323:Generated_Source\PSoC6/I2C.h **** * Function Name: I2C_SlaveGetAddressMask
 324:Generated_Source\PSoC6/I2C.h **** ****************************************************************************//**
 325:Generated_Source\PSoC6/I2C.h **** *
 326:Generated_Source\PSoC6/I2C.h **** * Invokes the Cy_SCB_I2C_SlaveGetAddressMask() PDL driver function.
 327:Generated_Source\PSoC6/I2C.h **** *
 328:Generated_Source\PSoC6/I2C.h **** *******************************************************************************/
 329:Generated_Source\PSoC6/I2C.h **** __STATIC_INLINE uint32_t I2C_SlaveGetAddressMask(void)
 330:Generated_Source\PSoC6/I2C.h **** {
ARM GAS  C:\Users\ASUS\AppData\Local\Temp\ccj4BS4H.s 			page 25


 331:Generated_Source\PSoC6/I2C.h ****     return Cy_SCB_I2C_SlaveGetAddressMask(I2C_HW);
 332:Generated_Source\PSoC6/I2C.h **** }
 333:Generated_Source\PSoC6/I2C.h **** #endif /* (I2C_ENABLE_SLAVE) */
 334:Generated_Source\PSoC6/I2C.h **** 
 335:Generated_Source\PSoC6/I2C.h **** #if (I2C_ENABLE_MASTER)
 336:Generated_Source\PSoC6/I2C.h **** /*******************************************************************************
 337:Generated_Source\PSoC6/I2C.h **** * Function Name: I2C_MasterSetLowPhaseDutyCycle
 338:Generated_Source\PSoC6/I2C.h **** ****************************************************************************//**
 339:Generated_Source\PSoC6/I2C.h **** *
 340:Generated_Source\PSoC6/I2C.h **** * Invokes the Cy_SCB_I2C_MasterSetLowPhaseDutyCycle() PDL driver function.
 341:Generated_Source\PSoC6/I2C.h **** *
 342:Generated_Source\PSoC6/I2C.h **** *******************************************************************************/
 343:Generated_Source\PSoC6/I2C.h **** __STATIC_INLINE void I2C_MasterSetLowPhaseDutyCycle(uint32_t clockCycles)
 344:Generated_Source\PSoC6/I2C.h **** {
 345:Generated_Source\PSoC6/I2C.h ****     Cy_SCB_I2C_MasterSetLowPhaseDutyCycle(I2C_HW, clockCycles);
 346:Generated_Source\PSoC6/I2C.h **** }
 347:Generated_Source\PSoC6/I2C.h **** 
 348:Generated_Source\PSoC6/I2C.h **** 
 349:Generated_Source\PSoC6/I2C.h **** /*******************************************************************************
 350:Generated_Source\PSoC6/I2C.h **** * Function Name: I2C_MasterSetHighPhaseDutyCycle
 351:Generated_Source\PSoC6/I2C.h **** ****************************************************************************//**
 352:Generated_Source\PSoC6/I2C.h **** *
 353:Generated_Source\PSoC6/I2C.h **** * Invokes the Cy_SCB_I2C_MasterSetHighPhaseDutyCycle() PDL driver function.
 354:Generated_Source\PSoC6/I2C.h **** *
 355:Generated_Source\PSoC6/I2C.h **** *******************************************************************************/
 356:Generated_Source\PSoC6/I2C.h **** __STATIC_INLINE void I2C_MasterSetHighPhaseDutyCycle(uint32_t clockCycles)
 357:Generated_Source\PSoC6/I2C.h **** {
 358:Generated_Source\PSoC6/I2C.h ****     Cy_SCB_I2C_MasterSetHighPhaseDutyCycle(I2C_HW, clockCycles);
 359:Generated_Source\PSoC6/I2C.h **** }
 360:Generated_Source\PSoC6/I2C.h **** #endif /* (I2C_ENABLE_MASTER) */
 361:Generated_Source\PSoC6/I2C.h **** 
 362:Generated_Source\PSoC6/I2C.h **** 
 363:Generated_Source\PSoC6/I2C.h **** #if (I2C_ENABLE_SLAVE)
 364:Generated_Source\PSoC6/I2C.h **** /*******************************************************************************
 365:Generated_Source\PSoC6/I2C.h **** * Function Name: I2C_SlaveGetStatus
 366:Generated_Source\PSoC6/I2C.h **** ****************************************************************************//**
 367:Generated_Source\PSoC6/I2C.h **** *
 368:Generated_Source\PSoC6/I2C.h **** * Invokes the Cy_SCB_I2C_SlaveGetStatus() PDL driver function.
 369:Generated_Source\PSoC6/I2C.h **** *
 370:Generated_Source\PSoC6/I2C.h **** *******************************************************************************/
 371:Generated_Source\PSoC6/I2C.h **** __STATIC_INLINE uint32_t I2C_SlaveGetStatus(void)
 372:Generated_Source\PSoC6/I2C.h **** {
 373:Generated_Source\PSoC6/I2C.h ****     return Cy_SCB_I2C_SlaveGetStatus(I2C_HW, &I2C_context);
 374:Generated_Source\PSoC6/I2C.h **** }
 375:Generated_Source\PSoC6/I2C.h **** 
 376:Generated_Source\PSoC6/I2C.h **** 
 377:Generated_Source\PSoC6/I2C.h **** /*******************************************************************************
 378:Generated_Source\PSoC6/I2C.h **** * Function Name: I2C_SlaveConfigReadBuf
 379:Generated_Source\PSoC6/I2C.h **** ****************************************************************************//**
 380:Generated_Source\PSoC6/I2C.h **** *
 381:Generated_Source\PSoC6/I2C.h **** * Invokes the Cy_SCB_I2C_SlaveConfigReadBuf() PDL driver function.
 382:Generated_Source\PSoC6/I2C.h **** *
 383:Generated_Source\PSoC6/I2C.h **** *******************************************************************************/
 384:Generated_Source\PSoC6/I2C.h **** __STATIC_INLINE void I2C_SlaveConfigReadBuf(uint8_t *buffer, uint32_t size)
 385:Generated_Source\PSoC6/I2C.h **** {
 386:Generated_Source\PSoC6/I2C.h ****     Cy_SCB_I2C_SlaveConfigReadBuf(I2C_HW, buffer, size, &I2C_context);
 387:Generated_Source\PSoC6/I2C.h **** }
ARM GAS  C:\Users\ASUS\AppData\Local\Temp\ccj4BS4H.s 			page 26


 388:Generated_Source\PSoC6/I2C.h **** 
 389:Generated_Source\PSoC6/I2C.h **** 
 390:Generated_Source\PSoC6/I2C.h **** /*******************************************************************************
 391:Generated_Source\PSoC6/I2C.h **** * Function Name: I2C_SlaveAbortRead
 392:Generated_Source\PSoC6/I2C.h **** ****************************************************************************//**
 393:Generated_Source\PSoC6/I2C.h **** *
 394:Generated_Source\PSoC6/I2C.h **** * Invokes the Cy_SCB_I2C_SlaveAbortRead() PDL driver function.
 395:Generated_Source\PSoC6/I2C.h **** *
 396:Generated_Source\PSoC6/I2C.h **** *******************************************************************************/
 397:Generated_Source\PSoC6/I2C.h **** __STATIC_INLINE void I2C_SlaveAbortRead(void)
 398:Generated_Source\PSoC6/I2C.h **** {
 399:Generated_Source\PSoC6/I2C.h ****     Cy_SCB_I2C_SlaveAbortRead(I2C_HW, &I2C_context);
 400:Generated_Source\PSoC6/I2C.h **** }
 401:Generated_Source\PSoC6/I2C.h **** 
 402:Generated_Source\PSoC6/I2C.h **** 
 403:Generated_Source\PSoC6/I2C.h **** /*******************************************************************************
 404:Generated_Source\PSoC6/I2C.h **** * Function Name: I2C_SlaveGetReadTransferCount
 405:Generated_Source\PSoC6/I2C.h **** ****************************************************************************//**
 406:Generated_Source\PSoC6/I2C.h **** *
 407:Generated_Source\PSoC6/I2C.h **** * Invokes the Cy_SCB_I2C_SlaveGetReadTransferCount() PDL driver function.
 408:Generated_Source\PSoC6/I2C.h **** *
 409:Generated_Source\PSoC6/I2C.h **** *******************************************************************************/
 410:Generated_Source\PSoC6/I2C.h **** __STATIC_INLINE uint32_t I2C_SlaveGetReadTransferCount(void)
 411:Generated_Source\PSoC6/I2C.h **** {
 412:Generated_Source\PSoC6/I2C.h ****     return Cy_SCB_I2C_SlaveGetReadTransferCount(I2C_HW, &I2C_context);
 413:Generated_Source\PSoC6/I2C.h **** }
 414:Generated_Source\PSoC6/I2C.h **** 
 415:Generated_Source\PSoC6/I2C.h **** 
 416:Generated_Source\PSoC6/I2C.h **** /*******************************************************************************
 417:Generated_Source\PSoC6/I2C.h **** * Function Name: I2C_SlaveClearReadStatus
 418:Generated_Source\PSoC6/I2C.h **** ****************************************************************************//**
 419:Generated_Source\PSoC6/I2C.h **** *
 420:Generated_Source\PSoC6/I2C.h **** * Invokes the Cy_SCB_I2C_SlaveClearReadStatus() PDL driver function.
 421:Generated_Source\PSoC6/I2C.h **** *
 422:Generated_Source\PSoC6/I2C.h **** *******************************************************************************/
 423:Generated_Source\PSoC6/I2C.h **** __STATIC_INLINE uint32_t I2C_SlaveClearReadStatus(void)
 424:Generated_Source\PSoC6/I2C.h **** {
 425:Generated_Source\PSoC6/I2C.h ****     return Cy_SCB_I2C_SlaveClearReadStatus(I2C_HW, &I2C_context);
 426:Generated_Source\PSoC6/I2C.h **** }
 427:Generated_Source\PSoC6/I2C.h **** 
 428:Generated_Source\PSoC6/I2C.h **** 
 429:Generated_Source\PSoC6/I2C.h **** /*******************************************************************************
 430:Generated_Source\PSoC6/I2C.h **** * Function Name: I2C_SlaveConfigWriteBuf
 431:Generated_Source\PSoC6/I2C.h **** ****************************************************************************//**
 432:Generated_Source\PSoC6/I2C.h **** *
 433:Generated_Source\PSoC6/I2C.h **** * Invokes the Cy_SCB_I2C_SlaveConfigWriteBuf() PDL driver function.
 434:Generated_Source\PSoC6/I2C.h **** *
 435:Generated_Source\PSoC6/I2C.h **** *******************************************************************************/
 436:Generated_Source\PSoC6/I2C.h **** __STATIC_INLINE void I2C_SlaveConfigWriteBuf(uint8_t *buffer, uint32_t size)
 437:Generated_Source\PSoC6/I2C.h **** {
 438:Generated_Source\PSoC6/I2C.h ****     Cy_SCB_I2C_SlaveConfigWriteBuf(I2C_HW, buffer, size, &I2C_context);
 439:Generated_Source\PSoC6/I2C.h **** }
 440:Generated_Source\PSoC6/I2C.h **** 
 441:Generated_Source\PSoC6/I2C.h **** 
 442:Generated_Source\PSoC6/I2C.h **** /*******************************************************************************
 443:Generated_Source\PSoC6/I2C.h **** * Function Name: I2C_SlaveAbortWrite
 444:Generated_Source\PSoC6/I2C.h **** ****************************************************************************//**
ARM GAS  C:\Users\ASUS\AppData\Local\Temp\ccj4BS4H.s 			page 27


 445:Generated_Source\PSoC6/I2C.h **** *
 446:Generated_Source\PSoC6/I2C.h **** * Invokes the Cy_SCB_I2C_SlaveAbortWrite() PDL driver function.
 447:Generated_Source\PSoC6/I2C.h **** *
 448:Generated_Source\PSoC6/I2C.h **** *******************************************************************************/
 449:Generated_Source\PSoC6/I2C.h **** __STATIC_INLINE void I2C_SlaveAbortWrite(void)
 450:Generated_Source\PSoC6/I2C.h **** {
 451:Generated_Source\PSoC6/I2C.h ****     Cy_SCB_I2C_SlaveAbortWrite(I2C_HW, &I2C_context);
 452:Generated_Source\PSoC6/I2C.h **** }
 453:Generated_Source\PSoC6/I2C.h **** 
 454:Generated_Source\PSoC6/I2C.h **** 
 455:Generated_Source\PSoC6/I2C.h **** /*******************************************************************************
 456:Generated_Source\PSoC6/I2C.h **** * Function Name: I2C_SlaveGetWriteTransferCount
 457:Generated_Source\PSoC6/I2C.h **** ****************************************************************************//**
 458:Generated_Source\PSoC6/I2C.h **** *
 459:Generated_Source\PSoC6/I2C.h **** * Invokes the Cy_SCB_I2C_SlaveGetWriteTransferCount() PDL driver function.
 460:Generated_Source\PSoC6/I2C.h **** *
 461:Generated_Source\PSoC6/I2C.h **** *******************************************************************************/
 462:Generated_Source\PSoC6/I2C.h **** __STATIC_INLINE uint32_t I2C_SlaveGetWriteTransferCount(void)
 463:Generated_Source\PSoC6/I2C.h **** {
 464:Generated_Source\PSoC6/I2C.h ****     return Cy_SCB_I2C_SlaveGetWriteTransferCount(I2C_HW, &I2C_context);
 465:Generated_Source\PSoC6/I2C.h **** }
 466:Generated_Source\PSoC6/I2C.h **** 
 467:Generated_Source\PSoC6/I2C.h **** 
 468:Generated_Source\PSoC6/I2C.h **** /*******************************************************************************
 469:Generated_Source\PSoC6/I2C.h **** * Function Name: I2C_SlaveClearWriteStatus
 470:Generated_Source\PSoC6/I2C.h **** ****************************************************************************//**
 471:Generated_Source\PSoC6/I2C.h **** *
 472:Generated_Source\PSoC6/I2C.h **** * Invokes the Cy_SCB_I2C_SlaveClearWriteStatus() PDL driver function.
 473:Generated_Source\PSoC6/I2C.h **** *
 474:Generated_Source\PSoC6/I2C.h **** *******************************************************************************/
 475:Generated_Source\PSoC6/I2C.h **** __STATIC_INLINE uint32_t I2C_SlaveClearWriteStatus(void)
 476:Generated_Source\PSoC6/I2C.h **** {
 477:Generated_Source\PSoC6/I2C.h ****     return Cy_SCB_I2C_SlaveClearWriteStatus(I2C_HW, &I2C_context);
 478:Generated_Source\PSoC6/I2C.h **** }
 479:Generated_Source\PSoC6/I2C.h **** #endif /* (I2C_ENABLE_SLAVE) */
 480:Generated_Source\PSoC6/I2C.h **** 
 481:Generated_Source\PSoC6/I2C.h **** 
 482:Generated_Source\PSoC6/I2C.h **** #if (I2C_ENABLE_MASTER)
 483:Generated_Source\PSoC6/I2C.h **** /*******************************************************************************
 484:Generated_Source\PSoC6/I2C.h **** * Function Name: I2C_MasterGetStatus
 485:Generated_Source\PSoC6/I2C.h **** ****************************************************************************//**
 486:Generated_Source\PSoC6/I2C.h **** *
 487:Generated_Source\PSoC6/I2C.h **** * Invokes the Cy_SCB_I2C_MasterGetStatus() PDL driver function.
 488:Generated_Source\PSoC6/I2C.h **** *
 489:Generated_Source\PSoC6/I2C.h **** *******************************************************************************/
 490:Generated_Source\PSoC6/I2C.h **** __STATIC_INLINE uint32_t I2C_MasterGetStatus(void)
 491:Generated_Source\PSoC6/I2C.h **** {
 492:Generated_Source\PSoC6/I2C.h ****     return Cy_SCB_I2C_MasterGetStatus(I2C_HW, &I2C_context);
 493:Generated_Source\PSoC6/I2C.h **** }
 494:Generated_Source\PSoC6/I2C.h **** 
 495:Generated_Source\PSoC6/I2C.h **** 
 496:Generated_Source\PSoC6/I2C.h **** /*******************************************************************************
 497:Generated_Source\PSoC6/I2C.h **** * Function Name: I2C_MasterRead
 498:Generated_Source\PSoC6/I2C.h **** ****************************************************************************//**
 499:Generated_Source\PSoC6/I2C.h **** *
 500:Generated_Source\PSoC6/I2C.h **** * Invokes the Cy_SCB_I2C_MasterRead() PDL driver function.
 501:Generated_Source\PSoC6/I2C.h **** *
ARM GAS  C:\Users\ASUS\AppData\Local\Temp\ccj4BS4H.s 			page 28


 502:Generated_Source\PSoC6/I2C.h **** *******************************************************************************/
 503:Generated_Source\PSoC6/I2C.h **** __STATIC_INLINE cy_en_scb_i2c_status_t I2C_MasterRead(cy_stc_scb_i2c_master_xfer_config_t *xferConf
 504:Generated_Source\PSoC6/I2C.h **** {
 505:Generated_Source\PSoC6/I2C.h ****     return Cy_SCB_I2C_MasterRead(I2C_HW, xferConfig, &I2C_context);
 506:Generated_Source\PSoC6/I2C.h **** }
 507:Generated_Source\PSoC6/I2C.h **** 
 508:Generated_Source\PSoC6/I2C.h **** 
 509:Generated_Source\PSoC6/I2C.h **** /*******************************************************************************
 510:Generated_Source\PSoC6/I2C.h **** * Function Name: I2C_MasterAbortRead
 511:Generated_Source\PSoC6/I2C.h **** ****************************************************************************//**
 512:Generated_Source\PSoC6/I2C.h **** *
 513:Generated_Source\PSoC6/I2C.h **** * Invokes the Cy_SCB_I2C_MasterAbortRead() PDL driver function.
 514:Generated_Source\PSoC6/I2C.h **** *
 515:Generated_Source\PSoC6/I2C.h **** ******************************************************************************/
 516:Generated_Source\PSoC6/I2C.h **** __STATIC_INLINE void I2C_MasterAbortRead(void)
 517:Generated_Source\PSoC6/I2C.h **** {
 518:Generated_Source\PSoC6/I2C.h ****     Cy_SCB_I2C_MasterAbortRead(I2C_HW, &I2C_context);
 519:Generated_Source\PSoC6/I2C.h **** }
 520:Generated_Source\PSoC6/I2C.h **** 
 521:Generated_Source\PSoC6/I2C.h **** 
 522:Generated_Source\PSoC6/I2C.h **** /*******************************************************************************
 523:Generated_Source\PSoC6/I2C.h **** * Function Name: I2C_MasterWrite
 524:Generated_Source\PSoC6/I2C.h **** ****************************************************************************//**
 525:Generated_Source\PSoC6/I2C.h **** *
 526:Generated_Source\PSoC6/I2C.h **** * Invokes the Cy_SCB_I2C_MasterWrite() PDL driver function.
 527:Generated_Source\PSoC6/I2C.h **** *
 528:Generated_Source\PSoC6/I2C.h **** *******************************************************************************/
 529:Generated_Source\PSoC6/I2C.h **** __STATIC_INLINE cy_en_scb_i2c_status_t I2C_MasterWrite(cy_stc_scb_i2c_master_xfer_config_t *xferCon
 530:Generated_Source\PSoC6/I2C.h **** {
 531:Generated_Source\PSoC6/I2C.h ****     return Cy_SCB_I2C_MasterWrite(I2C_HW, xferConfig, &I2C_context);
 532:Generated_Source\PSoC6/I2C.h **** }
 533:Generated_Source\PSoC6/I2C.h **** 
 534:Generated_Source\PSoC6/I2C.h **** 
 535:Generated_Source\PSoC6/I2C.h **** /*******************************************************************************
 536:Generated_Source\PSoC6/I2C.h **** * Function Name: I2C_MasterAbortWrite
 537:Generated_Source\PSoC6/I2C.h **** ****************************************************************************//**
 538:Generated_Source\PSoC6/I2C.h **** *
 539:Generated_Source\PSoC6/I2C.h **** * Invokes the Cy_SCB_I2C_MasterAbortWrite() PDL driver function.
 540:Generated_Source\PSoC6/I2C.h **** *
 541:Generated_Source\PSoC6/I2C.h **** *******************************************************************************/
 542:Generated_Source\PSoC6/I2C.h **** __STATIC_INLINE void I2C_MasterAbortWrite(void)
 543:Generated_Source\PSoC6/I2C.h **** {
 544:Generated_Source\PSoC6/I2C.h ****     Cy_SCB_I2C_MasterAbortWrite(I2C_HW, &I2C_context);
 545:Generated_Source\PSoC6/I2C.h **** }
 546:Generated_Source\PSoC6/I2C.h **** 
 547:Generated_Source\PSoC6/I2C.h **** 
 548:Generated_Source\PSoC6/I2C.h **** /*******************************************************************************
 549:Generated_Source\PSoC6/I2C.h **** * Function Name: I2C_MasterGetTransferCount
 550:Generated_Source\PSoC6/I2C.h **** ****************************************************************************//**
 551:Generated_Source\PSoC6/I2C.h **** *
 552:Generated_Source\PSoC6/I2C.h **** * Invokes the Cy_SCB_I2C_MasterGetTransferCount() PDL driver function.
 553:Generated_Source\PSoC6/I2C.h **** *
 554:Generated_Source\PSoC6/I2C.h **** *******************************************************************************/
 555:Generated_Source\PSoC6/I2C.h **** __STATIC_INLINE uint32_t I2C_MasterGetTransferCount(void)
 556:Generated_Source\PSoC6/I2C.h **** {
 557:Generated_Source\PSoC6/I2C.h ****     return Cy_SCB_I2C_MasterGetTransferCount(I2C_HW, &I2C_context);
 558:Generated_Source\PSoC6/I2C.h **** }
ARM GAS  C:\Users\ASUS\AppData\Local\Temp\ccj4BS4H.s 			page 29


 559:Generated_Source\PSoC6/I2C.h **** 
 560:Generated_Source\PSoC6/I2C.h **** 
 561:Generated_Source\PSoC6/I2C.h **** /*******************************************************************************
 562:Generated_Source\PSoC6/I2C.h **** * Function Name: I2C_MasterSendStart
 563:Generated_Source\PSoC6/I2C.h **** ****************************************************************************//**
 564:Generated_Source\PSoC6/I2C.h **** *
 565:Generated_Source\PSoC6/I2C.h **** * Invokes the Cy_SCB_I2C_MasterSendStart() PDL driver function.
 566:Generated_Source\PSoC6/I2C.h **** *
 567:Generated_Source\PSoC6/I2C.h **** *******************************************************************************/
 568:Generated_Source\PSoC6/I2C.h **** __STATIC_INLINE cy_en_scb_i2c_status_t I2C_MasterSendStart(uint32_t address, cy_en_scb_i2c_directio
 569:Generated_Source\PSoC6/I2C.h **** {
 570:Generated_Source\PSoC6/I2C.h ****     return Cy_SCB_I2C_MasterSendStart(I2C_HW, address, bitRnW, timeoutMs, &I2C_context);
 520              		.loc 5 570 0
 521 001a 284C     		ldr	r4, .L35
 522 001c 284F     		ldr	r7, .L35+4
 523 001e 0097     		str	r7, [sp]
 524 0020 6433     		adds	r3, r3, #100
 525 0022 0022     		movs	r2, #0
 526 0024 7421     		movs	r1, #116
 527 0026 2000     		movs	r0, r4
 528              	.LVL52:
 529 0028 FFF7FEFF 		bl	Cy_SCB_I2C_MasterSendStart
 530              	.LVL53:
 531              	.LBE51:
 532              	.LBE50:
  85:Light.h       ****     
  86:Light.h       ****     // Start condition and broadcast slave address + WRITE bit (0)
  87:Light.h       ****     ret0 = I2C_MasterSendStart(LIGHT_ADDRESS, CY_SCB_I2C_WRITE_XFER, 100);
 533              		.loc 4 87 0
 534 002c 0B90     		str	r0, [sp, #44]
  88:Light.h       ****     CyDelay(1);
 535              		.loc 4 88 0
 536 002e 0120     		movs	r0, #1
 537 0030 FFF7FEFF 		bl	Cy_SysLib_Delay
 538              	.LVL54:
 539              	.LBB52:
 540              	.LBB53:
 571:Generated_Source\PSoC6/I2C.h **** }
 572:Generated_Source\PSoC6/I2C.h **** 
 573:Generated_Source\PSoC6/I2C.h **** 
 574:Generated_Source\PSoC6/I2C.h **** /*******************************************************************************
 575:Generated_Source\PSoC6/I2C.h **** * Function Name: I2C_MasterSendReStart
 576:Generated_Source\PSoC6/I2C.h **** ****************************************************************************//**
 577:Generated_Source\PSoC6/I2C.h **** *
 578:Generated_Source\PSoC6/I2C.h **** * Invokes the Cy_SCB_I2C_MasterSendReStart() PDL driver function.
 579:Generated_Source\PSoC6/I2C.h **** *
 580:Generated_Source\PSoC6/I2C.h **** *******************************************************************************/
 581:Generated_Source\PSoC6/I2C.h **** __STATIC_INLINE cy_en_scb_i2c_status_t I2C_MasterSendReStart(uint32_t address, cy_en_scb_i2c_direct
 582:Generated_Source\PSoC6/I2C.h **** {
 583:Generated_Source\PSoC6/I2C.h ****     return Cy_SCB_I2C_MasterSendReStart(I2C_HW, address, bitRnW, timeoutMs, &I2C_context);
 584:Generated_Source\PSoC6/I2C.h **** }
 585:Generated_Source\PSoC6/I2C.h **** 
 586:Generated_Source\PSoC6/I2C.h **** 
 587:Generated_Source\PSoC6/I2C.h **** /*******************************************************************************
 588:Generated_Source\PSoC6/I2C.h **** * Function Name: I2C_MasterSendStop
 589:Generated_Source\PSoC6/I2C.h **** ****************************************************************************//**
 590:Generated_Source\PSoC6/I2C.h **** *
ARM GAS  C:\Users\ASUS\AppData\Local\Temp\ccj4BS4H.s 			page 30


 591:Generated_Source\PSoC6/I2C.h **** * Invokes the Cy_SCB_I2C_MasterSendStop() PDL driver function.
 592:Generated_Source\PSoC6/I2C.h **** *
 593:Generated_Source\PSoC6/I2C.h **** *******************************************************************************/
 594:Generated_Source\PSoC6/I2C.h **** __STATIC_INLINE cy_en_scb_i2c_status_t I2C_MasterSendStop(uint32_t timeoutMs)
 595:Generated_Source\PSoC6/I2C.h **** {
 596:Generated_Source\PSoC6/I2C.h ****     return Cy_SCB_I2C_MasterSendStop(I2C_HW, timeoutMs, &I2C_context);
 597:Generated_Source\PSoC6/I2C.h **** }
 598:Generated_Source\PSoC6/I2C.h **** 
 599:Generated_Source\PSoC6/I2C.h **** 
 600:Generated_Source\PSoC6/I2C.h **** /*******************************************************************************
 601:Generated_Source\PSoC6/I2C.h **** * Function Name: I2C_MasterReadByte
 602:Generated_Source\PSoC6/I2C.h **** ****************************************************************************//**
 603:Generated_Source\PSoC6/I2C.h **** *
 604:Generated_Source\PSoC6/I2C.h **** * Invokes the Cy_SCB_I2C_MasterReadByte() PDL driver function.
 605:Generated_Source\PSoC6/I2C.h **** *
 606:Generated_Source\PSoC6/I2C.h **** *******************************************************************************/
 607:Generated_Source\PSoC6/I2C.h **** __STATIC_INLINE cy_en_scb_i2c_status_t I2C_MasterReadByte(cy_en_scb_i2c_command_t ackNack, uint8_t 
 608:Generated_Source\PSoC6/I2C.h **** {
 609:Generated_Source\PSoC6/I2C.h ****     return Cy_SCB_I2C_MasterReadByte(I2C_HW, ackNack, byte, timeoutMs, &I2C_context);
 610:Generated_Source\PSoC6/I2C.h **** }
 611:Generated_Source\PSoC6/I2C.h **** 
 612:Generated_Source\PSoC6/I2C.h **** 
 613:Generated_Source\PSoC6/I2C.h **** /*******************************************************************************
 614:Generated_Source\PSoC6/I2C.h **** * Function Name: I2C_MasterWriteByte
 615:Generated_Source\PSoC6/I2C.h **** ****************************************************************************//**
 616:Generated_Source\PSoC6/I2C.h **** *
 617:Generated_Source\PSoC6/I2C.h **** * Invokes the Cy_SCB_I2C_MasterWriteByte() PDL driver function.
 618:Generated_Source\PSoC6/I2C.h **** *
 619:Generated_Source\PSoC6/I2C.h **** *******************************************************************************/
 620:Generated_Source\PSoC6/I2C.h **** __STATIC_INLINE cy_en_scb_i2c_status_t I2C_MasterWriteByte(uint8_t byte, uint32_t timeoutMs)
 621:Generated_Source\PSoC6/I2C.h **** {
 622:Generated_Source\PSoC6/I2C.h ****     return Cy_SCB_I2C_MasterWriteByte(I2C_HW, byte, timeoutMs, &I2C_context);
 541              		.loc 5 622 0
 542 0034 3B00     		movs	r3, r7
 543 0036 6422     		movs	r2, #100
 544 0038 3100     		movs	r1, r6
 545 003a 2000     		movs	r0, r4
 546 003c FFF7FEFF 		bl	Cy_SCB_I2C_MasterWriteByte
 547              	.LVL55:
 548              	.LBE53:
 549              	.LBE52:
  89:Light.h       ****     // Broadcast register requested from slave LIGHT_ADDRESS
  90:Light.h       ****     ret1 = I2C_MasterWriteByte(reg, 100);
 550              		.loc 4 90 0
 551 0040 0A90     		str	r0, [sp, #40]
  91:Light.h       ****     CyDelay(1);
 552              		.loc 4 91 0
 553 0042 0120     		movs	r0, #1
 554 0044 FFF7FEFF 		bl	Cy_SysLib_Delay
 555              	.LVL56:
 556              	.LBB54:
 557              	.LBB55:
 583:Generated_Source\PSoC6/I2C.h **** }
 558              		.loc 5 583 0
 559 0048 0097     		str	r7, [sp]
 560 004a 6423     		movs	r3, #100
 561 004c 0122     		movs	r2, #1
ARM GAS  C:\Users\ASUS\AppData\Local\Temp\ccj4BS4H.s 			page 31


 562 004e 7421     		movs	r1, #116
 563 0050 2000     		movs	r0, r4
 564 0052 FFF7FEFF 		bl	Cy_SCB_I2C_MasterSendReStart
 565              	.LVL57:
 566              	.LBE55:
 567              	.LBE54:
  92:Light.h       ****     // Start repeat condition, broadcast slave address + READ bit (1)
  93:Light.h       ****     ret2 = I2C_MasterSendReStart(LIGHT_ADDRESS, CY_SCB_I2C_READ_XFER, 100);
 568              		.loc 4 93 0
 569 0056 0990     		str	r0, [sp, #36]
  94:Light.h       ****     CyDelay(1);
 570              		.loc 4 94 0
 571 0058 0120     		movs	r0, #1
 572 005a FFF7FEFF 		bl	Cy_SysLib_Delay
 573              	.LVL58:
 574              	.LBB56:
 575              	.LBB57:
 609:Generated_Source\PSoC6/I2C.h **** }
 576              		.loc 5 609 0
 577 005e 0097     		str	r7, [sp]
 578 0060 6423     		movs	r3, #100
 579 0062 2A00     		movs	r2, r5
 580 0064 0021     		movs	r1, #0
 581 0066 2000     		movs	r0, r4
 582 0068 FFF7FEFF 		bl	Cy_SCB_I2C_MasterReadByte
 583              	.LVL59:
 584              	.LBE57:
 585              	.LBE56:
  95:Light.h       ****     // Read from I2C device, put received byte in readBuf and send ack signal.
  96:Light.h       ****     ret3 = I2C_MasterReadByte(CY_SCB_I2C_ACK, &(readBuf[0]), 100);
 586              		.loc 4 96 0
 587 006c 0890     		str	r0, [sp, #32]
  97:Light.h       ****     CyDelay(1);
 588              		.loc 4 97 0
 589 006e 0120     		movs	r0, #1
 590 0070 FFF7FEFF 		bl	Cy_SysLib_Delay
 591              	.LVL60:
 592              	.LBB58:
 593              	.LBB59:
 609:Generated_Source\PSoC6/I2C.h **** }
 594              		.loc 5 609 0
 595 0074 0097     		str	r7, [sp]
 596 0076 6423     		movs	r3, #100
 597 0078 1522     		movs	r2, #21
 598 007a 6A44     		add	r2, r2, sp
 599 007c 0121     		movs	r1, #1
 600 007e 2000     		movs	r0, r4
 601 0080 FFF7FEFF 		bl	Cy_SCB_I2C_MasterReadByte
 602              	.LVL61:
 603              	.LBE59:
 604              	.LBE58:
  98:Light.h       ****     ret5 = I2C_MasterReadByte(CY_SCB_I2C_NAK, &(readBuf[1]), 100);
 605              		.loc 4 98 0
 606 0084 0690     		str	r0, [sp, #24]
  99:Light.h       ****     CyDelay(1);
 607              		.loc 4 99 0
 608 0086 0120     		movs	r0, #1
ARM GAS  C:\Users\ASUS\AppData\Local\Temp\ccj4BS4H.s 			page 32


 609 0088 FFF7FEFF 		bl	Cy_SysLib_Delay
 610              	.LVL62:
 611              	.LBB60:
 612              	.LBB61:
 596:Generated_Source\PSoC6/I2C.h **** }
 613              		.loc 5 596 0
 614 008c 3A00     		movs	r2, r7
 615 008e 6421     		movs	r1, #100
 616 0090 2000     		movs	r0, r4
 617 0092 FFF7FEFF 		bl	Cy_SCB_I2C_MasterSendStop
 618              	.LVL63:
 619              	.LBE61:
 620              	.LBE60:
 100:Light.h       ****     // End I2C transaction
 101:Light.h       ****     ret4 = I2C_MasterSendStop(100);
 621              		.loc 4 101 0
 622 0096 0790     		str	r0, [sp, #28]
 102:Light.h       ****     
 103:Light.h       ****     printf("SendStart: %X,"
 623              		.loc 4 103 0
 624 0098 0B99     		ldr	r1, [sp, #44]
 625 009a 0A9A     		ldr	r2, [sp, #40]
 626 009c 099B     		ldr	r3, [sp, #36]
 627 009e 0898     		ldr	r0, [sp, #32]
 628 00a0 069C     		ldr	r4, [sp, #24]
 629 00a2 079E     		ldr	r6, [sp, #28]
 630 00a4 0296     		str	r6, [sp, #8]
 631 00a6 0194     		str	r4, [sp, #4]
 632 00a8 0090     		str	r0, [sp]
 633 00aa 0648     		ldr	r0, .L35+8
 634 00ac FFF7FEFF 		bl	printf
 635              	.LVL64:
 104:Light.h       **** 		    "WriteByte: %X,"
 105:Light.h       **** 		    "SendReStart: %X,"
 106:Light.h       **** 		    "ReadByte: %X,"
 107:Light.h       **** 		    "ReadByte2: %X"
 108:Light.h       **** 		    "SendStop: %X\r\n", ret0, ret1, ret2, ret3, ret5, ret4);
 109:Light.h       ****     
 110:Light.h       ****     //Start_Number = (Start_Number_High << 8) | (Start_Number_Low & 0xff);
 111:Light.h       ****     return (readBuf[1] << 8) | (readBuf[0] & 0xff);
 636              		.loc 4 111 0
 637 00b0 6878     		ldrb	r0, [r5, #1]
 638 00b2 0002     		lsls	r0, r0, #8
 639 00b4 2B78     		ldrb	r3, [r5]
 640 00b6 1843     		orrs	r0, r3
 112:Light.h       **** }
 641              		.loc 4 112 0
 642 00b8 0DB0     		add	sp, sp, #52
 643              		@ sp needed
 644 00ba F0BD     		pop	{r4, r5, r6, r7, pc}
 645              	.L36:
 646              		.align	2
 647              	.L35:
 648 00bc 00006740 		.word	1080492032
 649 00c0 00000000 		.word	I2C_context
 650 00c4 30000000 		.word	.LC7
 651              		.cfi_endproc
ARM GAS  C:\Users\ASUS\AppData\Local\Temp\ccj4BS4H.s 			page 33


 652              	.LFE467:
 653              		.size	lightI2CRead, .-lightI2CRead
 654              		.section	.text.lightI2CWrite,"ax",%progbits
 655              		.align	2
 656              		.global	lightI2CWrite
 657              		.code	16
 658              		.thumb_func
 659              		.type	lightI2CWrite, %function
 660              	lightI2CWrite:
 661              	.LFB468:
 113:Light.h       **** 
 114:Light.h       **** /* Function Name: lightI2CWrite
 115:Light.h       ****  *
 116:Light.h       ****  * Summary:
 117:Light.h       ****  * This function writes to the light sensor using the I2C protocol. The general
 118:Light.h       ****  * procedure for write sequences is detailed in 7.18 and Figure 40.
 119:Light.h       ****  *
 120:Light.h       ****  * Parameters:
 121:Light.h       ****  *	@reg:	The register to which you want to write data.
 122:Light.h       ****  *	@val:	The value you would like to write to @reg
 123:Light.h       ****  *
 124:Light.h       ****  * Return:
 125:Light.h       ****  * 	None.
 126:Light.h       ****  */
 127:Light.h       **** void lightI2CWrite(uint8_t reg, uint8_t value)
 128:Light.h       **** {
 662              		.loc 4 128 0
 663              		.cfi_startproc
 664              		@ args = 0, pretend = 0, frame = 16
 665              		@ frame_needed = 0, uses_anonymous_args = 0
 666              	.LVL65:
 667 0000 F0B5     		push	{r4, r5, r6, r7, lr}
 668              		.cfi_def_cfa_offset 20
 669              		.cfi_offset 4, -20
 670              		.cfi_offset 5, -16
 671              		.cfi_offset 6, -12
 672              		.cfi_offset 7, -8
 673              		.cfi_offset 14, -4
 674 0002 87B0     		sub	sp, sp, #28
 675              		.cfi_def_cfa_offset 48
 676 0004 0700     		movs	r7, r0
 677 0006 0E00     		movs	r6, r1
 129:Light.h       ****     volatile cy_en_scb_i2c_status_t ret0 = 0;
 678              		.loc 4 129 0
 679 0008 0023     		movs	r3, #0
 680 000a 0593     		str	r3, [sp, #20]
 130:Light.h       ****     volatile cy_en_scb_i2c_status_t ret1 = 0;
 681              		.loc 4 130 0
 682 000c 0493     		str	r3, [sp, #16]
 131:Light.h       ****     volatile cy_en_scb_i2c_status_t ret2 = 0;
 683              		.loc 4 131 0
 684 000e 0393     		str	r3, [sp, #12]
 132:Light.h       ****     volatile cy_en_scb_i2c_status_t ret3 = 0;
 685              		.loc 4 132 0
 686 0010 0293     		str	r3, [sp, #8]
 687              	.LVL66:
 688              	.LBB62:
ARM GAS  C:\Users\ASUS\AppData\Local\Temp\ccj4BS4H.s 			page 34


 689              	.LBB63:
 570:Generated_Source\PSoC6/I2C.h **** }
 690              		.loc 5 570 0
 691 0012 174C     		ldr	r4, .L38
 692 0014 174D     		ldr	r5, .L38+4
 693 0016 0095     		str	r5, [sp]
 694 0018 6433     		adds	r3, r3, #100
 695 001a 0022     		movs	r2, #0
 696 001c 7421     		movs	r1, #116
 697              	.LVL67:
 698 001e 2000     		movs	r0, r4
 699              	.LVL68:
 700 0020 FFF7FEFF 		bl	Cy_SCB_I2C_MasterSendStart
 701              	.LVL69:
 702              	.LBE63:
 703              	.LBE62:
 133:Light.h       ****     
 134:Light.h       ****     // Start I2C transaction
 135:Light.h       ****     ret0 = I2C_MasterSendStart(LIGHT_ADDRESS, CY_SCB_I2C_WRITE_XFER, 100);
 704              		.loc 4 135 0
 705 0024 0590     		str	r0, [sp, #20]
 136:Light.h       ****     CyDelay(1);
 706              		.loc 4 136 0
 707 0026 0120     		movs	r0, #1
 708 0028 FFF7FEFF 		bl	Cy_SysLib_Delay
 709              	.LVL70:
 710              	.LBB64:
 711              	.LBB65:
 712              		.loc 5 622 0
 713 002c 2B00     		movs	r3, r5
 714 002e 6422     		movs	r2, #100
 715 0030 3900     		movs	r1, r7
 716 0032 2000     		movs	r0, r4
 717 0034 FFF7FEFF 		bl	Cy_SCB_I2C_MasterWriteByte
 718              	.LVL71:
 719              	.LBE65:
 720              	.LBE64:
 137:Light.h       ****     //Write to I2C device
 138:Light.h       ****     ret1 = I2C_MasterWriteByte(reg, 100);
 721              		.loc 4 138 0
 722 0038 0490     		str	r0, [sp, #16]
 723              	.LVL72:
 724              	.LBB66:
 725              	.LBB67:
 726              		.loc 5 622 0
 727 003a 2B00     		movs	r3, r5
 728 003c 6422     		movs	r2, #100
 729 003e 3100     		movs	r1, r6
 730 0040 2000     		movs	r0, r4
 731 0042 FFF7FEFF 		bl	Cy_SCB_I2C_MasterWriteByte
 732              	.LVL73:
 733              	.LBE67:
 734              	.LBE66:
 139:Light.h       ****     ret2 = I2C_MasterWriteByte(value, 100);
 735              		.loc 4 139 0
 736 0046 0390     		str	r0, [sp, #12]
 140:Light.h       ****     CyDelay(1);
ARM GAS  C:\Users\ASUS\AppData\Local\Temp\ccj4BS4H.s 			page 35


 737              		.loc 4 140 0
 738 0048 0120     		movs	r0, #1
 739 004a FFF7FEFF 		bl	Cy_SysLib_Delay
 740              	.LVL74:
 741              	.LBB68:
 742              	.LBB69:
 596:Generated_Source\PSoC6/I2C.h **** }
 743              		.loc 5 596 0
 744 004e 2A00     		movs	r2, r5
 745 0050 6421     		movs	r1, #100
 746 0052 2000     		movs	r0, r4
 747 0054 FFF7FEFF 		bl	Cy_SCB_I2C_MasterSendStop
 748              	.LVL75:
 749              	.LBE69:
 750              	.LBE68:
 141:Light.h       ****     // End I2C transaction
 142:Light.h       ****     ret3 = I2C_MasterSendStop(100);
 751              		.loc 4 142 0
 752 0058 0290     		str	r0, [sp, #8]
 143:Light.h       ****     
 144:Light.h       ****     printf("SendStart: %X, WriteByte: %X,%X, SendStop: %X\r\n", ret0, ret1,
 753              		.loc 4 144 0
 754 005a 0599     		ldr	r1, [sp, #20]
 755 005c 049A     		ldr	r2, [sp, #16]
 756 005e 039B     		ldr	r3, [sp, #12]
 757 0060 0298     		ldr	r0, [sp, #8]
 758 0062 0090     		str	r0, [sp]
 759 0064 0448     		ldr	r0, .L38+8
 760 0066 FFF7FEFF 		bl	printf
 761              	.LVL76:
 145:Light.h       **** 		    ret2, ret3);
 146:Light.h       **** }
 762              		.loc 4 146 0
 763 006a 07B0     		add	sp, sp, #28
 764              		@ sp needed
 765 006c F0BD     		pop	{r4, r5, r6, r7, pc}
 766              	.L39:
 767 006e C046     		.align	2
 768              	.L38:
 769 0070 00006740 		.word	1080492032
 770 0074 00000000 		.word	I2C_context
 771 0078 88000000 		.word	.LC10
 772              		.cfi_endproc
 773              	.LFE468:
 774              		.size	lightI2CWrite, .-lightI2CWrite
 775              		.section	.text.lightMeasure,"ax",%progbits
 776              		.align	2
 777              		.global	lightMeasure
 778              		.code	16
 779              		.thumb_func
 780              		.type	lightMeasure, %function
 781              	lightMeasure:
 782              	.LFB469:
 147:Light.h       **** 
 148:Light.h       **** /* Function Name: lightMeasure
 149:Light.h       ****  *
 150:Light.h       ****  * Summary:
ARM GAS  C:\Users\ASUS\AppData\Local\Temp\ccj4BS4H.s 			page 36


 151:Light.h       ****  * This function performs a single measurement cycle for the light sensor by
 152:Light.h       ****  * transitioning the device state from power down to measurement, then after the
 153:Light.h       ****  * measurement is complete (64ms later), we save the results.  Lastly, we
 154:Light.h       ****  * transition back to the power down state for power reduction.
 155:Light.h       ****  *
 156:Light.h       ****  * Parameters:
 157:Light.h       ****  *	@xChannel, yChannel, zChannel:	The 3 RGB channels from photodiodes.
 158:Light.h       ****  *	@temperature:			On-board temperature sensor result.
 159:Light.h       ****  *
 160:Light.h       ****  * Return:
 161:Light.h       ****  *	None.
 162:Light.h       ****  */
 163:Light.h       **** void lightMeasure(uint16_t *xChannel, uint16_t *yChannel, uint16_t *zChannel,
 164:Light.h       **** 		uint16_t *temperature)
 165:Light.h       **** {
 783              		.loc 4 165 0
 784              		.cfi_startproc
 785              		@ args = 0, pretend = 0, frame = 0
 786              		@ frame_needed = 0, uses_anonymous_args = 0
 787              	.LVL77:
 788 0000 F8B5     		push	{r3, r4, r5, r6, r7, lr}
 789              		.cfi_def_cfa_offset 24
 790              		.cfi_offset 3, -24
 791              		.cfi_offset 4, -20
 792              		.cfi_offset 5, -16
 793              		.cfi_offset 6, -12
 794              		.cfi_offset 7, -8
 795              		.cfi_offset 14, -4
 796 0002 0600     		movs	r6, r0
 797 0004 0D00     		movs	r5, r1
 798 0006 1400     		movs	r4, r2
 799 0008 1F00     		movs	r7, r3
 166:Light.h       **** 	/* Transition to Measurement mode 0x83 */
 167:Light.h       **** 	lightI2CWrite(OSR, 0x83);
 800              		.loc 4 167 0
 801 000a 8321     		movs	r1, #131
 802              	.LVL78:
 803 000c 0020     		movs	r0, #0
 804              	.LVL79:
 805 000e FFF7FEFF 		bl	lightI2CWrite
 806              	.LVL80:
 168:Light.h       **** 	/* Wait for conversion to finish, defined by TCONV */
 169:Light.h       **** 	CyDelay(64);
 807              		.loc 4 169 0
 808 0012 4020     		movs	r0, #64
 809 0014 FFF7FEFF 		bl	Cy_SysLib_Delay
 810              	.LVL81:
 170:Light.h       **** 
 171:Light.h       **** 	/* Read completed conversions */
 172:Light.h       **** 	*temperature    = lightI2CRead(TEMP);
 811              		.loc 4 172 0
 812 0018 0120     		movs	r0, #1
 813 001a FFF7FEFF 		bl	lightI2CRead
 814              	.LVL82:
 815 001e 3880     		strh	r0, [r7]
 173:Light.h       **** 	*xChannel       = lightI2CRead(MRES1);
 816              		.loc 4 173 0
ARM GAS  C:\Users\ASUS\AppData\Local\Temp\ccj4BS4H.s 			page 37


 817 0020 0220     		movs	r0, #2
 818 0022 FFF7FEFF 		bl	lightI2CRead
 819              	.LVL83:
 820 0026 3080     		strh	r0, [r6]
 174:Light.h       **** 	*yChannel       = lightI2CRead(MRES2);
 821              		.loc 4 174 0
 822 0028 0320     		movs	r0, #3
 823 002a FFF7FEFF 		bl	lightI2CRead
 824              	.LVL84:
 825 002e 2880     		strh	r0, [r5]
 175:Light.h       **** 	*zChannel       = lightI2CRead(MRES3);
 826              		.loc 4 175 0
 827 0030 0420     		movs	r0, #4
 828 0032 FFF7FEFF 		bl	lightI2CRead
 829              	.LVL85:
 830 0036 2080     		strh	r0, [r4]
 176:Light.h       **** 
 177:Light.h       **** 	/* Transition back to PowerDown, for power reduction */
 178:Light.h       **** 	lightI2CWrite(OSR, 0x42);
 831              		.loc 4 178 0
 832 0038 4221     		movs	r1, #66
 833 003a 0020     		movs	r0, #0
 834 003c FFF7FEFF 		bl	lightI2CWrite
 835              	.LVL86:
 179:Light.h       **** }
 836              		.loc 4 179 0
 837              		@ sp needed
 838              	.LVL87:
 839              	.LVL88:
 840              	.LVL89:
 841              	.LVL90:
 842 0040 F8BD     		pop	{r3, r4, r5, r6, r7, pc}
 843              		.cfi_endproc
 844              	.LFE469:
 845              		.size	lightMeasure, .-lightMeasure
 846              		.global	__aeabi_i2d
 847              		.global	__aeabi_dmul
 848              		.global	__aeabi_dsub
 849 0042 C046     		.section	.text.lightPrint,"ax",%progbits
 850              		.align	2
 851              		.global	lightPrint
 852              		.code	16
 853              		.thumb_func
 854              		.type	lightPrint, %function
 855              	lightPrint:
 856              	.LFB470:
 180:Light.h       **** 
 181:Light.h       **** /* Function Name: lightPrint
 182:Light.h       ****  *
 183:Light.h       ****  * Summary:
 184:Light.h       ****  * This function prints the most recent data from the light sensor: the 3
 185:Light.h       ****  * channels of photodiodes conversions (RGB light) and the chip temperature.
 186:Light.h       ****  * Note that temperature is obtained using a macro function that converts the
 187:Light.h       ****  * TEMP register from the board to an actual celcius temperature.
 188:Light.h       ****  *
 189:Light.h       ****  * Parameters:
 190:Light.h       ****  *	@x: the xChannel (R) 16 bit result
ARM GAS  C:\Users\ASUS\AppData\Local\Temp\ccj4BS4H.s 			page 38


 191:Light.h       ****  *	@y: the yChannel (G) 16 bit result
 192:Light.h       ****  *	@z: the zChannel (B) 16 bit result
 193:Light.h       ****  *
 194:Light.h       ****  * Return:
 195:Light.h       ****  *	None.
 196:Light.h       ****  */
 197:Light.h       **** void lightPrint(uint16_t x, uint16_t y, uint16_t z)
 198:Light.h       **** {
 857              		.loc 4 198 0
 858              		.cfi_startproc
 859              		@ args = 0, pretend = 0, frame = 0
 860              		@ frame_needed = 0, uses_anonymous_args = 0
 861              	.LVL91:
 862 0000 70B5     		push	{r4, r5, r6, lr}
 863              		.cfi_def_cfa_offset 16
 864              		.cfi_offset 4, -16
 865              		.cfi_offset 5, -12
 866              		.cfi_offset 6, -8
 867              		.cfi_offset 14, -4
 868 0002 82B0     		sub	sp, sp, #8
 869              		.cfi_def_cfa_offset 24
 870 0004 0400     		movs	r4, r0
 871 0006 0D00     		movs	r5, r1
 872 0008 1600     		movs	r6, r2
 199:Light.h       **** 	printf("\r\n\r\nLight Sensor Data:\r\n"
 200:Light.h       **** 			"Red Light: %d\r\n"
 201:Light.h       **** 			"Green Light: %d\r\n"
 202:Light.h       **** 			"Blue Light: %d\r\n"
 203:Light.h       **** 			"Temperature: %.2f\r\n", x, y, z, CHIPTEMP);
 873              		.loc 4 203 0
 874 000a 0B4B     		ldr	r3, .L42
 875 000c 1888     		ldrh	r0, [r3]
 876              	.LVL92:
 877 000e FFF7FEFF 		bl	__aeabi_i2d
 878              	.LVL93:
 879 0012 0A4A     		ldr	r2, .L42+4
 880 0014 0A4B     		ldr	r3, .L42+8
 881 0016 FFF7FEFF 		bl	__aeabi_dmul
 882              	.LVL94:
 199:Light.h       **** 	printf("\r\n\r\nLight Sensor Data:\r\n"
 883              		.loc 4 199 0
 884 001a 084A     		ldr	r2, .L42+4
 885 001c 094B     		ldr	r3, .L42+12
 886 001e FFF7FEFF 		bl	__aeabi_dsub
 887              	.LVL95:
 888 0022 0090     		str	r0, [sp]
 889 0024 0191     		str	r1, [sp, #4]
 890 0026 3300     		movs	r3, r6
 891 0028 2A00     		movs	r2, r5
 892 002a 2100     		movs	r1, r4
 893 002c 0648     		ldr	r0, .L42+16
 894 002e FFF7FEFF 		bl	printf
 895              	.LVL96:
 204:Light.h       **** }
 896              		.loc 4 204 0
 897 0032 02B0     		add	sp, sp, #8
 898              		@ sp needed
ARM GAS  C:\Users\ASUS\AppData\Local\Temp\ccj4BS4H.s 			page 39


 899 0034 70BD     		pop	{r4, r5, r6, pc}
 900              	.L43:
 901 0036 C046     		.align	2
 902              	.L42:
 903 0038 00000000 		.word	temperature
 904 003c 9A999999 		.word	-1717986918
 905 0040 9999A93F 		.word	1068079513
 906 0044 99B95040 		.word	1079032217
 907 0048 B8000000 		.word	.LC13
 908              		.cfi_endproc
 909              	.LFE470:
 910              		.size	lightPrint, .-lightPrint
 911              		.global	__aeabi_d2iz
 912              		.global	__aeabi_dcmpge
 913              		.section	.text.light_process_data,"ax",%progbits
 914              		.align	2
 915              		.global	light_process_data
 916              		.code	16
 917              		.thumb_func
 918              		.type	light_process_data, %function
 919              	light_process_data:
 920              	.LFB471:
 205:Light.h       **** 
 206:Light.h       **** /* Function Name: light_process_data
 207:Light.h       ****  *
 208:Light.h       ****  * Summary:
 209:Light.h       ****  * This function performs the data clustering on the readings from the light
 210:Light.h       ****  * sensor. This includes setting intermediate and critical flags based on the
 211:Light.h       ****  * most recent readings. Namely, the three variables of interest are dark_count,
 212:Light.h       ****  * lightFlag, and tempFlag. The first two check if the cow has not seen light in
 213:Light.h       ****  * too long, and the last flag checks if the temperature is too high.
 214:Light.h       ****  *
 215:Light.h       ****  * Parameters:
 216:Light.h       ****  *	@x:	the xChannel (R) 16 bit result
 217:Light.h       ****  *	@y:	the yChannel (G) 16 bit result
 218:Light.h       ****  *	@z:	the zChannel (B) 16 bit result
 219:Light.h       ****  *	@tq:	queue data structure for temperature results.
 220:Light.h       ****  *	@lq:	queue data structure for light results.
 221:Light.h       ****  *
 222:Light.h       ****  * Return:
 223:Light.h       ****  *	None.
 224:Light.h       ****  */
 225:Light.h       **** void light_process_data(uint16_t x, uint16_t y, uint16_t z, queue_t tq, queue_t lq)
 226:Light.h       **** {
 921              		.loc 4 226 0
 922              		.cfi_startproc
 923              		@ args = 4, pretend = 0, frame = 8
 924              		@ frame_needed = 0, uses_anonymous_args = 0
 925              	.LVL97:
 926 0000 F0B5     		push	{r4, r5, r6, r7, lr}
 927              		.cfi_def_cfa_offset 20
 928              		.cfi_offset 4, -20
 929              		.cfi_offset 5, -16
 930              		.cfi_offset 6, -12
 931              		.cfi_offset 7, -8
 932              		.cfi_offset 14, -4
 933 0002 83B0     		sub	sp, sp, #12
ARM GAS  C:\Users\ASUS\AppData\Local\Temp\ccj4BS4H.s 			page 40


 934              		.cfi_def_cfa_offset 32
 935 0004 0500     		movs	r5, r0
 936 0006 0F00     		movs	r7, r1
 937 0008 1400     		movs	r4, r2
 938 000a 0193     		str	r3, [sp, #4]
 939              	.LVL98:
 227:Light.h       **** 	int dark_count = 0;
 228:Light.h       **** 	int chip_temp = CHIPTEMP;
 940              		.loc 4 228 0
 941 000c 224B     		ldr	r3, .L51
 942              	.LVL99:
 943 000e 1888     		ldrh	r0, [r3]
 944              	.LVL100:
 945 0010 FFF7FEFF 		bl	__aeabi_i2d
 946              	.LVL101:
 947 0014 214A     		ldr	r2, .L51+4
 948 0016 224B     		ldr	r3, .L51+8
 949 0018 FFF7FEFF 		bl	__aeabi_dmul
 950              	.LVL102:
 951 001c 1F4A     		ldr	r2, .L51+4
 952 001e 214B     		ldr	r3, .L51+12
 953 0020 FFF7FEFF 		bl	__aeabi_dsub
 954              	.LVL103:
 955 0024 FFF7FEFF 		bl	__aeabi_d2iz
 956              	.LVL104:
 957 0028 0600     		movs	r6, r0
 958              	.LVL105:
 229:Light.h       **** 	int combined_light = x + y + z;
 959              		.loc 4 229 0
 960 002a E919     		adds	r1, r5, r7
 961 002c 0919     		adds	r1, r1, r4
 962              	.LVL106:
 230:Light.h       **** 	if (combined_light < LIGHT_CUTOFF)
 963              		.loc 4 230 0
 964 002e 3129     		cmp	r1, #49
 965 0030 01DC     		bgt	.L50
 231:Light.h       **** 		dark_count++;
 966              		.loc 4 231 0
 967 0032 0124     		movs	r4, #1
 968 0034 00E0     		b	.L45
 969              	.L50:
 232:Light.h       **** 	else
 233:Light.h       **** 		dark_count = 0;
 970              		.loc 4 233 0
 971 0036 0024     		movs	r4, #0
 972              	.L45:
 973              	.LVL107:
 234:Light.h       **** 
 235:Light.h       **** 	if (queue_enqueue(lq, combined_light) != 0)
 974              		.loc 4 235 0
 975 0038 0898     		ldr	r0, [sp, #32]
 976              	.LVL108:
 977 003a FFF7FEFF 		bl	queue_enqueue
 978              	.LVL109:
 979 003e 0028     		cmp	r0, #0
 980 0040 02D0     		beq	.L46
 236:Light.h       **** 		printf("Failed to queue light data.\r\n");
ARM GAS  C:\Users\ASUS\AppData\Local\Temp\ccj4BS4H.s 			page 41


 981              		.loc 4 236 0
 982 0042 1948     		ldr	r0, .L51+16
 983 0044 FFF7FEFF 		bl	puts
 984              	.LVL110:
 985              	.L46:
 237:Light.h       **** 	if (queue_enqueue(tq, chip_temp) != 0)
 986              		.loc 4 237 0
 987 0048 3100     		movs	r1, r6
 988 004a 0198     		ldr	r0, [sp, #4]
 989 004c FFF7FEFF 		bl	queue_enqueue
 990              	.LVL111:
 991 0050 0028     		cmp	r0, #0
 992 0052 02D0     		beq	.L47
 238:Light.h       **** 		printf("Failed to queue temperature data.\r\n");
 993              		.loc 4 238 0
 994 0054 1548     		ldr	r0, .L51+20
 995 0056 FFF7FEFF 		bl	puts
 996              	.LVL112:
 997              	.L47:
 239:Light.h       **** 
 240:Light.h       **** 	lightFlag   = dark_count >= CRIT_LIGHT;    
 998              		.loc 4 240 0
 999 005a 0123     		movs	r3, #1
 1000 005c 092C     		cmp	r4, #9
 1001 005e 00DC     		bgt	.L48
 1002 0060 0023     		movs	r3, #0
 1003              	.L48:
 1004 0062 134A     		ldr	r2, .L51+24
 1005 0064 5360     		str	r3, [r2, #4]
 241:Light.h       **** 	tempFlag    = CHIPTEMP >= CRIT_TEMP;
 1006              		.loc 4 241 0
 1007 0066 0C4B     		ldr	r3, .L51
 1008 0068 1888     		ldrh	r0, [r3]
 1009 006a FFF7FEFF 		bl	__aeabi_i2d
 1010              	.LVL113:
 1011 006e 0B4A     		ldr	r2, .L51+4
 1012 0070 0B4B     		ldr	r3, .L51+8
 1013 0072 FFF7FEFF 		bl	__aeabi_dmul
 1014              	.LVL114:
 1015 0076 094A     		ldr	r2, .L51+4
 1016 0078 0A4B     		ldr	r3, .L51+12
 1017 007a FFF7FEFF 		bl	__aeabi_dsub
 1018              	.LVL115:
 1019 007e 0124     		movs	r4, #1
 1020              	.LVL116:
 1021 0080 0022     		movs	r2, #0
 1022 0082 0C4B     		ldr	r3, .L51+28
 1023 0084 FFF7FEFF 		bl	__aeabi_dcmpge
 1024              	.LVL117:
 1025 0088 0028     		cmp	r0, #0
 1026 008a 00D1     		bne	.L49
 1027 008c 0024     		movs	r4, #0
 1028              	.L49:
 1029 008e 084B     		ldr	r3, .L51+24
 1030 0090 9C60     		str	r4, [r3, #8]
 242:Light.h       **** }
 1031              		.loc 4 242 0
ARM GAS  C:\Users\ASUS\AppData\Local\Temp\ccj4BS4H.s 			page 42


 1032 0092 03B0     		add	sp, sp, #12
 1033              		@ sp needed
 1034              	.LVL118:
 1035 0094 F0BD     		pop	{r4, r5, r6, r7, pc}
 1036              	.L52:
 1037 0096 C046     		.align	2
 1038              	.L51:
 1039 0098 00000000 		.word	temperature
 1040 009c 9A999999 		.word	-1717986918
 1041 00a0 9999A93F 		.word	1068079513
 1042 00a4 99B95040 		.word	1079032217
 1043 00a8 14010000 		.word	.LC16
 1044 00ac 34010000 		.word	.LC18
 1045 00b0 00000000 		.word	.LANCHOR0
 1046 00b4 00003440 		.word	1077149696
 1047              		.cfi_endproc
 1048              	.LFE471:
 1049              		.size	light_process_data, .-light_process_data
 1050              		.section	.text.accI2CRead,"ax",%progbits
 1051              		.align	2
 1052              		.global	accI2CRead
 1053              		.code	16
 1054              		.thumb_func
 1055              		.type	accI2CRead, %function
 1056              	accI2CRead:
 1057              	.LFB472:
 1058              		.file 6 "Accelerometer.h"
   1:Accelerometer.h **** /******************************************************************************
   2:Accelerometer.h **** * File Name: Accelerometer.h
   3:Accelerometer.h **** *
   4:Accelerometer.h **** * Version: Beta
   5:Accelerometer.h **** *
   6:Accelerometer.h **** * Description: This file contains the firmware for setting up communication
   7:Accelerometer.h **** * between the PSoC and the 9-axis accelerometer sensor using the I2C protocol.
   8:Accelerometer.h **** *
   9:Accelerometer.h **** * Related Document: Sensor-Nine-Axis.pdf
  10:Accelerometer.h **** * Hardware Dependency:  CY8CKIT-063-BLE PSoC 6 BLE Pioneer kit
  11:Accelerometer.h **** *                       ICM-20948 Nine-Axis Low Power Sensor
  12:Accelerometer.h **** *
  13:Accelerometer.h **** * Author(s):
  14:Accelerometer.h **** *	Yousef H. Akbar & and Cow Team
  15:Accelerometer.h **** *	Dept. Electrical and Computer Engineering
  16:Accelerometer.h **** *	University of California, Davis
  17:Accelerometer.h **** *******************************************************************************
  18:Accelerometer.h **** * Refer to Section 6.1 to 6.4 of Sensor-Nine-Axis.pdf for I2C protocol specs.
  19:Accelerometer.h **** ******************************************************************************/
  20:Accelerometer.h **** 
  21:Accelerometer.h **** #include "project.h"
  22:Accelerometer.h **** #include "stdio.h"
  23:Accelerometer.h **** #include "Queue.h"
  24:Accelerometer.h **** #include "stdlib.h"
  25:Accelerometer.h **** #include "time.h"
  26:Accelerometer.h **** 
  27:Accelerometer.h **** /* Slave addresses */
  28:Accelerometer.h **** #define ACC_ADDRESS 0x68    // 1101000[0|1]
  29:Accelerometer.h **** 
  30:Accelerometer.h **** /* Output Register Bank */
ARM GAS  C:\Users\ASUS\AppData\Local\Temp\ccj4BS4H.s 			page 43


  31:Accelerometer.h **** #define WHOAMI      0x00
  32:Accelerometer.h **** #define INT_ENABLE  0x01
  33:Accelerometer.h **** #define XACCEL_H    0x2D
  34:Accelerometer.h **** #define YACCEL_H    0x2F
  35:Accelerometer.h **** #define ZACCEL_H    0x31
  36:Accelerometer.h **** #define XGYRO_H     0x33
  37:Accelerometer.h **** #define YGYRO_H     0x35
  38:Accelerometer.h **** #define ZGYRO_H     0x37
  39:Accelerometer.h **** 
  40:Accelerometer.h **** /* Critical benchmarks */
  41:Accelerometer.h **** #define CRIT_INACTIVITY	(12)
  42:Accelerometer.h **** #define ACC_CUTOFF	(10)
  43:Accelerometer.h **** 
  44:Accelerometer.h **** /* Global Variables */
  45:Accelerometer.h **** int accInactive;
  46:Accelerometer.h **** int prev_gX = 0;
  47:Accelerometer.h **** int prev_gY = 0;
  48:Accelerometer.h **** int prev_gZ = 0;
  49:Accelerometer.h **** int data_count;
  50:Accelerometer.h **** 
  51:Accelerometer.h **** uint16_t accI2CRead(uint8_t reg)
  52:Accelerometer.h **** {
 1059              		.loc 6 52 0
 1060              		.cfi_startproc
 1061              		@ args = 0, pretend = 0, frame = 32
 1062              		@ frame_needed = 0, uses_anonymous_args = 0
 1063              	.LVL119:
 1064 0000 F0B5     		push	{r4, r5, r6, r7, lr}
 1065              		.cfi_def_cfa_offset 20
 1066              		.cfi_offset 4, -20
 1067              		.cfi_offset 5, -16
 1068              		.cfi_offset 6, -12
 1069              		.cfi_offset 7, -8
 1070              		.cfi_offset 14, -4
 1071 0002 8DB0     		sub	sp, sp, #52
 1072              		.cfi_def_cfa_offset 72
 1073 0004 0600     		movs	r6, r0
  53:Accelerometer.h ****     volatile cy_en_scb_i2c_status_t ret0 = 0;
 1074              		.loc 6 53 0
 1075 0006 0023     		movs	r3, #0
 1076 0008 0B93     		str	r3, [sp, #44]
  54:Accelerometer.h ****     volatile cy_en_scb_i2c_status_t ret1 = 0;
 1077              		.loc 6 54 0
 1078 000a 0A93     		str	r3, [sp, #40]
  55:Accelerometer.h ****     volatile cy_en_scb_i2c_status_t ret2 = 0;
 1079              		.loc 6 55 0
 1080 000c 0993     		str	r3, [sp, #36]
  56:Accelerometer.h ****     volatile cy_en_scb_i2c_status_t ret3 = 0;
 1081              		.loc 6 56 0
 1082 000e 0893     		str	r3, [sp, #32]
  57:Accelerometer.h ****     volatile cy_en_scb_i2c_status_t ret4 = 0;
 1083              		.loc 6 57 0
 1084 0010 0793     		str	r3, [sp, #28]
  58:Accelerometer.h ****     volatile cy_en_scb_i2c_status_t ret5 = 0;
 1085              		.loc 6 58 0
 1086 0012 0693     		str	r3, [sp, #24]
  59:Accelerometer.h ****     uint8_t readBuf[2] = {0, 0};
ARM GAS  C:\Users\ASUS\AppData\Local\Temp\ccj4BS4H.s 			page 44


 1087              		.loc 6 59 0
 1088 0014 05AD     		add	r5, sp, #20
 1089 0016 2B70     		strb	r3, [r5]
 1090 0018 6B70     		strb	r3, [r5, #1]
 1091              	.LVL120:
 1092              	.LBB70:
 1093              	.LBB71:
 570:Generated_Source\PSoC6/I2C.h **** }
 1094              		.loc 5 570 0
 1095 001a 284C     		ldr	r4, .L54
 1096 001c 284F     		ldr	r7, .L54+4
 1097 001e 0097     		str	r7, [sp]
 1098 0020 6433     		adds	r3, r3, #100
 1099 0022 0022     		movs	r2, #0
 1100 0024 6821     		movs	r1, #104
 1101 0026 2000     		movs	r0, r4
 1102              	.LVL121:
 1103 0028 FFF7FEFF 		bl	Cy_SCB_I2C_MasterSendStart
 1104              	.LVL122:
 1105              	.LBE71:
 1106              	.LBE70:
  60:Accelerometer.h ****     
  61:Accelerometer.h ****     // Start condition and broadcast slave address + WRITE bit (0)
  62:Accelerometer.h ****     ret0 = I2C_MasterSendStart(ACC_ADDRESS, CY_SCB_I2C_WRITE_XFER, 100);
 1107              		.loc 6 62 0
 1108 002c 0B90     		str	r0, [sp, #44]
  63:Accelerometer.h ****     CyDelay(1);
 1109              		.loc 6 63 0
 1110 002e 0120     		movs	r0, #1
 1111 0030 FFF7FEFF 		bl	Cy_SysLib_Delay
 1112              	.LVL123:
 1113              	.LBB72:
 1114              	.LBB73:
 1115              		.loc 5 622 0
 1116 0034 3B00     		movs	r3, r7
 1117 0036 6422     		movs	r2, #100
 1118 0038 3100     		movs	r1, r6
 1119 003a 2000     		movs	r0, r4
 1120 003c FFF7FEFF 		bl	Cy_SCB_I2C_MasterWriteByte
 1121              	.LVL124:
 1122              	.LBE73:
 1123              	.LBE72:
  64:Accelerometer.h ****     // Broadcast register requested from slave ACC_ADDRESS
  65:Accelerometer.h ****     ret1 = I2C_MasterWriteByte(reg, 100);
 1124              		.loc 6 65 0
 1125 0040 0A90     		str	r0, [sp, #40]
  66:Accelerometer.h ****     CyDelay(1);
 1126              		.loc 6 66 0
 1127 0042 0120     		movs	r0, #1
 1128 0044 FFF7FEFF 		bl	Cy_SysLib_Delay
 1129              	.LVL125:
 1130              	.LBB74:
 1131              	.LBB75:
 583:Generated_Source\PSoC6/I2C.h **** }
 1132              		.loc 5 583 0
 1133 0048 0097     		str	r7, [sp]
 1134 004a 6423     		movs	r3, #100
ARM GAS  C:\Users\ASUS\AppData\Local\Temp\ccj4BS4H.s 			page 45


 1135 004c 0122     		movs	r2, #1
 1136 004e 6821     		movs	r1, #104
 1137 0050 2000     		movs	r0, r4
 1138 0052 FFF7FEFF 		bl	Cy_SCB_I2C_MasterSendReStart
 1139              	.LVL126:
 1140              	.LBE75:
 1141              	.LBE74:
  67:Accelerometer.h ****     // Start repeat condition, broadcast slave address + READ bit (1)
  68:Accelerometer.h ****     ret2 = I2C_MasterSendReStart(ACC_ADDRESS, CY_SCB_I2C_READ_XFER, 100);
 1142              		.loc 6 68 0
 1143 0056 0990     		str	r0, [sp, #36]
  69:Accelerometer.h ****     CyDelay(1);
 1144              		.loc 6 69 0
 1145 0058 0120     		movs	r0, #1
 1146 005a FFF7FEFF 		bl	Cy_SysLib_Delay
 1147              	.LVL127:
 1148              	.LBB76:
 1149              	.LBB77:
 609:Generated_Source\PSoC6/I2C.h **** }
 1150              		.loc 5 609 0
 1151 005e 0097     		str	r7, [sp]
 1152 0060 6423     		movs	r3, #100
 1153 0062 1522     		movs	r2, #21
 1154 0064 6A44     		add	r2, r2, sp
 1155 0066 0021     		movs	r1, #0
 1156 0068 2000     		movs	r0, r4
 1157 006a FFF7FEFF 		bl	Cy_SCB_I2C_MasterReadByte
 1158              	.LVL128:
 1159              	.LBE77:
 1160              	.LBE76:
  70:Accelerometer.h ****     // Read from I2C device, put received byte in readBuf and send ack signal.
  71:Accelerometer.h ****     ret3 = I2C_MasterReadByte(CY_SCB_I2C_ACK, &(readBuf[1]), 100);
 1161              		.loc 6 71 0
 1162 006e 0890     		str	r0, [sp, #32]
  72:Accelerometer.h ****     CyDelay(1);
 1163              		.loc 6 72 0
 1164 0070 0120     		movs	r0, #1
 1165 0072 FFF7FEFF 		bl	Cy_SysLib_Delay
 1166              	.LVL129:
 1167              	.LBB78:
 1168              	.LBB79:
 609:Generated_Source\PSoC6/I2C.h **** }
 1169              		.loc 5 609 0
 1170 0076 0097     		str	r7, [sp]
 1171 0078 6423     		movs	r3, #100
 1172 007a 2A00     		movs	r2, r5
 1173 007c 0121     		movs	r1, #1
 1174 007e 2000     		movs	r0, r4
 1175 0080 FFF7FEFF 		bl	Cy_SCB_I2C_MasterReadByte
 1176              	.LVL130:
 1177              	.LBE79:
 1178              	.LBE78:
  73:Accelerometer.h ****     ret5 = I2C_MasterReadByte(CY_SCB_I2C_NAK, &(readBuf[0]), 100);
 1179              		.loc 6 73 0
 1180 0084 0690     		str	r0, [sp, #24]
  74:Accelerometer.h ****     CyDelay(1);
 1181              		.loc 6 74 0
ARM GAS  C:\Users\ASUS\AppData\Local\Temp\ccj4BS4H.s 			page 46


 1182 0086 0120     		movs	r0, #1
 1183 0088 FFF7FEFF 		bl	Cy_SysLib_Delay
 1184              	.LVL131:
 1185              	.LBB80:
 1186              	.LBB81:
 596:Generated_Source\PSoC6/I2C.h **** }
 1187              		.loc 5 596 0
 1188 008c 3A00     		movs	r2, r7
 1189 008e 6421     		movs	r1, #100
 1190 0090 2000     		movs	r0, r4
 1191 0092 FFF7FEFF 		bl	Cy_SCB_I2C_MasterSendStop
 1192              	.LVL132:
 1193              	.LBE81:
 1194              	.LBE80:
  75:Accelerometer.h ****     // End I2C transaction
  76:Accelerometer.h ****     ret4 = I2C_MasterSendStop(100);
 1195              		.loc 6 76 0
 1196 0096 0790     		str	r0, [sp, #28]
  77:Accelerometer.h ****     
  78:Accelerometer.h ****     printf("SendStart: %X,"
 1197              		.loc 6 78 0
 1198 0098 0B99     		ldr	r1, [sp, #44]
 1199 009a 0A9A     		ldr	r2, [sp, #40]
 1200 009c 099B     		ldr	r3, [sp, #36]
 1201 009e 0898     		ldr	r0, [sp, #32]
 1202 00a0 069C     		ldr	r4, [sp, #24]
 1203 00a2 079E     		ldr	r6, [sp, #28]
 1204 00a4 0296     		str	r6, [sp, #8]
 1205 00a6 0194     		str	r4, [sp, #4]
 1206 00a8 0090     		str	r0, [sp]
 1207 00aa 0648     		ldr	r0, .L54+8
 1208 00ac FFF7FEFF 		bl	printf
 1209              	.LVL133:
  79:Accelerometer.h **** 		    "WriteByte: %X,"
  80:Accelerometer.h **** 		    "SendReStart: %X,"
  81:Accelerometer.h **** 		    "ReadByte: %X,"
  82:Accelerometer.h ****             "ReadByte2: %X"
  83:Accelerometer.h **** 		    "SendStop: %X\r\n", ret0, ret1, ret2, ret3, ret5, ret4);
  84:Accelerometer.h ****     
  85:Accelerometer.h ****     //Start_Number = (Start_Number_High << 8) | (Start_Number_Low & 0xff);
  86:Accelerometer.h ****     return (readBuf[1] << 8) | (readBuf[0] & 0xff);
 1210              		.loc 6 86 0
 1211 00b0 6878     		ldrb	r0, [r5, #1]
 1212 00b2 0002     		lsls	r0, r0, #8
 1213 00b4 2B78     		ldrb	r3, [r5]
 1214 00b6 1843     		orrs	r0, r3
  87:Accelerometer.h **** }
 1215              		.loc 6 87 0
 1216 00b8 0DB0     		add	sp, sp, #52
 1217              		@ sp needed
 1218 00ba F0BD     		pop	{r4, r5, r6, r7, pc}
 1219              	.L55:
 1220              		.align	2
 1221              	.L54:
 1222 00bc 00006740 		.word	1080492032
 1223 00c0 00000000 		.word	I2C_context
 1224 00c4 30000000 		.word	.LC7
ARM GAS  C:\Users\ASUS\AppData\Local\Temp\ccj4BS4H.s 			page 47


 1225              		.cfi_endproc
 1226              	.LFE472:
 1227              		.size	accI2CRead, .-accI2CRead
 1228              		.section	.text.accI2CWrite,"ax",%progbits
 1229              		.align	2
 1230              		.global	accI2CWrite
 1231              		.code	16
 1232              		.thumb_func
 1233              		.type	accI2CWrite, %function
 1234              	accI2CWrite:
 1235              	.LFB473:
  88:Accelerometer.h **** 
  89:Accelerometer.h **** void accI2CWrite(uint8_t reg, uint8_t value)
  90:Accelerometer.h **** {
 1236              		.loc 6 90 0
 1237              		.cfi_startproc
 1238              		@ args = 0, pretend = 0, frame = 16
 1239              		@ frame_needed = 0, uses_anonymous_args = 0
 1240              	.LVL134:
 1241 0000 F0B5     		push	{r4, r5, r6, r7, lr}
 1242              		.cfi_def_cfa_offset 20
 1243              		.cfi_offset 4, -20
 1244              		.cfi_offset 5, -16
 1245              		.cfi_offset 6, -12
 1246              		.cfi_offset 7, -8
 1247              		.cfi_offset 14, -4
 1248 0002 87B0     		sub	sp, sp, #28
 1249              		.cfi_def_cfa_offset 48
 1250 0004 0700     		movs	r7, r0
 1251 0006 0E00     		movs	r6, r1
  91:Accelerometer.h ****     volatile cy_en_scb_i2c_status_t ret0 = 0;
 1252              		.loc 6 91 0
 1253 0008 0023     		movs	r3, #0
 1254 000a 0593     		str	r3, [sp, #20]
  92:Accelerometer.h ****     volatile cy_en_scb_i2c_status_t ret1 = 0;
 1255              		.loc 6 92 0
 1256 000c 0493     		str	r3, [sp, #16]
  93:Accelerometer.h ****     volatile cy_en_scb_i2c_status_t ret2 = 0;
 1257              		.loc 6 93 0
 1258 000e 0393     		str	r3, [sp, #12]
  94:Accelerometer.h ****     volatile cy_en_scb_i2c_status_t ret3 = 0;
 1259              		.loc 6 94 0
 1260 0010 0293     		str	r3, [sp, #8]
 1261              	.LVL135:
 1262              	.LBB82:
 1263              	.LBB83:
 570:Generated_Source\PSoC6/I2C.h **** }
 1264              		.loc 5 570 0
 1265 0012 174C     		ldr	r4, .L57
 1266 0014 174D     		ldr	r5, .L57+4
 1267 0016 0095     		str	r5, [sp]
 1268 0018 6433     		adds	r3, r3, #100
 1269 001a 0022     		movs	r2, #0
 1270 001c 6821     		movs	r1, #104
 1271              	.LVL136:
 1272 001e 2000     		movs	r0, r4
 1273              	.LVL137:
ARM GAS  C:\Users\ASUS\AppData\Local\Temp\ccj4BS4H.s 			page 48


 1274 0020 FFF7FEFF 		bl	Cy_SCB_I2C_MasterSendStart
 1275              	.LVL138:
 1276              	.LBE83:
 1277              	.LBE82:
  95:Accelerometer.h ****     
  96:Accelerometer.h ****     // Start I2C transaction
  97:Accelerometer.h ****     ret0 = I2C_MasterSendStart(ACC_ADDRESS, CY_SCB_I2C_WRITE_XFER, 100);
 1278              		.loc 6 97 0
 1279 0024 0590     		str	r0, [sp, #20]
  98:Accelerometer.h ****     CyDelay(1);
 1280              		.loc 6 98 0
 1281 0026 0120     		movs	r0, #1
 1282 0028 FFF7FEFF 		bl	Cy_SysLib_Delay
 1283              	.LVL139:
 1284              	.LBB84:
 1285              	.LBB85:
 1286              		.loc 5 622 0
 1287 002c 2B00     		movs	r3, r5
 1288 002e 6422     		movs	r2, #100
 1289 0030 3900     		movs	r1, r7
 1290 0032 2000     		movs	r0, r4
 1291 0034 FFF7FEFF 		bl	Cy_SCB_I2C_MasterWriteByte
 1292              	.LVL140:
 1293              	.LBE85:
 1294              	.LBE84:
  99:Accelerometer.h ****     //Write to I2C device
 100:Accelerometer.h ****     ret1 = I2C_MasterWriteByte(reg, 100);
 1295              		.loc 6 100 0
 1296 0038 0490     		str	r0, [sp, #16]
 1297              	.LVL141:
 1298              	.LBB86:
 1299              	.LBB87:
 1300              		.loc 5 622 0
 1301 003a 2B00     		movs	r3, r5
 1302 003c 6422     		movs	r2, #100
 1303 003e 3100     		movs	r1, r6
 1304 0040 2000     		movs	r0, r4
 1305 0042 FFF7FEFF 		bl	Cy_SCB_I2C_MasterWriteByte
 1306              	.LVL142:
 1307              	.LBE87:
 1308              	.LBE86:
 101:Accelerometer.h ****     ret2 = I2C_MasterWriteByte(value, 100);
 1309              		.loc 6 101 0
 1310 0046 0390     		str	r0, [sp, #12]
 102:Accelerometer.h ****     CyDelay(1);
 1311              		.loc 6 102 0
 1312 0048 0120     		movs	r0, #1
 1313 004a FFF7FEFF 		bl	Cy_SysLib_Delay
 1314              	.LVL143:
 1315              	.LBB88:
 1316              	.LBB89:
 596:Generated_Source\PSoC6/I2C.h **** }
 1317              		.loc 5 596 0
 1318 004e 2A00     		movs	r2, r5
 1319 0050 6421     		movs	r1, #100
 1320 0052 2000     		movs	r0, r4
 1321 0054 FFF7FEFF 		bl	Cy_SCB_I2C_MasterSendStop
ARM GAS  C:\Users\ASUS\AppData\Local\Temp\ccj4BS4H.s 			page 49


 1322              	.LVL144:
 1323              	.LBE89:
 1324              	.LBE88:
 103:Accelerometer.h ****     // End I2C transaction
 104:Accelerometer.h ****     ret3 = I2C_MasterSendStop(100);
 1325              		.loc 6 104 0
 1326 0058 0290     		str	r0, [sp, #8]
 105:Accelerometer.h ****     
 106:Accelerometer.h ****     printf("SendStart: %X, WriteByte: %X,%X, SendStop: %X\r\n", ret0, ret1,
 1327              		.loc 6 106 0
 1328 005a 0599     		ldr	r1, [sp, #20]
 1329 005c 049A     		ldr	r2, [sp, #16]
 1330 005e 039B     		ldr	r3, [sp, #12]
 1331 0060 0298     		ldr	r0, [sp, #8]
 1332 0062 0090     		str	r0, [sp]
 1333 0064 0448     		ldr	r0, .L57+8
 1334 0066 FFF7FEFF 		bl	printf
 1335              	.LVL145:
 107:Accelerometer.h **** 		    ret2, ret3);
 108:Accelerometer.h **** }
 1336              		.loc 6 108 0
 1337 006a 07B0     		add	sp, sp, #28
 1338              		@ sp needed
 1339 006c F0BD     		pop	{r4, r5, r6, r7, pc}
 1340              	.L58:
 1341 006e C046     		.align	2
 1342              	.L57:
 1343 0070 00006740 		.word	1080492032
 1344 0074 00000000 		.word	I2C_context
 1345 0078 88000000 		.word	.LC10
 1346              		.cfi_endproc
 1347              	.LFE473:
 1348              		.size	accI2CWrite, .-accI2CWrite
 1349              		.global	__aeabi_idivmod
 1350              		.section	.text.accMeasure,"ax",%progbits
 1351              		.align	2
 1352              		.global	accMeasure
 1353              		.code	16
 1354              		.thumb_func
 1355              		.type	accMeasure, %function
 1356              	accMeasure:
 1357              	.LFB474:
 109:Accelerometer.h **** 
 110:Accelerometer.h **** void accMeasure(uint16_t *accX, uint16_t *accY, uint16_t *accZ, int combined_light)
 111:Accelerometer.h **** {
 1358              		.loc 6 111 0
 1359              		.cfi_startproc
 1360              		@ args = 0, pretend = 0, frame = 0
 1361              		@ frame_needed = 0, uses_anonymous_args = 0
 1362              	.LVL146:
 1363 0000 F8B5     		push	{r3, r4, r5, r6, r7, lr}
 1364              		.cfi_def_cfa_offset 24
 1365              		.cfi_offset 3, -24
 1366              		.cfi_offset 4, -20
 1367              		.cfi_offset 5, -16
 1368              		.cfi_offset 6, -12
 1369              		.cfi_offset 7, -8
ARM GAS  C:\Users\ASUS\AppData\Local\Temp\ccj4BS4H.s 			page 50


 1370              		.cfi_offset 14, -4
 1371 0002 0700     		movs	r7, r0
 1372 0004 0E00     		movs	r6, r1
 1373 0006 1500     		movs	r5, r2
 1374 0008 1C00     		movs	r4, r3
 112:Accelerometer.h ****     /* Read completed conversions */
 113:Accelerometer.h ****     /**accX       = accI2CRead(XACCEL_H);
 114:Accelerometer.h ****     *accY       = accI2CRead(YACCEL_H);
 115:Accelerometer.h ****     *accZ       = accI2CRead(ZACCEL_H);*/
 116:Accelerometer.h ****     
 117:Accelerometer.h ****     int num;
 118:Accelerometer.h ****     srand(data_count);
 1375              		.loc 6 118 0
 1376 000a 0F4B     		ldr	r3, .L62
 1377              	.LVL147:
 1378 000c D868     		ldr	r0, [r3, #12]
 1379              	.LVL148:
 1380 000e FFF7FEFF 		bl	srand
 1381              	.LVL149:
 119:Accelerometer.h ****     
 120:Accelerometer.h ****     if (combined_light >= 10) {
 1382              		.loc 6 120 0
 1383 0012 092C     		cmp	r4, #9
 1384 0014 04DD     		ble	.L60
 121:Accelerometer.h ****         *accX = *accY = *accZ = 0;
 1385              		.loc 6 121 0
 1386 0016 0023     		movs	r3, #0
 1387 0018 2B80     		strh	r3, [r5]
 1388 001a 3380     		strh	r3, [r6]
 1389 001c 3B80     		strh	r3, [r7]
 122:Accelerometer.h ****         return;
 1390              		.loc 6 122 0
 1391 001e 11E0     		b	.L59
 1392              	.L60:
 123:Accelerometer.h ****     }
 124:Accelerometer.h **** 
 125:Accelerometer.h ****     *accX = rand() % 20;
 1393              		.loc 6 125 0
 1394 0020 FFF7FEFF 		bl	rand
 1395              	.LVL150:
 1396 0024 1421     		movs	r1, #20
 1397 0026 FFF7FEFF 		bl	__aeabi_idivmod
 1398              	.LVL151:
 1399 002a 3980     		strh	r1, [r7]
 126:Accelerometer.h ****     *accY = rand() % 20;
 1400              		.loc 6 126 0
 1401 002c FFF7FEFF 		bl	rand
 1402              	.LVL152:
 1403 0030 1421     		movs	r1, #20
 1404 0032 FFF7FEFF 		bl	__aeabi_idivmod
 1405              	.LVL153:
 1406 0036 3180     		strh	r1, [r6]
 127:Accelerometer.h ****     *accZ = rand() % 20;
 1407              		.loc 6 127 0
 1408 0038 FFF7FEFF 		bl	rand
 1409              	.LVL154:
 1410 003c 1421     		movs	r1, #20
ARM GAS  C:\Users\ASUS\AppData\Local\Temp\ccj4BS4H.s 			page 51


 1411 003e FFF7FEFF 		bl	__aeabi_idivmod
 1412              	.LVL155:
 1413 0042 2980     		strh	r1, [r5]
 1414              	.L59:
 128:Accelerometer.h **** }
 1415              		.loc 6 128 0
 1416              		@ sp needed
 1417              	.LVL156:
 1418              	.LVL157:
 1419              	.LVL158:
 1420              	.LVL159:
 1421 0044 F8BD     		pop	{r3, r4, r5, r6, r7, pc}
 1422              	.L63:
 1423 0046 C046     		.align	2
 1424              	.L62:
 1425 0048 00000000 		.word	.LANCHOR0
 1426              		.cfi_endproc
 1427              	.LFE474:
 1428              		.size	accMeasure, .-accMeasure
 1429              		.section	.text.gyroMeasure,"ax",%progbits
 1430              		.align	2
 1431              		.global	gyroMeasure
 1432              		.code	16
 1433              		.thumb_func
 1434              		.type	gyroMeasure, %function
 1435              	gyroMeasure:
 1436              	.LFB475:
 129:Accelerometer.h **** 
 130:Accelerometer.h **** void gyroMeasure(uint16_t *gyroX, uint16_t *gyroY, uint16_t *gyroZ)
 131:Accelerometer.h **** {
 1437              		.loc 6 131 0
 1438              		.cfi_startproc
 1439              		@ args = 0, pretend = 0, frame = 0
 1440              		@ frame_needed = 0, uses_anonymous_args = 0
 1441              	.LVL160:
 1442 0000 70B5     		push	{r4, r5, r6, lr}
 1443              		.cfi_def_cfa_offset 16
 1444              		.cfi_offset 4, -16
 1445              		.cfi_offset 5, -12
 1446              		.cfi_offset 6, -8
 1447              		.cfi_offset 14, -4
 1448 0002 0600     		movs	r6, r0
 1449 0004 0D00     		movs	r5, r1
 1450 0006 1400     		movs	r4, r2
 132:Accelerometer.h ****     /* Read completed conversions */
 133:Accelerometer.h ****     *gyroX       = accI2CRead(XGYRO_H);
 1451              		.loc 6 133 0
 1452 0008 3320     		movs	r0, #51
 1453              	.LVL161:
 1454 000a FFF7FEFF 		bl	accI2CRead
 1455              	.LVL162:
 1456 000e 3080     		strh	r0, [r6]
 134:Accelerometer.h ****     *gyroY       = accI2CRead(YGYRO_H);
 1457              		.loc 6 134 0
 1458 0010 3520     		movs	r0, #53
 1459 0012 FFF7FEFF 		bl	accI2CRead
 1460              	.LVL163:
ARM GAS  C:\Users\ASUS\AppData\Local\Temp\ccj4BS4H.s 			page 52


 1461 0016 2880     		strh	r0, [r5]
 135:Accelerometer.h ****     *gyroZ       = accI2CRead(ZGYRO_H);
 1462              		.loc 6 135 0
 1463 0018 3720     		movs	r0, #55
 1464 001a FFF7FEFF 		bl	accI2CRead
 1465              	.LVL164:
 1466 001e 2080     		strh	r0, [r4]
 136:Accelerometer.h **** }
 1467              		.loc 6 136 0
 1468              		@ sp needed
 1469              	.LVL165:
 1470              	.LVL166:
 1471              	.LVL167:
 1472 0020 70BD     		pop	{r4, r5, r6, pc}
 1473              		.cfi_endproc
 1474              	.LFE475:
 1475              		.size	gyroMeasure, .-gyroMeasure
 1476 0022 C046     		.section	.text.accPrint,"ax",%progbits
 1477              		.align	2
 1478              		.global	accPrint
 1479              		.code	16
 1480              		.thumb_func
 1481              		.type	accPrint, %function
 1482              	accPrint:
 1483              	.LFB476:
 137:Accelerometer.h **** 
 138:Accelerometer.h **** void accPrint(uint16_t x, uint16_t y, uint16_t z)
 139:Accelerometer.h **** {
 1484              		.loc 6 139 0
 1485              		.cfi_startproc
 1486              		@ args = 0, pretend = 0, frame = 0
 1487              		@ frame_needed = 0, uses_anonymous_args = 0
 1488              	.LVL168:
 1489 0000 10B5     		push	{r4, lr}
 1490              		.cfi_def_cfa_offset 8
 1491              		.cfi_offset 4, -8
 1492              		.cfi_offset 14, -4
 1493 0002 1300     		movs	r3, r2
 140:Accelerometer.h ****     printf("\r\n\r\nAccelerometer Data:\r\n"
 1494              		.loc 6 140 0
 1495 0004 0A00     		movs	r2, r1
 1496              	.LVL169:
 1497 0006 0100     		movs	r1, r0
 1498              	.LVL170:
 1499 0008 0148     		ldr	r0, .L66
 1500              	.LVL171:
 1501 000a FFF7FEFF 		bl	printf
 1502              	.LVL172:
 141:Accelerometer.h ****         "X Acceleration: %d\r\n"
 142:Accelerometer.h ****         "Y Acceleration: %d\r\n"
 143:Accelerometer.h ****         "Z Acceleration: %d\r\n", x, y, z);
 144:Accelerometer.h **** }
 1503              		.loc 6 144 0
 1504              		@ sp needed
 1505 000e 10BD     		pop	{r4, pc}
 1506              	.L67:
 1507              		.align	2
ARM GAS  C:\Users\ASUS\AppData\Local\Temp\ccj4BS4H.s 			page 53


 1508              	.L66:
 1509 0010 58010000 		.word	.LC26
 1510              		.cfi_endproc
 1511              	.LFE476:
 1512              		.size	accPrint, .-accPrint
 1513              		.section	.text.gyroPrint,"ax",%progbits
 1514              		.align	2
 1515              		.global	gyroPrint
 1516              		.code	16
 1517              		.thumb_func
 1518              		.type	gyroPrint, %function
 1519              	gyroPrint:
 1520              	.LFB477:
 145:Accelerometer.h **** 
 146:Accelerometer.h **** void gyroPrint(uint16_t x, uint16_t y, uint16_t z)
 147:Accelerometer.h **** {
 1521              		.loc 6 147 0
 1522              		.cfi_startproc
 1523              		@ args = 0, pretend = 0, frame = 0
 1524              		@ frame_needed = 0, uses_anonymous_args = 0
 1525              	.LVL173:
 1526 0000 10B5     		push	{r4, lr}
 1527              		.cfi_def_cfa_offset 8
 1528              		.cfi_offset 4, -8
 1529              		.cfi_offset 14, -4
 1530 0002 1300     		movs	r3, r2
 148:Accelerometer.h ****     printf("\r\n\r\nGyroscope Data:\r\n"
 1531              		.loc 6 148 0
 1532 0004 0A00     		movs	r2, r1
 1533              	.LVL174:
 1534 0006 0100     		movs	r1, r0
 1535              	.LVL175:
 1536 0008 0148     		ldr	r0, .L69
 1537              	.LVL176:
 1538 000a FFF7FEFF 		bl	printf
 1539              	.LVL177:
 149:Accelerometer.h ****         "X Gyroscope: %d\r\n"
 150:Accelerometer.h ****         "Y Gyroscope: %d\r\n"
 151:Accelerometer.h ****         "Z Gyroscope: %d\r\n", x, y, z);
 152:Accelerometer.h **** }
 1540              		.loc 6 152 0
 1541              		@ sp needed
 1542 000e 10BD     		pop	{r4, pc}
 1543              	.L70:
 1544              		.align	2
 1545              	.L69:
 1546 0010 B0010000 		.word	.LC28
 1547              		.cfi_endproc
 1548              	.LFE477:
 1549              		.size	gyroPrint, .-gyroPrint
 1550              		.section	.text.acc_process_data,"ax",%progbits
 1551              		.align	2
 1552              		.global	acc_process_data
 1553              		.code	16
 1554              		.thumb_func
 1555              		.type	acc_process_data, %function
 1556              	acc_process_data:
ARM GAS  C:\Users\ASUS\AppData\Local\Temp\ccj4BS4H.s 			page 54


 1557              	.LFB478:
 153:Accelerometer.h **** 
 154:Accelerometer.h **** void acc_process_data(uint16_t accX, uint16_t accY, uint16_t accZ, queue_t aq)
 155:Accelerometer.h **** {
 1558              		.loc 6 155 0
 1559              		.cfi_startproc
 1560              		@ args = 0, pretend = 0, frame = 8
 1561              		@ frame_needed = 0, uses_anonymous_args = 0
 1562              	.LVL178:
 1563 0000 30B5     		push	{r4, r5, lr}
 1564              		.cfi_def_cfa_offset 12
 1565              		.cfi_offset 4, -12
 1566              		.cfi_offset 5, -8
 1567              		.cfi_offset 14, -4
 1568 0002 83B0     		sub	sp, sp, #12
 1569              		.cfi_def_cfa_offset 24
 1570 0004 1C00     		movs	r4, r3
 1571 0006 6B46     		mov	r3, sp
 1572              	.LVL179:
 1573 0008 D880     		strh	r0, [r3, #6]
 1574 000a 01AB     		add	r3, sp, #4
 1575 000c 1980     		strh	r1, [r3]
 1576 000e 6B46     		mov	r3, sp
 1577 0010 5A80     		strh	r2, [r3, #2]
 1578              	.LVL180:
 156:Accelerometer.h **** 	int inactive_count = 0;
 157:Accelerometer.h **** 	int is_cow_moving = accX >= ACC_CUTOFF || accY >= ACC_CUTOFF || accZ >=
 1579              		.loc 6 157 0
 1580 0012 0928     		cmp	r0, #9
 1581 0014 07D8     		bhi	.L78
 1582              		.loc 6 157 0 is_stmt 0 discriminator 2
 1583 0016 8BB2     		uxth	r3, r1
 1584 0018 092B     		cmp	r3, #9
 1585 001a 06D8     		bhi	.L79
 1586              		.loc 6 157 0 discriminator 4
 1587 001c 93B2     		uxth	r3, r2
 1588 001e 092B     		cmp	r3, #9
 1589 0020 05D9     		bls	.L80
 1590              		.loc 6 157 0
 1591 0022 0123     		movs	r3, #1
 1592 0024 04E0     		b	.L72
 1593              	.L78:
 1594 0026 0123     		movs	r3, #1
 1595 0028 02E0     		b	.L72
 1596              	.L79:
 1597 002a 0123     		movs	r3, #1
 1598 002c 00E0     		b	.L72
 1599              	.L80:
 1600 002e 0023     		movs	r3, #0
 1601              	.L72:
 1602              	.LVL181:
 158:Accelerometer.h **** 		ACC_CUTOFF;
 159:Accelerometer.h **** 	if (!is_cow_moving)
 1603              		.loc 6 159 0 is_stmt 1 discriminator 8
 1604 0030 002B     		cmp	r3, #0
 1605 0032 01D1     		bne	.L81
 160:Accelerometer.h **** 		inactive_count++;
ARM GAS  C:\Users\ASUS\AppData\Local\Temp\ccj4BS4H.s 			page 55


 1606              		.loc 6 160 0
 1607 0034 0125     		movs	r5, #1
 1608 0036 00E0     		b	.L73
 1609              	.L81:
 161:Accelerometer.h **** 	else
 162:Accelerometer.h **** 		inactive_count = 0;
 1610              		.loc 6 162 0
 1611 0038 0025     		movs	r5, #0
 1612              	.L73:
 1613              	.LVL182:
 163:Accelerometer.h **** 
 164:Accelerometer.h **** 	if (queue_enqueue(aq, &accX) != 0)
 1614              		.loc 6 164 0
 1615 003a 6B46     		mov	r3, sp
 1616              	.LVL183:
 1617 003c 991D     		adds	r1, r3, #6
 1618              	.LVL184:
 1619 003e 2000     		movs	r0, r4
 1620              	.LVL185:
 1621 0040 FFF7FEFF 		bl	queue_enqueue
 1622              	.LVL186:
 1623 0044 0028     		cmp	r0, #0
 1624 0046 02D0     		beq	.L74
 165:Accelerometer.h **** 		printf("Failed to queue accelerometer data.\r\n");
 1625              		.loc 6 165 0
 1626 0048 0E48     		ldr	r0, .L82
 1627 004a FFF7FEFF 		bl	puts
 1628              	.LVL187:
 1629              	.L74:
 166:Accelerometer.h **** 	if (queue_enqueue(aq, &accY) != 0)
 1630              		.loc 6 166 0
 1631 004e 01A9     		add	r1, sp, #4
 1632              	.LVL188:
 1633 0050 2000     		movs	r0, r4
 1634 0052 FFF7FEFF 		bl	queue_enqueue
 1635              	.LVL189:
 1636 0056 0028     		cmp	r0, #0
 1637 0058 02D0     		beq	.L75
 167:Accelerometer.h **** 		printf("Failed to queue accelerometer data.\r\n");
 1638              		.loc 6 167 0
 1639 005a 0A48     		ldr	r0, .L82
 1640 005c FFF7FEFF 		bl	puts
 1641              	.LVL190:
 1642              	.L75:
 168:Accelerometer.h **** 	if (queue_enqueue(aq, &accZ) != 0)
 1643              		.loc 6 168 0
 1644 0060 6B46     		mov	r3, sp
 1645 0062 991C     		adds	r1, r3, #2
 1646              	.LVL191:
 1647 0064 2000     		movs	r0, r4
 1648 0066 FFF7FEFF 		bl	queue_enqueue
 1649              	.LVL192:
 1650 006a 0028     		cmp	r0, #0
 1651 006c 02D0     		beq	.L76
 169:Accelerometer.h **** 		printf("Failed to queue accelerometer data.\r\n");
 1652              		.loc 6 169 0
 1653 006e 0548     		ldr	r0, .L82
ARM GAS  C:\Users\ASUS\AppData\Local\Temp\ccj4BS4H.s 			page 56


 1654 0070 FFF7FEFF 		bl	puts
 1655              	.LVL193:
 1656              	.L76:
 170:Accelerometer.h **** 
 171:Accelerometer.h **** 	accInactive = inactive_count >= CRIT_INACTIVITY;
 1657              		.loc 6 171 0
 1658 0074 0123     		movs	r3, #1
 1659 0076 0B2D     		cmp	r5, #11
 1660 0078 00DC     		bgt	.L77
 1661 007a 0023     		movs	r3, #0
 1662              	.L77:
 1663 007c 024A     		ldr	r2, .L82+4
 1664 007e 1361     		str	r3, [r2, #16]
 172:Accelerometer.h **** }
 1665              		.loc 6 172 0
 1666 0080 03B0     		add	sp, sp, #12
 1667              	.LVL194:
 1668              		@ sp needed
 1669              	.LVL195:
 1670              	.LVL196:
 1671 0082 30BD     		pop	{r4, r5, pc}
 1672              	.L83:
 1673              		.align	2
 1674              	.L82:
 1675 0084 FC010000 		.word	.LC30
 1676 0088 00000000 		.word	.LANCHOR0
 1677              		.cfi_endproc
 1678              	.LFE478:
 1679              		.size	acc_process_data, .-acc_process_data
 1680              		.section	.text.gyro_process_data,"ax",%progbits
 1681              		.align	2
 1682              		.global	gyro_process_data
 1683              		.code	16
 1684              		.thumb_func
 1685              		.type	gyro_process_data, %function
 1686              	gyro_process_data:
 1687              	.LFB479:
 173:Accelerometer.h **** 
 174:Accelerometer.h **** void gyro_process_data(uint16_t gyroX, uint16_t gyroY, uint16_t gyroZ, queue_t gq)
 175:Accelerometer.h **** {
 1688              		.loc 6 175 0
 1689              		.cfi_startproc
 1690              		@ args = 0, pretend = 0, frame = 8
 1691              		@ frame_needed = 0, uses_anonymous_args = 0
 1692              	.LVL197:
 1693 0000 10B5     		push	{r4, lr}
 1694              		.cfi_def_cfa_offset 8
 1695              		.cfi_offset 4, -8
 1696              		.cfi_offset 14, -4
 1697 0002 82B0     		sub	sp, sp, #8
 1698              		.cfi_def_cfa_offset 16
 1699 0004 1C00     		movs	r4, r3
 1700 0006 6B46     		mov	r3, sp
 1701              	.LVL198:
 1702 0008 D880     		strh	r0, [r3, #6]
 1703 000a 01AB     		add	r3, sp, #4
 1704 000c 1980     		strh	r1, [r3]
ARM GAS  C:\Users\ASUS\AppData\Local\Temp\ccj4BS4H.s 			page 57


 1705 000e 6B46     		mov	r3, sp
 1706 0010 5A80     		strh	r2, [r3, #2]
 176:Accelerometer.h **** 	if (!prev_gX && !prev_gY && !prev_gZ) {
 1707              		.loc 6 176 0
 1708 0012 204B     		ldr	r3, .L90
 1709 0014 5B69     		ldr	r3, [r3, #20]
 1710 0016 002B     		cmp	r3, #0
 1711 0018 11D1     		bne	.L85
 1712              		.loc 6 176 0 is_stmt 0 discriminator 1
 1713 001a 1E4B     		ldr	r3, .L90
 1714 001c 9B69     		ldr	r3, [r3, #24]
 1715 001e 002B     		cmp	r3, #0
 1716 0020 0DD1     		bne	.L85
 1717              		.loc 6 176 0 discriminator 2
 1718 0022 1C4B     		ldr	r3, .L90
 1719 0024 DB69     		ldr	r3, [r3, #28]
 1720 0026 002B     		cmp	r3, #0
 1721 0028 09D1     		bne	.L85
 177:Accelerometer.h **** 		prev_gX = gyroX;
 1722              		.loc 6 177 0 is_stmt 1
 1723 002a 1A4B     		ldr	r3, .L90
 1724 002c 82B2     		uxth	r2, r0
 1725              	.LVL199:
 1726 002e 5A61     		str	r2, [r3, #20]
 178:Accelerometer.h **** 		prev_gY = gyroY;
 1727              		.loc 6 178 0
 1728 0030 8AB2     		uxth	r2, r1
 1729 0032 9A61     		str	r2, [r3, #24]
 179:Accelerometer.h **** 		prev_gZ = gyroZ;
 1730              		.loc 6 179 0
 1731 0034 6A46     		mov	r2, sp
 1732 0036 0232     		adds	r2, r2, #2
 1733              	.LVL200:
 1734 0038 1288     		ldrh	r2, [r2]
 1735              	.LVL201:
 1736 003a DA61     		str	r2, [r3, #28]
 180:Accelerometer.h **** 		return;
 1737              		.loc 6 180 0
 1738 003c 28E0     		b	.L84
 1739              	.LVL202:
 1740              	.L85:
 181:Accelerometer.h **** 	}
 182:Accelerometer.h **** 
 183:Accelerometer.h **** 	if (queue_enqueue(gq, &gyroX) != 0)
 1741              		.loc 6 183 0
 1742 003e 6B46     		mov	r3, sp
 1743 0040 991D     		adds	r1, r3, #6
 1744              	.LVL203:
 1745 0042 2000     		movs	r0, r4
 1746              	.LVL204:
 1747 0044 FFF7FEFF 		bl	queue_enqueue
 1748              	.LVL205:
 1749 0048 0028     		cmp	r0, #0
 1750 004a 02D0     		beq	.L87
 184:Accelerometer.h **** 		printf("Failed to queue gyroscope data.\r\n");
 1751              		.loc 6 184 0
 1752 004c 1248     		ldr	r0, .L90+4
ARM GAS  C:\Users\ASUS\AppData\Local\Temp\ccj4BS4H.s 			page 58


 1753 004e FFF7FEFF 		bl	puts
 1754              	.LVL206:
 1755              	.L87:
 185:Accelerometer.h **** 	if (queue_enqueue(gq, &gyroY) != 0)
 1756              		.loc 6 185 0
 1757 0052 01A9     		add	r1, sp, #4
 1758              	.LVL207:
 1759 0054 2000     		movs	r0, r4
 1760 0056 FFF7FEFF 		bl	queue_enqueue
 1761              	.LVL208:
 1762 005a 0028     		cmp	r0, #0
 1763 005c 02D0     		beq	.L88
 186:Accelerometer.h **** 		printf("Failed to queue gyroscope data.\r\n");
 1764              		.loc 6 186 0
 1765 005e 0E48     		ldr	r0, .L90+4
 1766 0060 FFF7FEFF 		bl	puts
 1767              	.LVL209:
 1768              	.L88:
 187:Accelerometer.h **** 	if (queue_enqueue(gq, &gyroZ) != 0)
 1769              		.loc 6 187 0
 1770 0064 6B46     		mov	r3, sp
 1771 0066 991C     		adds	r1, r3, #2
 1772              	.LVL210:
 1773 0068 2000     		movs	r0, r4
 1774 006a FFF7FEFF 		bl	queue_enqueue
 1775              	.LVL211:
 1776 006e 0028     		cmp	r0, #0
 1777 0070 02D0     		beq	.L89
 188:Accelerometer.h **** 		printf("Failed to queue gyroscope data.\r\n");
 1778              		.loc 6 188 0
 1779 0072 0948     		ldr	r0, .L90+4
 1780 0074 FFF7FEFF 		bl	puts
 1781              	.LVL212:
 1782              	.L89:
 189:Accelerometer.h **** 
 190:Accelerometer.h **** 	prev_gX = gyroX;
 1783              		.loc 6 190 0
 1784 0078 064B     		ldr	r3, .L90
 1785 007a 6A46     		mov	r2, sp
 1786 007c 0632     		adds	r2, r2, #6
 1787              	.LVL213:
 1788 007e 1288     		ldrh	r2, [r2]
 1789              	.LVL214:
 1790 0080 5A61     		str	r2, [r3, #20]
 191:Accelerometer.h **** 	prev_gY = gyroY;
 1791              		.loc 6 191 0
 1792 0082 01AA     		add	r2, sp, #4
 1793              	.LVL215:
 1794 0084 1288     		ldrh	r2, [r2]
 1795              	.LVL216:
 1796 0086 9A61     		str	r2, [r3, #24]
 192:Accelerometer.h **** 	prev_gZ = gyroZ;
 1797              		.loc 6 192 0
 1798 0088 6A46     		mov	r2, sp
 1799 008a 0232     		adds	r2, r2, #2
 1800              	.LVL217:
 1801 008c 1288     		ldrh	r2, [r2]
ARM GAS  C:\Users\ASUS\AppData\Local\Temp\ccj4BS4H.s 			page 59


 1802              	.LVL218:
 1803 008e DA61     		str	r2, [r3, #28]
 1804              	.L84:
 193:Accelerometer.h **** }
 1805              		.loc 6 193 0
 1806 0090 02B0     		add	sp, sp, #8
 1807              	.LVL219:
 1808              		@ sp needed
 1809              	.LVL220:
 1810 0092 10BD     		pop	{r4, pc}
 1811              	.L91:
 1812              		.align	2
 1813              	.L90:
 1814 0094 00000000 		.word	.LANCHOR0
 1815 0098 24020000 		.word	.LC34
 1816              		.cfi_endproc
 1817              	.LFE479:
 1818              		.size	gyro_process_data, .-gyro_process_data
 1819              		.section	.text.RtcInit,"ax",%progbits
 1820              		.align	2
 1821              		.global	RtcInit
 1822              		.code	16
 1823              		.thumb_func
 1824              		.type	RtcInit, %function
 1825              	RtcInit:
 1826              	.LFB481:
 143:RTC_Alarm.h   ****     uint32_t attempts = MAX_ATTEMPTS;
 1827              		.loc 1 143 0
 1828              		.cfi_startproc
 1829              		@ args = 0, pretend = 0, frame = 0
 1830              		@ frame_needed = 0, uses_anonymous_args = 0
 1831 0000 70B5     		push	{r4, r5, r6, lr}
 1832              		.cfi_def_cfa_offset 16
 1833              		.cfi_offset 4, -16
 1834              		.cfi_offset 5, -12
 1835              		.cfi_offset 6, -8
 1836              		.cfi_offset 14, -4
 1837              	.LVL221:
 144:RTC_Alarm.h   ****     cy_en_rtc_status_t result;
 1838              		.loc 1 144 0
 1839 0002 FA24     		movs	r4, #250
 1840 0004 6400     		lsls	r4, r4, #1
 1841              	.LVL222:
 1842              	.L94:
 151:RTC_Alarm.h   ****         attempts--;
 1843              		.loc 1 151 0 discriminator 2
 1844 0006 0748     		ldr	r0, .L95
 1845 0008 FFF7FEFF 		bl	Cy_RTC_Init
 1846              	.LVL223:
 1847 000c 0500     		movs	r5, r0
 1848              	.LVL224:
 152:RTC_Alarm.h   ****         
 1849              		.loc 1 152 0 discriminator 2
 1850 000e 013C     		subs	r4, r4, #1
 1851              	.LVL225:
 154:RTC_Alarm.h   ****     } while(( result != CY_RTC_SUCCESS) && (attempts != 0u));
 1852              		.loc 1 154 0 discriminator 2
ARM GAS  C:\Users\ASUS\AppData\Local\Temp\ccj4BS4H.s 			page 60


 1853 0010 0520     		movs	r0, #5
 1854              	.LVL226:
 1855 0012 FFF7FEFF 		bl	Cy_SysLib_Delay
 1856              	.LVL227:
 155:RTC_Alarm.h   ****     
 1857              		.loc 1 155 0 discriminator 2
 1858 0016 002D     		cmp	r5, #0
 1859 0018 01D0     		beq	.L93
 155:RTC_Alarm.h   ****     
 1860              		.loc 1 155 0 is_stmt 0 discriminator 1
 1861 001a 002C     		cmp	r4, #0
 1862 001c F3D1     		bne	.L94
 1863              	.L93:
 158:RTC_Alarm.h   **** 
 1864              		.loc 1 158 0 is_stmt 1
 1865 001e 2800     		movs	r0, r5
 1866              		@ sp needed
 1867              	.LVL228:
 1868              	.LVL229:
 1869 0020 70BD     		pop	{r4, r5, r6, pc}
 1870              	.L96:
 1871 0022 C046     		.align	2
 1872              	.L95:
 1873 0024 00000000 		.word	RTC_config
 1874              		.cfi_endproc
 1875              	.LFE481:
 1876              		.size	RtcInit, .-RtcInit
 1877              		.section	.text.RtcAlarmConfig,"ax",%progbits
 1878              		.align	2
 1879              		.global	RtcAlarmConfig
 1880              		.code	16
 1881              		.thumb_func
 1882              		.type	RtcAlarmConfig, %function
 1883              	RtcAlarmConfig:
 1884              	.LFB482:
 179:RTC_Alarm.h   ****     uint32_t attempts = MAX_ATTEMPTS;
 1885              		.loc 1 179 0
 1886              		.cfi_startproc
 1887              		@ args = 0, pretend = 0, frame = 0
 1888              		@ frame_needed = 0, uses_anonymous_args = 0
 1889 0000 70B5     		push	{r4, r5, r6, lr}
 1890              		.cfi_def_cfa_offset 16
 1891              		.cfi_offset 4, -16
 1892              		.cfi_offset 5, -12
 1893              		.cfi_offset 6, -8
 1894              		.cfi_offset 14, -4
 1895              	.LVL230:
 180:RTC_Alarm.h   ****     cy_en_rtc_status_t result;
 1896              		.loc 1 180 0
 1897 0002 FA24     		movs	r4, #250
 1898 0004 6400     		lsls	r4, r4, #1
 1899              	.LVL231:
 1900              	.L99:
 189:RTC_Alarm.h   **** 					*)&alarmConfig, CY_RTC_ALARM_2);
 1901              		.loc 1 189 0 discriminator 2
 1902 0006 0121     		movs	r1, #1
 1903 0008 0648     		ldr	r0, .L100
ARM GAS  C:\Users\ASUS\AppData\Local\Temp\ccj4BS4H.s 			page 61


 1904 000a FFF7FEFF 		bl	Cy_RTC_SetAlarmDateAndTime
 1905              	.LVL232:
 1906 000e 0500     		movs	r5, r0
 1907              	.LVL233:
 191:RTC_Alarm.h   ****         
 1908              		.loc 1 191 0 discriminator 2
 1909 0010 013C     		subs	r4, r4, #1
 1910              	.LVL234:
 193:RTC_Alarm.h   ****     } while(( result != CY_RTC_SUCCESS) && (attempts != 0u));
 1911              		.loc 1 193 0 discriminator 2
 1912 0012 0520     		movs	r0, #5
 1913              	.LVL235:
 1914 0014 FFF7FEFF 		bl	Cy_SysLib_Delay
 1915              	.LVL236:
 194:RTC_Alarm.h   ****     
 1916              		.loc 1 194 0 discriminator 2
 1917 0018 002D     		cmp	r5, #0
 1918 001a 01D0     		beq	.L98
 194:RTC_Alarm.h   ****     
 1919              		.loc 1 194 0 is_stmt 0 discriminator 1
 1920 001c 002C     		cmp	r4, #0
 1921 001e F2D1     		bne	.L99
 1922              	.L98:
 197:RTC_Alarm.h   **** 
 1923              		.loc 1 197 0 is_stmt 1
 1924 0020 2800     		movs	r0, r5
 1925              		@ sp needed
 1926              	.LVL237:
 1927              	.LVL238:
 1928 0022 70BD     		pop	{r4, r5, r6, pc}
 1929              	.L101:
 1930              		.align	2
 1931              	.L100:
 1932 0024 00000000 		.word	.LANCHOR1
 1933              		.cfi_endproc
 1934              	.LFE482:
 1935              		.size	RtcAlarmConfig, .-RtcAlarmConfig
 1936              		.section	.text.init_RTC,"ax",%progbits
 1937              		.align	2
 1938              		.global	init_RTC
 1939              		.code	16
 1940              		.thumb_func
 1941              		.type	init_RTC, %function
 1942              	init_RTC:
 1943              	.LFB480:
  87:RTC_Alarm.h   ****     /* Init RTC - Configure the time and date */
 1944              		.loc 1 87 0
 1945              		.cfi_startproc
 1946              		@ args = 0, pretend = 0, frame = 0
 1947              		@ frame_needed = 0, uses_anonymous_args = 0
 1948 0000 10B5     		push	{r4, lr}
 1949              		.cfi_def_cfa_offset 8
 1950              		.cfi_offset 4, -8
 1951              		.cfi_offset 14, -4
  89:RTC_Alarm.h   ****     {
 1952              		.loc 1 89 0
 1953 0002 FFF7FEFF 		bl	RtcInit
ARM GAS  C:\Users\ASUS\AppData\Local\Temp\ccj4BS4H.s 			page 62


 1954              	.LVL239:
 1955 0006 0028     		cmp	r0, #0
 1956 0008 04D0     		beq	.L103
  92:RTC_Alarm.h   ****     }
 1957              		.loc 1 92 0 discriminator 1
 1958 000a 5C21     		movs	r1, #92
 1959 000c 0F48     		ldr	r0, .L107
 1960 000e FFF7FEFF 		bl	Cy_SysLib_AssertFailed
 1961              	.LVL240:
 1962 0012 0BE0     		b	.L104
 1963              	.L103:
 108:RTC_Alarm.h   ****         {
 1964              		.loc 1 108 0
 1965 0014 FFF7FEFF 		bl	RtcAlarmConfig
 1966              	.LVL241:
 1967 0018 0028     		cmp	r0, #0
 1968 001a 04D0     		beq	.L105
 111:RTC_Alarm.h   ****         }
 1969              		.loc 1 111 0 discriminator 1
 1970 001c 6F21     		movs	r1, #111
 1971 001e 0B48     		ldr	r0, .L107
 1972 0020 FFF7FEFF 		bl	Cy_SysLib_AssertFailed
 1973              	.LVL242:
 1974 0024 02E0     		b	.L104
 1975              	.L105:
 116:RTC_Alarm.h   ****         }
 1976              		.loc 1 116 0
 1977 0026 0220     		movs	r0, #2
 1978 0028 FFF7FEFF 		bl	Cy_RTC_SetInterruptMask
 1979              	.LVL243:
 1980              	.L104:
 121:RTC_Alarm.h   ****     NVIC_EnableIRQ(RTC_RTC_IRQ_cfg.intrSrc);
 1981              		.loc 1 121 0
 1982 002c 084C     		ldr	r4, .L107+4
 1983 002e 0949     		ldr	r1, .L107+8
 1984 0030 2000     		movs	r0, r4
 1985 0032 FFF7FEFF 		bl	Cy_SysInt_Init
 1986              	.LVL244:
 122:RTC_Alarm.h   **** }
 1987              		.loc 1 122 0
 1988 0036 0023     		movs	r3, #0
 1989 0038 E25E     		ldrsh	r2, [r4, r3]
 1990              	.LVL245:
 1991              	.LBB90:
 1992              	.LBB91:
 1993              		.file 7 "Generated_Source\\PSoC6\\pdl\\cmsis/include/core_cm0plus.h"
   1:Generated_Source\PSoC6\pdl\cmsis/include/core_cm0plus.h **** /**************************************************************************//**
   2:Generated_Source\PSoC6\pdl\cmsis/include/core_cm0plus.h ****  * @file     core_cm0plus.h
   3:Generated_Source\PSoC6\pdl\cmsis/include/core_cm0plus.h ****  * @brief    CMSIS Cortex-M0+ Core Peripheral Access Layer Header File
   4:Generated_Source\PSoC6\pdl\cmsis/include/core_cm0plus.h ****  * @version  V5.0.4
   5:Generated_Source\PSoC6\pdl\cmsis/include/core_cm0plus.h ****  * @date     10. January 2018
   6:Generated_Source\PSoC6\pdl\cmsis/include/core_cm0plus.h ****  ******************************************************************************/
   7:Generated_Source\PSoC6\pdl\cmsis/include/core_cm0plus.h **** /*
   8:Generated_Source\PSoC6\pdl\cmsis/include/core_cm0plus.h ****  * Copyright (c) 2009-2018 Arm Limited. All rights reserved.
   9:Generated_Source\PSoC6\pdl\cmsis/include/core_cm0plus.h ****  *
  10:Generated_Source\PSoC6\pdl\cmsis/include/core_cm0plus.h ****  * SPDX-License-Identifier: Apache-2.0
  11:Generated_Source\PSoC6\pdl\cmsis/include/core_cm0plus.h ****  *
ARM GAS  C:\Users\ASUS\AppData\Local\Temp\ccj4BS4H.s 			page 63


  12:Generated_Source\PSoC6\pdl\cmsis/include/core_cm0plus.h ****  * Licensed under the Apache License, Version 2.0 (the License); you may
  13:Generated_Source\PSoC6\pdl\cmsis/include/core_cm0plus.h ****  * not use this file except in compliance with the License.
  14:Generated_Source\PSoC6\pdl\cmsis/include/core_cm0plus.h ****  * You may obtain a copy of the License at
  15:Generated_Source\PSoC6\pdl\cmsis/include/core_cm0plus.h ****  *
  16:Generated_Source\PSoC6\pdl\cmsis/include/core_cm0plus.h ****  * www.apache.org/licenses/LICENSE-2.0
  17:Generated_Source\PSoC6\pdl\cmsis/include/core_cm0plus.h ****  *
  18:Generated_Source\PSoC6\pdl\cmsis/include/core_cm0plus.h ****  * Unless required by applicable law or agreed to in writing, software
  19:Generated_Source\PSoC6\pdl\cmsis/include/core_cm0plus.h ****  * distributed under the License is distributed on an AS IS BASIS, WITHOUT
  20:Generated_Source\PSoC6\pdl\cmsis/include/core_cm0plus.h ****  * WARRANTIES OR CONDITIONS OF ANY KIND, either express or implied.
  21:Generated_Source\PSoC6\pdl\cmsis/include/core_cm0plus.h ****  * See the License for the specific language governing permissions and
  22:Generated_Source\PSoC6\pdl\cmsis/include/core_cm0plus.h ****  * limitations under the License.
  23:Generated_Source\PSoC6\pdl\cmsis/include/core_cm0plus.h ****  */
  24:Generated_Source\PSoC6\pdl\cmsis/include/core_cm0plus.h **** 
  25:Generated_Source\PSoC6\pdl\cmsis/include/core_cm0plus.h **** #if   defined ( __ICCARM__ )
  26:Generated_Source\PSoC6\pdl\cmsis/include/core_cm0plus.h ****   #pragma system_include         /* treat file as system include file for MISRA check */
  27:Generated_Source\PSoC6\pdl\cmsis/include/core_cm0plus.h **** #elif defined (__clang__)
  28:Generated_Source\PSoC6\pdl\cmsis/include/core_cm0plus.h ****   #pragma clang system_header   /* treat file as system include file */
  29:Generated_Source\PSoC6\pdl\cmsis/include/core_cm0plus.h **** #endif
  30:Generated_Source\PSoC6\pdl\cmsis/include/core_cm0plus.h **** 
  31:Generated_Source\PSoC6\pdl\cmsis/include/core_cm0plus.h **** #ifndef __CORE_CM0PLUS_H_GENERIC
  32:Generated_Source\PSoC6\pdl\cmsis/include/core_cm0plus.h **** #define __CORE_CM0PLUS_H_GENERIC
  33:Generated_Source\PSoC6\pdl\cmsis/include/core_cm0plus.h **** 
  34:Generated_Source\PSoC6\pdl\cmsis/include/core_cm0plus.h **** #include <stdint.h>
  35:Generated_Source\PSoC6\pdl\cmsis/include/core_cm0plus.h **** 
  36:Generated_Source\PSoC6\pdl\cmsis/include/core_cm0plus.h **** #ifdef __cplusplus
  37:Generated_Source\PSoC6\pdl\cmsis/include/core_cm0plus.h ****  extern "C" {
  38:Generated_Source\PSoC6\pdl\cmsis/include/core_cm0plus.h **** #endif
  39:Generated_Source\PSoC6\pdl\cmsis/include/core_cm0plus.h **** 
  40:Generated_Source\PSoC6\pdl\cmsis/include/core_cm0plus.h **** /**
  41:Generated_Source\PSoC6\pdl\cmsis/include/core_cm0plus.h ****   \page CMSIS_MISRA_Exceptions  MISRA-C:2004 Compliance Exceptions
  42:Generated_Source\PSoC6\pdl\cmsis/include/core_cm0plus.h ****   CMSIS violates the following MISRA-C:2004 rules:
  43:Generated_Source\PSoC6\pdl\cmsis/include/core_cm0plus.h **** 
  44:Generated_Source\PSoC6\pdl\cmsis/include/core_cm0plus.h ****    \li Required Rule 8.5, object/function definition in header file.<br>
  45:Generated_Source\PSoC6\pdl\cmsis/include/core_cm0plus.h ****      Function definitions in header files are used to allow 'inlining'.
  46:Generated_Source\PSoC6\pdl\cmsis/include/core_cm0plus.h **** 
  47:Generated_Source\PSoC6\pdl\cmsis/include/core_cm0plus.h ****    \li Required Rule 18.4, declaration of union type or object of union type: '{...}'.<br>
  48:Generated_Source\PSoC6\pdl\cmsis/include/core_cm0plus.h ****      Unions are used for effective representation of core registers.
  49:Generated_Source\PSoC6\pdl\cmsis/include/core_cm0plus.h **** 
  50:Generated_Source\PSoC6\pdl\cmsis/include/core_cm0plus.h ****    \li Advisory Rule 19.7, Function-like macro defined.<br>
  51:Generated_Source\PSoC6\pdl\cmsis/include/core_cm0plus.h ****      Function-like macros are used to allow more efficient code.
  52:Generated_Source\PSoC6\pdl\cmsis/include/core_cm0plus.h ****  */
  53:Generated_Source\PSoC6\pdl\cmsis/include/core_cm0plus.h **** 
  54:Generated_Source\PSoC6\pdl\cmsis/include/core_cm0plus.h **** 
  55:Generated_Source\PSoC6\pdl\cmsis/include/core_cm0plus.h **** /*******************************************************************************
  56:Generated_Source\PSoC6\pdl\cmsis/include/core_cm0plus.h ****  *                 CMSIS definitions
  57:Generated_Source\PSoC6\pdl\cmsis/include/core_cm0plus.h ****  ******************************************************************************/
  58:Generated_Source\PSoC6\pdl\cmsis/include/core_cm0plus.h **** /**
  59:Generated_Source\PSoC6\pdl\cmsis/include/core_cm0plus.h ****   \ingroup Cortex-M0+
  60:Generated_Source\PSoC6\pdl\cmsis/include/core_cm0plus.h ****   @{
  61:Generated_Source\PSoC6\pdl\cmsis/include/core_cm0plus.h ****  */
  62:Generated_Source\PSoC6\pdl\cmsis/include/core_cm0plus.h **** 
  63:Generated_Source\PSoC6\pdl\cmsis/include/core_cm0plus.h **** #include "cmsis_version.h"
  64:Generated_Source\PSoC6\pdl\cmsis/include/core_cm0plus.h ****  
  65:Generated_Source\PSoC6\pdl\cmsis/include/core_cm0plus.h **** /*  CMSIS CM0+ definitions */
  66:Generated_Source\PSoC6\pdl\cmsis/include/core_cm0plus.h **** #define __CM0PLUS_CMSIS_VERSION_MAIN (__CM_CMSIS_VERSION_MAIN)                  /*!< \deprecated [3
  67:Generated_Source\PSoC6\pdl\cmsis/include/core_cm0plus.h **** #define __CM0PLUS_CMSIS_VERSION_SUB  (__CM_CMSIS_VERSION_SUB)                   /*!< \deprecated [1
  68:Generated_Source\PSoC6\pdl\cmsis/include/core_cm0plus.h **** #define __CM0PLUS_CMSIS_VERSION      ((__CM0PLUS_CMSIS_VERSION_MAIN << 16U) | \
ARM GAS  C:\Users\ASUS\AppData\Local\Temp\ccj4BS4H.s 			page 64


  69:Generated_Source\PSoC6\pdl\cmsis/include/core_cm0plus.h ****                                        __CM0PLUS_CMSIS_VERSION_SUB           )  /*!< \deprecated CM
  70:Generated_Source\PSoC6\pdl\cmsis/include/core_cm0plus.h **** 
  71:Generated_Source\PSoC6\pdl\cmsis/include/core_cm0plus.h **** #define __CORTEX_M                   (0U)                                       /*!< Cortex-M Core 
  72:Generated_Source\PSoC6\pdl\cmsis/include/core_cm0plus.h **** 
  73:Generated_Source\PSoC6\pdl\cmsis/include/core_cm0plus.h **** /** __FPU_USED indicates whether an FPU is used or not.
  74:Generated_Source\PSoC6\pdl\cmsis/include/core_cm0plus.h ****     This core does not support an FPU at all
  75:Generated_Source\PSoC6\pdl\cmsis/include/core_cm0plus.h **** */
  76:Generated_Source\PSoC6\pdl\cmsis/include/core_cm0plus.h **** #define __FPU_USED       0U
  77:Generated_Source\PSoC6\pdl\cmsis/include/core_cm0plus.h **** 
  78:Generated_Source\PSoC6\pdl\cmsis/include/core_cm0plus.h **** #if defined ( __CC_ARM )
  79:Generated_Source\PSoC6\pdl\cmsis/include/core_cm0plus.h ****   #if defined __TARGET_FPU_VFP
  80:Generated_Source\PSoC6\pdl\cmsis/include/core_cm0plus.h ****     #error "Compiler generates FPU instructions for a device without an FPU (check __FPU_PRESENT)"
  81:Generated_Source\PSoC6\pdl\cmsis/include/core_cm0plus.h ****   #endif
  82:Generated_Source\PSoC6\pdl\cmsis/include/core_cm0plus.h **** 
  83:Generated_Source\PSoC6\pdl\cmsis/include/core_cm0plus.h **** #elif defined (__ARMCC_VERSION) && (__ARMCC_VERSION >= 6010050)
  84:Generated_Source\PSoC6\pdl\cmsis/include/core_cm0plus.h ****   #if defined __ARM_PCS_VFP
  85:Generated_Source\PSoC6\pdl\cmsis/include/core_cm0plus.h ****     #error "Compiler generates FPU instructions for a device without an FPU (check __FPU_PRESENT)"
  86:Generated_Source\PSoC6\pdl\cmsis/include/core_cm0plus.h ****   #endif
  87:Generated_Source\PSoC6\pdl\cmsis/include/core_cm0plus.h **** 
  88:Generated_Source\PSoC6\pdl\cmsis/include/core_cm0plus.h **** #elif defined ( __GNUC__ )
  89:Generated_Source\PSoC6\pdl\cmsis/include/core_cm0plus.h ****   #if defined (__VFP_FP__) && !defined(__SOFTFP__)
  90:Generated_Source\PSoC6\pdl\cmsis/include/core_cm0plus.h ****     #error "Compiler generates FPU instructions for a device without an FPU (check __FPU_PRESENT)"
  91:Generated_Source\PSoC6\pdl\cmsis/include/core_cm0plus.h ****   #endif
  92:Generated_Source\PSoC6\pdl\cmsis/include/core_cm0plus.h **** 
  93:Generated_Source\PSoC6\pdl\cmsis/include/core_cm0plus.h **** #elif defined ( __ICCARM__ )
  94:Generated_Source\PSoC6\pdl\cmsis/include/core_cm0plus.h ****   #if defined __ARMVFP__
  95:Generated_Source\PSoC6\pdl\cmsis/include/core_cm0plus.h ****     #error "Compiler generates FPU instructions for a device without an FPU (check __FPU_PRESENT)"
  96:Generated_Source\PSoC6\pdl\cmsis/include/core_cm0plus.h ****   #endif
  97:Generated_Source\PSoC6\pdl\cmsis/include/core_cm0plus.h **** 
  98:Generated_Source\PSoC6\pdl\cmsis/include/core_cm0plus.h **** #elif defined ( __TI_ARM__ )
  99:Generated_Source\PSoC6\pdl\cmsis/include/core_cm0plus.h ****   #if defined __TI_VFP_SUPPORT__
 100:Generated_Source\PSoC6\pdl\cmsis/include/core_cm0plus.h ****     #error "Compiler generates FPU instructions for a device without an FPU (check __FPU_PRESENT)"
 101:Generated_Source\PSoC6\pdl\cmsis/include/core_cm0plus.h ****   #endif
 102:Generated_Source\PSoC6\pdl\cmsis/include/core_cm0plus.h **** 
 103:Generated_Source\PSoC6\pdl\cmsis/include/core_cm0plus.h **** #elif defined ( __TASKING__ )
 104:Generated_Source\PSoC6\pdl\cmsis/include/core_cm0plus.h ****   #if defined __FPU_VFP__
 105:Generated_Source\PSoC6\pdl\cmsis/include/core_cm0plus.h ****     #error "Compiler generates FPU instructions for a device without an FPU (check __FPU_PRESENT)"
 106:Generated_Source\PSoC6\pdl\cmsis/include/core_cm0plus.h ****   #endif
 107:Generated_Source\PSoC6\pdl\cmsis/include/core_cm0plus.h **** 
 108:Generated_Source\PSoC6\pdl\cmsis/include/core_cm0plus.h **** #elif defined ( __CSMC__ )
 109:Generated_Source\PSoC6\pdl\cmsis/include/core_cm0plus.h ****   #if ( __CSMC__ & 0x400U)
 110:Generated_Source\PSoC6\pdl\cmsis/include/core_cm0plus.h ****     #error "Compiler generates FPU instructions for a device without an FPU (check __FPU_PRESENT)"
 111:Generated_Source\PSoC6\pdl\cmsis/include/core_cm0plus.h ****   #endif
 112:Generated_Source\PSoC6\pdl\cmsis/include/core_cm0plus.h **** 
 113:Generated_Source\PSoC6\pdl\cmsis/include/core_cm0plus.h **** #endif
 114:Generated_Source\PSoC6\pdl\cmsis/include/core_cm0plus.h **** 
 115:Generated_Source\PSoC6\pdl\cmsis/include/core_cm0plus.h **** #include "cmsis_compiler.h"               /* CMSIS compiler specific defines */
 116:Generated_Source\PSoC6\pdl\cmsis/include/core_cm0plus.h **** 
 117:Generated_Source\PSoC6\pdl\cmsis/include/core_cm0plus.h **** 
 118:Generated_Source\PSoC6\pdl\cmsis/include/core_cm0plus.h **** #ifdef __cplusplus
 119:Generated_Source\PSoC6\pdl\cmsis/include/core_cm0plus.h **** }
 120:Generated_Source\PSoC6\pdl\cmsis/include/core_cm0plus.h **** #endif
 121:Generated_Source\PSoC6\pdl\cmsis/include/core_cm0plus.h **** 
 122:Generated_Source\PSoC6\pdl\cmsis/include/core_cm0plus.h **** #endif /* __CORE_CM0PLUS_H_GENERIC */
 123:Generated_Source\PSoC6\pdl\cmsis/include/core_cm0plus.h **** 
 124:Generated_Source\PSoC6\pdl\cmsis/include/core_cm0plus.h **** #ifndef __CMSIS_GENERIC
 125:Generated_Source\PSoC6\pdl\cmsis/include/core_cm0plus.h **** 
ARM GAS  C:\Users\ASUS\AppData\Local\Temp\ccj4BS4H.s 			page 65


 126:Generated_Source\PSoC6\pdl\cmsis/include/core_cm0plus.h **** #ifndef __CORE_CM0PLUS_H_DEPENDANT
 127:Generated_Source\PSoC6\pdl\cmsis/include/core_cm0plus.h **** #define __CORE_CM0PLUS_H_DEPENDANT
 128:Generated_Source\PSoC6\pdl\cmsis/include/core_cm0plus.h **** 
 129:Generated_Source\PSoC6\pdl\cmsis/include/core_cm0plus.h **** #ifdef __cplusplus
 130:Generated_Source\PSoC6\pdl\cmsis/include/core_cm0plus.h ****  extern "C" {
 131:Generated_Source\PSoC6\pdl\cmsis/include/core_cm0plus.h **** #endif
 132:Generated_Source\PSoC6\pdl\cmsis/include/core_cm0plus.h **** 
 133:Generated_Source\PSoC6\pdl\cmsis/include/core_cm0plus.h **** /* check device defines and use defaults */
 134:Generated_Source\PSoC6\pdl\cmsis/include/core_cm0plus.h **** #if defined __CHECK_DEVICE_DEFINES
 135:Generated_Source\PSoC6\pdl\cmsis/include/core_cm0plus.h ****   #ifndef __CM0PLUS_REV
 136:Generated_Source\PSoC6\pdl\cmsis/include/core_cm0plus.h ****     #define __CM0PLUS_REV             0x0000U
 137:Generated_Source\PSoC6\pdl\cmsis/include/core_cm0plus.h ****     #warning "__CM0PLUS_REV not defined in device header file; using default!"
 138:Generated_Source\PSoC6\pdl\cmsis/include/core_cm0plus.h ****   #endif
 139:Generated_Source\PSoC6\pdl\cmsis/include/core_cm0plus.h **** 
 140:Generated_Source\PSoC6\pdl\cmsis/include/core_cm0plus.h ****   #ifndef __MPU_PRESENT
 141:Generated_Source\PSoC6\pdl\cmsis/include/core_cm0plus.h ****     #define __MPU_PRESENT             0U
 142:Generated_Source\PSoC6\pdl\cmsis/include/core_cm0plus.h ****     #warning "__MPU_PRESENT not defined in device header file; using default!"
 143:Generated_Source\PSoC6\pdl\cmsis/include/core_cm0plus.h ****   #endif
 144:Generated_Source\PSoC6\pdl\cmsis/include/core_cm0plus.h **** 
 145:Generated_Source\PSoC6\pdl\cmsis/include/core_cm0plus.h ****   #ifndef __VTOR_PRESENT
 146:Generated_Source\PSoC6\pdl\cmsis/include/core_cm0plus.h ****     #define __VTOR_PRESENT            0U
 147:Generated_Source\PSoC6\pdl\cmsis/include/core_cm0plus.h ****     #warning "__VTOR_PRESENT not defined in device header file; using default!"
 148:Generated_Source\PSoC6\pdl\cmsis/include/core_cm0plus.h ****   #endif
 149:Generated_Source\PSoC6\pdl\cmsis/include/core_cm0plus.h **** 
 150:Generated_Source\PSoC6\pdl\cmsis/include/core_cm0plus.h ****   #ifndef __NVIC_PRIO_BITS
 151:Generated_Source\PSoC6\pdl\cmsis/include/core_cm0plus.h ****     #define __NVIC_PRIO_BITS          2U
 152:Generated_Source\PSoC6\pdl\cmsis/include/core_cm0plus.h ****     #warning "__NVIC_PRIO_BITS not defined in device header file; using default!"
 153:Generated_Source\PSoC6\pdl\cmsis/include/core_cm0plus.h ****   #endif
 154:Generated_Source\PSoC6\pdl\cmsis/include/core_cm0plus.h **** 
 155:Generated_Source\PSoC6\pdl\cmsis/include/core_cm0plus.h ****   #ifndef __Vendor_SysTickConfig
 156:Generated_Source\PSoC6\pdl\cmsis/include/core_cm0plus.h ****     #define __Vendor_SysTickConfig    0U
 157:Generated_Source\PSoC6\pdl\cmsis/include/core_cm0plus.h ****     #warning "__Vendor_SysTickConfig not defined in device header file; using default!"
 158:Generated_Source\PSoC6\pdl\cmsis/include/core_cm0plus.h ****   #endif
 159:Generated_Source\PSoC6\pdl\cmsis/include/core_cm0plus.h **** #endif
 160:Generated_Source\PSoC6\pdl\cmsis/include/core_cm0plus.h **** 
 161:Generated_Source\PSoC6\pdl\cmsis/include/core_cm0plus.h **** /* IO definitions (access restrictions to peripheral registers) */
 162:Generated_Source\PSoC6\pdl\cmsis/include/core_cm0plus.h **** /**
 163:Generated_Source\PSoC6\pdl\cmsis/include/core_cm0plus.h ****     \defgroup CMSIS_glob_defs CMSIS Global Defines
 164:Generated_Source\PSoC6\pdl\cmsis/include/core_cm0plus.h **** 
 165:Generated_Source\PSoC6\pdl\cmsis/include/core_cm0plus.h ****     <strong>IO Type Qualifiers</strong> are used
 166:Generated_Source\PSoC6\pdl\cmsis/include/core_cm0plus.h ****     \li to specify the access to peripheral variables.
 167:Generated_Source\PSoC6\pdl\cmsis/include/core_cm0plus.h ****     \li for automatic generation of peripheral register debug information.
 168:Generated_Source\PSoC6\pdl\cmsis/include/core_cm0plus.h **** */
 169:Generated_Source\PSoC6\pdl\cmsis/include/core_cm0plus.h **** #ifdef __cplusplus
 170:Generated_Source\PSoC6\pdl\cmsis/include/core_cm0plus.h ****   #define   __I     volatile             /*!< Defines 'read only' permissions */
 171:Generated_Source\PSoC6\pdl\cmsis/include/core_cm0plus.h **** #else
 172:Generated_Source\PSoC6\pdl\cmsis/include/core_cm0plus.h ****   #define   __I     volatile const       /*!< Defines 'read only' permissions */
 173:Generated_Source\PSoC6\pdl\cmsis/include/core_cm0plus.h **** #endif
 174:Generated_Source\PSoC6\pdl\cmsis/include/core_cm0plus.h **** #define     __O     volatile             /*!< Defines 'write only' permissions */
 175:Generated_Source\PSoC6\pdl\cmsis/include/core_cm0plus.h **** #define     __IO    volatile             /*!< Defines 'read / write' permissions */
 176:Generated_Source\PSoC6\pdl\cmsis/include/core_cm0plus.h **** 
 177:Generated_Source\PSoC6\pdl\cmsis/include/core_cm0plus.h **** /* following defines should be used for structure members */
 178:Generated_Source\PSoC6\pdl\cmsis/include/core_cm0plus.h **** #define     __IM     volatile const      /*! Defines 'read only' structure member permissions */
 179:Generated_Source\PSoC6\pdl\cmsis/include/core_cm0plus.h **** #define     __OM     volatile            /*! Defines 'write only' structure member permissions */
 180:Generated_Source\PSoC6\pdl\cmsis/include/core_cm0plus.h **** #define     __IOM    volatile            /*! Defines 'read / write' structure member permissions */
 181:Generated_Source\PSoC6\pdl\cmsis/include/core_cm0plus.h **** 
 182:Generated_Source\PSoC6\pdl\cmsis/include/core_cm0plus.h **** /*@} end of group Cortex-M0+ */
ARM GAS  C:\Users\ASUS\AppData\Local\Temp\ccj4BS4H.s 			page 66


 183:Generated_Source\PSoC6\pdl\cmsis/include/core_cm0plus.h **** 
 184:Generated_Source\PSoC6\pdl\cmsis/include/core_cm0plus.h **** 
 185:Generated_Source\PSoC6\pdl\cmsis/include/core_cm0plus.h **** 
 186:Generated_Source\PSoC6\pdl\cmsis/include/core_cm0plus.h **** /*******************************************************************************
 187:Generated_Source\PSoC6\pdl\cmsis/include/core_cm0plus.h ****  *                 Register Abstraction
 188:Generated_Source\PSoC6\pdl\cmsis/include/core_cm0plus.h ****   Core Register contain:
 189:Generated_Source\PSoC6\pdl\cmsis/include/core_cm0plus.h ****   - Core Register
 190:Generated_Source\PSoC6\pdl\cmsis/include/core_cm0plus.h ****   - Core NVIC Register
 191:Generated_Source\PSoC6\pdl\cmsis/include/core_cm0plus.h ****   - Core SCB Register
 192:Generated_Source\PSoC6\pdl\cmsis/include/core_cm0plus.h ****   - Core SysTick Register
 193:Generated_Source\PSoC6\pdl\cmsis/include/core_cm0plus.h ****   - Core MPU Register
 194:Generated_Source\PSoC6\pdl\cmsis/include/core_cm0plus.h ****  ******************************************************************************/
 195:Generated_Source\PSoC6\pdl\cmsis/include/core_cm0plus.h **** /**
 196:Generated_Source\PSoC6\pdl\cmsis/include/core_cm0plus.h ****   \defgroup CMSIS_core_register Defines and Type Definitions
 197:Generated_Source\PSoC6\pdl\cmsis/include/core_cm0plus.h ****   \brief Type definitions and defines for Cortex-M processor based devices.
 198:Generated_Source\PSoC6\pdl\cmsis/include/core_cm0plus.h **** */
 199:Generated_Source\PSoC6\pdl\cmsis/include/core_cm0plus.h **** 
 200:Generated_Source\PSoC6\pdl\cmsis/include/core_cm0plus.h **** /**
 201:Generated_Source\PSoC6\pdl\cmsis/include/core_cm0plus.h ****   \ingroup    CMSIS_core_register
 202:Generated_Source\PSoC6\pdl\cmsis/include/core_cm0plus.h ****   \defgroup   CMSIS_CORE  Status and Control Registers
 203:Generated_Source\PSoC6\pdl\cmsis/include/core_cm0plus.h ****   \brief      Core Register type definitions.
 204:Generated_Source\PSoC6\pdl\cmsis/include/core_cm0plus.h ****   @{
 205:Generated_Source\PSoC6\pdl\cmsis/include/core_cm0plus.h ****  */
 206:Generated_Source\PSoC6\pdl\cmsis/include/core_cm0plus.h **** 
 207:Generated_Source\PSoC6\pdl\cmsis/include/core_cm0plus.h **** /**
 208:Generated_Source\PSoC6\pdl\cmsis/include/core_cm0plus.h ****   \brief  Union type to access the Application Program Status Register (APSR).
 209:Generated_Source\PSoC6\pdl\cmsis/include/core_cm0plus.h ****  */
 210:Generated_Source\PSoC6\pdl\cmsis/include/core_cm0plus.h **** typedef union
 211:Generated_Source\PSoC6\pdl\cmsis/include/core_cm0plus.h **** {
 212:Generated_Source\PSoC6\pdl\cmsis/include/core_cm0plus.h ****   struct
 213:Generated_Source\PSoC6\pdl\cmsis/include/core_cm0plus.h ****   {
 214:Generated_Source\PSoC6\pdl\cmsis/include/core_cm0plus.h ****     uint32_t _reserved0:28;              /*!< bit:  0..27  Reserved */
 215:Generated_Source\PSoC6\pdl\cmsis/include/core_cm0plus.h ****     uint32_t V:1;                        /*!< bit:     28  Overflow condition code flag */
 216:Generated_Source\PSoC6\pdl\cmsis/include/core_cm0plus.h ****     uint32_t C:1;                        /*!< bit:     29  Carry condition code flag */
 217:Generated_Source\PSoC6\pdl\cmsis/include/core_cm0plus.h ****     uint32_t Z:1;                        /*!< bit:     30  Zero condition code flag */
 218:Generated_Source\PSoC6\pdl\cmsis/include/core_cm0plus.h ****     uint32_t N:1;                        /*!< bit:     31  Negative condition code flag */
 219:Generated_Source\PSoC6\pdl\cmsis/include/core_cm0plus.h ****   } b;                                   /*!< Structure used for bit  access */
 220:Generated_Source\PSoC6\pdl\cmsis/include/core_cm0plus.h ****   uint32_t w;                            /*!< Type      used for word access */
 221:Generated_Source\PSoC6\pdl\cmsis/include/core_cm0plus.h **** } APSR_Type;
 222:Generated_Source\PSoC6\pdl\cmsis/include/core_cm0plus.h **** 
 223:Generated_Source\PSoC6\pdl\cmsis/include/core_cm0plus.h **** /* APSR Register Definitions */
 224:Generated_Source\PSoC6\pdl\cmsis/include/core_cm0plus.h **** #define APSR_N_Pos                         31U                                            /*!< APSR
 225:Generated_Source\PSoC6\pdl\cmsis/include/core_cm0plus.h **** #define APSR_N_Msk                         (1UL << APSR_N_Pos)                            /*!< APSR
 226:Generated_Source\PSoC6\pdl\cmsis/include/core_cm0plus.h **** 
 227:Generated_Source\PSoC6\pdl\cmsis/include/core_cm0plus.h **** #define APSR_Z_Pos                         30U                                            /*!< APSR
 228:Generated_Source\PSoC6\pdl\cmsis/include/core_cm0plus.h **** #define APSR_Z_Msk                         (1UL << APSR_Z_Pos)                            /*!< APSR
 229:Generated_Source\PSoC6\pdl\cmsis/include/core_cm0plus.h **** 
 230:Generated_Source\PSoC6\pdl\cmsis/include/core_cm0plus.h **** #define APSR_C_Pos                         29U                                            /*!< APSR
 231:Generated_Source\PSoC6\pdl\cmsis/include/core_cm0plus.h **** #define APSR_C_Msk                         (1UL << APSR_C_Pos)                            /*!< APSR
 232:Generated_Source\PSoC6\pdl\cmsis/include/core_cm0plus.h **** 
 233:Generated_Source\PSoC6\pdl\cmsis/include/core_cm0plus.h **** #define APSR_V_Pos                         28U                                            /*!< APSR
 234:Generated_Source\PSoC6\pdl\cmsis/include/core_cm0plus.h **** #define APSR_V_Msk                         (1UL << APSR_V_Pos)                            /*!< APSR
 235:Generated_Source\PSoC6\pdl\cmsis/include/core_cm0plus.h **** 
 236:Generated_Source\PSoC6\pdl\cmsis/include/core_cm0plus.h **** 
 237:Generated_Source\PSoC6\pdl\cmsis/include/core_cm0plus.h **** /**
 238:Generated_Source\PSoC6\pdl\cmsis/include/core_cm0plus.h ****   \brief  Union type to access the Interrupt Program Status Register (IPSR).
 239:Generated_Source\PSoC6\pdl\cmsis/include/core_cm0plus.h ****  */
ARM GAS  C:\Users\ASUS\AppData\Local\Temp\ccj4BS4H.s 			page 67


 240:Generated_Source\PSoC6\pdl\cmsis/include/core_cm0plus.h **** typedef union
 241:Generated_Source\PSoC6\pdl\cmsis/include/core_cm0plus.h **** {
 242:Generated_Source\PSoC6\pdl\cmsis/include/core_cm0plus.h ****   struct
 243:Generated_Source\PSoC6\pdl\cmsis/include/core_cm0plus.h ****   {
 244:Generated_Source\PSoC6\pdl\cmsis/include/core_cm0plus.h ****     uint32_t ISR:9;                      /*!< bit:  0.. 8  Exception number */
 245:Generated_Source\PSoC6\pdl\cmsis/include/core_cm0plus.h ****     uint32_t _reserved0:23;              /*!< bit:  9..31  Reserved */
 246:Generated_Source\PSoC6\pdl\cmsis/include/core_cm0plus.h ****   } b;                                   /*!< Structure used for bit  access */
 247:Generated_Source\PSoC6\pdl\cmsis/include/core_cm0plus.h ****   uint32_t w;                            /*!< Type      used for word access */
 248:Generated_Source\PSoC6\pdl\cmsis/include/core_cm0plus.h **** } IPSR_Type;
 249:Generated_Source\PSoC6\pdl\cmsis/include/core_cm0plus.h **** 
 250:Generated_Source\PSoC6\pdl\cmsis/include/core_cm0plus.h **** /* IPSR Register Definitions */
 251:Generated_Source\PSoC6\pdl\cmsis/include/core_cm0plus.h **** #define IPSR_ISR_Pos                        0U                                            /*!< IPSR
 252:Generated_Source\PSoC6\pdl\cmsis/include/core_cm0plus.h **** #define IPSR_ISR_Msk                       (0x1FFUL /*<< IPSR_ISR_Pos*/)                  /*!< IPSR
 253:Generated_Source\PSoC6\pdl\cmsis/include/core_cm0plus.h **** 
 254:Generated_Source\PSoC6\pdl\cmsis/include/core_cm0plus.h **** 
 255:Generated_Source\PSoC6\pdl\cmsis/include/core_cm0plus.h **** /**
 256:Generated_Source\PSoC6\pdl\cmsis/include/core_cm0plus.h ****   \brief  Union type to access the Special-Purpose Program Status Registers (xPSR).
 257:Generated_Source\PSoC6\pdl\cmsis/include/core_cm0plus.h ****  */
 258:Generated_Source\PSoC6\pdl\cmsis/include/core_cm0plus.h **** typedef union
 259:Generated_Source\PSoC6\pdl\cmsis/include/core_cm0plus.h **** {
 260:Generated_Source\PSoC6\pdl\cmsis/include/core_cm0plus.h ****   struct
 261:Generated_Source\PSoC6\pdl\cmsis/include/core_cm0plus.h ****   {
 262:Generated_Source\PSoC6\pdl\cmsis/include/core_cm0plus.h ****     uint32_t ISR:9;                      /*!< bit:  0.. 8  Exception number */
 263:Generated_Source\PSoC6\pdl\cmsis/include/core_cm0plus.h ****     uint32_t _reserved0:15;              /*!< bit:  9..23  Reserved */
 264:Generated_Source\PSoC6\pdl\cmsis/include/core_cm0plus.h ****     uint32_t T:1;                        /*!< bit:     24  Thumb bit        (read 0) */
 265:Generated_Source\PSoC6\pdl\cmsis/include/core_cm0plus.h ****     uint32_t _reserved1:3;               /*!< bit: 25..27  Reserved */
 266:Generated_Source\PSoC6\pdl\cmsis/include/core_cm0plus.h ****     uint32_t V:1;                        /*!< bit:     28  Overflow condition code flag */
 267:Generated_Source\PSoC6\pdl\cmsis/include/core_cm0plus.h ****     uint32_t C:1;                        /*!< bit:     29  Carry condition code flag */
 268:Generated_Source\PSoC6\pdl\cmsis/include/core_cm0plus.h ****     uint32_t Z:1;                        /*!< bit:     30  Zero condition code flag */
 269:Generated_Source\PSoC6\pdl\cmsis/include/core_cm0plus.h ****     uint32_t N:1;                        /*!< bit:     31  Negative condition code flag */
 270:Generated_Source\PSoC6\pdl\cmsis/include/core_cm0plus.h ****   } b;                                   /*!< Structure used for bit  access */
 271:Generated_Source\PSoC6\pdl\cmsis/include/core_cm0plus.h ****   uint32_t w;                            /*!< Type      used for word access */
 272:Generated_Source\PSoC6\pdl\cmsis/include/core_cm0plus.h **** } xPSR_Type;
 273:Generated_Source\PSoC6\pdl\cmsis/include/core_cm0plus.h **** 
 274:Generated_Source\PSoC6\pdl\cmsis/include/core_cm0plus.h **** /* xPSR Register Definitions */
 275:Generated_Source\PSoC6\pdl\cmsis/include/core_cm0plus.h **** #define xPSR_N_Pos                         31U                                            /*!< xPSR
 276:Generated_Source\PSoC6\pdl\cmsis/include/core_cm0plus.h **** #define xPSR_N_Msk                         (1UL << xPSR_N_Pos)                            /*!< xPSR
 277:Generated_Source\PSoC6\pdl\cmsis/include/core_cm0plus.h **** 
 278:Generated_Source\PSoC6\pdl\cmsis/include/core_cm0plus.h **** #define xPSR_Z_Pos                         30U                                            /*!< xPSR
 279:Generated_Source\PSoC6\pdl\cmsis/include/core_cm0plus.h **** #define xPSR_Z_Msk                         (1UL << xPSR_Z_Pos)                            /*!< xPSR
 280:Generated_Source\PSoC6\pdl\cmsis/include/core_cm0plus.h **** 
 281:Generated_Source\PSoC6\pdl\cmsis/include/core_cm0plus.h **** #define xPSR_C_Pos                         29U                                            /*!< xPSR
 282:Generated_Source\PSoC6\pdl\cmsis/include/core_cm0plus.h **** #define xPSR_C_Msk                         (1UL << xPSR_C_Pos)                            /*!< xPSR
 283:Generated_Source\PSoC6\pdl\cmsis/include/core_cm0plus.h **** 
 284:Generated_Source\PSoC6\pdl\cmsis/include/core_cm0plus.h **** #define xPSR_V_Pos                         28U                                            /*!< xPSR
 285:Generated_Source\PSoC6\pdl\cmsis/include/core_cm0plus.h **** #define xPSR_V_Msk                         (1UL << xPSR_V_Pos)                            /*!< xPSR
 286:Generated_Source\PSoC6\pdl\cmsis/include/core_cm0plus.h **** 
 287:Generated_Source\PSoC6\pdl\cmsis/include/core_cm0plus.h **** #define xPSR_T_Pos                         24U                                            /*!< xPSR
 288:Generated_Source\PSoC6\pdl\cmsis/include/core_cm0plus.h **** #define xPSR_T_Msk                         (1UL << xPSR_T_Pos)                            /*!< xPSR
 289:Generated_Source\PSoC6\pdl\cmsis/include/core_cm0plus.h **** 
 290:Generated_Source\PSoC6\pdl\cmsis/include/core_cm0plus.h **** #define xPSR_ISR_Pos                        0U                                            /*!< xPSR
 291:Generated_Source\PSoC6\pdl\cmsis/include/core_cm0plus.h **** #define xPSR_ISR_Msk                       (0x1FFUL /*<< xPSR_ISR_Pos*/)                  /*!< xPSR
 292:Generated_Source\PSoC6\pdl\cmsis/include/core_cm0plus.h **** 
 293:Generated_Source\PSoC6\pdl\cmsis/include/core_cm0plus.h **** 
 294:Generated_Source\PSoC6\pdl\cmsis/include/core_cm0plus.h **** /**
 295:Generated_Source\PSoC6\pdl\cmsis/include/core_cm0plus.h ****   \brief  Union type to access the Control Registers (CONTROL).
 296:Generated_Source\PSoC6\pdl\cmsis/include/core_cm0plus.h ****  */
ARM GAS  C:\Users\ASUS\AppData\Local\Temp\ccj4BS4H.s 			page 68


 297:Generated_Source\PSoC6\pdl\cmsis/include/core_cm0plus.h **** typedef union
 298:Generated_Source\PSoC6\pdl\cmsis/include/core_cm0plus.h **** {
 299:Generated_Source\PSoC6\pdl\cmsis/include/core_cm0plus.h ****   struct
 300:Generated_Source\PSoC6\pdl\cmsis/include/core_cm0plus.h ****   {
 301:Generated_Source\PSoC6\pdl\cmsis/include/core_cm0plus.h ****     uint32_t nPRIV:1;                    /*!< bit:      0  Execution privilege in Thread mode */
 302:Generated_Source\PSoC6\pdl\cmsis/include/core_cm0plus.h ****     uint32_t SPSEL:1;                    /*!< bit:      1  Stack to be used */
 303:Generated_Source\PSoC6\pdl\cmsis/include/core_cm0plus.h ****     uint32_t _reserved1:30;              /*!< bit:  2..31  Reserved */
 304:Generated_Source\PSoC6\pdl\cmsis/include/core_cm0plus.h ****   } b;                                   /*!< Structure used for bit  access */
 305:Generated_Source\PSoC6\pdl\cmsis/include/core_cm0plus.h ****   uint32_t w;                            /*!< Type      used for word access */
 306:Generated_Source\PSoC6\pdl\cmsis/include/core_cm0plus.h **** } CONTROL_Type;
 307:Generated_Source\PSoC6\pdl\cmsis/include/core_cm0plus.h **** 
 308:Generated_Source\PSoC6\pdl\cmsis/include/core_cm0plus.h **** /* CONTROL Register Definitions */
 309:Generated_Source\PSoC6\pdl\cmsis/include/core_cm0plus.h **** #define CONTROL_SPSEL_Pos                   1U                                            /*!< CONT
 310:Generated_Source\PSoC6\pdl\cmsis/include/core_cm0plus.h **** #define CONTROL_SPSEL_Msk                  (1UL << CONTROL_SPSEL_Pos)                     /*!< CONT
 311:Generated_Source\PSoC6\pdl\cmsis/include/core_cm0plus.h **** 
 312:Generated_Source\PSoC6\pdl\cmsis/include/core_cm0plus.h **** #define CONTROL_nPRIV_Pos                   0U                                            /*!< CONT
 313:Generated_Source\PSoC6\pdl\cmsis/include/core_cm0plus.h **** #define CONTROL_nPRIV_Msk                  (1UL /*<< CONTROL_nPRIV_Pos*/)                 /*!< CONT
 314:Generated_Source\PSoC6\pdl\cmsis/include/core_cm0plus.h **** 
 315:Generated_Source\PSoC6\pdl\cmsis/include/core_cm0plus.h **** /*@} end of group CMSIS_CORE */
 316:Generated_Source\PSoC6\pdl\cmsis/include/core_cm0plus.h **** 
 317:Generated_Source\PSoC6\pdl\cmsis/include/core_cm0plus.h **** 
 318:Generated_Source\PSoC6\pdl\cmsis/include/core_cm0plus.h **** /**
 319:Generated_Source\PSoC6\pdl\cmsis/include/core_cm0plus.h ****   \ingroup    CMSIS_core_register
 320:Generated_Source\PSoC6\pdl\cmsis/include/core_cm0plus.h ****   \defgroup   CMSIS_NVIC  Nested Vectored Interrupt Controller (NVIC)
 321:Generated_Source\PSoC6\pdl\cmsis/include/core_cm0plus.h ****   \brief      Type definitions for the NVIC Registers
 322:Generated_Source\PSoC6\pdl\cmsis/include/core_cm0plus.h ****   @{
 323:Generated_Source\PSoC6\pdl\cmsis/include/core_cm0plus.h ****  */
 324:Generated_Source\PSoC6\pdl\cmsis/include/core_cm0plus.h **** 
 325:Generated_Source\PSoC6\pdl\cmsis/include/core_cm0plus.h **** /**
 326:Generated_Source\PSoC6\pdl\cmsis/include/core_cm0plus.h ****   \brief  Structure type to access the Nested Vectored Interrupt Controller (NVIC).
 327:Generated_Source\PSoC6\pdl\cmsis/include/core_cm0plus.h ****  */
 328:Generated_Source\PSoC6\pdl\cmsis/include/core_cm0plus.h **** typedef struct
 329:Generated_Source\PSoC6\pdl\cmsis/include/core_cm0plus.h **** {
 330:Generated_Source\PSoC6\pdl\cmsis/include/core_cm0plus.h ****   __IOM uint32_t ISER[1U];               /*!< Offset: 0x000 (R/W)  Interrupt Set Enable Register */
 331:Generated_Source\PSoC6\pdl\cmsis/include/core_cm0plus.h ****         uint32_t RESERVED0[31U];
 332:Generated_Source\PSoC6\pdl\cmsis/include/core_cm0plus.h ****   __IOM uint32_t ICER[1U];               /*!< Offset: 0x080 (R/W)  Interrupt Clear Enable Register 
 333:Generated_Source\PSoC6\pdl\cmsis/include/core_cm0plus.h ****         uint32_t RSERVED1[31U];
 334:Generated_Source\PSoC6\pdl\cmsis/include/core_cm0plus.h ****   __IOM uint32_t ISPR[1U];               /*!< Offset: 0x100 (R/W)  Interrupt Set Pending Register *
 335:Generated_Source\PSoC6\pdl\cmsis/include/core_cm0plus.h ****         uint32_t RESERVED2[31U];
 336:Generated_Source\PSoC6\pdl\cmsis/include/core_cm0plus.h ****   __IOM uint32_t ICPR[1U];               /*!< Offset: 0x180 (R/W)  Interrupt Clear Pending Register
 337:Generated_Source\PSoC6\pdl\cmsis/include/core_cm0plus.h ****         uint32_t RESERVED3[31U];
 338:Generated_Source\PSoC6\pdl\cmsis/include/core_cm0plus.h ****         uint32_t RESERVED4[64U];
 339:Generated_Source\PSoC6\pdl\cmsis/include/core_cm0plus.h ****   __IOM uint32_t IP[8U];                 /*!< Offset: 0x300 (R/W)  Interrupt Priority Register */
 340:Generated_Source\PSoC6\pdl\cmsis/include/core_cm0plus.h **** }  NVIC_Type;
 341:Generated_Source\PSoC6\pdl\cmsis/include/core_cm0plus.h **** 
 342:Generated_Source\PSoC6\pdl\cmsis/include/core_cm0plus.h **** /*@} end of group CMSIS_NVIC */
 343:Generated_Source\PSoC6\pdl\cmsis/include/core_cm0plus.h **** 
 344:Generated_Source\PSoC6\pdl\cmsis/include/core_cm0plus.h **** 
 345:Generated_Source\PSoC6\pdl\cmsis/include/core_cm0plus.h **** /**
 346:Generated_Source\PSoC6\pdl\cmsis/include/core_cm0plus.h ****   \ingroup  CMSIS_core_register
 347:Generated_Source\PSoC6\pdl\cmsis/include/core_cm0plus.h ****   \defgroup CMSIS_SCB     System Control Block (SCB)
 348:Generated_Source\PSoC6\pdl\cmsis/include/core_cm0plus.h ****   \brief    Type definitions for the System Control Block Registers
 349:Generated_Source\PSoC6\pdl\cmsis/include/core_cm0plus.h ****   @{
 350:Generated_Source\PSoC6\pdl\cmsis/include/core_cm0plus.h ****  */
 351:Generated_Source\PSoC6\pdl\cmsis/include/core_cm0plus.h **** 
 352:Generated_Source\PSoC6\pdl\cmsis/include/core_cm0plus.h **** /**
 353:Generated_Source\PSoC6\pdl\cmsis/include/core_cm0plus.h ****   \brief  Structure type to access the System Control Block (SCB).
ARM GAS  C:\Users\ASUS\AppData\Local\Temp\ccj4BS4H.s 			page 69


 354:Generated_Source\PSoC6\pdl\cmsis/include/core_cm0plus.h ****  */
 355:Generated_Source\PSoC6\pdl\cmsis/include/core_cm0plus.h **** typedef struct
 356:Generated_Source\PSoC6\pdl\cmsis/include/core_cm0plus.h **** {
 357:Generated_Source\PSoC6\pdl\cmsis/include/core_cm0plus.h ****   __IM  uint32_t CPUID;                  /*!< Offset: 0x000 (R/ )  CPUID Base Register */
 358:Generated_Source\PSoC6\pdl\cmsis/include/core_cm0plus.h ****   __IOM uint32_t ICSR;                   /*!< Offset: 0x004 (R/W)  Interrupt Control and State Regi
 359:Generated_Source\PSoC6\pdl\cmsis/include/core_cm0plus.h **** #if defined (__VTOR_PRESENT) && (__VTOR_PRESENT == 1U)
 360:Generated_Source\PSoC6\pdl\cmsis/include/core_cm0plus.h ****   __IOM uint32_t VTOR;                   /*!< Offset: 0x008 (R/W)  Vector Table Offset Register */
 361:Generated_Source\PSoC6\pdl\cmsis/include/core_cm0plus.h **** #else
 362:Generated_Source\PSoC6\pdl\cmsis/include/core_cm0plus.h ****         uint32_t RESERVED0;
 363:Generated_Source\PSoC6\pdl\cmsis/include/core_cm0plus.h **** #endif
 364:Generated_Source\PSoC6\pdl\cmsis/include/core_cm0plus.h ****   __IOM uint32_t AIRCR;                  /*!< Offset: 0x00C (R/W)  Application Interrupt and Reset 
 365:Generated_Source\PSoC6\pdl\cmsis/include/core_cm0plus.h ****   __IOM uint32_t SCR;                    /*!< Offset: 0x010 (R/W)  System Control Register */
 366:Generated_Source\PSoC6\pdl\cmsis/include/core_cm0plus.h ****   __IOM uint32_t CCR;                    /*!< Offset: 0x014 (R/W)  Configuration Control Register *
 367:Generated_Source\PSoC6\pdl\cmsis/include/core_cm0plus.h ****         uint32_t RESERVED1;
 368:Generated_Source\PSoC6\pdl\cmsis/include/core_cm0plus.h ****   __IOM uint32_t SHP[2U];                /*!< Offset: 0x01C (R/W)  System Handlers Priority Registe
 369:Generated_Source\PSoC6\pdl\cmsis/include/core_cm0plus.h ****   __IOM uint32_t SHCSR;                  /*!< Offset: 0x024 (R/W)  System Handler Control and State
 370:Generated_Source\PSoC6\pdl\cmsis/include/core_cm0plus.h **** } SCB_Type;
 371:Generated_Source\PSoC6\pdl\cmsis/include/core_cm0plus.h **** 
 372:Generated_Source\PSoC6\pdl\cmsis/include/core_cm0plus.h **** /* SCB CPUID Register Definitions */
 373:Generated_Source\PSoC6\pdl\cmsis/include/core_cm0plus.h **** #define SCB_CPUID_IMPLEMENTER_Pos          24U                                            /*!< SCB 
 374:Generated_Source\PSoC6\pdl\cmsis/include/core_cm0plus.h **** #define SCB_CPUID_IMPLEMENTER_Msk          (0xFFUL << SCB_CPUID_IMPLEMENTER_Pos)          /*!< SCB 
 375:Generated_Source\PSoC6\pdl\cmsis/include/core_cm0plus.h **** 
 376:Generated_Source\PSoC6\pdl\cmsis/include/core_cm0plus.h **** #define SCB_CPUID_VARIANT_Pos              20U                                            /*!< SCB 
 377:Generated_Source\PSoC6\pdl\cmsis/include/core_cm0plus.h **** #define SCB_CPUID_VARIANT_Msk              (0xFUL << SCB_CPUID_VARIANT_Pos)               /*!< SCB 
 378:Generated_Source\PSoC6\pdl\cmsis/include/core_cm0plus.h **** 
 379:Generated_Source\PSoC6\pdl\cmsis/include/core_cm0plus.h **** #define SCB_CPUID_ARCHITECTURE_Pos         16U                                            /*!< SCB 
 380:Generated_Source\PSoC6\pdl\cmsis/include/core_cm0plus.h **** #define SCB_CPUID_ARCHITECTURE_Msk         (0xFUL << SCB_CPUID_ARCHITECTURE_Pos)          /*!< SCB 
 381:Generated_Source\PSoC6\pdl\cmsis/include/core_cm0plus.h **** 
 382:Generated_Source\PSoC6\pdl\cmsis/include/core_cm0plus.h **** #define SCB_CPUID_PARTNO_Pos                4U                                            /*!< SCB 
 383:Generated_Source\PSoC6\pdl\cmsis/include/core_cm0plus.h **** #define SCB_CPUID_PARTNO_Msk               (0xFFFUL << SCB_CPUID_PARTNO_Pos)              /*!< SCB 
 384:Generated_Source\PSoC6\pdl\cmsis/include/core_cm0plus.h **** 
 385:Generated_Source\PSoC6\pdl\cmsis/include/core_cm0plus.h **** #define SCB_CPUID_REVISION_Pos              0U                                            /*!< SCB 
 386:Generated_Source\PSoC6\pdl\cmsis/include/core_cm0plus.h **** #define SCB_CPUID_REVISION_Msk             (0xFUL /*<< SCB_CPUID_REVISION_Pos*/)          /*!< SCB 
 387:Generated_Source\PSoC6\pdl\cmsis/include/core_cm0plus.h **** 
 388:Generated_Source\PSoC6\pdl\cmsis/include/core_cm0plus.h **** /* SCB Interrupt Control State Register Definitions */
 389:Generated_Source\PSoC6\pdl\cmsis/include/core_cm0plus.h **** #define SCB_ICSR_NMIPENDSET_Pos            31U                                            /*!< SCB 
 390:Generated_Source\PSoC6\pdl\cmsis/include/core_cm0plus.h **** #define SCB_ICSR_NMIPENDSET_Msk            (1UL << SCB_ICSR_NMIPENDSET_Pos)               /*!< SCB 
 391:Generated_Source\PSoC6\pdl\cmsis/include/core_cm0plus.h **** 
 392:Generated_Source\PSoC6\pdl\cmsis/include/core_cm0plus.h **** #define SCB_ICSR_PENDSVSET_Pos             28U                                            /*!< SCB 
 393:Generated_Source\PSoC6\pdl\cmsis/include/core_cm0plus.h **** #define SCB_ICSR_PENDSVSET_Msk             (1UL << SCB_ICSR_PENDSVSET_Pos)                /*!< SCB 
 394:Generated_Source\PSoC6\pdl\cmsis/include/core_cm0plus.h **** 
 395:Generated_Source\PSoC6\pdl\cmsis/include/core_cm0plus.h **** #define SCB_ICSR_PENDSVCLR_Pos             27U                                            /*!< SCB 
 396:Generated_Source\PSoC6\pdl\cmsis/include/core_cm0plus.h **** #define SCB_ICSR_PENDSVCLR_Msk             (1UL << SCB_ICSR_PENDSVCLR_Pos)                /*!< SCB 
 397:Generated_Source\PSoC6\pdl\cmsis/include/core_cm0plus.h **** 
 398:Generated_Source\PSoC6\pdl\cmsis/include/core_cm0plus.h **** #define SCB_ICSR_PENDSTSET_Pos             26U                                            /*!< SCB 
 399:Generated_Source\PSoC6\pdl\cmsis/include/core_cm0plus.h **** #define SCB_ICSR_PENDSTSET_Msk             (1UL << SCB_ICSR_PENDSTSET_Pos)                /*!< SCB 
 400:Generated_Source\PSoC6\pdl\cmsis/include/core_cm0plus.h **** 
 401:Generated_Source\PSoC6\pdl\cmsis/include/core_cm0plus.h **** #define SCB_ICSR_PENDSTCLR_Pos             25U                                            /*!< SCB 
 402:Generated_Source\PSoC6\pdl\cmsis/include/core_cm0plus.h **** #define SCB_ICSR_PENDSTCLR_Msk             (1UL << SCB_ICSR_PENDSTCLR_Pos)                /*!< SCB 
 403:Generated_Source\PSoC6\pdl\cmsis/include/core_cm0plus.h **** 
 404:Generated_Source\PSoC6\pdl\cmsis/include/core_cm0plus.h **** #define SCB_ICSR_ISRPREEMPT_Pos            23U                                            /*!< SCB 
 405:Generated_Source\PSoC6\pdl\cmsis/include/core_cm0plus.h **** #define SCB_ICSR_ISRPREEMPT_Msk            (1UL << SCB_ICSR_ISRPREEMPT_Pos)               /*!< SCB 
 406:Generated_Source\PSoC6\pdl\cmsis/include/core_cm0plus.h **** 
 407:Generated_Source\PSoC6\pdl\cmsis/include/core_cm0plus.h **** #define SCB_ICSR_ISRPENDING_Pos            22U                                            /*!< SCB 
 408:Generated_Source\PSoC6\pdl\cmsis/include/core_cm0plus.h **** #define SCB_ICSR_ISRPENDING_Msk            (1UL << SCB_ICSR_ISRPENDING_Pos)               /*!< SCB 
 409:Generated_Source\PSoC6\pdl\cmsis/include/core_cm0plus.h **** 
 410:Generated_Source\PSoC6\pdl\cmsis/include/core_cm0plus.h **** #define SCB_ICSR_VECTPENDING_Pos           12U                                            /*!< SCB 
ARM GAS  C:\Users\ASUS\AppData\Local\Temp\ccj4BS4H.s 			page 70


 411:Generated_Source\PSoC6\pdl\cmsis/include/core_cm0plus.h **** #define SCB_ICSR_VECTPENDING_Msk           (0x1FFUL << SCB_ICSR_VECTPENDING_Pos)          /*!< SCB 
 412:Generated_Source\PSoC6\pdl\cmsis/include/core_cm0plus.h **** 
 413:Generated_Source\PSoC6\pdl\cmsis/include/core_cm0plus.h **** #define SCB_ICSR_VECTACTIVE_Pos             0U                                            /*!< SCB 
 414:Generated_Source\PSoC6\pdl\cmsis/include/core_cm0plus.h **** #define SCB_ICSR_VECTACTIVE_Msk            (0x1FFUL /*<< SCB_ICSR_VECTACTIVE_Pos*/)       /*!< SCB 
 415:Generated_Source\PSoC6\pdl\cmsis/include/core_cm0plus.h **** 
 416:Generated_Source\PSoC6\pdl\cmsis/include/core_cm0plus.h **** #if defined (__VTOR_PRESENT) && (__VTOR_PRESENT == 1U)
 417:Generated_Source\PSoC6\pdl\cmsis/include/core_cm0plus.h **** /* SCB Interrupt Control State Register Definitions */
 418:Generated_Source\PSoC6\pdl\cmsis/include/core_cm0plus.h **** #define SCB_VTOR_TBLOFF_Pos                 8U                                            /*!< SCB 
 419:Generated_Source\PSoC6\pdl\cmsis/include/core_cm0plus.h **** #define SCB_VTOR_TBLOFF_Msk                (0xFFFFFFUL << SCB_VTOR_TBLOFF_Pos)            /*!< SCB 
 420:Generated_Source\PSoC6\pdl\cmsis/include/core_cm0plus.h **** #endif
 421:Generated_Source\PSoC6\pdl\cmsis/include/core_cm0plus.h **** 
 422:Generated_Source\PSoC6\pdl\cmsis/include/core_cm0plus.h **** /* SCB Application Interrupt and Reset Control Register Definitions */
 423:Generated_Source\PSoC6\pdl\cmsis/include/core_cm0plus.h **** #define SCB_AIRCR_VECTKEY_Pos              16U                                            /*!< SCB 
 424:Generated_Source\PSoC6\pdl\cmsis/include/core_cm0plus.h **** #define SCB_AIRCR_VECTKEY_Msk              (0xFFFFUL << SCB_AIRCR_VECTKEY_Pos)            /*!< SCB 
 425:Generated_Source\PSoC6\pdl\cmsis/include/core_cm0plus.h **** 
 426:Generated_Source\PSoC6\pdl\cmsis/include/core_cm0plus.h **** #define SCB_AIRCR_VECTKEYSTAT_Pos          16U                                            /*!< SCB 
 427:Generated_Source\PSoC6\pdl\cmsis/include/core_cm0plus.h **** #define SCB_AIRCR_VECTKEYSTAT_Msk          (0xFFFFUL << SCB_AIRCR_VECTKEYSTAT_Pos)        /*!< SCB 
 428:Generated_Source\PSoC6\pdl\cmsis/include/core_cm0plus.h **** 
 429:Generated_Source\PSoC6\pdl\cmsis/include/core_cm0plus.h **** #define SCB_AIRCR_ENDIANESS_Pos            15U                                            /*!< SCB 
 430:Generated_Source\PSoC6\pdl\cmsis/include/core_cm0plus.h **** #define SCB_AIRCR_ENDIANESS_Msk            (1UL << SCB_AIRCR_ENDIANESS_Pos)               /*!< SCB 
 431:Generated_Source\PSoC6\pdl\cmsis/include/core_cm0plus.h **** 
 432:Generated_Source\PSoC6\pdl\cmsis/include/core_cm0plus.h **** #define SCB_AIRCR_SYSRESETREQ_Pos           2U                                            /*!< SCB 
 433:Generated_Source\PSoC6\pdl\cmsis/include/core_cm0plus.h **** #define SCB_AIRCR_SYSRESETREQ_Msk          (1UL << SCB_AIRCR_SYSRESETREQ_Pos)             /*!< SCB 
 434:Generated_Source\PSoC6\pdl\cmsis/include/core_cm0plus.h **** 
 435:Generated_Source\PSoC6\pdl\cmsis/include/core_cm0plus.h **** #define SCB_AIRCR_VECTCLRACTIVE_Pos         1U                                            /*!< SCB 
 436:Generated_Source\PSoC6\pdl\cmsis/include/core_cm0plus.h **** #define SCB_AIRCR_VECTCLRACTIVE_Msk        (1UL << SCB_AIRCR_VECTCLRACTIVE_Pos)           /*!< SCB 
 437:Generated_Source\PSoC6\pdl\cmsis/include/core_cm0plus.h **** 
 438:Generated_Source\PSoC6\pdl\cmsis/include/core_cm0plus.h **** /* SCB System Control Register Definitions */
 439:Generated_Source\PSoC6\pdl\cmsis/include/core_cm0plus.h **** #define SCB_SCR_SEVONPEND_Pos               4U                                            /*!< SCB 
 440:Generated_Source\PSoC6\pdl\cmsis/include/core_cm0plus.h **** #define SCB_SCR_SEVONPEND_Msk              (1UL << SCB_SCR_SEVONPEND_Pos)                 /*!< SCB 
 441:Generated_Source\PSoC6\pdl\cmsis/include/core_cm0plus.h **** 
 442:Generated_Source\PSoC6\pdl\cmsis/include/core_cm0plus.h **** #define SCB_SCR_SLEEPDEEP_Pos               2U                                            /*!< SCB 
 443:Generated_Source\PSoC6\pdl\cmsis/include/core_cm0plus.h **** #define SCB_SCR_SLEEPDEEP_Msk              (1UL << SCB_SCR_SLEEPDEEP_Pos)                 /*!< SCB 
 444:Generated_Source\PSoC6\pdl\cmsis/include/core_cm0plus.h **** 
 445:Generated_Source\PSoC6\pdl\cmsis/include/core_cm0plus.h **** #define SCB_SCR_SLEEPONEXIT_Pos             1U                                            /*!< SCB 
 446:Generated_Source\PSoC6\pdl\cmsis/include/core_cm0plus.h **** #define SCB_SCR_SLEEPONEXIT_Msk            (1UL << SCB_SCR_SLEEPONEXIT_Pos)               /*!< SCB 
 447:Generated_Source\PSoC6\pdl\cmsis/include/core_cm0plus.h **** 
 448:Generated_Source\PSoC6\pdl\cmsis/include/core_cm0plus.h **** /* SCB Configuration Control Register Definitions */
 449:Generated_Source\PSoC6\pdl\cmsis/include/core_cm0plus.h **** #define SCB_CCR_STKALIGN_Pos                9U                                            /*!< SCB 
 450:Generated_Source\PSoC6\pdl\cmsis/include/core_cm0plus.h **** #define SCB_CCR_STKALIGN_Msk               (1UL << SCB_CCR_STKALIGN_Pos)                  /*!< SCB 
 451:Generated_Source\PSoC6\pdl\cmsis/include/core_cm0plus.h **** 
 452:Generated_Source\PSoC6\pdl\cmsis/include/core_cm0plus.h **** #define SCB_CCR_UNALIGN_TRP_Pos             3U                                            /*!< SCB 
 453:Generated_Source\PSoC6\pdl\cmsis/include/core_cm0plus.h **** #define SCB_CCR_UNALIGN_TRP_Msk            (1UL << SCB_CCR_UNALIGN_TRP_Pos)               /*!< SCB 
 454:Generated_Source\PSoC6\pdl\cmsis/include/core_cm0plus.h **** 
 455:Generated_Source\PSoC6\pdl\cmsis/include/core_cm0plus.h **** /* SCB System Handler Control and State Register Definitions */
 456:Generated_Source\PSoC6\pdl\cmsis/include/core_cm0plus.h **** #define SCB_SHCSR_SVCALLPENDED_Pos         15U                                            /*!< SCB 
 457:Generated_Source\PSoC6\pdl\cmsis/include/core_cm0plus.h **** #define SCB_SHCSR_SVCALLPENDED_Msk         (1UL << SCB_SHCSR_SVCALLPENDED_Pos)            /*!< SCB 
 458:Generated_Source\PSoC6\pdl\cmsis/include/core_cm0plus.h **** 
 459:Generated_Source\PSoC6\pdl\cmsis/include/core_cm0plus.h **** /*@} end of group CMSIS_SCB */
 460:Generated_Source\PSoC6\pdl\cmsis/include/core_cm0plus.h **** 
 461:Generated_Source\PSoC6\pdl\cmsis/include/core_cm0plus.h **** 
 462:Generated_Source\PSoC6\pdl\cmsis/include/core_cm0plus.h **** /**
 463:Generated_Source\PSoC6\pdl\cmsis/include/core_cm0plus.h ****   \ingroup  CMSIS_core_register
 464:Generated_Source\PSoC6\pdl\cmsis/include/core_cm0plus.h ****   \defgroup CMSIS_SysTick     System Tick Timer (SysTick)
 465:Generated_Source\PSoC6\pdl\cmsis/include/core_cm0plus.h ****   \brief    Type definitions for the System Timer Registers.
 466:Generated_Source\PSoC6\pdl\cmsis/include/core_cm0plus.h ****   @{
 467:Generated_Source\PSoC6\pdl\cmsis/include/core_cm0plus.h ****  */
ARM GAS  C:\Users\ASUS\AppData\Local\Temp\ccj4BS4H.s 			page 71


 468:Generated_Source\PSoC6\pdl\cmsis/include/core_cm0plus.h **** 
 469:Generated_Source\PSoC6\pdl\cmsis/include/core_cm0plus.h **** /**
 470:Generated_Source\PSoC6\pdl\cmsis/include/core_cm0plus.h ****   \brief  Structure type to access the System Timer (SysTick).
 471:Generated_Source\PSoC6\pdl\cmsis/include/core_cm0plus.h ****  */
 472:Generated_Source\PSoC6\pdl\cmsis/include/core_cm0plus.h **** typedef struct
 473:Generated_Source\PSoC6\pdl\cmsis/include/core_cm0plus.h **** {
 474:Generated_Source\PSoC6\pdl\cmsis/include/core_cm0plus.h ****   __IOM uint32_t CTRL;                   /*!< Offset: 0x000 (R/W)  SysTick Control and Status Regis
 475:Generated_Source\PSoC6\pdl\cmsis/include/core_cm0plus.h ****   __IOM uint32_t LOAD;                   /*!< Offset: 0x004 (R/W)  SysTick Reload Value Register */
 476:Generated_Source\PSoC6\pdl\cmsis/include/core_cm0plus.h ****   __IOM uint32_t VAL;                    /*!< Offset: 0x008 (R/W)  SysTick Current Value Register *
 477:Generated_Source\PSoC6\pdl\cmsis/include/core_cm0plus.h ****   __IM  uint32_t CALIB;                  /*!< Offset: 0x00C (R/ )  SysTick Calibration Register */
 478:Generated_Source\PSoC6\pdl\cmsis/include/core_cm0plus.h **** } SysTick_Type;
 479:Generated_Source\PSoC6\pdl\cmsis/include/core_cm0plus.h **** 
 480:Generated_Source\PSoC6\pdl\cmsis/include/core_cm0plus.h **** /* SysTick Control / Status Register Definitions */
 481:Generated_Source\PSoC6\pdl\cmsis/include/core_cm0plus.h **** #define SysTick_CTRL_COUNTFLAG_Pos         16U                                            /*!< SysT
 482:Generated_Source\PSoC6\pdl\cmsis/include/core_cm0plus.h **** #define SysTick_CTRL_COUNTFLAG_Msk         (1UL << SysTick_CTRL_COUNTFLAG_Pos)            /*!< SysT
 483:Generated_Source\PSoC6\pdl\cmsis/include/core_cm0plus.h **** 
 484:Generated_Source\PSoC6\pdl\cmsis/include/core_cm0plus.h **** #define SysTick_CTRL_CLKSOURCE_Pos          2U                                            /*!< SysT
 485:Generated_Source\PSoC6\pdl\cmsis/include/core_cm0plus.h **** #define SysTick_CTRL_CLKSOURCE_Msk         (1UL << SysTick_CTRL_CLKSOURCE_Pos)            /*!< SysT
 486:Generated_Source\PSoC6\pdl\cmsis/include/core_cm0plus.h **** 
 487:Generated_Source\PSoC6\pdl\cmsis/include/core_cm0plus.h **** #define SysTick_CTRL_TICKINT_Pos            1U                                            /*!< SysT
 488:Generated_Source\PSoC6\pdl\cmsis/include/core_cm0plus.h **** #define SysTick_CTRL_TICKINT_Msk           (1UL << SysTick_CTRL_TICKINT_Pos)              /*!< SysT
 489:Generated_Source\PSoC6\pdl\cmsis/include/core_cm0plus.h **** 
 490:Generated_Source\PSoC6\pdl\cmsis/include/core_cm0plus.h **** #define SysTick_CTRL_ENABLE_Pos             0U                                            /*!< SysT
 491:Generated_Source\PSoC6\pdl\cmsis/include/core_cm0plus.h **** #define SysTick_CTRL_ENABLE_Msk            (1UL /*<< SysTick_CTRL_ENABLE_Pos*/)           /*!< SysT
 492:Generated_Source\PSoC6\pdl\cmsis/include/core_cm0plus.h **** 
 493:Generated_Source\PSoC6\pdl\cmsis/include/core_cm0plus.h **** /* SysTick Reload Register Definitions */
 494:Generated_Source\PSoC6\pdl\cmsis/include/core_cm0plus.h **** #define SysTick_LOAD_RELOAD_Pos             0U                                            /*!< SysT
 495:Generated_Source\PSoC6\pdl\cmsis/include/core_cm0plus.h **** #define SysTick_LOAD_RELOAD_Msk            (0xFFFFFFUL /*<< SysTick_LOAD_RELOAD_Pos*/)    /*!< SysT
 496:Generated_Source\PSoC6\pdl\cmsis/include/core_cm0plus.h **** 
 497:Generated_Source\PSoC6\pdl\cmsis/include/core_cm0plus.h **** /* SysTick Current Register Definitions */
 498:Generated_Source\PSoC6\pdl\cmsis/include/core_cm0plus.h **** #define SysTick_VAL_CURRENT_Pos             0U                                            /*!< SysT
 499:Generated_Source\PSoC6\pdl\cmsis/include/core_cm0plus.h **** #define SysTick_VAL_CURRENT_Msk            (0xFFFFFFUL /*<< SysTick_VAL_CURRENT_Pos*/)    /*!< SysT
 500:Generated_Source\PSoC6\pdl\cmsis/include/core_cm0plus.h **** 
 501:Generated_Source\PSoC6\pdl\cmsis/include/core_cm0plus.h **** /* SysTick Calibration Register Definitions */
 502:Generated_Source\PSoC6\pdl\cmsis/include/core_cm0plus.h **** #define SysTick_CALIB_NOREF_Pos            31U                                            /*!< SysT
 503:Generated_Source\PSoC6\pdl\cmsis/include/core_cm0plus.h **** #define SysTick_CALIB_NOREF_Msk            (1UL << SysTick_CALIB_NOREF_Pos)               /*!< SysT
 504:Generated_Source\PSoC6\pdl\cmsis/include/core_cm0plus.h **** 
 505:Generated_Source\PSoC6\pdl\cmsis/include/core_cm0plus.h **** #define SysTick_CALIB_SKEW_Pos             30U                                            /*!< SysT
 506:Generated_Source\PSoC6\pdl\cmsis/include/core_cm0plus.h **** #define SysTick_CALIB_SKEW_Msk             (1UL << SysTick_CALIB_SKEW_Pos)                /*!< SysT
 507:Generated_Source\PSoC6\pdl\cmsis/include/core_cm0plus.h **** 
 508:Generated_Source\PSoC6\pdl\cmsis/include/core_cm0plus.h **** #define SysTick_CALIB_TENMS_Pos             0U                                            /*!< SysT
 509:Generated_Source\PSoC6\pdl\cmsis/include/core_cm0plus.h **** #define SysTick_CALIB_TENMS_Msk            (0xFFFFFFUL /*<< SysTick_CALIB_TENMS_Pos*/)    /*!< SysT
 510:Generated_Source\PSoC6\pdl\cmsis/include/core_cm0plus.h **** 
 511:Generated_Source\PSoC6\pdl\cmsis/include/core_cm0plus.h **** /*@} end of group CMSIS_SysTick */
 512:Generated_Source\PSoC6\pdl\cmsis/include/core_cm0plus.h **** 
 513:Generated_Source\PSoC6\pdl\cmsis/include/core_cm0plus.h **** #if defined (__MPU_PRESENT) && (__MPU_PRESENT == 1U)
 514:Generated_Source\PSoC6\pdl\cmsis/include/core_cm0plus.h **** /**
 515:Generated_Source\PSoC6\pdl\cmsis/include/core_cm0plus.h ****   \ingroup  CMSIS_core_register
 516:Generated_Source\PSoC6\pdl\cmsis/include/core_cm0plus.h ****   \defgroup CMSIS_MPU     Memory Protection Unit (MPU)
 517:Generated_Source\PSoC6\pdl\cmsis/include/core_cm0plus.h ****   \brief    Type definitions for the Memory Protection Unit (MPU)
 518:Generated_Source\PSoC6\pdl\cmsis/include/core_cm0plus.h ****   @{
 519:Generated_Source\PSoC6\pdl\cmsis/include/core_cm0plus.h ****  */
 520:Generated_Source\PSoC6\pdl\cmsis/include/core_cm0plus.h **** 
 521:Generated_Source\PSoC6\pdl\cmsis/include/core_cm0plus.h **** /**
 522:Generated_Source\PSoC6\pdl\cmsis/include/core_cm0plus.h ****   \brief  Structure type to access the Memory Protection Unit (MPU).
 523:Generated_Source\PSoC6\pdl\cmsis/include/core_cm0plus.h ****  */
 524:Generated_Source\PSoC6\pdl\cmsis/include/core_cm0plus.h **** typedef struct
ARM GAS  C:\Users\ASUS\AppData\Local\Temp\ccj4BS4H.s 			page 72


 525:Generated_Source\PSoC6\pdl\cmsis/include/core_cm0plus.h **** {
 526:Generated_Source\PSoC6\pdl\cmsis/include/core_cm0plus.h ****   __IM  uint32_t TYPE;                   /*!< Offset: 0x000 (R/ )  MPU Type Register */
 527:Generated_Source\PSoC6\pdl\cmsis/include/core_cm0plus.h ****   __IOM uint32_t CTRL;                   /*!< Offset: 0x004 (R/W)  MPU Control Register */
 528:Generated_Source\PSoC6\pdl\cmsis/include/core_cm0plus.h ****   __IOM uint32_t RNR;                    /*!< Offset: 0x008 (R/W)  MPU Region RNRber Register */
 529:Generated_Source\PSoC6\pdl\cmsis/include/core_cm0plus.h ****   __IOM uint32_t RBAR;                   /*!< Offset: 0x00C (R/W)  MPU Region Base Address Register
 530:Generated_Source\PSoC6\pdl\cmsis/include/core_cm0plus.h ****   __IOM uint32_t RASR;                   /*!< Offset: 0x010 (R/W)  MPU Region Attribute and Size Re
 531:Generated_Source\PSoC6\pdl\cmsis/include/core_cm0plus.h **** } MPU_Type;
 532:Generated_Source\PSoC6\pdl\cmsis/include/core_cm0plus.h **** 
 533:Generated_Source\PSoC6\pdl\cmsis/include/core_cm0plus.h **** #define MPU_TYPE_RALIASES                  1U
 534:Generated_Source\PSoC6\pdl\cmsis/include/core_cm0plus.h **** 
 535:Generated_Source\PSoC6\pdl\cmsis/include/core_cm0plus.h **** /* MPU Type Register Definitions */
 536:Generated_Source\PSoC6\pdl\cmsis/include/core_cm0plus.h **** #define MPU_TYPE_IREGION_Pos               16U                                            /*!< MPU 
 537:Generated_Source\PSoC6\pdl\cmsis/include/core_cm0plus.h **** #define MPU_TYPE_IREGION_Msk               (0xFFUL << MPU_TYPE_IREGION_Pos)               /*!< MPU 
 538:Generated_Source\PSoC6\pdl\cmsis/include/core_cm0plus.h **** 
 539:Generated_Source\PSoC6\pdl\cmsis/include/core_cm0plus.h **** #define MPU_TYPE_DREGION_Pos                8U                                            /*!< MPU 
 540:Generated_Source\PSoC6\pdl\cmsis/include/core_cm0plus.h **** #define MPU_TYPE_DREGION_Msk               (0xFFUL << MPU_TYPE_DREGION_Pos)               /*!< MPU 
 541:Generated_Source\PSoC6\pdl\cmsis/include/core_cm0plus.h **** 
 542:Generated_Source\PSoC6\pdl\cmsis/include/core_cm0plus.h **** #define MPU_TYPE_SEPARATE_Pos               0U                                            /*!< MPU 
 543:Generated_Source\PSoC6\pdl\cmsis/include/core_cm0plus.h **** #define MPU_TYPE_SEPARATE_Msk              (1UL /*<< MPU_TYPE_SEPARATE_Pos*/)             /*!< MPU 
 544:Generated_Source\PSoC6\pdl\cmsis/include/core_cm0plus.h **** 
 545:Generated_Source\PSoC6\pdl\cmsis/include/core_cm0plus.h **** /* MPU Control Register Definitions */
 546:Generated_Source\PSoC6\pdl\cmsis/include/core_cm0plus.h **** #define MPU_CTRL_PRIVDEFENA_Pos             2U                                            /*!< MPU 
 547:Generated_Source\PSoC6\pdl\cmsis/include/core_cm0plus.h **** #define MPU_CTRL_PRIVDEFENA_Msk            (1UL << MPU_CTRL_PRIVDEFENA_Pos)               /*!< MPU 
 548:Generated_Source\PSoC6\pdl\cmsis/include/core_cm0plus.h **** 
 549:Generated_Source\PSoC6\pdl\cmsis/include/core_cm0plus.h **** #define MPU_CTRL_HFNMIENA_Pos               1U                                            /*!< MPU 
 550:Generated_Source\PSoC6\pdl\cmsis/include/core_cm0plus.h **** #define MPU_CTRL_HFNMIENA_Msk              (1UL << MPU_CTRL_HFNMIENA_Pos)                 /*!< MPU 
 551:Generated_Source\PSoC6\pdl\cmsis/include/core_cm0plus.h **** 
 552:Generated_Source\PSoC6\pdl\cmsis/include/core_cm0plus.h **** #define MPU_CTRL_ENABLE_Pos                 0U                                            /*!< MPU 
 553:Generated_Source\PSoC6\pdl\cmsis/include/core_cm0plus.h **** #define MPU_CTRL_ENABLE_Msk                (1UL /*<< MPU_CTRL_ENABLE_Pos*/)               /*!< MPU 
 554:Generated_Source\PSoC6\pdl\cmsis/include/core_cm0plus.h **** 
 555:Generated_Source\PSoC6\pdl\cmsis/include/core_cm0plus.h **** /* MPU Region Number Register Definitions */
 556:Generated_Source\PSoC6\pdl\cmsis/include/core_cm0plus.h **** #define MPU_RNR_REGION_Pos                  0U                                            /*!< MPU 
 557:Generated_Source\PSoC6\pdl\cmsis/include/core_cm0plus.h **** #define MPU_RNR_REGION_Msk                 (0xFFUL /*<< MPU_RNR_REGION_Pos*/)             /*!< MPU 
 558:Generated_Source\PSoC6\pdl\cmsis/include/core_cm0plus.h **** 
 559:Generated_Source\PSoC6\pdl\cmsis/include/core_cm0plus.h **** /* MPU Region Base Address Register Definitions */
 560:Generated_Source\PSoC6\pdl\cmsis/include/core_cm0plus.h **** #define MPU_RBAR_ADDR_Pos                   8U                                            /*!< MPU 
 561:Generated_Source\PSoC6\pdl\cmsis/include/core_cm0plus.h **** #define MPU_RBAR_ADDR_Msk                  (0xFFFFFFUL << MPU_RBAR_ADDR_Pos)              /*!< MPU 
 562:Generated_Source\PSoC6\pdl\cmsis/include/core_cm0plus.h **** 
 563:Generated_Source\PSoC6\pdl\cmsis/include/core_cm0plus.h **** #define MPU_RBAR_VALID_Pos                  4U                                            /*!< MPU 
 564:Generated_Source\PSoC6\pdl\cmsis/include/core_cm0plus.h **** #define MPU_RBAR_VALID_Msk                 (1UL << MPU_RBAR_VALID_Pos)                    /*!< MPU 
 565:Generated_Source\PSoC6\pdl\cmsis/include/core_cm0plus.h **** 
 566:Generated_Source\PSoC6\pdl\cmsis/include/core_cm0plus.h **** #define MPU_RBAR_REGION_Pos                 0U                                            /*!< MPU 
 567:Generated_Source\PSoC6\pdl\cmsis/include/core_cm0plus.h **** #define MPU_RBAR_REGION_Msk                (0xFUL /*<< MPU_RBAR_REGION_Pos*/)             /*!< MPU 
 568:Generated_Source\PSoC6\pdl\cmsis/include/core_cm0plus.h **** 
 569:Generated_Source\PSoC6\pdl\cmsis/include/core_cm0plus.h **** /* MPU Region Attribute and Size Register Definitions */
 570:Generated_Source\PSoC6\pdl\cmsis/include/core_cm0plus.h **** #define MPU_RASR_ATTRS_Pos                 16U                                            /*!< MPU 
 571:Generated_Source\PSoC6\pdl\cmsis/include/core_cm0plus.h **** #define MPU_RASR_ATTRS_Msk                 (0xFFFFUL << MPU_RASR_ATTRS_Pos)               /*!< MPU 
 572:Generated_Source\PSoC6\pdl\cmsis/include/core_cm0plus.h **** 
 573:Generated_Source\PSoC6\pdl\cmsis/include/core_cm0plus.h **** #define MPU_RASR_XN_Pos                    28U                                            /*!< MPU 
 574:Generated_Source\PSoC6\pdl\cmsis/include/core_cm0plus.h **** #define MPU_RASR_XN_Msk                    (1UL << MPU_RASR_XN_Pos)                       /*!< MPU 
 575:Generated_Source\PSoC6\pdl\cmsis/include/core_cm0plus.h **** 
 576:Generated_Source\PSoC6\pdl\cmsis/include/core_cm0plus.h **** #define MPU_RASR_AP_Pos                    24U                                            /*!< MPU 
 577:Generated_Source\PSoC6\pdl\cmsis/include/core_cm0plus.h **** #define MPU_RASR_AP_Msk                    (0x7UL << MPU_RASR_AP_Pos)                     /*!< MPU 
 578:Generated_Source\PSoC6\pdl\cmsis/include/core_cm0plus.h **** 
 579:Generated_Source\PSoC6\pdl\cmsis/include/core_cm0plus.h **** #define MPU_RASR_TEX_Pos                   19U                                            /*!< MPU 
 580:Generated_Source\PSoC6\pdl\cmsis/include/core_cm0plus.h **** #define MPU_RASR_TEX_Msk                   (0x7UL << MPU_RASR_TEX_Pos)                    /*!< MPU 
 581:Generated_Source\PSoC6\pdl\cmsis/include/core_cm0plus.h **** 
ARM GAS  C:\Users\ASUS\AppData\Local\Temp\ccj4BS4H.s 			page 73


 582:Generated_Source\PSoC6\pdl\cmsis/include/core_cm0plus.h **** #define MPU_RASR_S_Pos                     18U                                            /*!< MPU 
 583:Generated_Source\PSoC6\pdl\cmsis/include/core_cm0plus.h **** #define MPU_RASR_S_Msk                     (1UL << MPU_RASR_S_Pos)                        /*!< MPU 
 584:Generated_Source\PSoC6\pdl\cmsis/include/core_cm0plus.h **** 
 585:Generated_Source\PSoC6\pdl\cmsis/include/core_cm0plus.h **** #define MPU_RASR_C_Pos                     17U                                            /*!< MPU 
 586:Generated_Source\PSoC6\pdl\cmsis/include/core_cm0plus.h **** #define MPU_RASR_C_Msk                     (1UL << MPU_RASR_C_Pos)                        /*!< MPU 
 587:Generated_Source\PSoC6\pdl\cmsis/include/core_cm0plus.h **** 
 588:Generated_Source\PSoC6\pdl\cmsis/include/core_cm0plus.h **** #define MPU_RASR_B_Pos                     16U                                            /*!< MPU 
 589:Generated_Source\PSoC6\pdl\cmsis/include/core_cm0plus.h **** #define MPU_RASR_B_Msk                     (1UL << MPU_RASR_B_Pos)                        /*!< MPU 
 590:Generated_Source\PSoC6\pdl\cmsis/include/core_cm0plus.h **** 
 591:Generated_Source\PSoC6\pdl\cmsis/include/core_cm0plus.h **** #define MPU_RASR_SRD_Pos                    8U                                            /*!< MPU 
 592:Generated_Source\PSoC6\pdl\cmsis/include/core_cm0plus.h **** #define MPU_RASR_SRD_Msk                   (0xFFUL << MPU_RASR_SRD_Pos)                   /*!< MPU 
 593:Generated_Source\PSoC6\pdl\cmsis/include/core_cm0plus.h **** 
 594:Generated_Source\PSoC6\pdl\cmsis/include/core_cm0plus.h **** #define MPU_RASR_SIZE_Pos                   1U                                            /*!< MPU 
 595:Generated_Source\PSoC6\pdl\cmsis/include/core_cm0plus.h **** #define MPU_RASR_SIZE_Msk                  (0x1FUL << MPU_RASR_SIZE_Pos)                  /*!< MPU 
 596:Generated_Source\PSoC6\pdl\cmsis/include/core_cm0plus.h **** 
 597:Generated_Source\PSoC6\pdl\cmsis/include/core_cm0plus.h **** #define MPU_RASR_ENABLE_Pos                 0U                                            /*!< MPU 
 598:Generated_Source\PSoC6\pdl\cmsis/include/core_cm0plus.h **** #define MPU_RASR_ENABLE_Msk                (1UL /*<< MPU_RASR_ENABLE_Pos*/)               /*!< MPU 
 599:Generated_Source\PSoC6\pdl\cmsis/include/core_cm0plus.h **** 
 600:Generated_Source\PSoC6\pdl\cmsis/include/core_cm0plus.h **** /*@} end of group CMSIS_MPU */
 601:Generated_Source\PSoC6\pdl\cmsis/include/core_cm0plus.h **** #endif
 602:Generated_Source\PSoC6\pdl\cmsis/include/core_cm0plus.h **** 
 603:Generated_Source\PSoC6\pdl\cmsis/include/core_cm0plus.h **** 
 604:Generated_Source\PSoC6\pdl\cmsis/include/core_cm0plus.h **** /**
 605:Generated_Source\PSoC6\pdl\cmsis/include/core_cm0plus.h ****   \ingroup  CMSIS_core_register
 606:Generated_Source\PSoC6\pdl\cmsis/include/core_cm0plus.h ****   \defgroup CMSIS_CoreDebug       Core Debug Registers (CoreDebug)
 607:Generated_Source\PSoC6\pdl\cmsis/include/core_cm0plus.h ****   \brief    Cortex-M0+ Core Debug Registers (DCB registers, SHCSR, and DFSR) are only accessible ov
 608:Generated_Source\PSoC6\pdl\cmsis/include/core_cm0plus.h ****             Therefore they are not covered by the Cortex-M0+ header file.
 609:Generated_Source\PSoC6\pdl\cmsis/include/core_cm0plus.h ****   @{
 610:Generated_Source\PSoC6\pdl\cmsis/include/core_cm0plus.h ****  */
 611:Generated_Source\PSoC6\pdl\cmsis/include/core_cm0plus.h **** /*@} end of group CMSIS_CoreDebug */
 612:Generated_Source\PSoC6\pdl\cmsis/include/core_cm0plus.h **** 
 613:Generated_Source\PSoC6\pdl\cmsis/include/core_cm0plus.h **** 
 614:Generated_Source\PSoC6\pdl\cmsis/include/core_cm0plus.h **** /**
 615:Generated_Source\PSoC6\pdl\cmsis/include/core_cm0plus.h ****   \ingroup    CMSIS_core_register
 616:Generated_Source\PSoC6\pdl\cmsis/include/core_cm0plus.h ****   \defgroup   CMSIS_core_bitfield     Core register bit field macros
 617:Generated_Source\PSoC6\pdl\cmsis/include/core_cm0plus.h ****   \brief      Macros for use with bit field definitions (xxx_Pos, xxx_Msk).
 618:Generated_Source\PSoC6\pdl\cmsis/include/core_cm0plus.h ****   @{
 619:Generated_Source\PSoC6\pdl\cmsis/include/core_cm0plus.h ****  */
 620:Generated_Source\PSoC6\pdl\cmsis/include/core_cm0plus.h **** 
 621:Generated_Source\PSoC6\pdl\cmsis/include/core_cm0plus.h **** /**
 622:Generated_Source\PSoC6\pdl\cmsis/include/core_cm0plus.h ****   \brief   Mask and shift a bit field value for use in a register bit range.
 623:Generated_Source\PSoC6\pdl\cmsis/include/core_cm0plus.h ****   \param[in] field  Name of the register bit field.
 624:Generated_Source\PSoC6\pdl\cmsis/include/core_cm0plus.h ****   \param[in] value  Value of the bit field. This parameter is interpreted as an uint32_t type.
 625:Generated_Source\PSoC6\pdl\cmsis/include/core_cm0plus.h ****   \return           Masked and shifted value.
 626:Generated_Source\PSoC6\pdl\cmsis/include/core_cm0plus.h **** */
 627:Generated_Source\PSoC6\pdl\cmsis/include/core_cm0plus.h **** #define _VAL2FLD(field, value)    (((uint32_t)(value) << field ## _Pos) & field ## _Msk)
 628:Generated_Source\PSoC6\pdl\cmsis/include/core_cm0plus.h **** 
 629:Generated_Source\PSoC6\pdl\cmsis/include/core_cm0plus.h **** /**
 630:Generated_Source\PSoC6\pdl\cmsis/include/core_cm0plus.h ****   \brief     Mask and shift a register value to extract a bit filed value.
 631:Generated_Source\PSoC6\pdl\cmsis/include/core_cm0plus.h ****   \param[in] field  Name of the register bit field.
 632:Generated_Source\PSoC6\pdl\cmsis/include/core_cm0plus.h ****   \param[in] value  Value of register. This parameter is interpreted as an uint32_t type.
 633:Generated_Source\PSoC6\pdl\cmsis/include/core_cm0plus.h ****   \return           Masked and shifted bit field value.
 634:Generated_Source\PSoC6\pdl\cmsis/include/core_cm0plus.h **** */
 635:Generated_Source\PSoC6\pdl\cmsis/include/core_cm0plus.h **** #define _FLD2VAL(field, value)    (((uint32_t)(value) & field ## _Msk) >> field ## _Pos)
 636:Generated_Source\PSoC6\pdl\cmsis/include/core_cm0plus.h **** 
 637:Generated_Source\PSoC6\pdl\cmsis/include/core_cm0plus.h **** /*@} end of group CMSIS_core_bitfield */
 638:Generated_Source\PSoC6\pdl\cmsis/include/core_cm0plus.h **** 
ARM GAS  C:\Users\ASUS\AppData\Local\Temp\ccj4BS4H.s 			page 74


 639:Generated_Source\PSoC6\pdl\cmsis/include/core_cm0plus.h **** 
 640:Generated_Source\PSoC6\pdl\cmsis/include/core_cm0plus.h **** /**
 641:Generated_Source\PSoC6\pdl\cmsis/include/core_cm0plus.h ****   \ingroup    CMSIS_core_register
 642:Generated_Source\PSoC6\pdl\cmsis/include/core_cm0plus.h ****   \defgroup   CMSIS_core_base     Core Definitions
 643:Generated_Source\PSoC6\pdl\cmsis/include/core_cm0plus.h ****   \brief      Definitions for base addresses, unions, and structures.
 644:Generated_Source\PSoC6\pdl\cmsis/include/core_cm0plus.h ****   @{
 645:Generated_Source\PSoC6\pdl\cmsis/include/core_cm0plus.h ****  */
 646:Generated_Source\PSoC6\pdl\cmsis/include/core_cm0plus.h **** 
 647:Generated_Source\PSoC6\pdl\cmsis/include/core_cm0plus.h **** /* Memory mapping of Core Hardware */
 648:Generated_Source\PSoC6\pdl\cmsis/include/core_cm0plus.h **** #define SCS_BASE            (0xE000E000UL)                            /*!< System Control Space Bas
 649:Generated_Source\PSoC6\pdl\cmsis/include/core_cm0plus.h **** #define SysTick_BASE        (SCS_BASE +  0x0010UL)                    /*!< SysTick Base Address */
 650:Generated_Source\PSoC6\pdl\cmsis/include/core_cm0plus.h **** #define NVIC_BASE           (SCS_BASE +  0x0100UL)                    /*!< NVIC Base Address */
 651:Generated_Source\PSoC6\pdl\cmsis/include/core_cm0plus.h **** #define SCB_BASE            (SCS_BASE +  0x0D00UL)                    /*!< System Control Block Bas
 652:Generated_Source\PSoC6\pdl\cmsis/include/core_cm0plus.h **** 
 653:Generated_Source\PSoC6\pdl\cmsis/include/core_cm0plus.h **** #define SCB                 ((SCB_Type       *)     SCB_BASE      )   /*!< SCB configuration struct
