ARM GAS  C:\Users\ASUS\AppData\Local\Temp\ccYYtRfk.s 			page 1


   1              		.syntax unified
   2              		.cpu cortex-m0plus
   3              		.fpu softvfp
   4              		.eabi_attribute 20, 1
   5              		.eabi_attribute 21, 1
   6              		.eabi_attribute 23, 3
   7              		.eabi_attribute 24, 1
   8              		.eabi_attribute 25, 1
   9              		.eabi_attribute 26, 1
  10              		.eabi_attribute 30, 1
  11              		.eabi_attribute 34, 0
  12              		.eabi_attribute 18, 4
  13              		.thumb
  14              		.syntax unified
  15              		.file	"main_cm0p.c"
  16              		.text
  17              	.Ltext0:
  18              		.cfi_sections	.debug_frame
  19              		.section	.text.genericEventHandler,"ax",%progbits
  20              		.align	2
  21              		.global	genericEventHandler
  22              		.code	16
  23              		.thumb_func
  24              		.type	genericEventHandler, %function
  25              	genericEventHandler:
  26              	.LFB467:
  27              		.file 1 "BLE.h"
   1:BLE.h         **** /* ========================================
   2:BLE.h         ****  *
   3:BLE.h         ****  * Copyright YOUR COMPANY, THE YEAR
   4:BLE.h         ****  * All Rights Reserved
   5:BLE.h         ****  * UNPUBLISHED, LICENSED SOFTWARE.
   6:BLE.h         ****  *
   7:BLE.h         ****  * CONFIDENTIAL AND PROPRIETARY INFORMATION
   8:BLE.h         ****  * WHICH IS THE PROPERTY OF your company.
   9:BLE.h         ****  *
  10:BLE.h         ****  * ========================================
  11:BLE.h         **** */
  12:BLE.h         **** #include "stdio.h"
  13:BLE.h         **** #include "project.h"
  14:BLE.h         **** 
  15:BLE.h         **** static uint8 data[1] = {0};
  16:BLE.h         **** 
  17:BLE.h         **** void genericEventHandler(uint32_t event, void *eventParameter)
  18:BLE.h         **** {
  28              		.loc 1 18 0
  29              		.cfi_startproc
  30              		@ args = 0, pretend = 0, frame = 0
  31              		@ frame_needed = 0, uses_anonymous_args = 0
  32              	.LVL0:
  33 0000 10B5     		push	{r4, lr}
  34              		.cfi_def_cfa_offset 8
  35              		.cfi_offset 4, -8
  36              		.cfi_offset 14, -4
  19:BLE.h         ****     switch(event)
  37              		.loc 1 19 0
  38 0002 0D4B     		ldr	r3, .L5
ARM GAS  C:\Users\ASUS\AppData\Local\Temp\ccYYtRfk.s 			page 2


  39 0004 9842     		cmp	r0, r3
  40 0006 06D0     		beq	.L3
  41 0008 0C4B     		ldr	r3, .L5+4
  42 000a 9842     		cmp	r0, r3
  43 000c 08D0     		beq	.L4
  44 000e 8023     		movs	r3, #128
  45 0010 5B01     		lsls	r3, r3, #5
  46 0012 9842     		cmp	r0, r3
  47 0014 0ED1     		bne	.L1
  48              	.L3:
  20:BLE.h         ****     {
  21:BLE.h         ****         case CY_BLE_EVT_STACK_ON:
  22:BLE.h         ****         case CY_BLE_EVT_GAP_DEVICE_DISCONNECTED:
  23:BLE.h         ****         {
  24:BLE.h         ****             Cy_BLE_GAPP_StartAdvertisement(CY_BLE_ADVERTISING_FAST, CY_BLE_PERIPHERAL_CONFIGURATION
  49              		.loc 1 24 0
  50 0016 0021     		movs	r1, #0
  51              	.LVL1:
  52 0018 0020     		movs	r0, #0
  53              	.LVL2:
  54 001a FFF7FEFF 		bl	Cy_BLE_GAPP_StartAdvertisement
  55              	.LVL3:
  25:BLE.h         ****             break;
  56              		.loc 1 25 0
  57 001e 09E0     		b	.L1
  58              	.LVL4:
  59              	.L4:
  60              	.LBB47:
  26:BLE.h         ****         }
  27:BLE.h         ****         case CY_BLE_EVT_GATT_CONNECT_IND:
  28:BLE.h         ****         {
  29:BLE.h         ****             break;
  30:BLE.h         ****         }
  31:BLE.h         ****         case CY_BLE_EVT_GATTS_WRITE_CMD_REQ:
  32:BLE.h         ****         {
  33:BLE.h         ****             cy_stc_ble_gatts_write_cmd_req_param_t *writeReqParameter = (cy_stc_ble_gatts_write_cmd
  34:BLE.h         ****             
  35:BLE.h         ****             if (CY_BLE_DEVICE_INTERFACE_DEVICE_INBOUND_CHAR_HANDLE == writeReqParameter->handleValP
  61              		.loc 1 35 0
  62 0020 0B89     		ldrh	r3, [r1, #8]
  63 0022 122B     		cmp	r3, #18
  64 0024 06D1     		bne	.L1
  36:BLE.h         ****             {
  37:BLE.h         ****                 data[0] = writeReqParameter->handleValPair.value.val[0];
  65              		.loc 1 37 0
  66 0026 0B68     		ldr	r3, [r1]
  67 0028 1A78     		ldrb	r2, [r3]
  68 002a 054B     		ldr	r3, .L5+8
  69 002c 1A70     		strb	r2, [r3]
  38:BLE.h         ****                 Cy_BLE_GATTS_WriteRsp(writeReqParameter->connHandle);
  70              		.loc 1 38 0
  71 002e C868     		ldr	r0, [r1, #12]
  72              	.LVL5:
  73 0030 FFF7FEFF 		bl	Cy_BLE_GATTS_WriteRsp
  74              	.LVL6:
  75              	.L1:
  76              	.LBE47:
ARM GAS  C:\Users\ASUS\AppData\Local\Temp\ccYYtRfk.s 			page 3


  39:BLE.h         ****             }
  40:BLE.h         ****             break;
  41:BLE.h         ****         }
  42:BLE.h         ****     }
  43:BLE.h         **** }
  77              		.loc 1 43 0
  78              		@ sp needed
  79 0034 10BD     		pop	{r4, pc}
  80              	.L6:
  81 0036 C046     		.align	2
  82              	.L5:
  83 0038 08400000 		.word	16392
  84 003c 0E500000 		.word	20494
  85 0040 00000000 		.word	.LANCHOR0
  86              		.cfi_endproc
  87              	.LFE467:
  88              		.size	genericEventHandler, .-genericEventHandler
  89              		.section	.text.bleInterruptNotify,"ax",%progbits
  90              		.align	2
  91              		.global	bleInterruptNotify
  92              		.code	16
  93              		.thumb_func
  94              		.type	bleInterruptNotify, %function
  95              	bleInterruptNotify:
  96              	.LFB468:
  44:BLE.h         **** void bleInterruptNotify()
  45:BLE.h         **** {
  97              		.loc 1 45 0
  98              		.cfi_startproc
  99              		@ args = 0, pretend = 0, frame = 0
 100              		@ frame_needed = 0, uses_anonymous_args = 0
 101 0000 10B5     		push	{r4, lr}
 102              		.cfi_def_cfa_offset 8
 103              		.cfi_offset 4, -8
 104              		.cfi_offset 14, -4
  46:BLE.h         ****     Cy_BLE_ProcessEvents();
 105              		.loc 1 46 0
 106 0002 FFF7FEFF 		bl	Cy_BLE_ProcessEvents
 107              	.LVL7:
  47:BLE.h         **** }
 108              		.loc 1 47 0
 109              		@ sp needed
 110 0006 10BD     		pop	{r4, pc}
 111              		.cfi_endproc
 112              	.LFE468:
 113              		.size	bleInterruptNotify, .-bleInterruptNotify
 114              		.section	.text.RtcInterruptHandler,"ax",%progbits
 115              		.align	2
 116              		.global	RtcInterruptHandler
 117              		.code	16
 118              		.thumb_func
 119              		.type	RtcInterruptHandler, %function
 120              	RtcInterruptHandler:
 121              	.LFB486:
 122              		.file 2 "RTC_Alarm.h"
   1:RTC_Alarm.h   **** /******************************************************************************
   2:RTC_Alarm.h   **** * File Name: RTC_Alarm.h
ARM GAS  C:\Users\ASUS\AppData\Local\Temp\ccYYtRfk.s 			page 4


   3:RTC_Alarm.h   **** *
   4:RTC_Alarm.h   **** * Version: Beta
   5:RTC_Alarm.h   **** *
   6:RTC_Alarm.h   **** * Description: This is the firmware for setting up the RTC counter clock. The
   7:RTC_Alarm.h   **** * RTC is used for waking up the CPU from deep sleep at a select interval. The
   8:RTC_Alarm.h   **** * interval can be adjusted by modifying the macros in this file.
   9:RTC_Alarm.h   **** *
  10:RTC_Alarm.h   **** * Related Document: CE218542_PSoC_Custom_TickTimer_RTC.pdf
  11:RTC_Alarm.h   **** * Hardware Dependency:  CY8CKIT-063-BLE PSoC 6 BLE Pioneer kit
  12:RTC_Alarm.h   **** *
  13:RTC_Alarm.h   **** * Author(s):
  14:RTC_Alarm.h   **** *	Adapted from the PSoC CE218542 Code Example
  15:RTC_Alarm.h   **** *
  16:RTC_Alarm.h   **** *	Yousef H. Akbar & and Cow Team
  17:RTC_Alarm.h   **** *	Dept. Electrical and Computer Engineering
  18:RTC_Alarm.h   **** *	University of California, Davis
  19:RTC_Alarm.h   **** ******************************************************************************/
  20:RTC_Alarm.h   **** 
  21:RTC_Alarm.h   **** #include "project.h"
  22:RTC_Alarm.h   **** 
  23:RTC_Alarm.h   **** /* Macros */
  24:RTC_Alarm.h   **** #define MAX_ATTEMPTS        (500u)  /* Number of attempts for RTC operation */ 
  25:RTC_Alarm.h   **** #define INIT_DELAY          (5u)    /* Delay 5 milliseconds before each trial */
  26:RTC_Alarm.h   **** 
  27:RTC_Alarm.h   **** #define SECONDS_PER_MIN     (60u)   /* used to keep values in range */
  28:RTC_Alarm.h   **** #define MINUTES_PER_HOUR    (60u)
  29:RTC_Alarm.h   **** 
  30:RTC_Alarm.h   **** #define TICK_INTERVAL       (5u)    /* Seconds or minutes. 1-59 Range */
  31:RTC_Alarm.h   **** #define USE_SECONDS         (1u)    /* set to one to use, to zero to not use */
  32:RTC_Alarm.h   **** #define USE_MINUTES         (0u)    /* use seconds OR minutes, not both  */
  33:RTC_Alarm.h   **** 
  34:RTC_Alarm.h   **** /* The interrupt status variable */
  35:RTC_Alarm.h   **** static uint32_t alarmFlag = 0u;
  36:RTC_Alarm.h   **** 
  37:RTC_Alarm.h   **** /* 
  38:RTC_Alarm.h   ****     If an En field is set to CY_RTC_ALARM_DISABLE, the alarm
  39:RTC_Alarm.h   ****     function ignores the disabled field when looking for a match.
  40:RTC_Alarm.h   ****     Configured to ignore all matches but enable the alarm, and
  41:RTC_Alarm.h   ****     the alarm goes off once per second, because the RTC uses 
  42:RTC_Alarm.h   ****     one-second resolution. 
  43:RTC_Alarm.h   **** */
  44:RTC_Alarm.h   **** cy_stc_rtc_alarm_t alarmConfig = 
  45:RTC_Alarm.h   **** {
  46:RTC_Alarm.h   ****     .sec            = RTC_INITIAL_DATE_SEC,
  47:RTC_Alarm.h   ****     .secEn          = CY_RTC_ALARM_DISABLE,
  48:RTC_Alarm.h   ****     .min            = RTC_INITIAL_DATE_MIN,
  49:RTC_Alarm.h   ****     .minEn          = CY_RTC_ALARM_DISABLE,
  50:RTC_Alarm.h   ****     .hour           = RTC_INITIAL_DATE_HOUR,
  51:RTC_Alarm.h   ****     .hourEn         = CY_RTC_ALARM_DISABLE,
  52:RTC_Alarm.h   ****     .dayOfWeek      = RTC_INITIAL_DATE_DOW,
  53:RTC_Alarm.h   ****     .dayOfWeekEn    = CY_RTC_ALARM_DISABLE,
  54:RTC_Alarm.h   ****     .date           = RTC_INITIAL_DATE_DOM,
  55:RTC_Alarm.h   ****     .dateEn         = CY_RTC_ALARM_DISABLE,
  56:RTC_Alarm.h   ****     .month          = RTC_INITIAL_DATE_MONTH,
  57:RTC_Alarm.h   ****     .monthEn        = CY_RTC_ALARM_DISABLE,
  58:RTC_Alarm.h   ****     .almEn          = CY_RTC_ALARM_ENABLE
  59:RTC_Alarm.h   **** };
ARM GAS  C:\Users\ASUS\AppData\Local\Temp\ccYYtRfk.s 			page 5


  60:RTC_Alarm.h   **** 
  61:RTC_Alarm.h   **** /*****************************************************************************/
  62:RTC_Alarm.h   **** /*                      Function Prototypes                                  */
  63:RTC_Alarm.h   **** /*****************************************************************************/
  64:RTC_Alarm.h   **** cy_en_rtc_status_t RtcInit(void);
  65:RTC_Alarm.h   **** cy_en_rtc_status_t RtcAlarmConfig(void);
  66:RTC_Alarm.h   **** void RtcInterruptHandler(void);
  67:RTC_Alarm.h   **** void RtcStepAlarm(void);
  68:RTC_Alarm.h   **** 
  69:RTC_Alarm.h   **** /******************************************************************************
  70:RTC_Alarm.h   **** * Function Name: main
  71:RTC_Alarm.h   **** *******************************************************************************
  72:RTC_Alarm.h   **** *
  73:RTC_Alarm.h   **** * Summary: This is the system entrance point for Cortex-M4.
  74:RTC_Alarm.h   **** * This function generates a custom tick time interrupt using RTC alarm function.
  75:RTC_Alarm.h   **** *
  76:RTC_Alarm.h   **** * Parameters:
  77:RTC_Alarm.h   **** *  None
  78:RTC_Alarm.h   **** *
  79:RTC_Alarm.h   **** * Return:
  80:RTC_Alarm.h   **** *  int
  81:RTC_Alarm.h   **** *
  82:RTC_Alarm.h   **** * Side Effects:
  83:RTC_Alarm.h   **** *  None  
  84:RTC_Alarm.h   **** *
  85:RTC_Alarm.h   **** ******************************************************************************/
  86:RTC_Alarm.h   **** void init_RTC(void)
  87:RTC_Alarm.h   **** {
  88:RTC_Alarm.h   ****     /* Init RTC - Configure the time and date */
  89:RTC_Alarm.h   ****     if(RtcInit() != CY_RTC_SUCCESS)
  90:RTC_Alarm.h   ****     {
  91:RTC_Alarm.h   ****         /* If operation fails, halt */
  92:RTC_Alarm.h   ****         CY_ASSERT(0u);
  93:RTC_Alarm.h   ****     }
  94:RTC_Alarm.h   ****     else  /* Configures the alarm to enable interrupt */
  95:RTC_Alarm.h   ****     {   
  96:RTC_Alarm.h   ****         /*
  97:RTC_Alarm.h   ****             To create a periodic alarm once per minute, enable the seconds match.
  98:RTC_Alarm.h   ****             Do not enable the minutes match, because all that matters is the
  99:RTC_Alarm.h   ****             seconds number. If it's zero, then every time the RTC second wraps
 100:RTC_Alarm.h   ****             around to zero, there is a match, and the alarm goes off.
 101:RTC_Alarm.h   ****         */
 102:RTC_Alarm.h   ****         if( (TICK_INTERVAL == 1u) && (USE_MINUTES == 1u))
 103:RTC_Alarm.h   ****         {
 104:RTC_Alarm.h   ****             alarmConfig.secEn = CY_RTC_ALARM_ENABLE;
 105:RTC_Alarm.h   ****         }
 106:RTC_Alarm.h   **** 
 107:RTC_Alarm.h   ****         /* Now configure the alarm */
 108:RTC_Alarm.h   ****         if(RtcAlarmConfig() != CY_RTC_SUCCESS)
 109:RTC_Alarm.h   ****         {
 110:RTC_Alarm.h   ****            /* If operation fails, halt */
 111:RTC_Alarm.h   ****            CY_ASSERT(0u);
 112:RTC_Alarm.h   ****         }
 113:RTC_Alarm.h   ****         else
 114:RTC_Alarm.h   ****         {
 115:RTC_Alarm.h   **** 	        /* This CE uses Alarm2, enable that interrupt */
 116:RTC_Alarm.h   **** 		    Cy_RTC_SetInterruptMask(CY_RTC_INTR_ALARM2);
ARM GAS  C:\Users\ASUS\AppData\Local\Temp\ccYYtRfk.s 			page 6


 117:RTC_Alarm.h   ****         }
 118:RTC_Alarm.h   ****     }
 119:RTC_Alarm.h   ****     
 120:RTC_Alarm.h   ****     /* Enable RTC interrupt handler function */
 121:RTC_Alarm.h   ****     Cy_SysInt_Init(&RTC_RTC_IRQ_cfg, RtcInterruptHandler);
 122:RTC_Alarm.h   ****     NVIC_EnableIRQ(RTC_RTC_IRQ_cfg.intrSrc);
 123:RTC_Alarm.h   **** }
 124:RTC_Alarm.h   **** 
 125:RTC_Alarm.h   **** /******************************************************************************
 126:RTC_Alarm.h   **** * Function Name: RtcInit
 127:RTC_Alarm.h   **** *******************************************************************************
 128:RTC_Alarm.h   **** *
 129:RTC_Alarm.h   **** * Summary: 
 130:RTC_Alarm.h   **** *  This function configures the RTC registers.
 131:RTC_Alarm.h   **** *
 132:RTC_Alarm.h   **** * Parameters:
 133:RTC_Alarm.h   **** *  None
 134:RTC_Alarm.h   **** *
 135:RTC_Alarm.h   **** * Return:
 136:RTC_Alarm.h   **** *  cy_en_rtc_status_t
 137:RTC_Alarm.h   **** *       CY_RTC_SUCCESS      : Time and date configuration is successfully done.
 138:RTC_Alarm.h   **** *       CY_RTC_BAD_PARAM    : Date values are not valid.
 139:RTC_Alarm.h   **** *       CY_RTC_INVALID_STATE: RTC is busy state
 140:RTC_Alarm.h   **** *
 141:RTC_Alarm.h   **** ******************************************************************************/
 142:RTC_Alarm.h   **** cy_en_rtc_status_t RtcInit(void)
 143:RTC_Alarm.h   **** {
 144:RTC_Alarm.h   ****     uint32_t attempts = MAX_ATTEMPTS;
 145:RTC_Alarm.h   ****     cy_en_rtc_status_t result;
 146:RTC_Alarm.h   ****     
 147:RTC_Alarm.h   ****     /* Setting the time and date can fail. For example the RTC might be busy.
 148:RTC_Alarm.h   ****        Check the result and try again, if necessary.  */
 149:RTC_Alarm.h   ****     do
 150:RTC_Alarm.h   ****     {
 151:RTC_Alarm.h   ****         result = Cy_RTC_Init(&RTC_config);
 152:RTC_Alarm.h   ****         attempts--;
 153:RTC_Alarm.h   ****         
 154:RTC_Alarm.h   ****         Cy_SysLib_Delay(INIT_DELAY);
 155:RTC_Alarm.h   ****     } while(( result != CY_RTC_SUCCESS) && (attempts != 0u));
 156:RTC_Alarm.h   ****     
 157:RTC_Alarm.h   **** 	return (result);
 158:RTC_Alarm.h   **** }
 159:RTC_Alarm.h   **** 
 160:RTC_Alarm.h   **** /******************************************************************************
 161:RTC_Alarm.h   **** * Function Name: RtcAlarmConfig
 162:RTC_Alarm.h   **** *******************************************************************************
 163:RTC_Alarm.h   **** *
 164:RTC_Alarm.h   **** * Summary: 
 165:RTC_Alarm.h   **** *  This function configures the custom RTC alarm to utilize the custom tick
 166:RTC_Alarm.h   **** *  timer interrupt.
 167:RTC_Alarm.h   **** *
 168:RTC_Alarm.h   **** * Parameters:
 169:RTC_Alarm.h   **** *  None
 170:RTC_Alarm.h   **** *
 171:RTC_Alarm.h   **** * Return:
 172:RTC_Alarm.h   **** *  cy_en_rtc_status_t
 173:RTC_Alarm.h   **** *       CY_RTC_SUCCESS      : Time and date configuration is successfully done.
ARM GAS  C:\Users\ASUS\AppData\Local\Temp\ccYYtRfk.s 			page 7


 174:RTC_Alarm.h   **** *       CY_RTC_BAD_PARAM    : Date values are not valid.
 175:RTC_Alarm.h   **** *       CY_RTC_INVALID_STATE: RTC is busy state
 176:RTC_Alarm.h   **** *
 177:RTC_Alarm.h   **** ******************************************************************************/
 178:RTC_Alarm.h   **** cy_en_rtc_status_t RtcAlarmConfig(void)
 179:RTC_Alarm.h   **** {
 180:RTC_Alarm.h   ****     uint32_t attempts = MAX_ATTEMPTS;
 181:RTC_Alarm.h   ****     cy_en_rtc_status_t result;
 182:RTC_Alarm.h   **** 
 183:RTC_Alarm.h   ****     /* 
 184:RTC_Alarm.h   ****        Setting the alarm can fail. For example the RTC might be busy. 
 185:RTC_Alarm.h   ****        Check the result and try again, if necessary.
 186:RTC_Alarm.h   ****     */
 187:RTC_Alarm.h   ****     do
 188:RTC_Alarm.h   **** 	{
 189:RTC_Alarm.h   **** 		result = Cy_RTC_SetAlarmDateAndTime((cy_stc_rtc_alarm_t const
 190:RTC_Alarm.h   **** 					*)&alarmConfig, CY_RTC_ALARM_2);
 191:RTC_Alarm.h   **** 		attempts--;
 192:RTC_Alarm.h   ****         
 193:RTC_Alarm.h   **** 		Cy_SysLib_Delay(INIT_DELAY);
 194:RTC_Alarm.h   ****     } while(( result != CY_RTC_SUCCESS) && (attempts != 0u));
 195:RTC_Alarm.h   ****     
 196:RTC_Alarm.h   **** 	return (result);
 197:RTC_Alarm.h   **** }
 198:RTC_Alarm.h   **** 
 199:RTC_Alarm.h   **** /******************************************************************************
 200:RTC_Alarm.h   **** * Function Name: RtcInterruptHandler
 201:RTC_Alarm.h   **** *******************************************************************************
 202:RTC_Alarm.h   **** *
 203:RTC_Alarm.h   **** * Summary: 
 204:RTC_Alarm.h   **** *  This is the general RTC interrupt handler in CPU NVIC.
 205:RTC_Alarm.h   **** *  It calls the Alarm2 interrupt handler if that is the interrupt that occurs.
 206:RTC_Alarm.h   **** *
 207:RTC_Alarm.h   **** * Parameters:
 208:RTC_Alarm.h   **** *  None
 209:RTC_Alarm.h   **** *
 210:RTC_Alarm.h   **** * Return:
 211:RTC_Alarm.h   **** *  None
 212:RTC_Alarm.h   **** *
 213:RTC_Alarm.h   **** ******************************************************************************/
 214:RTC_Alarm.h   **** void RtcInterruptHandler(void)
 215:RTC_Alarm.h   **** {
 123              		.loc 2 215 0
 124              		.cfi_startproc
 125              		@ args = 0, pretend = 0, frame = 0
 126              		@ frame_needed = 0, uses_anonymous_args = 0
 127 0000 10B5     		push	{r4, lr}
 128              		.cfi_def_cfa_offset 8
 129              		.cfi_offset 4, -8
 130              		.cfi_offset 14, -4
 216:RTC_Alarm.h   ****     /* No DST parameters are required for the custom tick. */
 217:RTC_Alarm.h   ****     Cy_RTC_Interrupt(NULL, false);
 131              		.loc 2 217 0
 132 0002 0021     		movs	r1, #0
 133 0004 0020     		movs	r0, #0
 134 0006 FFF7FEFF 		bl	Cy_RTC_Interrupt
 135              	.LVL8:
ARM GAS  C:\Users\ASUS\AppData\Local\Temp\ccYYtRfk.s 			page 8


 218:RTC_Alarm.h   **** }
 136              		.loc 2 218 0
 137              		@ sp needed
 138 000a 10BD     		pop	{r4, pc}
 139              		.cfi_endproc
 140              	.LFE486:
 141              		.size	RtcInterruptHandler, .-RtcInterruptHandler
 142              		.section	.text.toggleState,"ax",%progbits
 143              		.align	2
 144              		.global	toggleState
 145              		.code	16
 146              		.thumb_func
 147              		.type	toggleState, %function
 148              	toggleState:
 149              	.LFB462:
 150              		.file 3 "FSM.h"
   1:FSM.h         **** /******************************************************************************
   2:FSM.h         **** * File Name: FSM.h
   3:FSM.h         **** *
   4:FSM.h         **** * Version: Beta
   5:FSM.h         **** *
   6:FSM.h         **** * Description: This file contains the definition of the Finite State Machine,
   7:FSM.h         **** * part of the firmware for the HappyCow/EasyMoo Electronic Design (EEC136)
   8:FSM.h         **** * Capstone Project.
   9:FSM.h         **** *
  10:FSM.h         **** * Related Document: HappyCowReport.pdf
  11:FSM.h         **** * Hardware Dependency: CY8CKIT-063-BLE PSoC 6 BLE Pioneer kit
  12:FSM.h         **** *
  13:FSM.h         **** * Author(s):
  14:FSM.h         **** *	Yousef H. Akbar & Cow Team
  15:FSM.h         **** *	Dept. Electrical and Computer Engineering
  16:FSM.h         **** *	University of California, Davis
  17:FSM.h         **** *******************************************************************************
  18:FSM.h         **** * The current list of states in our FSM are:
  19:FSM.h         **** * 	0) OFF:		    Default starting state, switched off using button.
  20:FSM.h         **** * 	1) SENSOR:	    When PSoC switched on; active sensor reading mode.
  21:FSM.h         **** * 	2) SLEEP:	    When inactivity detected; use minimal resources.
  22:FSM.h         **** * 	3) CRITICAL:	When sensors read critical info; alert user until off.
  23:FSM.h         **** * 	4) TALK:	    When connected to BLE; send info to CySmart.
  24:FSM.h         **** * States are either 0 or 1; One state will always be 1, others must be 0.
  25:FSM.h         **** * As mentioned, OFF is the starting state.
  26:FSM.h         **** ******************************************************************************/
  27:FSM.h         **** 
  28:FSM.h         **** #include "stdio.h"
  29:FSM.h         **** 
  30:FSM.h         **** #define NUM_STATES      (5)
  31:FSM.h         **** #define CRIT_INACTIVE   (600)
  32:FSM.h         **** 
  33:FSM.h         **** enum STATES{OFF, SENSOR, SLEEP, CRITICAL, TALK};
  34:FSM.h         **** 
  35:FSM.h         **** struct State {
  36:FSM.h         **** 	int id;
  37:FSM.h         **** 	int val;
  38:FSM.h         **** 	int prev;
  39:FSM.h         **** };
  40:FSM.h         **** 
  41:FSM.h         **** typedef struct FSM {
ARM GAS  C:\Users\ASUS\AppData\Local\Temp\ccYYtRfk.s 			page 9


  42:FSM.h         **** 	struct State states[5];
  43:FSM.h         **** 	struct State *curr;
  44:FSM.h         **** } FSM;
  45:FSM.h         **** 
  46:FSM.h         **** /* Function Name: toggleState
  47:FSM.h         ****  *
  48:FSM.h         ****  * Summary:
  49:FSM.h         ****  * This function toggles the value (0 or 1, off or on) of the state specified
  50:FSM.h         ****  * by the @target argument. It saves its value pre-toggle to the `prev`
  51:FSM.h         ****  * variable.
  52:FSM.h         ****  *
  53:FSM.h         ****  * Parameters:
  54:FSM.h         ****  * 	@*target:	pointer to state we would like to toggle.
  55:FSM.h         ****  *
  56:FSM.h         ****  * Return:
  57:FSM.h         ****  * 	None.
  58:FSM.h         ****  */
  59:FSM.h         **** void toggleState(struct State *target)
  60:FSM.h         **** {
 151              		.loc 3 60 0
 152              		.cfi_startproc
 153              		@ args = 0, pretend = 0, frame = 0
 154              		@ frame_needed = 0, uses_anonymous_args = 0
 155              		@ link register save eliminated.
 156              	.LVL9:
  61:FSM.h         **** 	int *previous = &(target->prev);
  62:FSM.h         **** 	int *value = &(target->val);
  63:FSM.h         **** 	
  64:FSM.h         **** 	*previous = target->val;
 157              		.loc 3 64 0
 158 0000 4368     		ldr	r3, [r0, #4]
 159 0002 8360     		str	r3, [r0, #8]
  65:FSM.h         **** 	if (*value == 1)
 160              		.loc 3 65 0
 161 0004 012B     		cmp	r3, #1
 162 0006 02D1     		bne	.L10
  66:FSM.h         **** 		*value = 0;
 163              		.loc 3 66 0
 164 0008 0023     		movs	r3, #0
 165 000a 4360     		str	r3, [r0, #4]
 166 000c 01E0     		b	.L9
 167              	.L10:
  67:FSM.h         **** 	else
  68:FSM.h         **** 		*value = 1;
 168              		.loc 3 68 0
 169 000e 0123     		movs	r3, #1
 170 0010 4360     		str	r3, [r0, #4]
 171              	.L9:
  69:FSM.h         **** }
 172              		.loc 3 69 0
 173              		@ sp needed
 174 0012 7047     		bx	lr
 175              		.cfi_endproc
 176              	.LFE462:
 177              		.size	toggleState, .-toggleState
 178              		.section	.text.setCurrState,"ax",%progbits
 179              		.align	2
ARM GAS  C:\Users\ASUS\AppData\Local\Temp\ccYYtRfk.s 			page 10


 180              		.global	setCurrState
 181              		.code	16
 182              		.thumb_func
 183              		.type	setCurrState, %function
 184              	setCurrState:
 185              	.LFB463:
  70:FSM.h         **** 
  71:FSM.h         **** /* Function Name: setCurrState
  72:FSM.h         ****  *
  73:FSM.h         ****  * Summary:
  74:FSM.h         ****  * This function changes the current active state of the FSM. It toggles
  75:FSM.h         ****  * whatever the current active state is and sets the state specified by @id as
  76:FSM.h         ****  * the new active state. Both changes are done using toggleState()
  77:FSM.h         ****  *
  78:FSM.h         ****  * Parameters:
  79:FSM.h         ****  * 	@*machine:	global state machine struct variable.
  80:FSM.h         ****  * 	@id:		target state id number. refer to enum for order.
  81:FSM.h         ****  *
  82:FSM.h         ****  * Return:
  83:FSM.h         ****  * 	None.
  84:FSM.h         ****  */
  85:FSM.h         **** void setCurrState(FSM *machine, int id)
  86:FSM.h         **** {
 186              		.loc 3 86 0
 187              		.cfi_startproc
 188              		@ args = 0, pretend = 0, frame = 0
 189              		@ frame_needed = 0, uses_anonymous_args = 0
 190              	.LVL10:
 191 0000 70B5     		push	{r4, r5, r6, lr}
 192              		.cfi_def_cfa_offset 16
 193              		.cfi_offset 4, -16
 194              		.cfi_offset 5, -12
 195              		.cfi_offset 6, -8
 196              		.cfi_offset 14, -4
 197 0002 0500     		movs	r5, r0
 198 0004 0C00     		movs	r4, r1
  87:FSM.h         **** 	if (machine->curr)
 199              		.loc 3 87 0
 200 0006 C06B     		ldr	r0, [r0, #60]
 201              	.LVL11:
 202 0008 0028     		cmp	r0, #0
 203 000a 01D0     		beq	.L13
  88:FSM.h         **** 		toggleState(machine->curr);
 204              		.loc 3 88 0
 205 000c FFF7FEFF 		bl	toggleState
 206              	.LVL12:
 207              	.L13:
  89:FSM.h         **** 	toggleState(&(machine->states[id]));
 208              		.loc 3 89 0
 209 0010 6300     		lsls	r3, r4, #1
 210 0012 1B19     		adds	r3, r3, r4
 211 0014 9C00     		lsls	r4, r3, #2
 212              	.LVL13:
 213 0016 2C19     		adds	r4, r5, r4
 214 0018 2000     		movs	r0, r4
 215 001a FFF7FEFF 		bl	toggleState
 216              	.LVL14:
ARM GAS  C:\Users\ASUS\AppData\Local\Temp\ccYYtRfk.s 			page 11


  90:FSM.h         **** 	machine->curr = &(machine->states[id]);
 217              		.loc 3 90 0
 218 001e EC63     		str	r4, [r5, #60]
  91:FSM.h         **** }
 219              		.loc 3 91 0
 220              		@ sp needed
 221              	.LVL15:
 222 0020 70BD     		pop	{r4, r5, r6, pc}
 223              		.cfi_endproc
 224              	.LFE463:
 225              		.size	setCurrState, .-setCurrState
 226 0022 C046     		.section	.text.updateFSM,"ax",%progbits
 227              		.align	2
 228              		.global	updateFSM
 229              		.code	16
 230              		.thumb_func
 231              		.type	updateFSM, %function
 232              	updateFSM:
 233              	.LFB464:
  92:FSM.h         **** 
  93:FSM.h         **** void updateFSM(FSM *machine, int accInactive, int lightFlag, int tempFlag)
  94:FSM.h         **** {
 234              		.loc 3 94 0
 235              		.cfi_startproc
 236              		@ args = 0, pretend = 0, frame = 0
 237              		@ frame_needed = 0, uses_anonymous_args = 0
 238              	.LVL16:
 239 0000 70B5     		push	{r4, r5, r6, lr}
 240              		.cfi_def_cfa_offset 16
 241              		.cfi_offset 4, -16
 242              		.cfi_offset 5, -12
 243              		.cfi_offset 6, -8
 244              		.cfi_offset 14, -4
 245 0002 0600     		movs	r6, r0
 246 0004 1500     		movs	r5, r2
 247 0006 1C00     		movs	r4, r3
  95:FSM.h         **** 	switch(machine->curr->id)
 248              		.loc 3 95 0
 249 0008 C36B     		ldr	r3, [r0, #60]
 250              	.LVL17:
 251 000a 1B68     		ldr	r3, [r3]
 252 000c 042B     		cmp	r3, #4
 253 000e 29D8     		bhi	.L14
 254 0010 9B00     		lsls	r3, r3, #2
 255 0012 154A     		ldr	r2, .L24
 256              	.LVL18:
 257 0014 D358     		ldr	r3, [r2, r3]
 258 0016 9F46     		mov	pc, r3
 259              		.section	.rodata
 260              		.align	2
 261              	.L17:
 262 0000 18000000 		.word	.L16
 263 0004 20000000 		.word	.L18
 264 0008 38000000 		.word	.L19
 265 000c 50000000 		.word	.L20
 266 0010 5E000000 		.word	.L21
 267              		.section	.text.updateFSM
ARM GAS  C:\Users\ASUS\AppData\Local\Temp\ccYYtRfk.s 			page 12


 268              	.L16:
  96:FSM.h         ****     {
  97:FSM.h         ****         case OFF:       
  98:FSM.h         ****             setCurrState(machine, SENSOR);
 269              		.loc 3 98 0
 270 0018 0121     		movs	r1, #1
 271              	.LVL19:
 272 001a FFF7FEFF 		bl	setCurrState
 273              	.LVL20:
  99:FSM.h         ****             break;
 274              		.loc 3 99 0
 275 001e 21E0     		b	.L14
 276              	.LVL21:
 277              	.L18:
 100:FSM.h         ****         case SENSOR:
 101:FSM.h         ****             if (accInactive)
 278              		.loc 3 101 0
 279 0020 0029     		cmp	r1, #0
 280 0022 02D0     		beq	.L22
 102:FSM.h         ****                 setCurrState(machine, SLEEP);
 281              		.loc 3 102 0
 282 0024 0221     		movs	r1, #2
 283              	.LVL22:
 284 0026 FFF7FEFF 		bl	setCurrState
 285              	.LVL23:
 286              	.L22:
 103:FSM.h         ****             if (lightFlag || tempFlag)
 287              		.loc 3 103 0
 288 002a 2C43     		orrs	r4, r5
 289              	.LVL24:
 290 002c 1AD0     		beq	.L14
 104:FSM.h         ****                 setCurrState(machine, CRITICAL);
 291              		.loc 3 104 0
 292 002e 0321     		movs	r1, #3
 293 0030 3000     		movs	r0, r6
 294 0032 FFF7FEFF 		bl	setCurrState
 295              	.LVL25:
 296 0036 15E0     		b	.L14
 297              	.LVL26:
 298              	.L19:
 105:FSM.h         ****             break;
 106:FSM.h         ****         case SLEEP:
 107:FSM.h         ****             if (!accInactive)
 299              		.loc 3 107 0
 300 0038 0029     		cmp	r1, #0
 301 003a 02D1     		bne	.L23
 108:FSM.h         ****                 setCurrState(machine, SENSOR);
 302              		.loc 3 108 0
 303 003c 0131     		adds	r1, r1, #1
 304              	.LVL27:
 305 003e FFF7FEFF 		bl	setCurrState
 306              	.LVL28:
 307              	.L23:
 109:FSM.h         ****             if (lightFlag || tempFlag)
 308              		.loc 3 109 0
 309 0042 2C43     		orrs	r4, r5
 310              	.LVL29:
ARM GAS  C:\Users\ASUS\AppData\Local\Temp\ccYYtRfk.s 			page 13


 311 0044 0ED0     		beq	.L14
 110:FSM.h         ****                 setCurrState(machine, CRITICAL);
 312              		.loc 3 110 0
 313 0046 0321     		movs	r1, #3
 314 0048 3000     		movs	r0, r6
 315 004a FFF7FEFF 		bl	setCurrState
 316              	.LVL30:
 317 004e 09E0     		b	.L14
 318              	.LVL31:
 319              	.L20:
 111:FSM.h         ****             break;
 112:FSM.h         ****         case CRITICAL:
 113:FSM.h         ****             if (!lightFlag && !tempFlag && !accInactive)
 320              		.loc 3 113 0
 321 0050 2C43     		orrs	r4, r5
 322              	.LVL32:
 323 0052 2143     		orrs	r1, r4
 324              	.LVL33:
 325 0054 06D1     		bne	.L14
 114:FSM.h         ****                 setCurrState(machine, SLEEP);
 326              		.loc 3 114 0
 327 0056 0231     		adds	r1, r1, #2
 328 0058 FFF7FEFF 		bl	setCurrState
 329              	.LVL34:
 330 005c 02E0     		b	.L14
 331              	.LVL35:
 332              	.L21:
 115:FSM.h         ****             break;
 116:FSM.h         ****         case TALK:
 117:FSM.h         ****             if (1) // when BLE disconnects FIXME
 118:FSM.h         ****                 setCurrState(machine, SLEEP);
 333              		.loc 3 118 0
 334 005e 0221     		movs	r1, #2
 335              	.LVL36:
 336 0060 FFF7FEFF 		bl	setCurrState
 337              	.LVL37:
 338              	.L14:
 119:FSM.h         ****             break;
 120:FSM.h         ****     }
 121:FSM.h         **** }
 339              		.loc 3 121 0
 340              		@ sp needed
 341              	.LVL38:
 342              	.LVL39:
 343 0064 70BD     		pop	{r4, r5, r6, pc}
 344              	.L25:
 345 0066 C046     		.align	2
 346              	.L24:
 347 0068 00000000 		.word	.L17
 348              		.cfi_endproc
 349              	.LFE464:
 350              		.size	updateFSM, .-updateFSM
 351              		.section	.text.printFSM,"ax",%progbits
 352              		.align	2
 353              		.global	printFSM
 354              		.code	16
 355              		.thumb_func
ARM GAS  C:\Users\ASUS\AppData\Local\Temp\ccYYtRfk.s 			page 14


 356              		.type	printFSM, %function
 357              	printFSM:
 358              	.LFB465:
 122:FSM.h         **** 
 123:FSM.h         **** void printFSM(FSM machine)
 124:FSM.h         **** {
 359              		.loc 3 124 0
 360              		.cfi_startproc
 361              		@ args = 64, pretend = 16, frame = 0
 362              		@ frame_needed = 0, uses_anonymous_args = 0
 363 0000 84B0     		sub	sp, sp, #16
 364              		.cfi_def_cfa_offset 16
 365 0002 10B5     		push	{r4, lr}
 366              		.cfi_def_cfa_offset 24
 367              		.cfi_offset 4, -24
 368              		.cfi_offset 14, -20
 369 0004 0290     		str	r0, [sp, #8]
 370 0006 0391     		str	r1, [sp, #12]
 371 0008 0492     		str	r2, [sp, #16]
 372 000a 0593     		str	r3, [sp, #20]
 125:FSM.h         ****     printf("\r\n");
 373              		.loc 3 125 0
 374 000c 0D48     		ldr	r0, .L29
 375 000e FFF7FEFF 		bl	puts
 376              	.LVL40:
 377              	.LBB48:
 126:FSM.h         ****     for (int i=OFF; i <= TALK; i++) {
 378              		.loc 3 126 0
 379 0012 0024     		movs	r4, #0
 380 0014 0FE0     		b	.L27
 381              	.LVL41:
 382              	.L28:
 127:FSM.h         ****         printf("ID: %d      Value: %d       Previous: %d\r\n",
 383              		.loc 3 127 0 discriminator 3
 384 0016 6100     		lsls	r1, r4, #1
 385 0018 0B19     		adds	r3, r1, r4
 386 001a 9A00     		lsls	r2, r3, #2
 387 001c 02AB     		add	r3, sp, #8
 388 001e 9C46     		mov	ip, r3
 389 0020 6244     		add	r2, r2, ip
 390 0022 9368     		ldr	r3, [r2, #8]
 391 0024 5268     		ldr	r2, [r2, #4]
 392 0026 0919     		adds	r1, r1, r4
 393 0028 8800     		lsls	r0, r1, #2
 394 002a 6146     		mov	r1, ip
 395 002c 0958     		ldr	r1, [r1, r0]
 396 002e 0648     		ldr	r0, .L29+4
 397 0030 FFF7FEFF 		bl	printf
 398              	.LVL42:
 126:FSM.h         ****     for (int i=OFF; i <= TALK; i++) {
 399              		.loc 3 126 0 discriminator 3
 400 0034 0134     		adds	r4, r4, #1
 401              	.LVL43:
 402              	.L27:
 126:FSM.h         ****     for (int i=OFF; i <= TALK; i++) {
 403              		.loc 3 126 0 is_stmt 0 discriminator 1
 404 0036 042C     		cmp	r4, #4
ARM GAS  C:\Users\ASUS\AppData\Local\Temp\ccYYtRfk.s 			page 15


 405 0038 EDDD     		ble	.L28
 406              	.LBE48:
 128:FSM.h         **** 	    machine.states[i].id, machine.states[i].val,
 129:FSM.h         **** 	    machine.states[i].prev);
 130:FSM.h         ****     }
 131:FSM.h         **** }
 407              		.loc 3 131 0 is_stmt 1
 408              		@ sp needed
 409              	.LVL44:
 410 003a 10BC     		pop	{r4}
 411 003c 08BC     		pop	{r3}
 412 003e 04B0     		add	sp, sp, #16
 413 0040 1847     		bx	r3
 414              	.L30:
 415 0042 C046     		.align	2
 416              	.L29:
 417 0044 00000000 		.word	.LC2
 418 0048 04000000 		.word	.LC4
 419              		.cfi_endproc
 420              	.LFE465:
 421              		.size	printFSM, .-printFSM
 422              		.section	.text.initFSM,"ax",%progbits
 423              		.align	2
 424              		.global	initFSM
 425              		.code	16
 426              		.thumb_func
 427              		.type	initFSM, %function
 428              	initFSM:
 429              	.LFB466:
 132:FSM.h         **** 
 133:FSM.h         **** /* Function Name: initFSM
 134:FSM.h         ****  *
 135:FSM.h         ****  * Summary:
 136:FSM.h         ****  * This function initializes the 5(?) states in the finite state machine (FSM).
 137:FSM.h         ****  * OFF is the default state. Therefore, all states should start 0, OFF 1.
 138:FSM.h         ****  *
 139:FSM.h         ****  * Parameters:
 140:FSM.h         ****  * 	@*machine:	global state machine struct variable
 141:FSM.h         ****  *
 142:FSM.h         ****  * Return:
 143:FSM.h         ****  * 	None.
 144:FSM.h         ****  */
 145:FSM.h         **** void initFSM(FSM *machine)
 146:FSM.h         **** {
 430              		.loc 3 146 0
 431              		.cfi_startproc
 432              		@ args = 0, pretend = 0, frame = 0
 433              		@ frame_needed = 0, uses_anonymous_args = 0
 434              	.LVL45:
 435 0000 10B5     		push	{r4, lr}
 436              		.cfi_def_cfa_offset 8
 437              		.cfi_offset 4, -8
 438              		.cfi_offset 14, -4
 439              	.LVL46:
 440              	.LBB49:
 147:FSM.h         **** 	for (int i=0; i<NUM_STATES; i++) {
 441              		.loc 3 147 0
ARM GAS  C:\Users\ASUS\AppData\Local\Temp\ccYYtRfk.s 			page 16


 442 0002 0023     		movs	r3, #0
 443 0004 08E0     		b	.L32
 444              	.LVL47:
 445              	.L33:
 148:FSM.h         **** 		machine->states[i].id = i;
 446              		.loc 3 148 0 discriminator 3
 447 0006 5900     		lsls	r1, r3, #1
 448 0008 CC18     		adds	r4, r1, r3
 449 000a A200     		lsls	r2, r4, #2
 450 000c 1350     		str	r3, [r2, r0]
 149:FSM.h         **** 		machine->states[i].prev = 0;
 451              		.loc 3 149 0 discriminator 3
 452 000e 8218     		adds	r2, r0, r2
 453 0010 0021     		movs	r1, #0
 454 0012 9160     		str	r1, [r2, #8]
 150:FSM.h         **** 		machine->states[i].val = 0;
 455              		.loc 3 150 0 discriminator 3
 456 0014 5160     		str	r1, [r2, #4]
 147:FSM.h         **** 		machine->states[i].id = i;
 457              		.loc 3 147 0 discriminator 3
 458 0016 0133     		adds	r3, r3, #1
 459              	.LVL48:
 460              	.L32:
 147:FSM.h         **** 		machine->states[i].id = i;
 461              		.loc 3 147 0 is_stmt 0 discriminator 1
 462 0018 042B     		cmp	r3, #4
 463 001a F4DD     		ble	.L33
 464              	.LBE49:
 151:FSM.h         **** 	}
 152:FSM.h         **** 	setCurrState(machine, OFF);
 465              		.loc 3 152 0 is_stmt 1
 466 001c 0021     		movs	r1, #0
 467 001e FFF7FEFF 		bl	setCurrState
 468              	.LVL49:
 153:FSM.h         **** }
 469              		.loc 3 153 0
 470              		@ sp needed
 471 0022 10BD     		pop	{r4, pc}
 472              		.cfi_endproc
 473              	.LFE466:
 474              		.size	initFSM, .-initFSM
 475              		.section	.text.broadcastBLE,"ax",%progbits
 476              		.align	2
 477              		.global	broadcastBLE
 478              		.code	16
 479              		.thumb_func
 480              		.type	broadcastBLE, %function
 481              	broadcastBLE:
 482              	.LFB469:
  48:BLE.h         **** void broadcastBLE(void)
  49:BLE.h         **** {
 483              		.loc 1 49 0
 484              		.cfi_startproc
 485              		@ args = 0, pretend = 0, frame = 24
 486              		@ frame_needed = 0, uses_anonymous_args = 0
 487 0000 70B5     		push	{r4, r5, r6, lr}
 488              		.cfi_def_cfa_offset 16
ARM GAS  C:\Users\ASUS\AppData\Local\Temp\ccYYtRfk.s 			page 17


 489              		.cfi_offset 4, -16
 490              		.cfi_offset 5, -12
 491              		.cfi_offset 6, -8
 492              		.cfi_offset 14, -4
 493 0002 86B0     		sub	sp, sp, #24
 494              		.cfi_def_cfa_offset 40
 495              	.LVL50:
  50:BLE.h         ****     int i = 0;
  51:BLE.h         ****     Cy_BLE_Start(genericEventHandler);
 496              		.loc 1 51 0
 497 0004 1448     		ldr	r0, .L39
 498 0006 FFF7FEFF 		bl	Cy_BLE_Start
 499              	.LVL51:
  52:BLE.h         ****     
  53:BLE.h         ****     while (Cy_BLE_GetState() != CY_BLE_STATE_ON)
 500              		.loc 1 53 0
 501 000a 01E0     		b	.L35
 502              	.L36:
  54:BLE.h         ****     {
  55:BLE.h         ****         Cy_BLE_ProcessEvents();
 503              		.loc 1 55 0
 504 000c FFF7FEFF 		bl	Cy_BLE_ProcessEvents
 505              	.LVL52:
 506              	.L35:
  53:BLE.h         ****     {
 507              		.loc 1 53 0
 508 0010 124B     		ldr	r3, .L39+4
 509 0012 1B78     		ldrb	r3, [r3]
 510 0014 022B     		cmp	r3, #2
 511 0016 F9D1     		bne	.L36
  56:BLE.h         ****     }
  57:BLE.h         ****     Cy_BLE_RegisterAppHostCallback(bleInterruptNotify);
 512              		.loc 1 57 0
 513 0018 1148     		ldr	r0, .L39+8
 514 001a FFF7FEFF 		bl	Cy_BLE_RegisterAppHostCallback
 515              	.LVL53:
  50:BLE.h         ****     Cy_BLE_Start(genericEventHandler);
 516              		.loc 1 50 0
 517 001e 0024     		movs	r4, #0
 518              	.LVL54:
 519              	.L38:
 520              	.LBB50:
  58:BLE.h         **** 
  59:BLE.h         ****     for(;;)
  60:BLE.h         ****     {
  61:BLE.h         ****         /* Place your application code here. */
  62:BLE.h         ****         i++;
 521              		.loc 1 62 0
 522 0020 0134     		adds	r4, r4, #1
 523              	.LVL55:
  63:BLE.h         ****         printf("Hello world!\r\n");
 524              		.loc 1 63 0
 525 0022 1048     		ldr	r0, .L39+12
 526 0024 FFF7FEFF 		bl	puts
 527              	.LVL56:
  64:BLE.h         ****         
  65:BLE.h         ****         cy_stc_ble_gatt_handle_value_pair_t serviceHandle;
ARM GAS  C:\Users\ASUS\AppData\Local\Temp\ccYYtRfk.s 			page 18


  66:BLE.h         ****         cy_stc_ble_gatt_value_t serviceData;
  67:BLE.h         ****         
  68:BLE.h         ****         serviceData.val = (uint8*)data;
 528              		.loc 1 68 0
 529 0028 01AB     		add	r3, sp, #4
 530 002a 0F4D     		ldr	r5, .L39+16
 531 002c 0195     		str	r5, [sp, #4]
  69:BLE.h         ****         serviceData.len = 1;
 532              		.loc 1 69 0
 533 002e 0122     		movs	r2, #1
 534 0030 9A80     		strh	r2, [r3, #4]
  70:BLE.h         ****         
  71:BLE.h         ****         serviceHandle.attrHandle = CY_BLE_DEVICE_INTERFACE_DEVICE_OUTBOUND_CHAR_HANDLE;
 535              		.loc 1 71 0
 536 0032 03A8     		add	r0, sp, #12
 537 0034 1332     		adds	r2, r2, #19
 538 0036 0281     		strh	r2, [r0, #8]
  72:BLE.h         ****         serviceHandle.value = serviceData;
 539              		.loc 1 72 0
 540 0038 0200     		movs	r2, r0
 541 003a 42CB     		ldmia	r3!, {r1, r6}
 542 003c 42C2     		stmia	r2!, {r1, r6}
  73:BLE.h         ****         
  74:BLE.h         ****         Cy_BLE_GATTS_WriteAttributeValueLocal(&serviceHandle);
 543              		.loc 1 74 0
 544 003e FFF7FEFF 		bl	Cy_BLE_GATTS_WriteAttributeValueLocal
 545              	.LVL57:
  75:BLE.h         ****         
  76:BLE.h         ****         data[0] = i;
 546              		.loc 1 76 0
 547 0042 2C70     		strb	r4, [r5]
  77:BLE.h         ****         CyDelay(1000);
 548              		.loc 1 77 0
 549 0044 FA20     		movs	r0, #250
 550 0046 8000     		lsls	r0, r0, #2
 551 0048 FFF7FEFF 		bl	Cy_SysLib_Delay
 552              	.LVL58:
  78:BLE.h         ****         
  79:BLE.h         ****         if (i == 9)
 553              		.loc 1 79 0
 554 004c 092C     		cmp	r4, #9
 555 004e E7D1     		bne	.L38
 556              	.LBE50:
  80:BLE.h         ****             break;
  81:BLE.h         ****     }
  82:BLE.h         ****     Cy_BLE_Stop();
 557              		.loc 1 82 0
 558 0050 FFF7FEFF 		bl	Cy_BLE_Stop
 559              	.LVL59:
  83:BLE.h         **** }
 560              		.loc 1 83 0
 561 0054 06B0     		add	sp, sp, #24
 562              		@ sp needed
 563              	.LVL60:
 564 0056 70BD     		pop	{r4, r5, r6, pc}
 565              	.L40:
 566              		.align	2
ARM GAS  C:\Users\ASUS\AppData\Local\Temp\ccYYtRfk.s 			page 19


 567              	.L39:
 568 0058 00000000 		.word	genericEventHandler
 569 005c 00000000 		.word	cy_ble_state
 570 0060 00000000 		.word	bleInterruptNotify
 571 0064 30000000 		.word	.LC9
 572 0068 00000000 		.word	.LANCHOR0
 573              		.cfi_endproc
 574              	.LFE469:
 575              		.size	broadcastBLE, .-broadcastBLE
 576              		.section	.text.lightI2CRead,"ax",%progbits
 577              		.align	2
 578              		.global	lightI2CRead
 579              		.code	16
 580              		.thumb_func
 581              		.type	lightI2CRead, %function
 582              	lightI2CRead:
 583              	.LFB470:
 584              		.file 4 "Light.h"
   1:Light.h       **** /******************************************************************************
   2:Light.h       **** * File Name: Light.h
   3:Light.h       **** *
   4:Light.h       **** * Version: Beta
   5:Light.h       **** *
   6:Light.h       **** * Description: This file contains the firmware for setting up communication
   7:Light.h       **** * between the PSoC and the AS73211 True Color Sensor using the I2C protocol.
   8:Light.h       **** *
   9:Light.h       **** * Related Document: TrueColor_LightSensor.pdf
  10:Light.h       **** * Hardware Dependency:  CY8CKIT-063-BLE PSoC 6 BLE Pioneer kit
  11:Light.h       **** *                       AS73211 True Color Sensor
  12:Light.h       **** *
  13:Light.h       **** * Author(s):
  14:Light.h       **** *	Yousef H. Akbar & and Cow Team
  15:Light.h       **** *	Dept. Electrical and Computer Engineering
  16:Light.h       **** *	University of California, Davis
  17:Light.h       **** *******************************************************************************
  18:Light.h       **** * Refer to Section 7.18 of TrueColor_LightSensor.pdf for I2C R/W Protocols.
  19:Light.h       **** *
  20:Light.h       **** * General I2C Procedure (7.21):
  21:Light.h       **** *  - After supplying power: device in CONF state, but Powered Down.
  22:Light.h       **** *  	- This is where we set control registers for options.
  23:Light.h       **** *  	- Check by reading those same control registers.
  24:Light.h       **** *  - Switch to MEAS state while specifying what mode you want.
  25:Light.h       **** *
  26:Light.h       **** * Figure 42 and 43 for example reading/writing.
  27:Light.h       **** * Section 8 contains register bank information.
  28:Light.h       **** ******************************************************************************/
  29:Light.h       **** 
  30:Light.h       **** #include "project.h"
  31:Light.h       **** #include "stdio.h"
  32:Light.h       **** #include "Queue.h"
  33:Light.h       **** 
  34:Light.h       **** /* Slave addresses */
  35:Light.h       **** #define LIGHT_ADDRESS 0x74    // 1110100[0|1]
  36:Light.h       **** 
  37:Light.h       **** /* Control Register Bank */
  38:Light.h       **** #define OSR     0x00        // Operational State Register (default 0x42)
  39:Light.h       **** #define CREG1   0x06        // Config Register 1
ARM GAS  C:\Users\ASUS\AppData\Local\Temp\ccYYtRfk.s 			page 20


  40:Light.h       **** #define CREG2   0x07        // Config Register 2
  41:Light.h       **** #define CREG3   0x08        // Config Register 3
  42:Light.h       **** #define TBREAK  0x09        // Break time between measurements
  43:Light.h       **** 
  44:Light.h       **** /* Output Register Bank */
  45:Light.h       **** #define TEMP    0x01        // Temperature (0h + 12 bit temp result)
  46:Light.h       **** #define MRES1   0x02        // Measurement X-Channel RED
  47:Light.h       **** #define MRES2   0x03        // Y-Channel GREEN
  48:Light.h       **** #define MRES3   0x04        // Z-Channel BLUE
  49:Light.h       **** 
  50:Light.h       **** /* Macro for converting 16 bit temp. to celcius (Refer to Section 7.16) */
  51:Light.h       **** uint16_t temperature;       // declaration of existing temp in main_cm0p.c
  52:Light.h       **** #define CHIPTEMP temperature * 0.05 - 66.9
  53:Light.h       **** #define LIGHT_CUTOFF    (50)
  54:Light.h       **** 
  55:Light.h       **** #define CRIT_TEMP       (20)
  56:Light.h       **** #define CRIT_LIGHT      (10)
  57:Light.h       **** 
  58:Light.h       **** /* Global Variables */
  59:Light.h       **** int tempFlag, lightFlag;
  60:Light.h       **** 
  61:Light.h       **** /* Function Name: lightI2CRead
  62:Light.h       ****  *
  63:Light.h       ****  * Summary:
  64:Light.h       ****  * This function reads from the light sensor using the I2C protocol. The general
  65:Light.h       ****  * procedure for read sequences is detailed in 7.19 and Figure 40.
  66:Light.h       ****  *
  67:Light.h       ****  * Parameters:
  68:Light.h       ****  *	@reg:		The register from which you want to read data.
  69:Light.h       ****  *
  70:Light.h       ****  * Return:
  71:Light.h       ****  *	readBuf:	Buffer containing data read from register
  72:Light.h       ****  */
  73:Light.h       **** uint16_t lightI2CRead(uint8_t reg)
  74:Light.h       **** {
 585              		.loc 4 74 0
 586              		.cfi_startproc
 587              		@ args = 0, pretend = 0, frame = 32
 588              		@ frame_needed = 0, uses_anonymous_args = 0
 589              	.LVL61:
 590 0000 F0B5     		push	{r4, r5, r6, r7, lr}
 591              		.cfi_def_cfa_offset 20
 592              		.cfi_offset 4, -20
 593              		.cfi_offset 5, -16
 594              		.cfi_offset 6, -12
 595              		.cfi_offset 7, -8
 596              		.cfi_offset 14, -4
 597 0002 8DB0     		sub	sp, sp, #52
 598              		.cfi_def_cfa_offset 72
 599 0004 0600     		movs	r6, r0
  75:Light.h       ****     volatile cy_en_scb_i2c_status_t ret0 = 0;
 600              		.loc 4 75 0
 601 0006 0023     		movs	r3, #0
 602 0008 0B93     		str	r3, [sp, #44]
  76:Light.h       ****     volatile cy_en_scb_i2c_status_t ret1 = 0;
 603              		.loc 4 76 0
 604 000a 0A93     		str	r3, [sp, #40]
ARM GAS  C:\Users\ASUS\AppData\Local\Temp\ccYYtRfk.s 			page 21


  77:Light.h       ****     volatile cy_en_scb_i2c_status_t ret2 = 0;
 605              		.loc 4 77 0
 606 000c 0993     		str	r3, [sp, #36]
  78:Light.h       ****     volatile cy_en_scb_i2c_status_t ret3 = 0;
 607              		.loc 4 78 0
 608 000e 0893     		str	r3, [sp, #32]
  79:Light.h       ****     volatile cy_en_scb_i2c_status_t ret4 = 0;
 609              		.loc 4 79 0
 610 0010 0793     		str	r3, [sp, #28]
  80:Light.h       ****     volatile cy_en_scb_i2c_status_t ret5 = 0;
 611              		.loc 4 80 0
 612 0012 0693     		str	r3, [sp, #24]
  81:Light.h       ****     uint8_t readBuf[2] = {0, 0};
 613              		.loc 4 81 0
 614 0014 05AD     		add	r5, sp, #20
 615 0016 2B70     		strb	r3, [r5]
 616 0018 6B70     		strb	r3, [r5, #1]
 617              	.LVL62:
 618              	.LBB51:
 619              	.LBB52:
 620              		.file 5 "Generated_Source\\PSoC6/I2C.h"
   1:Generated_Source\PSoC6/I2C.h **** /***************************************************************************//**
   2:Generated_Source\PSoC6/I2C.h **** * \file I2C.c
   3:Generated_Source\PSoC6/I2C.h **** * \version 2.0
   4:Generated_Source\PSoC6/I2C.h **** *
   5:Generated_Source\PSoC6/I2C.h **** *  This file provides constants and parameter values for the I2C component.
   6:Generated_Source\PSoC6/I2C.h **** *
   7:Generated_Source\PSoC6/I2C.h **** ********************************************************************************
   8:Generated_Source\PSoC6/I2C.h **** * \copyright
   9:Generated_Source\PSoC6/I2C.h **** * Copyright 2016-2017, Cypress Semiconductor Corporation. All rights reserved.
  10:Generated_Source\PSoC6/I2C.h **** * You may use this file only in accordance with the license, terms, conditions,
  11:Generated_Source\PSoC6/I2C.h **** * disclaimers, and limitations in the end user license agreement accompanying
  12:Generated_Source\PSoC6/I2C.h **** * the software package with which this file was provided.
  13:Generated_Source\PSoC6/I2C.h **** *******************************************************************************/
  14:Generated_Source\PSoC6/I2C.h **** 
  15:Generated_Source\PSoC6/I2C.h **** #if !defined(I2C_CY_SCB_I2C_PDL_H)
  16:Generated_Source\PSoC6/I2C.h **** #define I2C_CY_SCB_I2C_PDL_H
  17:Generated_Source\PSoC6/I2C.h **** 
  18:Generated_Source\PSoC6/I2C.h **** #include "cyfitter.h"
  19:Generated_Source\PSoC6/I2C.h **** #include "scb/cy_scb_i2c.h"
  20:Generated_Source\PSoC6/I2C.h **** 
  21:Generated_Source\PSoC6/I2C.h **** #if defined(__cplusplus)
  22:Generated_Source\PSoC6/I2C.h **** extern "C" {
  23:Generated_Source\PSoC6/I2C.h **** #endif
  24:Generated_Source\PSoC6/I2C.h **** 
  25:Generated_Source\PSoC6/I2C.h **** /***************************************
  26:Generated_Source\PSoC6/I2C.h **** *   Initial Parameter Constants
  27:Generated_Source\PSoC6/I2C.h **** ****************************************/
  28:Generated_Source\PSoC6/I2C.h **** 
  29:Generated_Source\PSoC6/I2C.h **** #define I2C_MODE               (0x2U)
  30:Generated_Source\PSoC6/I2C.h **** #define I2C_MODE_SLAVE_MASK    (0x1U)
  31:Generated_Source\PSoC6/I2C.h **** #define I2C_MODE_MASTER_MASK   (0x2U)
  32:Generated_Source\PSoC6/I2C.h **** 
  33:Generated_Source\PSoC6/I2C.h **** #define I2C_ENABLE_SLAVE       (0UL != (I2C_MODE & I2C_MODE_SLAVE_MASK))
  34:Generated_Source\PSoC6/I2C.h **** #define I2C_ENABLE_MASTER      (0UL != (I2C_MODE & I2C_MODE_MASTER_MASK))
  35:Generated_Source\PSoC6/I2C.h **** #define I2C_MANUAL_SCL_CONTROL (0U)
  36:Generated_Source\PSoC6/I2C.h **** 
ARM GAS  C:\Users\ASUS\AppData\Local\Temp\ccYYtRfk.s 			page 22


  37:Generated_Source\PSoC6/I2C.h **** 
  38:Generated_Source\PSoC6/I2C.h **** /***************************************
  39:Generated_Source\PSoC6/I2C.h **** *        Function Prototypes
  40:Generated_Source\PSoC6/I2C.h **** ***************************************/
  41:Generated_Source\PSoC6/I2C.h **** /**
  42:Generated_Source\PSoC6/I2C.h **** * \addtogroup group_general
  43:Generated_Source\PSoC6/I2C.h **** * @{
  44:Generated_Source\PSoC6/I2C.h **** */
  45:Generated_Source\PSoC6/I2C.h **** /* Component only APIs. */
  46:Generated_Source\PSoC6/I2C.h **** void I2C_Start(void);
  47:Generated_Source\PSoC6/I2C.h **** 
  48:Generated_Source\PSoC6/I2C.h **** /* Basic functions. */
  49:Generated_Source\PSoC6/I2C.h **** __STATIC_INLINE cy_en_scb_i2c_status_t I2C_Init(cy_stc_scb_i2c_config_t const *config);
  50:Generated_Source\PSoC6/I2C.h **** __STATIC_INLINE void I2C_DeInit (void);
  51:Generated_Source\PSoC6/I2C.h **** __STATIC_INLINE void I2C_Enable (void);
  52:Generated_Source\PSoC6/I2C.h **** __STATIC_INLINE void I2C_Disable(void);
  53:Generated_Source\PSoC6/I2C.h **** 
  54:Generated_Source\PSoC6/I2C.h **** /* Data rate configuration functions. */
  55:Generated_Source\PSoC6/I2C.h **** __STATIC_INLINE uint32_t I2C_SetDataRate(uint32_t dataRateHz, uint32_t scbClockHz);
  56:Generated_Source\PSoC6/I2C.h **** __STATIC_INLINE uint32_t I2C_GetDataRate(uint32_t scbClockHz);
  57:Generated_Source\PSoC6/I2C.h **** 
  58:Generated_Source\PSoC6/I2C.h **** /* Register callbacks. */
  59:Generated_Source\PSoC6/I2C.h **** __STATIC_INLINE void I2C_RegisterEventCallback(cy_cb_scb_i2c_handle_events_t callback);
  60:Generated_Source\PSoC6/I2C.h **** #if (I2C_ENABLE_SLAVE)
  61:Generated_Source\PSoC6/I2C.h **** __STATIC_INLINE void I2C_RegisterAddrCallback (cy_cb_scb_i2c_handle_addr_t callback);
  62:Generated_Source\PSoC6/I2C.h **** #endif /* (I2C_ENABLE_SLAVE) */
  63:Generated_Source\PSoC6/I2C.h **** 
  64:Generated_Source\PSoC6/I2C.h **** /* Configuration functions. */
  65:Generated_Source\PSoC6/I2C.h **** #if (I2C_ENABLE_SLAVE)
  66:Generated_Source\PSoC6/I2C.h **** __STATIC_INLINE void     I2C_SlaveSetAddress(uint8_t addr);
  67:Generated_Source\PSoC6/I2C.h **** __STATIC_INLINE uint32_t I2C_SlaveGetAddress(void);
  68:Generated_Source\PSoC6/I2C.h **** __STATIC_INLINE void     I2C_SlaveSetAddressMask(uint8_t addrMask);
  69:Generated_Source\PSoC6/I2C.h **** __STATIC_INLINE uint32_t I2C_SlaveGetAddressMask(void);
  70:Generated_Source\PSoC6/I2C.h **** #endif /* (I2C_ENABLE_SLAVE) */
  71:Generated_Source\PSoC6/I2C.h **** 
  72:Generated_Source\PSoC6/I2C.h **** #if (I2C_ENABLE_MASTER)
  73:Generated_Source\PSoC6/I2C.h **** __STATIC_INLINE void I2C_MasterSetLowPhaseDutyCycle (uint32_t clockCycles);
  74:Generated_Source\PSoC6/I2C.h **** __STATIC_INLINE void I2C_MasterSetHighPhaseDutyCycle(uint32_t clockCycles);
  75:Generated_Source\PSoC6/I2C.h **** #endif /* (I2C_ENABLE_MASTER) */
  76:Generated_Source\PSoC6/I2C.h **** 
  77:Generated_Source\PSoC6/I2C.h **** /* Bus status. */
  78:Generated_Source\PSoC6/I2C.h **** __STATIC_INLINE bool     I2C_IsBusBusy(void);
  79:Generated_Source\PSoC6/I2C.h **** 
  80:Generated_Source\PSoC6/I2C.h **** /* Slave functions. */
  81:Generated_Source\PSoC6/I2C.h **** #if (I2C_ENABLE_SLAVE)
  82:Generated_Source\PSoC6/I2C.h **** __STATIC_INLINE uint32_t I2C_SlaveGetStatus(void);
  83:Generated_Source\PSoC6/I2C.h **** 
  84:Generated_Source\PSoC6/I2C.h **** __STATIC_INLINE void     I2C_SlaveConfigReadBuf(uint8_t *buffer, uint32_t size);
  85:Generated_Source\PSoC6/I2C.h **** __STATIC_INLINE void     I2C_SlaveAbortRead(void);
  86:Generated_Source\PSoC6/I2C.h **** __STATIC_INLINE uint32_t I2C_SlaveGetReadTransferCount(void);
  87:Generated_Source\PSoC6/I2C.h **** __STATIC_INLINE uint32_t I2C_SlaveClearReadStatus(void);
  88:Generated_Source\PSoC6/I2C.h **** 
  89:Generated_Source\PSoC6/I2C.h **** __STATIC_INLINE void     I2C_SlaveConfigWriteBuf(uint8_t *buffer, uint32_t size);
  90:Generated_Source\PSoC6/I2C.h **** __STATIC_INLINE void     I2C_SlaveAbortWrite(void);
  91:Generated_Source\PSoC6/I2C.h **** __STATIC_INLINE uint32_t I2C_SlaveGetWriteTransferCount(void);
  92:Generated_Source\PSoC6/I2C.h **** __STATIC_INLINE uint32_t I2C_SlaveClearWriteStatus(void);
  93:Generated_Source\PSoC6/I2C.h **** #endif /* (I2C_ENABLE_SLAVE) */
ARM GAS  C:\Users\ASUS\AppData\Local\Temp\ccYYtRfk.s 			page 23


  94:Generated_Source\PSoC6/I2C.h **** 
  95:Generated_Source\PSoC6/I2C.h **** /* Master interrupt processing functions. */
  96:Generated_Source\PSoC6/I2C.h **** #if (I2C_ENABLE_MASTER)
  97:Generated_Source\PSoC6/I2C.h **** __STATIC_INLINE uint32_t I2C_MasterGetStatus(void);
  98:Generated_Source\PSoC6/I2C.h **** 
  99:Generated_Source\PSoC6/I2C.h **** __STATIC_INLINE cy_en_scb_i2c_status_t I2C_MasterRead(cy_stc_scb_i2c_master_xfer_config_t *xferConf
 100:Generated_Source\PSoC6/I2C.h **** __STATIC_INLINE void I2C_MasterAbortRead(void);
 101:Generated_Source\PSoC6/I2C.h **** __STATIC_INLINE cy_en_scb_i2c_status_t I2C_MasterWrite(cy_stc_scb_i2c_master_xfer_config_t *xferCon
 102:Generated_Source\PSoC6/I2C.h **** __STATIC_INLINE void I2C_MasterAbortWrite(void);
 103:Generated_Source\PSoC6/I2C.h **** __STATIC_INLINE uint32_t I2C_MasterGetTransferCount(void);
 104:Generated_Source\PSoC6/I2C.h **** 
 105:Generated_Source\PSoC6/I2C.h **** /* Master manual processing functions. */
 106:Generated_Source\PSoC6/I2C.h **** __STATIC_INLINE cy_en_scb_i2c_status_t I2C_MasterSendStart(uint32_t address, cy_en_scb_i2c_directio
 107:Generated_Source\PSoC6/I2C.h **** __STATIC_INLINE cy_en_scb_i2c_status_t I2C_MasterSendReStart(uint32_t address, cy_en_scb_i2c_direct
 108:Generated_Source\PSoC6/I2C.h **** __STATIC_INLINE cy_en_scb_i2c_status_t I2C_MasterSendStop(uint32_t timeoutMs);
 109:Generated_Source\PSoC6/I2C.h **** __STATIC_INLINE cy_en_scb_i2c_status_t I2C_MasterReadByte(cy_en_scb_i2c_command_t ackNack, uint8_t 
 110:Generated_Source\PSoC6/I2C.h **** __STATIC_INLINE cy_en_scb_i2c_status_t I2C_MasterWriteByte(uint8_t byte, uint32_t timeoutMs);
 111:Generated_Source\PSoC6/I2C.h **** #endif /* (I2C_ENABLE_MASTER) */
 112:Generated_Source\PSoC6/I2C.h **** 
 113:Generated_Source\PSoC6/I2C.h **** /* Interrupt handler. */
 114:Generated_Source\PSoC6/I2C.h **** __STATIC_INLINE void I2C_Interrupt(void);
 115:Generated_Source\PSoC6/I2C.h **** /** @} group_general */
 116:Generated_Source\PSoC6/I2C.h **** 
 117:Generated_Source\PSoC6/I2C.h **** 
 118:Generated_Source\PSoC6/I2C.h **** /***************************************
 119:Generated_Source\PSoC6/I2C.h **** *    Variables with External Linkage
 120:Generated_Source\PSoC6/I2C.h **** ***************************************/
 121:Generated_Source\PSoC6/I2C.h **** /**
 122:Generated_Source\PSoC6/I2C.h **** * \addtogroup group_globals
 123:Generated_Source\PSoC6/I2C.h **** * @{
 124:Generated_Source\PSoC6/I2C.h **** */
 125:Generated_Source\PSoC6/I2C.h **** extern uint8_t I2C_initVar;
 126:Generated_Source\PSoC6/I2C.h **** extern cy_stc_scb_i2c_config_t const I2C_config;
 127:Generated_Source\PSoC6/I2C.h **** extern cy_stc_scb_i2c_context_t I2C_context;
 128:Generated_Source\PSoC6/I2C.h **** /** @} group_globals */
 129:Generated_Source\PSoC6/I2C.h **** 
 130:Generated_Source\PSoC6/I2C.h **** 
 131:Generated_Source\PSoC6/I2C.h **** /***************************************
 132:Generated_Source\PSoC6/I2C.h **** *         Preprocessor Macros
 133:Generated_Source\PSoC6/I2C.h **** ***************************************/
 134:Generated_Source\PSoC6/I2C.h **** /**
 135:Generated_Source\PSoC6/I2C.h **** * \addtogroup group_macros
 136:Generated_Source\PSoC6/I2C.h **** * @{
 137:Generated_Source\PSoC6/I2C.h **** */
 138:Generated_Source\PSoC6/I2C.h **** /** The pointer to the base address of the SCB instance */
 139:Generated_Source\PSoC6/I2C.h **** #define I2C_HW     ((CySCB_Type *) I2C_SCB__HW)
 140:Generated_Source\PSoC6/I2C.h **** 
 141:Generated_Source\PSoC6/I2C.h **** /** The desired data rate in Hz */
 142:Generated_Source\PSoC6/I2C.h **** #define I2C_DATA_RATE_HZ      (100000U)
 143:Generated_Source\PSoC6/I2C.h **** 
 144:Generated_Source\PSoC6/I2C.h **** /** The frequency of the clock used by the Component in Hz */
 145:Generated_Source\PSoC6/I2C.h **** #define I2C_CLK_FREQ_HZ       (1562500U)
 146:Generated_Source\PSoC6/I2C.h **** 
 147:Generated_Source\PSoC6/I2C.h **** /** The number of Component clocks used by the master to generate the SCL
 148:Generated_Source\PSoC6/I2C.h **** * low phase. This number is calculated by GUI based on the selected data rate.
 149:Generated_Source\PSoC6/I2C.h **** */
 150:Generated_Source\PSoC6/I2C.h **** #define I2C_LOW_PHASE_DUTY_CYCLE   (8U)
ARM GAS  C:\Users\ASUS\AppData\Local\Temp\ccYYtRfk.s 			page 24


 151:Generated_Source\PSoC6/I2C.h **** 
 152:Generated_Source\PSoC6/I2C.h **** /** The number of Component clocks used by the master to generate the SCL
 153:Generated_Source\PSoC6/I2C.h **** * high phase. This number is calculated by GUI based on the selected data rate.
 154:Generated_Source\PSoC6/I2C.h **** */
 155:Generated_Source\PSoC6/I2C.h **** #define I2C_HIGH_PHASE_DUTY_CYCLE  (8U)
 156:Generated_Source\PSoC6/I2C.h **** /** @} group_macros */
 157:Generated_Source\PSoC6/I2C.h **** 
 158:Generated_Source\PSoC6/I2C.h **** 
 159:Generated_Source\PSoC6/I2C.h **** /***************************************
 160:Generated_Source\PSoC6/I2C.h **** *    In-line Function Implementation
 161:Generated_Source\PSoC6/I2C.h **** ***************************************/
 162:Generated_Source\PSoC6/I2C.h **** 
 163:Generated_Source\PSoC6/I2C.h **** /*******************************************************************************
 164:Generated_Source\PSoC6/I2C.h **** * Function Name: I2C_Init
 165:Generated_Source\PSoC6/I2C.h **** ****************************************************************************//**
 166:Generated_Source\PSoC6/I2C.h **** *
 167:Generated_Source\PSoC6/I2C.h **** * Invokes the Cy_SCB_I2C_Init() PDL driver function.
 168:Generated_Source\PSoC6/I2C.h **** *
 169:Generated_Source\PSoC6/I2C.h **** *******************************************************************************/
 170:Generated_Source\PSoC6/I2C.h **** __STATIC_INLINE cy_en_scb_i2c_status_t I2C_Init(cy_stc_scb_i2c_config_t const *config)
 171:Generated_Source\PSoC6/I2C.h **** {
 172:Generated_Source\PSoC6/I2C.h ****     return Cy_SCB_I2C_Init(I2C_HW, config, &I2C_context);
 173:Generated_Source\PSoC6/I2C.h **** }
 174:Generated_Source\PSoC6/I2C.h **** 
 175:Generated_Source\PSoC6/I2C.h **** 
 176:Generated_Source\PSoC6/I2C.h **** /*******************************************************************************
 177:Generated_Source\PSoC6/I2C.h **** *  Function Name: I2C_DeInit
 178:Generated_Source\PSoC6/I2C.h **** ****************************************************************************//**
 179:Generated_Source\PSoC6/I2C.h **** *
 180:Generated_Source\PSoC6/I2C.h **** * Invokes the Cy_SCB_I2C_DeInit() PDL driver function.
 181:Generated_Source\PSoC6/I2C.h **** *
 182:Generated_Source\PSoC6/I2C.h **** *******************************************************************************/
 183:Generated_Source\PSoC6/I2C.h **** __STATIC_INLINE void I2C_DeInit(void)
 184:Generated_Source\PSoC6/I2C.h **** {
 185:Generated_Source\PSoC6/I2C.h ****     Cy_SCB_I2C_DeInit(I2C_HW);
 186:Generated_Source\PSoC6/I2C.h **** }
 187:Generated_Source\PSoC6/I2C.h **** 
 188:Generated_Source\PSoC6/I2C.h **** 
 189:Generated_Source\PSoC6/I2C.h **** /*******************************************************************************
 190:Generated_Source\PSoC6/I2C.h **** * Function Name: I2C_Enable
 191:Generated_Source\PSoC6/I2C.h **** ****************************************************************************//**
 192:Generated_Source\PSoC6/I2C.h **** *
 193:Generated_Source\PSoC6/I2C.h **** * Invokes the Cy_SCB_I2C_Enable() PDL driver function.
 194:Generated_Source\PSoC6/I2C.h **** *
 195:Generated_Source\PSoC6/I2C.h **** *******************************************************************************/
 196:Generated_Source\PSoC6/I2C.h **** __STATIC_INLINE void I2C_Enable(void)
 197:Generated_Source\PSoC6/I2C.h **** {
 198:Generated_Source\PSoC6/I2C.h ****     Cy_SCB_I2C_Enable(I2C_HW);
 199:Generated_Source\PSoC6/I2C.h **** }
 200:Generated_Source\PSoC6/I2C.h **** 
 201:Generated_Source\PSoC6/I2C.h **** 
 202:Generated_Source\PSoC6/I2C.h **** /*******************************************************************************
 203:Generated_Source\PSoC6/I2C.h **** * Function Name: I2C_Disable
 204:Generated_Source\PSoC6/I2C.h **** ****************************************************************************//**
 205:Generated_Source\PSoC6/I2C.h **** *
 206:Generated_Source\PSoC6/I2C.h **** * Invokes the Cy_SCB_I2C_Disable() PDL driver function.
 207:Generated_Source\PSoC6/I2C.h **** *
ARM GAS  C:\Users\ASUS\AppData\Local\Temp\ccYYtRfk.s 			page 25


 208:Generated_Source\PSoC6/I2C.h **** *******************************************************************************/
 209:Generated_Source\PSoC6/I2C.h **** __STATIC_INLINE void I2C_Disable(void)
 210:Generated_Source\PSoC6/I2C.h **** {
 211:Generated_Source\PSoC6/I2C.h ****     Cy_SCB_I2C_Disable(I2C_HW, &I2C_context);
 212:Generated_Source\PSoC6/I2C.h **** }
 213:Generated_Source\PSoC6/I2C.h **** 
 214:Generated_Source\PSoC6/I2C.h **** 
 215:Generated_Source\PSoC6/I2C.h **** /*******************************************************************************
 216:Generated_Source\PSoC6/I2C.h **** * Function Name: I2C_SetDataRate
 217:Generated_Source\PSoC6/I2C.h **** ****************************************************************************//**
 218:Generated_Source\PSoC6/I2C.h **** *
 219:Generated_Source\PSoC6/I2C.h **** * Invokes the Cy_SCB_I2C_SetDataRate() PDL driver function.
 220:Generated_Source\PSoC6/I2C.h **** *
 221:Generated_Source\PSoC6/I2C.h **** *******************************************************************************/
 222:Generated_Source\PSoC6/I2C.h **** __STATIC_INLINE uint32_t I2C_SetDataRate(uint32_t dataRateHz, uint32_t scbClockHz)
 223:Generated_Source\PSoC6/I2C.h **** {
 224:Generated_Source\PSoC6/I2C.h ****     return Cy_SCB_I2C_SetDataRate(I2C_HW, dataRateHz, scbClockHz);
 225:Generated_Source\PSoC6/I2C.h **** }
 226:Generated_Source\PSoC6/I2C.h **** 
 227:Generated_Source\PSoC6/I2C.h **** 
 228:Generated_Source\PSoC6/I2C.h **** /*******************************************************************************
 229:Generated_Source\PSoC6/I2C.h **** * Function Name: I2C_GetDataRate
 230:Generated_Source\PSoC6/I2C.h **** ****************************************************************************//**
 231:Generated_Source\PSoC6/I2C.h **** *
 232:Generated_Source\PSoC6/I2C.h **** * Invokes the Cy_SCB_I2C_GetDataRate() PDL driver function.
 233:Generated_Source\PSoC6/I2C.h **** *
 234:Generated_Source\PSoC6/I2C.h **** *******************************************************************************/
 235:Generated_Source\PSoC6/I2C.h **** __STATIC_INLINE uint32_t I2C_GetDataRate(uint32_t scbClockHz)
 236:Generated_Source\PSoC6/I2C.h **** {
 237:Generated_Source\PSoC6/I2C.h ****     return Cy_SCB_I2C_GetDataRate(I2C_HW, scbClockHz);
 238:Generated_Source\PSoC6/I2C.h **** }
 239:Generated_Source\PSoC6/I2C.h **** 
 240:Generated_Source\PSoC6/I2C.h **** 
 241:Generated_Source\PSoC6/I2C.h **** /*******************************************************************************
 242:Generated_Source\PSoC6/I2C.h **** * Function Name: I2C_RegisterEventCallback
 243:Generated_Source\PSoC6/I2C.h **** ****************************************************************************//**
 244:Generated_Source\PSoC6/I2C.h **** *
 245:Generated_Source\PSoC6/I2C.h **** * Invokes the Cy_SCB_I2C_RegisterEventCallback() PDL driver function.
 246:Generated_Source\PSoC6/I2C.h **** *
 247:Generated_Source\PSoC6/I2C.h **** *******************************************************************************/
 248:Generated_Source\PSoC6/I2C.h **** __STATIC_INLINE void I2C_RegisterEventCallback(cy_cb_scb_i2c_handle_events_t callback)
 249:Generated_Source\PSoC6/I2C.h **** {
 250:Generated_Source\PSoC6/I2C.h ****     Cy_SCB_I2C_RegisterEventCallback(I2C_HW, callback, &I2C_context);
 251:Generated_Source\PSoC6/I2C.h **** }
 252:Generated_Source\PSoC6/I2C.h **** 
 253:Generated_Source\PSoC6/I2C.h **** 
 254:Generated_Source\PSoC6/I2C.h **** #if (I2C_ENABLE_SLAVE)
 255:Generated_Source\PSoC6/I2C.h **** /*******************************************************************************
 256:Generated_Source\PSoC6/I2C.h **** * Function Name: I2C_RegisterAddrCallback
 257:Generated_Source\PSoC6/I2C.h **** ****************************************************************************//**
 258:Generated_Source\PSoC6/I2C.h **** *
 259:Generated_Source\PSoC6/I2C.h **** * Invokes the Cy_SCB_I2C_RegisterAddrCallback() PDL driver function.
 260:Generated_Source\PSoC6/I2C.h **** *
 261:Generated_Source\PSoC6/I2C.h **** *******************************************************************************/
 262:Generated_Source\PSoC6/I2C.h **** __STATIC_INLINE void I2C_RegisterAddrCallback(cy_cb_scb_i2c_handle_addr_t callback)
 263:Generated_Source\PSoC6/I2C.h **** {
 264:Generated_Source\PSoC6/I2C.h ****     Cy_SCB_I2C_RegisterAddrCallback(I2C_HW, callback, &I2C_context);
ARM GAS  C:\Users\ASUS\AppData\Local\Temp\ccYYtRfk.s 			page 26


 265:Generated_Source\PSoC6/I2C.h **** }
 266:Generated_Source\PSoC6/I2C.h **** #endif /* (I2C_ENABLE_SLAVE) */
 267:Generated_Source\PSoC6/I2C.h **** 
 268:Generated_Source\PSoC6/I2C.h **** 
 269:Generated_Source\PSoC6/I2C.h **** /*******************************************************************************
 270:Generated_Source\PSoC6/I2C.h **** * Function Name: I2C_IsBusBusy
 271:Generated_Source\PSoC6/I2C.h **** ****************************************************************************//**
 272:Generated_Source\PSoC6/I2C.h **** *
 273:Generated_Source\PSoC6/I2C.h **** * Invokes the Cy_SCB_I2C_IsBusBusy() PDL driver function.
 274:Generated_Source\PSoC6/I2C.h **** *
 275:Generated_Source\PSoC6/I2C.h **** *******************************************************************************/
 276:Generated_Source\PSoC6/I2C.h **** __STATIC_INLINE bool I2C_IsBusBusy(void)
 277:Generated_Source\PSoC6/I2C.h **** {
 278:Generated_Source\PSoC6/I2C.h ****     return Cy_SCB_I2C_IsBusBusy(I2C_HW);
 279:Generated_Source\PSoC6/I2C.h **** }
 280:Generated_Source\PSoC6/I2C.h **** 
 281:Generated_Source\PSoC6/I2C.h **** 
 282:Generated_Source\PSoC6/I2C.h **** #if (I2C_ENABLE_SLAVE)
 283:Generated_Source\PSoC6/I2C.h **** /*******************************************************************************
 284:Generated_Source\PSoC6/I2C.h **** * Function Name: I2C_SlaveSetAddress
 285:Generated_Source\PSoC6/I2C.h **** ****************************************************************************//**
 286:Generated_Source\PSoC6/I2C.h **** *
 287:Generated_Source\PSoC6/I2C.h **** * Invokes the Cy_SCB_I2C_SlaveGetAddress() PDL driver function.
 288:Generated_Source\PSoC6/I2C.h **** *
 289:Generated_Source\PSoC6/I2C.h **** *******************************************************************************/
 290:Generated_Source\PSoC6/I2C.h **** __STATIC_INLINE void I2C_SlaveSetAddress(uint8_t addr)
 291:Generated_Source\PSoC6/I2C.h **** {
 292:Generated_Source\PSoC6/I2C.h ****     Cy_SCB_I2C_SlaveSetAddress(I2C_HW, addr);
 293:Generated_Source\PSoC6/I2C.h **** }
 294:Generated_Source\PSoC6/I2C.h **** 
 295:Generated_Source\PSoC6/I2C.h **** 
 296:Generated_Source\PSoC6/I2C.h **** /*******************************************************************************
 297:Generated_Source\PSoC6/I2C.h **** * Function Name: I2C_SlaveGetAddress
 298:Generated_Source\PSoC6/I2C.h **** ****************************************************************************//**
 299:Generated_Source\PSoC6/I2C.h **** *
 300:Generated_Source\PSoC6/I2C.h **** * Invokes the Cy_SCB_I2C_SlaveGetAddress() PDL driver function.
 301:Generated_Source\PSoC6/I2C.h **** *
 302:Generated_Source\PSoC6/I2C.h **** *******************************************************************************/
 303:Generated_Source\PSoC6/I2C.h **** __STATIC_INLINE uint32_t I2C_SlaveGetAddress(void)
 304:Generated_Source\PSoC6/I2C.h **** {
 305:Generated_Source\PSoC6/I2C.h ****     return Cy_SCB_I2C_SlaveGetAddress(I2C_HW);
 306:Generated_Source\PSoC6/I2C.h **** }
 307:Generated_Source\PSoC6/I2C.h **** 
 308:Generated_Source\PSoC6/I2C.h **** 
 309:Generated_Source\PSoC6/I2C.h **** /*******************************************************************************
 310:Generated_Source\PSoC6/I2C.h **** * Function Name: I2C_SlaveSetAddressMask
 311:Generated_Source\PSoC6/I2C.h **** ****************************************************************************//**
 312:Generated_Source\PSoC6/I2C.h **** *
 313:Generated_Source\PSoC6/I2C.h **** * Invokes the Cy_SCB_I2C_SlaveSetAddressMask() PDL driver function.
 314:Generated_Source\PSoC6/I2C.h **** *
 315:Generated_Source\PSoC6/I2C.h **** *******************************************************************************/
 316:Generated_Source\PSoC6/I2C.h **** __STATIC_INLINE void I2C_SlaveSetAddressMask(uint8_t addrMask)
 317:Generated_Source\PSoC6/I2C.h **** {
 318:Generated_Source\PSoC6/I2C.h ****     Cy_SCB_I2C_SlaveSetAddressMask(I2C_HW, addrMask);
 319:Generated_Source\PSoC6/I2C.h **** }
 320:Generated_Source\PSoC6/I2C.h **** 
 321:Generated_Source\PSoC6/I2C.h **** 
ARM GAS  C:\Users\ASUS\AppData\Local\Temp\ccYYtRfk.s 			page 27


 322:Generated_Source\PSoC6/I2C.h **** /*******************************************************************************
 323:Generated_Source\PSoC6/I2C.h **** * Function Name: I2C_SlaveGetAddressMask
 324:Generated_Source\PSoC6/I2C.h **** ****************************************************************************//**
 325:Generated_Source\PSoC6/I2C.h **** *
 326:Generated_Source\PSoC6/I2C.h **** * Invokes the Cy_SCB_I2C_SlaveGetAddressMask() PDL driver function.
 327:Generated_Source\PSoC6/I2C.h **** *
 328:Generated_Source\PSoC6/I2C.h **** *******************************************************************************/
 329:Generated_Source\PSoC6/I2C.h **** __STATIC_INLINE uint32_t I2C_SlaveGetAddressMask(void)
 330:Generated_Source\PSoC6/I2C.h **** {
 331:Generated_Source\PSoC6/I2C.h ****     return Cy_SCB_I2C_SlaveGetAddressMask(I2C_HW);
 332:Generated_Source\PSoC6/I2C.h **** }
 333:Generated_Source\PSoC6/I2C.h **** #endif /* (I2C_ENABLE_SLAVE) */
 334:Generated_Source\PSoC6/I2C.h **** 
 335:Generated_Source\PSoC6/I2C.h **** #if (I2C_ENABLE_MASTER)
 336:Generated_Source\PSoC6/I2C.h **** /*******************************************************************************
 337:Generated_Source\PSoC6/I2C.h **** * Function Name: I2C_MasterSetLowPhaseDutyCycle
 338:Generated_Source\PSoC6/I2C.h **** ****************************************************************************//**
 339:Generated_Source\PSoC6/I2C.h **** *
 340:Generated_Source\PSoC6/I2C.h **** * Invokes the Cy_SCB_I2C_MasterSetLowPhaseDutyCycle() PDL driver function.
 341:Generated_Source\PSoC6/I2C.h **** *
 342:Generated_Source\PSoC6/I2C.h **** *******************************************************************************/
 343:Generated_Source\PSoC6/I2C.h **** __STATIC_INLINE void I2C_MasterSetLowPhaseDutyCycle(uint32_t clockCycles)
 344:Generated_Source\PSoC6/I2C.h **** {
 345:Generated_Source\PSoC6/I2C.h ****     Cy_SCB_I2C_MasterSetLowPhaseDutyCycle(I2C_HW, clockCycles);
 346:Generated_Source\PSoC6/I2C.h **** }
 347:Generated_Source\PSoC6/I2C.h **** 
 348:Generated_Source\PSoC6/I2C.h **** 
 349:Generated_Source\PSoC6/I2C.h **** /*******************************************************************************
 350:Generated_Source\PSoC6/I2C.h **** * Function Name: I2C_MasterSetHighPhaseDutyCycle
 351:Generated_Source\PSoC6/I2C.h **** ****************************************************************************//**
 352:Generated_Source\PSoC6/I2C.h **** *
 353:Generated_Source\PSoC6/I2C.h **** * Invokes the Cy_SCB_I2C_MasterSetHighPhaseDutyCycle() PDL driver function.
 354:Generated_Source\PSoC6/I2C.h **** *
 355:Generated_Source\PSoC6/I2C.h **** *******************************************************************************/
 356:Generated_Source\PSoC6/I2C.h **** __STATIC_INLINE void I2C_MasterSetHighPhaseDutyCycle(uint32_t clockCycles)
 357:Generated_Source\PSoC6/I2C.h **** {
 358:Generated_Source\PSoC6/I2C.h ****     Cy_SCB_I2C_MasterSetHighPhaseDutyCycle(I2C_HW, clockCycles);
 359:Generated_Source\PSoC6/I2C.h **** }
 360:Generated_Source\PSoC6/I2C.h **** #endif /* (I2C_ENABLE_MASTER) */
 361:Generated_Source\PSoC6/I2C.h **** 
 362:Generated_Source\PSoC6/I2C.h **** 
 363:Generated_Source\PSoC6/I2C.h **** #if (I2C_ENABLE_SLAVE)
 364:Generated_Source\PSoC6/I2C.h **** /*******************************************************************************
 365:Generated_Source\PSoC6/I2C.h **** * Function Name: I2C_SlaveGetStatus
 366:Generated_Source\PSoC6/I2C.h **** ****************************************************************************//**
 367:Generated_Source\PSoC6/I2C.h **** *
 368:Generated_Source\PSoC6/I2C.h **** * Invokes the Cy_SCB_I2C_SlaveGetStatus() PDL driver function.
 369:Generated_Source\PSoC6/I2C.h **** *
 370:Generated_Source\PSoC6/I2C.h **** *******************************************************************************/
 371:Generated_Source\PSoC6/I2C.h **** __STATIC_INLINE uint32_t I2C_SlaveGetStatus(void)
 372:Generated_Source\PSoC6/I2C.h **** {
 373:Generated_Source\PSoC6/I2C.h ****     return Cy_SCB_I2C_SlaveGetStatus(I2C_HW, &I2C_context);
 374:Generated_Source\PSoC6/I2C.h **** }
 375:Generated_Source\PSoC6/I2C.h **** 
 376:Generated_Source\PSoC6/I2C.h **** 
 377:Generated_Source\PSoC6/I2C.h **** /*******************************************************************************
 378:Generated_Source\PSoC6/I2C.h **** * Function Name: I2C_SlaveConfigReadBuf
ARM GAS  C:\Users\ASUS\AppData\Local\Temp\ccYYtRfk.s 			page 28


 379:Generated_Source\PSoC6/I2C.h **** ****************************************************************************//**
 380:Generated_Source\PSoC6/I2C.h **** *
 381:Generated_Source\PSoC6/I2C.h **** * Invokes the Cy_SCB_I2C_SlaveConfigReadBuf() PDL driver function.
 382:Generated_Source\PSoC6/I2C.h **** *
 383:Generated_Source\PSoC6/I2C.h **** *******************************************************************************/
 384:Generated_Source\PSoC6/I2C.h **** __STATIC_INLINE void I2C_SlaveConfigReadBuf(uint8_t *buffer, uint32_t size)
 385:Generated_Source\PSoC6/I2C.h **** {
 386:Generated_Source\PSoC6/I2C.h ****     Cy_SCB_I2C_SlaveConfigReadBuf(I2C_HW, buffer, size, &I2C_context);
 387:Generated_Source\PSoC6/I2C.h **** }
 388:Generated_Source\PSoC6/I2C.h **** 
 389:Generated_Source\PSoC6/I2C.h **** 
 390:Generated_Source\PSoC6/I2C.h **** /*******************************************************************************
 391:Generated_Source\PSoC6/I2C.h **** * Function Name: I2C_SlaveAbortRead
 392:Generated_Source\PSoC6/I2C.h **** ****************************************************************************//**
 393:Generated_Source\PSoC6/I2C.h **** *
 394:Generated_Source\PSoC6/I2C.h **** * Invokes the Cy_SCB_I2C_SlaveAbortRead() PDL driver function.
 395:Generated_Source\PSoC6/I2C.h **** *
 396:Generated_Source\PSoC6/I2C.h **** *******************************************************************************/
 397:Generated_Source\PSoC6/I2C.h **** __STATIC_INLINE void I2C_SlaveAbortRead(void)
 398:Generated_Source\PSoC6/I2C.h **** {
 399:Generated_Source\PSoC6/I2C.h ****     Cy_SCB_I2C_SlaveAbortRead(I2C_HW, &I2C_context);
 400:Generated_Source\PSoC6/I2C.h **** }
 401:Generated_Source\PSoC6/I2C.h **** 
 402:Generated_Source\PSoC6/I2C.h **** 
 403:Generated_Source\PSoC6/I2C.h **** /*******************************************************************************
 404:Generated_Source\PSoC6/I2C.h **** * Function Name: I2C_SlaveGetReadTransferCount
 405:Generated_Source\PSoC6/I2C.h **** ****************************************************************************//**
 406:Generated_Source\PSoC6/I2C.h **** *
 407:Generated_Source\PSoC6/I2C.h **** * Invokes the Cy_SCB_I2C_SlaveGetReadTransferCount() PDL driver function.
 408:Generated_Source\PSoC6/I2C.h **** *
 409:Generated_Source\PSoC6/I2C.h **** *******************************************************************************/
 410:Generated_Source\PSoC6/I2C.h **** __STATIC_INLINE uint32_t I2C_SlaveGetReadTransferCount(void)
 411:Generated_Source\PSoC6/I2C.h **** {
 412:Generated_Source\PSoC6/I2C.h ****     return Cy_SCB_I2C_SlaveGetReadTransferCount(I2C_HW, &I2C_context);
 413:Generated_Source\PSoC6/I2C.h **** }
 414:Generated_Source\PSoC6/I2C.h **** 
 415:Generated_Source\PSoC6/I2C.h **** 
 416:Generated_Source\PSoC6/I2C.h **** /*******************************************************************************
 417:Generated_Source\PSoC6/I2C.h **** * Function Name: I2C_SlaveClearReadStatus
 418:Generated_Source\PSoC6/I2C.h **** ****************************************************************************//**
 419:Generated_Source\PSoC6/I2C.h **** *
 420:Generated_Source\PSoC6/I2C.h **** * Invokes the Cy_SCB_I2C_SlaveClearReadStatus() PDL driver function.
 421:Generated_Source\PSoC6/I2C.h **** *
 422:Generated_Source\PSoC6/I2C.h **** *******************************************************************************/
 423:Generated_Source\PSoC6/I2C.h **** __STATIC_INLINE uint32_t I2C_SlaveClearReadStatus(void)
 424:Generated_Source\PSoC6/I2C.h **** {
 425:Generated_Source\PSoC6/I2C.h ****     return Cy_SCB_I2C_SlaveClearReadStatus(I2C_HW, &I2C_context);
 426:Generated_Source\PSoC6/I2C.h **** }
 427:Generated_Source\PSoC6/I2C.h **** 
 428:Generated_Source\PSoC6/I2C.h **** 
 429:Generated_Source\PSoC6/I2C.h **** /*******************************************************************************
 430:Generated_Source\PSoC6/I2C.h **** * Function Name: I2C_SlaveConfigWriteBuf
 431:Generated_Source\PSoC6/I2C.h **** ****************************************************************************//**
 432:Generated_Source\PSoC6/I2C.h **** *
 433:Generated_Source\PSoC6/I2C.h **** * Invokes the Cy_SCB_I2C_SlaveConfigWriteBuf() PDL driver function.
 434:Generated_Source\PSoC6/I2C.h **** *
 435:Generated_Source\PSoC6/I2C.h **** *******************************************************************************/
ARM GAS  C:\Users\ASUS\AppData\Local\Temp\ccYYtRfk.s 			page 29


 436:Generated_Source\PSoC6/I2C.h **** __STATIC_INLINE void I2C_SlaveConfigWriteBuf(uint8_t *buffer, uint32_t size)
 437:Generated_Source\PSoC6/I2C.h **** {
 438:Generated_Source\PSoC6/I2C.h ****     Cy_SCB_I2C_SlaveConfigWriteBuf(I2C_HW, buffer, size, &I2C_context);
 439:Generated_Source\PSoC6/I2C.h **** }
 440:Generated_Source\PSoC6/I2C.h **** 
 441:Generated_Source\PSoC6/I2C.h **** 
 442:Generated_Source\PSoC6/I2C.h **** /*******************************************************************************
 443:Generated_Source\PSoC6/I2C.h **** * Function Name: I2C_SlaveAbortWrite
 444:Generated_Source\PSoC6/I2C.h **** ****************************************************************************//**
 445:Generated_Source\PSoC6/I2C.h **** *
 446:Generated_Source\PSoC6/I2C.h **** * Invokes the Cy_SCB_I2C_SlaveAbortWrite() PDL driver function.
 447:Generated_Source\PSoC6/I2C.h **** *
 448:Generated_Source\PSoC6/I2C.h **** *******************************************************************************/
 449:Generated_Source\PSoC6/I2C.h **** __STATIC_INLINE void I2C_SlaveAbortWrite(void)
 450:Generated_Source\PSoC6/I2C.h **** {
 451:Generated_Source\PSoC6/I2C.h ****     Cy_SCB_I2C_SlaveAbortWrite(I2C_HW, &I2C_context);
 452:Generated_Source\PSoC6/I2C.h **** }
 453:Generated_Source\PSoC6/I2C.h **** 
 454:Generated_Source\PSoC6/I2C.h **** 
 455:Generated_Source\PSoC6/I2C.h **** /*******************************************************************************
 456:Generated_Source\PSoC6/I2C.h **** * Function Name: I2C_SlaveGetWriteTransferCount
 457:Generated_Source\PSoC6/I2C.h **** ****************************************************************************//**
 458:Generated_Source\PSoC6/I2C.h **** *
 459:Generated_Source\PSoC6/I2C.h **** * Invokes the Cy_SCB_I2C_SlaveGetWriteTransferCount() PDL driver function.
 460:Generated_Source\PSoC6/I2C.h **** *
 461:Generated_Source\PSoC6/I2C.h **** *******************************************************************************/
 462:Generated_Source\PSoC6/I2C.h **** __STATIC_INLINE uint32_t I2C_SlaveGetWriteTransferCount(void)
 463:Generated_Source\PSoC6/I2C.h **** {
 464:Generated_Source\PSoC6/I2C.h ****     return Cy_SCB_I2C_SlaveGetWriteTransferCount(I2C_HW, &I2C_context);
 465:Generated_Source\PSoC6/I2C.h **** }
 466:Generated_Source\PSoC6/I2C.h **** 
 467:Generated_Source\PSoC6/I2C.h **** 
 468:Generated_Source\PSoC6/I2C.h **** /*******************************************************************************
 469:Generated_Source\PSoC6/I2C.h **** * Function Name: I2C_SlaveClearWriteStatus
 470:Generated_Source\PSoC6/I2C.h **** ****************************************************************************//**
 471:Generated_Source\PSoC6/I2C.h **** *
 472:Generated_Source\PSoC6/I2C.h **** * Invokes the Cy_SCB_I2C_SlaveClearWriteStatus() PDL driver function.
 473:Generated_Source\PSoC6/I2C.h **** *
 474:Generated_Source\PSoC6/I2C.h **** *******************************************************************************/
 475:Generated_Source\PSoC6/I2C.h **** __STATIC_INLINE uint32_t I2C_SlaveClearWriteStatus(void)
 476:Generated_Source\PSoC6/I2C.h **** {
 477:Generated_Source\PSoC6/I2C.h ****     return Cy_SCB_I2C_SlaveClearWriteStatus(I2C_HW, &I2C_context);
 478:Generated_Source\PSoC6/I2C.h **** }
 479:Generated_Source\PSoC6/I2C.h **** #endif /* (I2C_ENABLE_SLAVE) */
 480:Generated_Source\PSoC6/I2C.h **** 
 481:Generated_Source\PSoC6/I2C.h **** 
 482:Generated_Source\PSoC6/I2C.h **** #if (I2C_ENABLE_MASTER)
 483:Generated_Source\PSoC6/I2C.h **** /*******************************************************************************
 484:Generated_Source\PSoC6/I2C.h **** * Function Name: I2C_MasterGetStatus
 485:Generated_Source\PSoC6/I2C.h **** ****************************************************************************//**
 486:Generated_Source\PSoC6/I2C.h **** *
 487:Generated_Source\PSoC6/I2C.h **** * Invokes the Cy_SCB_I2C_MasterGetStatus() PDL driver function.
 488:Generated_Source\PSoC6/I2C.h **** *
 489:Generated_Source\PSoC6/I2C.h **** *******************************************************************************/
 490:Generated_Source\PSoC6/I2C.h **** __STATIC_INLINE uint32_t I2C_MasterGetStatus(void)
 491:Generated_Source\PSoC6/I2C.h **** {
 492:Generated_Source\PSoC6/I2C.h ****     return Cy_SCB_I2C_MasterGetStatus(I2C_HW, &I2C_context);
ARM GAS  C:\Users\ASUS\AppData\Local\Temp\ccYYtRfk.s 			page 30


 493:Generated_Source\PSoC6/I2C.h **** }
 494:Generated_Source\PSoC6/I2C.h **** 
 495:Generated_Source\PSoC6/I2C.h **** 
 496:Generated_Source\PSoC6/I2C.h **** /*******************************************************************************
 497:Generated_Source\PSoC6/I2C.h **** * Function Name: I2C_MasterRead
 498:Generated_Source\PSoC6/I2C.h **** ****************************************************************************//**
 499:Generated_Source\PSoC6/I2C.h **** *
 500:Generated_Source\PSoC6/I2C.h **** * Invokes the Cy_SCB_I2C_MasterRead() PDL driver function.
 501:Generated_Source\PSoC6/I2C.h **** *
 502:Generated_Source\PSoC6/I2C.h **** *******************************************************************************/
 503:Generated_Source\PSoC6/I2C.h **** __STATIC_INLINE cy_en_scb_i2c_status_t I2C_MasterRead(cy_stc_scb_i2c_master_xfer_config_t *xferConf
 504:Generated_Source\PSoC6/I2C.h **** {
 505:Generated_Source\PSoC6/I2C.h ****     return Cy_SCB_I2C_MasterRead(I2C_HW, xferConfig, &I2C_context);
 506:Generated_Source\PSoC6/I2C.h **** }
 507:Generated_Source\PSoC6/I2C.h **** 
 508:Generated_Source\PSoC6/I2C.h **** 
 509:Generated_Source\PSoC6/I2C.h **** /*******************************************************************************
 510:Generated_Source\PSoC6/I2C.h **** * Function Name: I2C_MasterAbortRead
 511:Generated_Source\PSoC6/I2C.h **** ****************************************************************************//**
 512:Generated_Source\PSoC6/I2C.h **** *
 513:Generated_Source\PSoC6/I2C.h **** * Invokes the Cy_SCB_I2C_MasterAbortRead() PDL driver function.
 514:Generated_Source\PSoC6/I2C.h **** *
 515:Generated_Source\PSoC6/I2C.h **** ******************************************************************************/
 516:Generated_Source\PSoC6/I2C.h **** __STATIC_INLINE void I2C_MasterAbortRead(void)
 517:Generated_Source\PSoC6/I2C.h **** {
 518:Generated_Source\PSoC6/I2C.h ****     Cy_SCB_I2C_MasterAbortRead(I2C_HW, &I2C_context);
 519:Generated_Source\PSoC6/I2C.h **** }
 520:Generated_Source\PSoC6/I2C.h **** 
 521:Generated_Source\PSoC6/I2C.h **** 
 522:Generated_Source\PSoC6/I2C.h **** /*******************************************************************************
 523:Generated_Source\PSoC6/I2C.h **** * Function Name: I2C_MasterWrite
 524:Generated_Source\PSoC6/I2C.h **** ****************************************************************************//**
 525:Generated_Source\PSoC6/I2C.h **** *
 526:Generated_Source\PSoC6/I2C.h **** * Invokes the Cy_SCB_I2C_MasterWrite() PDL driver function.
 527:Generated_Source\PSoC6/I2C.h **** *
 528:Generated_Source\PSoC6/I2C.h **** *******************************************************************************/
 529:Generated_Source\PSoC6/I2C.h **** __STATIC_INLINE cy_en_scb_i2c_status_t I2C_MasterWrite(cy_stc_scb_i2c_master_xfer_config_t *xferCon
 530:Generated_Source\PSoC6/I2C.h **** {
 531:Generated_Source\PSoC6/I2C.h ****     return Cy_SCB_I2C_MasterWrite(I2C_HW, xferConfig, &I2C_context);
 532:Generated_Source\PSoC6/I2C.h **** }
 533:Generated_Source\PSoC6/I2C.h **** 
 534:Generated_Source\PSoC6/I2C.h **** 
 535:Generated_Source\PSoC6/I2C.h **** /*******************************************************************************
 536:Generated_Source\PSoC6/I2C.h **** * Function Name: I2C_MasterAbortWrite
 537:Generated_Source\PSoC6/I2C.h **** ****************************************************************************//**
 538:Generated_Source\PSoC6/I2C.h **** *
 539:Generated_Source\PSoC6/I2C.h **** * Invokes the Cy_SCB_I2C_MasterAbortWrite() PDL driver function.
 540:Generated_Source\PSoC6/I2C.h **** *
 541:Generated_Source\PSoC6/I2C.h **** *******************************************************************************/
 542:Generated_Source\PSoC6/I2C.h **** __STATIC_INLINE void I2C_MasterAbortWrite(void)
 543:Generated_Source\PSoC6/I2C.h **** {
 544:Generated_Source\PSoC6/I2C.h ****     Cy_SCB_I2C_MasterAbortWrite(I2C_HW, &I2C_context);
 545:Generated_Source\PSoC6/I2C.h **** }
 546:Generated_Source\PSoC6/I2C.h **** 
 547:Generated_Source\PSoC6/I2C.h **** 
 548:Generated_Source\PSoC6/I2C.h **** /*******************************************************************************
 549:Generated_Source\PSoC6/I2C.h **** * Function Name: I2C_MasterGetTransferCount
ARM GAS  C:\Users\ASUS\AppData\Local\Temp\ccYYtRfk.s 			page 31


 550:Generated_Source\PSoC6/I2C.h **** ****************************************************************************//**
 551:Generated_Source\PSoC6/I2C.h **** *
 552:Generated_Source\PSoC6/I2C.h **** * Invokes the Cy_SCB_I2C_MasterGetTransferCount() PDL driver function.
 553:Generated_Source\PSoC6/I2C.h **** *
 554:Generated_Source\PSoC6/I2C.h **** *******************************************************************************/
 555:Generated_Source\PSoC6/I2C.h **** __STATIC_INLINE uint32_t I2C_MasterGetTransferCount(void)
 556:Generated_Source\PSoC6/I2C.h **** {
 557:Generated_Source\PSoC6/I2C.h ****     return Cy_SCB_I2C_MasterGetTransferCount(I2C_HW, &I2C_context);
 558:Generated_Source\PSoC6/I2C.h **** }
 559:Generated_Source\PSoC6/I2C.h **** 
 560:Generated_Source\PSoC6/I2C.h **** 
 561:Generated_Source\PSoC6/I2C.h **** /*******************************************************************************
 562:Generated_Source\PSoC6/I2C.h **** * Function Name: I2C_MasterSendStart
 563:Generated_Source\PSoC6/I2C.h **** ****************************************************************************//**
 564:Generated_Source\PSoC6/I2C.h **** *
 565:Generated_Source\PSoC6/I2C.h **** * Invokes the Cy_SCB_I2C_MasterSendStart() PDL driver function.
 566:Generated_Source\PSoC6/I2C.h **** *
 567:Generated_Source\PSoC6/I2C.h **** *******************************************************************************/
 568:Generated_Source\PSoC6/I2C.h **** __STATIC_INLINE cy_en_scb_i2c_status_t I2C_MasterSendStart(uint32_t address, cy_en_scb_i2c_directio
 569:Generated_Source\PSoC6/I2C.h **** {
 570:Generated_Source\PSoC6/I2C.h ****     return Cy_SCB_I2C_MasterSendStart(I2C_HW, address, bitRnW, timeoutMs, &I2C_context);
 621              		.loc 5 570 0
 622 001a 284C     		ldr	r4, .L42
 623 001c 284F     		ldr	r7, .L42+4
 624 001e 0097     		str	r7, [sp]
 625 0020 6433     		adds	r3, r3, #100
 626 0022 0022     		movs	r2, #0
 627 0024 7421     		movs	r1, #116
 628 0026 2000     		movs	r0, r4
 629              	.LVL63:
 630 0028 FFF7FEFF 		bl	Cy_SCB_I2C_MasterSendStart
 631              	.LVL64:
 632              	.LBE52:
 633              	.LBE51:
  82:Light.h       ****     
  83:Light.h       ****     // Start condition and broadcast slave address + WRITE bit (0)
  84:Light.h       ****     ret0 = I2C_MasterSendStart(LIGHT_ADDRESS, CY_SCB_I2C_WRITE_XFER, 100);
 634              		.loc 4 84 0
 635 002c 0B90     		str	r0, [sp, #44]
  85:Light.h       ****     CyDelay(1);
 636              		.loc 4 85 0
 637 002e 0120     		movs	r0, #1
 638 0030 FFF7FEFF 		bl	Cy_SysLib_Delay
 639              	.LVL65:
 640              	.LBB53:
 641              	.LBB54:
 571:Generated_Source\PSoC6/I2C.h **** }
 572:Generated_Source\PSoC6/I2C.h **** 
 573:Generated_Source\PSoC6/I2C.h **** 
 574:Generated_Source\PSoC6/I2C.h **** /*******************************************************************************
 575:Generated_Source\PSoC6/I2C.h **** * Function Name: I2C_MasterSendReStart
 576:Generated_Source\PSoC6/I2C.h **** ****************************************************************************//**
 577:Generated_Source\PSoC6/I2C.h **** *
 578:Generated_Source\PSoC6/I2C.h **** * Invokes the Cy_SCB_I2C_MasterSendReStart() PDL driver function.
 579:Generated_Source\PSoC6/I2C.h **** *
 580:Generated_Source\PSoC6/I2C.h **** *******************************************************************************/
 581:Generated_Source\PSoC6/I2C.h **** __STATIC_INLINE cy_en_scb_i2c_status_t I2C_MasterSendReStart(uint32_t address, cy_en_scb_i2c_direct
ARM GAS  C:\Users\ASUS\AppData\Local\Temp\ccYYtRfk.s 			page 32


 582:Generated_Source\PSoC6/I2C.h **** {
 583:Generated_Source\PSoC6/I2C.h ****     return Cy_SCB_I2C_MasterSendReStart(I2C_HW, address, bitRnW, timeoutMs, &I2C_context);
 584:Generated_Source\PSoC6/I2C.h **** }
 585:Generated_Source\PSoC6/I2C.h **** 
 586:Generated_Source\PSoC6/I2C.h **** 
 587:Generated_Source\PSoC6/I2C.h **** /*******************************************************************************
 588:Generated_Source\PSoC6/I2C.h **** * Function Name: I2C_MasterSendStop
 589:Generated_Source\PSoC6/I2C.h **** ****************************************************************************//**
 590:Generated_Source\PSoC6/I2C.h **** *
 591:Generated_Source\PSoC6/I2C.h **** * Invokes the Cy_SCB_I2C_MasterSendStop() PDL driver function.
 592:Generated_Source\PSoC6/I2C.h **** *
 593:Generated_Source\PSoC6/I2C.h **** *******************************************************************************/
 594:Generated_Source\PSoC6/I2C.h **** __STATIC_INLINE cy_en_scb_i2c_status_t I2C_MasterSendStop(uint32_t timeoutMs)
 595:Generated_Source\PSoC6/I2C.h **** {
 596:Generated_Source\PSoC6/I2C.h ****     return Cy_SCB_I2C_MasterSendStop(I2C_HW, timeoutMs, &I2C_context);
 597:Generated_Source\PSoC6/I2C.h **** }
 598:Generated_Source\PSoC6/I2C.h **** 
 599:Generated_Source\PSoC6/I2C.h **** 
 600:Generated_Source\PSoC6/I2C.h **** /*******************************************************************************
 601:Generated_Source\PSoC6/I2C.h **** * Function Name: I2C_MasterReadByte
 602:Generated_Source\PSoC6/I2C.h **** ****************************************************************************//**
 603:Generated_Source\PSoC6/I2C.h **** *
 604:Generated_Source\PSoC6/I2C.h **** * Invokes the Cy_SCB_I2C_MasterReadByte() PDL driver function.
 605:Generated_Source\PSoC6/I2C.h **** *
 606:Generated_Source\PSoC6/I2C.h **** *******************************************************************************/
 607:Generated_Source\PSoC6/I2C.h **** __STATIC_INLINE cy_en_scb_i2c_status_t I2C_MasterReadByte(cy_en_scb_i2c_command_t ackNack, uint8_t 
 608:Generated_Source\PSoC6/I2C.h **** {
 609:Generated_Source\PSoC6/I2C.h ****     return Cy_SCB_I2C_MasterReadByte(I2C_HW, ackNack, byte, timeoutMs, &I2C_context);
 610:Generated_Source\PSoC6/I2C.h **** }
 611:Generated_Source\PSoC6/I2C.h **** 
 612:Generated_Source\PSoC6/I2C.h **** 
 613:Generated_Source\PSoC6/I2C.h **** /*******************************************************************************
 614:Generated_Source\PSoC6/I2C.h **** * Function Name: I2C_MasterWriteByte
 615:Generated_Source\PSoC6/I2C.h **** ****************************************************************************//**
 616:Generated_Source\PSoC6/I2C.h **** *
 617:Generated_Source\PSoC6/I2C.h **** * Invokes the Cy_SCB_I2C_MasterWriteByte() PDL driver function.
 618:Generated_Source\PSoC6/I2C.h **** *
 619:Generated_Source\PSoC6/I2C.h **** *******************************************************************************/
 620:Generated_Source\PSoC6/I2C.h **** __STATIC_INLINE cy_en_scb_i2c_status_t I2C_MasterWriteByte(uint8_t byte, uint32_t timeoutMs)
 621:Generated_Source\PSoC6/I2C.h **** {
 622:Generated_Source\PSoC6/I2C.h ****     return Cy_SCB_I2C_MasterWriteByte(I2C_HW, byte, timeoutMs, &I2C_context);
 642              		.loc 5 622 0
 643 0034 3B00     		movs	r3, r7
 644 0036 6422     		movs	r2, #100
 645 0038 3100     		movs	r1, r6
 646 003a 2000     		movs	r0, r4
 647 003c FFF7FEFF 		bl	Cy_SCB_I2C_MasterWriteByte
 648              	.LVL66:
 649              	.LBE54:
 650              	.LBE53:
  86:Light.h       ****     // Broadcast register requested from slave LIGHT_ADDRESS
  87:Light.h       ****     ret1 = I2C_MasterWriteByte(reg, 100);
 651              		.loc 4 87 0
 652 0040 0A90     		str	r0, [sp, #40]
  88:Light.h       ****     CyDelay(1);
 653              		.loc 4 88 0
 654 0042 0120     		movs	r0, #1
ARM GAS  C:\Users\ASUS\AppData\Local\Temp\ccYYtRfk.s 			page 33


 655 0044 FFF7FEFF 		bl	Cy_SysLib_Delay
 656              	.LVL67:
 657              	.LBB55:
 658              	.LBB56:
 583:Generated_Source\PSoC6/I2C.h **** }
 659              		.loc 5 583 0
 660 0048 0097     		str	r7, [sp]
 661 004a 6423     		movs	r3, #100
 662 004c 0122     		movs	r2, #1
 663 004e 7421     		movs	r1, #116
 664 0050 2000     		movs	r0, r4
 665 0052 FFF7FEFF 		bl	Cy_SCB_I2C_MasterSendReStart
 666              	.LVL68:
 667              	.LBE56:
 668              	.LBE55:
  89:Light.h       ****     // Start repeat condition, broadcast slave address + READ bit (1)
  90:Light.h       ****     ret2 = I2C_MasterSendReStart(LIGHT_ADDRESS, CY_SCB_I2C_READ_XFER, 100);
 669              		.loc 4 90 0
 670 0056 0990     		str	r0, [sp, #36]
  91:Light.h       ****     CyDelay(1);
 671              		.loc 4 91 0
 672 0058 0120     		movs	r0, #1
 673 005a FFF7FEFF 		bl	Cy_SysLib_Delay
 674              	.LVL69:
 675              	.LBB57:
 676              	.LBB58:
 609:Generated_Source\PSoC6/I2C.h **** }
 677              		.loc 5 609 0
 678 005e 0097     		str	r7, [sp]
 679 0060 6423     		movs	r3, #100
 680 0062 2A00     		movs	r2, r5
 681 0064 0021     		movs	r1, #0
 682 0066 2000     		movs	r0, r4
 683 0068 FFF7FEFF 		bl	Cy_SCB_I2C_MasterReadByte
 684              	.LVL70:
 685              	.LBE58:
 686              	.LBE57:
  92:Light.h       ****     // Read from I2C device, put received byte in readBuf and send ack signal.
  93:Light.h       ****     ret3 = I2C_MasterReadByte(CY_SCB_I2C_ACK, &(readBuf[0]), 100);
 687              		.loc 4 93 0
 688 006c 0890     		str	r0, [sp, #32]
  94:Light.h       ****     CyDelay(1);
 689              		.loc 4 94 0
 690 006e 0120     		movs	r0, #1
 691 0070 FFF7FEFF 		bl	Cy_SysLib_Delay
 692              	.LVL71:
 693              	.LBB59:
 694              	.LBB60:
 609:Generated_Source\PSoC6/I2C.h **** }
 695              		.loc 5 609 0
 696 0074 0097     		str	r7, [sp]
 697 0076 6423     		movs	r3, #100
 698 0078 1522     		movs	r2, #21
 699 007a 6A44     		add	r2, r2, sp
 700 007c 0121     		movs	r1, #1
 701 007e 2000     		movs	r0, r4
 702 0080 FFF7FEFF 		bl	Cy_SCB_I2C_MasterReadByte
ARM GAS  C:\Users\ASUS\AppData\Local\Temp\ccYYtRfk.s 			page 34


 703              	.LVL72:
 704              	.LBE60:
 705              	.LBE59:
  95:Light.h       ****     ret5 = I2C_MasterReadByte(CY_SCB_I2C_NAK, &(readBuf[1]), 100);
 706              		.loc 4 95 0
 707 0084 0690     		str	r0, [sp, #24]
  96:Light.h       ****     CyDelay(1);
 708              		.loc 4 96 0
 709 0086 0120     		movs	r0, #1
 710 0088 FFF7FEFF 		bl	Cy_SysLib_Delay
 711              	.LVL73:
 712              	.LBB61:
 713              	.LBB62:
 596:Generated_Source\PSoC6/I2C.h **** }
 714              		.loc 5 596 0
 715 008c 3A00     		movs	r2, r7
 716 008e 6421     		movs	r1, #100
 717 0090 2000     		movs	r0, r4
 718 0092 FFF7FEFF 		bl	Cy_SCB_I2C_MasterSendStop
 719              	.LVL74:
 720              	.LBE62:
 721              	.LBE61:
  97:Light.h       ****     // End I2C transaction
  98:Light.h       ****     ret4 = I2C_MasterSendStop(100);
 722              		.loc 4 98 0
 723 0096 0790     		str	r0, [sp, #28]
  99:Light.h       ****     
 100:Light.h       ****     printf("SendStart: %X,"
 724              		.loc 4 100 0
 725 0098 0B99     		ldr	r1, [sp, #44]
 726 009a 0A9A     		ldr	r2, [sp, #40]
 727 009c 099B     		ldr	r3, [sp, #36]
 728 009e 0898     		ldr	r0, [sp, #32]
 729 00a0 069C     		ldr	r4, [sp, #24]
 730 00a2 079E     		ldr	r6, [sp, #28]
 731 00a4 0296     		str	r6, [sp, #8]
 732 00a6 0194     		str	r4, [sp, #4]
 733 00a8 0090     		str	r0, [sp]
 734 00aa 0648     		ldr	r0, .L42+8
 735 00ac FFF7FEFF 		bl	printf
 736              	.LVL75:
 101:Light.h       **** 		    "WriteByte: %X,"
 102:Light.h       **** 		    "SendReStart: %X,"
 103:Light.h       **** 		    "ReadByte: %X,"
 104:Light.h       ****             "ReadByte2: %X"
 105:Light.h       **** 		    "SendStop: %X\r\n", ret0, ret1, ret2, ret3, ret5, ret4);
 106:Light.h       ****     
 107:Light.h       ****     //Start_Number = (Start_Number_High << 8) | (Start_Number_Low & 0xff);
 108:Light.h       ****     return (readBuf[1] << 8) | (readBuf[0] & 0xff);
 737              		.loc 4 108 0
 738 00b0 6878     		ldrb	r0, [r5, #1]
 739 00b2 0002     		lsls	r0, r0, #8
 740 00b4 2B78     		ldrb	r3, [r5]
 741 00b6 1843     		orrs	r0, r3
 109:Light.h       **** }
 742              		.loc 4 109 0
 743 00b8 0DB0     		add	sp, sp, #52
ARM GAS  C:\Users\ASUS\AppData\Local\Temp\ccYYtRfk.s 			page 35


 744              		@ sp needed
 745 00ba F0BD     		pop	{r4, r5, r6, r7, pc}
 746              	.L43:
 747              		.align	2
 748              	.L42:
 749 00bc 00006740 		.word	1080492032
 750 00c0 00000000 		.word	I2C_context
 751 00c4 40000000 		.word	.LC13
 752              		.cfi_endproc
 753              	.LFE470:
 754              		.size	lightI2CRead, .-lightI2CRead
 755              		.section	.text.lightI2CWrite,"ax",%progbits
 756              		.align	2
 757              		.global	lightI2CWrite
 758              		.code	16
 759              		.thumb_func
 760              		.type	lightI2CWrite, %function
 761              	lightI2CWrite:
 762              	.LFB471:
 110:Light.h       **** 
 111:Light.h       **** /* Function Name: lightI2CWrite
 112:Light.h       ****  *
 113:Light.h       ****  * Summary:
 114:Light.h       ****  * This function writes to the light sensor using the I2C protocol. The general
 115:Light.h       ****  * procedure for write sequences is detailed in 7.18 and Figure 40.
 116:Light.h       ****  *
 117:Light.h       ****  * Parameters:
 118:Light.h       ****  *	@reg:	The register to which you want to write data.
 119:Light.h       ****  *	@val:	The value you would like to write to @reg
 120:Light.h       ****  *
 121:Light.h       ****  * Return:
 122:Light.h       ****  * 	None.
 123:Light.h       ****  */
 124:Light.h       **** void lightI2CWrite(uint8_t reg, uint8_t value)
 125:Light.h       **** {
 763              		.loc 4 125 0
 764              		.cfi_startproc
 765              		@ args = 0, pretend = 0, frame = 16
 766              		@ frame_needed = 0, uses_anonymous_args = 0
 767              	.LVL76:
 768 0000 F0B5     		push	{r4, r5, r6, r7, lr}
 769              		.cfi_def_cfa_offset 20
 770              		.cfi_offset 4, -20
 771              		.cfi_offset 5, -16
 772              		.cfi_offset 6, -12
 773              		.cfi_offset 7, -8
 774              		.cfi_offset 14, -4
 775 0002 87B0     		sub	sp, sp, #28
 776              		.cfi_def_cfa_offset 48
 777 0004 0700     		movs	r7, r0
 778 0006 0E00     		movs	r6, r1
 126:Light.h       ****     volatile cy_en_scb_i2c_status_t ret0 = 0;
 779              		.loc 4 126 0
 780 0008 0023     		movs	r3, #0
 781 000a 0593     		str	r3, [sp, #20]
 127:Light.h       ****     volatile cy_en_scb_i2c_status_t ret1 = 0;
 782              		.loc 4 127 0
ARM GAS  C:\Users\ASUS\AppData\Local\Temp\ccYYtRfk.s 			page 36


 783 000c 0493     		str	r3, [sp, #16]
 128:Light.h       ****     volatile cy_en_scb_i2c_status_t ret2 = 0;
 784              		.loc 4 128 0
 785 000e 0393     		str	r3, [sp, #12]
 129:Light.h       ****     volatile cy_en_scb_i2c_status_t ret3 = 0;
 786              		.loc 4 129 0
 787 0010 0293     		str	r3, [sp, #8]
 788              	.LVL77:
 789              	.LBB63:
 790              	.LBB64:
 570:Generated_Source\PSoC6/I2C.h **** }
 791              		.loc 5 570 0
 792 0012 174C     		ldr	r4, .L45
 793 0014 174D     		ldr	r5, .L45+4
 794 0016 0095     		str	r5, [sp]
 795 0018 6433     		adds	r3, r3, #100
 796 001a 0022     		movs	r2, #0
 797 001c 7421     		movs	r1, #116
 798              	.LVL78:
 799 001e 2000     		movs	r0, r4
 800              	.LVL79:
 801 0020 FFF7FEFF 		bl	Cy_SCB_I2C_MasterSendStart
 802              	.LVL80:
 803              	.LBE64:
 804              	.LBE63:
 130:Light.h       ****     
 131:Light.h       ****     // Start I2C transaction
 132:Light.h       ****     ret0 = I2C_MasterSendStart(LIGHT_ADDRESS, CY_SCB_I2C_WRITE_XFER, 100);
 805              		.loc 4 132 0
 806 0024 0590     		str	r0, [sp, #20]
 133:Light.h       ****     CyDelay(1);
 807              		.loc 4 133 0
 808 0026 0120     		movs	r0, #1
 809 0028 FFF7FEFF 		bl	Cy_SysLib_Delay
 810              	.LVL81:
 811              	.LBB65:
 812              	.LBB66:
 813              		.loc 5 622 0
 814 002c 2B00     		movs	r3, r5
 815 002e 6422     		movs	r2, #100
 816 0030 3900     		movs	r1, r7
 817 0032 2000     		movs	r0, r4
 818 0034 FFF7FEFF 		bl	Cy_SCB_I2C_MasterWriteByte
 819              	.LVL82:
 820              	.LBE66:
 821              	.LBE65:
 134:Light.h       ****     //Write to I2C device
 135:Light.h       ****     ret1 = I2C_MasterWriteByte(reg, 100);
 822              		.loc 4 135 0
 823 0038 0490     		str	r0, [sp, #16]
 824              	.LVL83:
 825              	.LBB67:
 826              	.LBB68:
 827              		.loc 5 622 0
 828 003a 2B00     		movs	r3, r5
 829 003c 6422     		movs	r2, #100
 830 003e 3100     		movs	r1, r6
ARM GAS  C:\Users\ASUS\AppData\Local\Temp\ccYYtRfk.s 			page 37


 831 0040 2000     		movs	r0, r4
 832 0042 FFF7FEFF 		bl	Cy_SCB_I2C_MasterWriteByte
 833              	.LVL84:
 834              	.LBE68:
 835              	.LBE67:
 136:Light.h       ****     ret2 = I2C_MasterWriteByte(value, 100);
 836              		.loc 4 136 0
 837 0046 0390     		str	r0, [sp, #12]
 137:Light.h       ****     CyDelay(1);
 838              		.loc 4 137 0
 839 0048 0120     		movs	r0, #1
 840 004a FFF7FEFF 		bl	Cy_SysLib_Delay
 841              	.LVL85:
 842              	.LBB69:
 843              	.LBB70:
 596:Generated_Source\PSoC6/I2C.h **** }
 844              		.loc 5 596 0
 845 004e 2A00     		movs	r2, r5
 846 0050 6421     		movs	r1, #100
 847 0052 2000     		movs	r0, r4
 848 0054 FFF7FEFF 		bl	Cy_SCB_I2C_MasterSendStop
 849              	.LVL86:
 850              	.LBE70:
 851              	.LBE69:
 138:Light.h       ****     // End I2C transaction
 139:Light.h       ****     ret3 = I2C_MasterSendStop(100);
 852              		.loc 4 139 0
 853 0058 0290     		str	r0, [sp, #8]
 140:Light.h       ****     
 141:Light.h       ****     printf("SendStart: %X, WriteByte: %X,%X, SendStop: %X\r\n", ret0, ret1,
 854              		.loc 4 141 0
 855 005a 0599     		ldr	r1, [sp, #20]
 856 005c 049A     		ldr	r2, [sp, #16]
 857 005e 039B     		ldr	r3, [sp, #12]
 858 0060 0298     		ldr	r0, [sp, #8]
 859 0062 0090     		str	r0, [sp]
 860 0064 0448     		ldr	r0, .L45+8
 861 0066 FFF7FEFF 		bl	printf
 862              	.LVL87:
 142:Light.h       **** 		    ret2, ret3);
 143:Light.h       **** }
 863              		.loc 4 143 0
 864 006a 07B0     		add	sp, sp, #28
 865              		@ sp needed
 866 006c F0BD     		pop	{r4, r5, r6, r7, pc}
 867              	.L46:
 868 006e C046     		.align	2
 869              	.L45:
 870 0070 00006740 		.word	1080492032
 871 0074 00000000 		.word	I2C_context
 872 0078 98000000 		.word	.LC16
 873              		.cfi_endproc
 874              	.LFE471:
 875              		.size	lightI2CWrite, .-lightI2CWrite
 876              		.section	.text.lightMeasure,"ax",%progbits
 877              		.align	2
 878              		.global	lightMeasure
ARM GAS  C:\Users\ASUS\AppData\Local\Temp\ccYYtRfk.s 			page 38


 879              		.code	16
 880              		.thumb_func
 881              		.type	lightMeasure, %function
 882              	lightMeasure:
 883              	.LFB472:
 144:Light.h       **** 
 145:Light.h       **** /* Function Name: lightMeasure
 146:Light.h       ****  *
 147:Light.h       ****  * Summary:
 148:Light.h       ****  * This function performs a single measurement cycle for the light sensor by
 149:Light.h       ****  * transitioning the device state from power down to measurement, then after the
 150:Light.h       ****  * measurement is complete (64ms later), we save the results.  Lastly, we
 151:Light.h       ****  * transition back to the power down state for power reduction.
 152:Light.h       ****  *
 153:Light.h       ****  * Parameters:
 154:Light.h       ****  *	@xChannel, yChannel, zChannel:	The 3 RGB channels from photodiodes.
 155:Light.h       ****  *	@temperature:			On-board temperature sensor result.
 156:Light.h       ****  *
 157:Light.h       ****  * Return:
 158:Light.h       ****  *	None.
 159:Light.h       ****  */
 160:Light.h       **** void lightMeasure(uint16_t *xChannel, uint16_t *yChannel, uint16_t *zChannel,
 161:Light.h       **** 		uint16_t *temperature)
 162:Light.h       **** {
 884              		.loc 4 162 0
 885              		.cfi_startproc
 886              		@ args = 0, pretend = 0, frame = 0
 887              		@ frame_needed = 0, uses_anonymous_args = 0
 888              	.LVL88:
 889 0000 F8B5     		push	{r3, r4, r5, r6, r7, lr}
 890              		.cfi_def_cfa_offset 24
 891              		.cfi_offset 3, -24
 892              		.cfi_offset 4, -20
 893              		.cfi_offset 5, -16
 894              		.cfi_offset 6, -12
 895              		.cfi_offset 7, -8
 896              		.cfi_offset 14, -4
 897 0002 0600     		movs	r6, r0
 898 0004 0D00     		movs	r5, r1
 899 0006 1400     		movs	r4, r2
 900 0008 1F00     		movs	r7, r3
 163:Light.h       ****     /* Transition to Measurement mode 0x83 */
 164:Light.h       ****     lightI2CWrite(OSR, 0x83);
 901              		.loc 4 164 0
 902 000a 8321     		movs	r1, #131
 903              	.LVL89:
 904 000c 0020     		movs	r0, #0
 905              	.LVL90:
 906 000e FFF7FEFF 		bl	lightI2CWrite
 907              	.LVL91:
 165:Light.h       ****     /* Wait for conversion to finish, defined by TCONV */
 166:Light.h       ****     CyDelay(64);
 908              		.loc 4 166 0
 909 0012 4020     		movs	r0, #64
 910 0014 FFF7FEFF 		bl	Cy_SysLib_Delay
 911              	.LVL92:
 167:Light.h       **** 
ARM GAS  C:\Users\ASUS\AppData\Local\Temp\ccYYtRfk.s 			page 39


 168:Light.h       ****     /* Read completed conversions */
 169:Light.h       ****     *temperature    = lightI2CRead(TEMP);
 912              		.loc 4 169 0
 913 0018 0120     		movs	r0, #1
 914 001a FFF7FEFF 		bl	lightI2CRead
 915              	.LVL93:
 916 001e 3880     		strh	r0, [r7]
 170:Light.h       ****     *xChannel       = lightI2CRead(MRES1);
 917              		.loc 4 170 0
 918 0020 0220     		movs	r0, #2
 919 0022 FFF7FEFF 		bl	lightI2CRead
 920              	.LVL94:
 921 0026 3080     		strh	r0, [r6]
 171:Light.h       ****     *yChannel       = lightI2CRead(MRES2);
 922              		.loc 4 171 0
 923 0028 0320     		movs	r0, #3
 924 002a FFF7FEFF 		bl	lightI2CRead
 925              	.LVL95:
 926 002e 2880     		strh	r0, [r5]
 172:Light.h       ****     *zChannel       = lightI2CRead(MRES3);
 927              		.loc 4 172 0
 928 0030 0420     		movs	r0, #4
 929 0032 FFF7FEFF 		bl	lightI2CRead
 930              	.LVL96:
 931 0036 2080     		strh	r0, [r4]
 173:Light.h       **** 
 174:Light.h       ****     /* Transition back to PowerDown, for power reduction */
 175:Light.h       ****     lightI2CWrite(OSR, 0x42);
 932              		.loc 4 175 0
 933 0038 4221     		movs	r1, #66
 934 003a 0020     		movs	r0, #0
 935 003c FFF7FEFF 		bl	lightI2CWrite
 936              	.LVL97:
 176:Light.h       **** }
 937              		.loc 4 176 0
 938              		@ sp needed
 939              	.LVL98:
 940              	.LVL99:
 941              	.LVL100:
 942              	.LVL101:
 943 0040 F8BD     		pop	{r3, r4, r5, r6, r7, pc}
 944              		.cfi_endproc
 945              	.LFE472:
 946              		.size	lightMeasure, .-lightMeasure
 947              		.global	__aeabi_i2d
 948              		.global	__aeabi_dmul
 949              		.global	__aeabi_dsub
 950 0042 C046     		.section	.text.lightPrint,"ax",%progbits
 951              		.align	2
 952              		.global	lightPrint
 953              		.code	16
 954              		.thumb_func
 955              		.type	lightPrint, %function
 956              	lightPrint:
 957              	.LFB473:
 177:Light.h       **** 
 178:Light.h       **** /* Function Name: lightPrint
ARM GAS  C:\Users\ASUS\AppData\Local\Temp\ccYYtRfk.s 			page 40


 179:Light.h       ****  *
 180:Light.h       ****  * Summary:
 181:Light.h       ****  * This function prints the most recent data from the light sensor: the 3
 182:Light.h       ****  * channels of photodiodes conversions (RGB light) and the chip temperature.
 183:Light.h       ****  * Note that temperature is obtained using a macro function that converts the
 184:Light.h       ****  * TEMP register from the board to an actual celcius temperature.
 185:Light.h       ****  *
 186:Light.h       ****  * Parameters:
 187:Light.h       ****  *	@x: the xChannel (R) 16 bit result
 188:Light.h       ****  *	@y: the yChannel (G) 16 bit result
 189:Light.h       ****  *	@z: the zChannel (B) 16 bit result
 190:Light.h       ****  *
 191:Light.h       ****  * Return:
 192:Light.h       ****  *	None.
 193:Light.h       ****  */
 194:Light.h       **** void lightPrint(uint16_t x, uint16_t y, uint16_t z)
 195:Light.h       **** {
 958              		.loc 4 195 0
 959              		.cfi_startproc
 960              		@ args = 0, pretend = 0, frame = 0
 961              		@ frame_needed = 0, uses_anonymous_args = 0
 962              	.LVL102:
 963 0000 70B5     		push	{r4, r5, r6, lr}
 964              		.cfi_def_cfa_offset 16
 965              		.cfi_offset 4, -16
 966              		.cfi_offset 5, -12
 967              		.cfi_offset 6, -8
 968              		.cfi_offset 14, -4
 969 0002 82B0     		sub	sp, sp, #8
 970              		.cfi_def_cfa_offset 24
 971 0004 0400     		movs	r4, r0
 972 0006 0D00     		movs	r5, r1
 973 0008 1600     		movs	r6, r2
 196:Light.h       **** 	printf("\r\n\r\nLight Sensor Data:\r\n"
 197:Light.h       **** 			"Red Light: %d\r\n"
 198:Light.h       **** 			"Green Light: %d\r\n"
 199:Light.h       **** 			"Blue Light: %d\r\n"
 200:Light.h       **** 			"Temperature: %.2f\r\n", x, y, z, CHIPTEMP);
 974              		.loc 4 200 0
 975 000a 0B4B     		ldr	r3, .L49
 976 000c 1888     		ldrh	r0, [r3]
 977              	.LVL103:
 978 000e FFF7FEFF 		bl	__aeabi_i2d
 979              	.LVL104:
 980 0012 0A4A     		ldr	r2, .L49+4
 981 0014 0A4B     		ldr	r3, .L49+8
 982 0016 FFF7FEFF 		bl	__aeabi_dmul
 983              	.LVL105:
 196:Light.h       **** 	printf("\r\n\r\nLight Sensor Data:\r\n"
 984              		.loc 4 196 0
 985 001a 084A     		ldr	r2, .L49+4
 986 001c 094B     		ldr	r3, .L49+12
 987 001e FFF7FEFF 		bl	__aeabi_dsub
 988              	.LVL106:
 989 0022 0090     		str	r0, [sp]
 990 0024 0191     		str	r1, [sp, #4]
 991 0026 3300     		movs	r3, r6
ARM GAS  C:\Users\ASUS\AppData\Local\Temp\ccYYtRfk.s 			page 41


 992 0028 2A00     		movs	r2, r5
 993 002a 2100     		movs	r1, r4
 994 002c 0648     		ldr	r0, .L49+16
 995 002e FFF7FEFF 		bl	printf
 996              	.LVL107:
 201:Light.h       **** }
 997              		.loc 4 201 0
 998 0032 02B0     		add	sp, sp, #8
 999              		@ sp needed
 1000 0034 70BD     		pop	{r4, r5, r6, pc}
 1001              	.L50:
 1002 0036 C046     		.align	2
 1003              	.L49:
 1004 0038 00000000 		.word	temperature
 1005 003c 9A999999 		.word	-1717986918
 1006 0040 9999A93F 		.word	1068079513
 1007 0044 99B95040 		.word	1079032217
 1008 0048 C8000000 		.word	.LC19
 1009              		.cfi_endproc
 1010              	.LFE473:
 1011              		.size	lightPrint, .-lightPrint
 1012              		.global	__aeabi_d2iz
 1013              		.global	__aeabi_dcmpge
 1014              		.section	.text.light_process_data,"ax",%progbits
 1015              		.align	2
 1016              		.global	light_process_data
 1017              		.code	16
 1018              		.thumb_func
 1019              		.type	light_process_data, %function
 1020              	light_process_data:
 1021              	.LFB474:
 202:Light.h       **** 
 203:Light.h       **** /* Function Name: light_process_data
 204:Light.h       ****  *
 205:Light.h       ****  * Summary:
 206:Light.h       ****  * This function performs the data clustering on the readings from the light
 207:Light.h       ****  * sensor. This includes setting intermediate and critical flags based on the
 208:Light.h       ****  * most recent readings. Namely, the three variables of interest are dark_count,
 209:Light.h       ****  * lightFlag, and tempFlag. The first two check if the cow has not seen light in
 210:Light.h       ****  * too long, and the last flag checks if the temperature is too high.
 211:Light.h       ****  *
 212:Light.h       ****  * Parameters:
 213:Light.h       ****  *	@x:	the xChannel (R) 16 bit result
 214:Light.h       ****  *	@y:	the yChannel (G) 16 bit result
 215:Light.h       ****  *	@z:	the zChannel (B) 16 bit result
 216:Light.h       ****  *	@tq:	queue data structure for temperature results.
 217:Light.h       ****  *	@lq:	queue data structure for light results.
 218:Light.h       ****  *
 219:Light.h       ****  * Return:
 220:Light.h       ****  *	None.
 221:Light.h       ****  */
 222:Light.h       **** void light_process_data(uint16_t x, uint16_t y, uint16_t z, queue_t tq, queue_t lq)
 223:Light.h       **** {
 1022              		.loc 4 223 0
 1023              		.cfi_startproc
 1024              		@ args = 4, pretend = 0, frame = 8
 1025              		@ frame_needed = 0, uses_anonymous_args = 0
ARM GAS  C:\Users\ASUS\AppData\Local\Temp\ccYYtRfk.s 			page 42


 1026              	.LVL108:
 1027 0000 F0B5     		push	{r4, r5, r6, r7, lr}
 1028              		.cfi_def_cfa_offset 20
 1029              		.cfi_offset 4, -20
 1030              		.cfi_offset 5, -16
 1031              		.cfi_offset 6, -12
 1032              		.cfi_offset 7, -8
 1033              		.cfi_offset 14, -4
 1034 0002 83B0     		sub	sp, sp, #12
 1035              		.cfi_def_cfa_offset 32
 1036 0004 0500     		movs	r5, r0
 1037 0006 0F00     		movs	r7, r1
 1038 0008 1400     		movs	r4, r2
 1039 000a 0193     		str	r3, [sp, #4]
 1040              	.LVL109:
 224:Light.h       **** 	int dark_count = 0;
 225:Light.h       **** 	int chip_temp = CHIPTEMP;
 1041              		.loc 4 225 0
 1042 000c 224B     		ldr	r3, .L58
 1043              	.LVL110:
 1044 000e 1888     		ldrh	r0, [r3]
 1045              	.LVL111:
 1046 0010 FFF7FEFF 		bl	__aeabi_i2d
 1047              	.LVL112:
 1048 0014 214A     		ldr	r2, .L58+4
 1049 0016 224B     		ldr	r3, .L58+8
 1050 0018 FFF7FEFF 		bl	__aeabi_dmul
 1051              	.LVL113:
 1052 001c 1F4A     		ldr	r2, .L58+4
 1053 001e 214B     		ldr	r3, .L58+12
 1054 0020 FFF7FEFF 		bl	__aeabi_dsub
 1055              	.LVL114:
 1056 0024 FFF7FEFF 		bl	__aeabi_d2iz
 1057              	.LVL115:
 1058 0028 0600     		movs	r6, r0
 1059              	.LVL116:
 226:Light.h       **** 	int combined_light = x + y + z;
 1060              		.loc 4 226 0
 1061 002a E919     		adds	r1, r5, r7
 1062 002c 0919     		adds	r1, r1, r4
 1063              	.LVL117:
 227:Light.h       **** 	if (combined_light < LIGHT_CUTOFF)
 1064              		.loc 4 227 0
 1065 002e 3129     		cmp	r1, #49
 1066 0030 01DC     		bgt	.L57
 228:Light.h       **** 		dark_count++;
 1067              		.loc 4 228 0
 1068 0032 0124     		movs	r4, #1
 1069 0034 00E0     		b	.L52
 1070              	.L57:
 229:Light.h       **** 	else
 230:Light.h       **** 		dark_count = 0;
 1071              		.loc 4 230 0
 1072 0036 0024     		movs	r4, #0
 1073              	.L52:
 1074              	.LVL118:
 231:Light.h       **** 
ARM GAS  C:\Users\ASUS\AppData\Local\Temp\ccYYtRfk.s 			page 43


 232:Light.h       **** 	if (queue_enqueue(lq, combined_light) != 0)
 1075              		.loc 4 232 0
 1076 0038 0898     		ldr	r0, [sp, #32]
 1077              	.LVL119:
 1078 003a FFF7FEFF 		bl	queue_enqueue
 1079              	.LVL120:
 1080 003e 0028     		cmp	r0, #0
 1081 0040 02D0     		beq	.L53
 233:Light.h       **** 		printf("Failed to queue light data.\r\n");
 1082              		.loc 4 233 0
 1083 0042 1948     		ldr	r0, .L58+16
 1084 0044 FFF7FEFF 		bl	puts
 1085              	.LVL121:
 1086              	.L53:
 234:Light.h       **** 	if (queue_enqueue(tq, chip_temp) != 0)
 1087              		.loc 4 234 0
 1088 0048 3100     		movs	r1, r6
 1089 004a 0198     		ldr	r0, [sp, #4]
 1090 004c FFF7FEFF 		bl	queue_enqueue
 1091              	.LVL122:
 1092 0050 0028     		cmp	r0, #0
 1093 0052 02D0     		beq	.L54
 235:Light.h       **** 		printf("Failed to queue temperature data.\r\n");
 1094              		.loc 4 235 0
 1095 0054 1548     		ldr	r0, .L58+20
 1096 0056 FFF7FEFF 		bl	puts
 1097              	.LVL123:
 1098              	.L54:
 236:Light.h       **** 
 237:Light.h       **** 	lightFlag   = dark_count >= CRIT_LIGHT;    
 1099              		.loc 4 237 0
 1100 005a 0123     		movs	r3, #1
 1101 005c 092C     		cmp	r4, #9
 1102 005e 00DC     		bgt	.L55
 1103 0060 0023     		movs	r3, #0
 1104              	.L55:
 1105 0062 134A     		ldr	r2, .L58+24
 1106 0064 5360     		str	r3, [r2, #4]
 238:Light.h       **** 	tempFlag    = CHIPTEMP >= CRIT_TEMP;
 1107              		.loc 4 238 0
 1108 0066 0C4B     		ldr	r3, .L58
 1109 0068 1888     		ldrh	r0, [r3]
 1110 006a FFF7FEFF 		bl	__aeabi_i2d
 1111              	.LVL124:
 1112 006e 0B4A     		ldr	r2, .L58+4
 1113 0070 0B4B     		ldr	r3, .L58+8
 1114 0072 FFF7FEFF 		bl	__aeabi_dmul
 1115              	.LVL125:
 1116 0076 094A     		ldr	r2, .L58+4
 1117 0078 0A4B     		ldr	r3, .L58+12
 1118 007a FFF7FEFF 		bl	__aeabi_dsub
 1119              	.LVL126:
 1120 007e 0124     		movs	r4, #1
 1121              	.LVL127:
 1122 0080 0022     		movs	r2, #0
 1123 0082 0C4B     		ldr	r3, .L58+28
 1124 0084 FFF7FEFF 		bl	__aeabi_dcmpge
ARM GAS  C:\Users\ASUS\AppData\Local\Temp\ccYYtRfk.s 			page 44


 1125              	.LVL128:
 1126 0088 0028     		cmp	r0, #0
 1127 008a 00D1     		bne	.L56
 1128 008c 0024     		movs	r4, #0
 1129              	.L56:
 1130 008e 084B     		ldr	r3, .L58+24
 1131 0090 9C60     		str	r4, [r3, #8]
 239:Light.h       **** }
 1132              		.loc 4 239 0
 1133 0092 03B0     		add	sp, sp, #12
 1134              		@ sp needed
 1135              	.LVL129:
 1136 0094 F0BD     		pop	{r4, r5, r6, r7, pc}
 1137              	.L59:
 1138 0096 C046     		.align	2
 1139              	.L58:
 1140 0098 00000000 		.word	temperature
 1141 009c 9A999999 		.word	-1717986918
 1142 00a0 9999A93F 		.word	1068079513
 1143 00a4 99B95040 		.word	1079032217
 1144 00a8 24010000 		.word	.LC22
 1145 00ac 44010000 		.word	.LC24
 1146 00b0 00000000 		.word	.LANCHOR0
 1147 00b4 00003440 		.word	1077149696
 1148              		.cfi_endproc
 1149              	.LFE474:
 1150              		.size	light_process_data, .-light_process_data
 1151              		.section	.text.accI2CRead,"ax",%progbits
 1152              		.align	2
 1153              		.global	accI2CRead
 1154              		.code	16
 1155              		.thumb_func
 1156              		.type	accI2CRead, %function
 1157              	accI2CRead:
 1158              	.LFB475:
 1159              		.file 6 "Accelerometer.h"
   1:Accelerometer.h **** /******************************************************************************
   2:Accelerometer.h **** * File Name: Accelerometer.h
   3:Accelerometer.h **** *
   4:Accelerometer.h **** * Version: Beta
   5:Accelerometer.h **** *
   6:Accelerometer.h **** * Description: This file contains the firmware for setting up communication
   7:Accelerometer.h **** * between the PSoC and the 9-axis accelerometer sensor using the I2C protocol.
   8:Accelerometer.h **** *
   9:Accelerometer.h **** * Related Document: Sensor-Nine-Axis.pdf
  10:Accelerometer.h **** * Hardware Dependency:  CY8CKIT-063-BLE PSoC 6 BLE Pioneer kit
  11:Accelerometer.h **** *                       ICM-20948 Nine-Axis Low Power Sensor
  12:Accelerometer.h **** *
  13:Accelerometer.h **** * Author(s):
  14:Accelerometer.h **** *	Yousef H. Akbar & and Cow Team
  15:Accelerometer.h **** *	Dept. Electrical and Computer Engineering
  16:Accelerometer.h **** *	University of California, Davis
  17:Accelerometer.h **** *******************************************************************************
  18:Accelerometer.h **** * Refer to Section 6.1 to 6.4 of Sensor-Nine-Axis.pdf for I2C protocol specs.
  19:Accelerometer.h **** ******************************************************************************/
  20:Accelerometer.h **** 
  21:Accelerometer.h **** #include "project.h"
ARM GAS  C:\Users\ASUS\AppData\Local\Temp\ccYYtRfk.s 			page 45


  22:Accelerometer.h **** #include "stdio.h"
  23:Accelerometer.h **** #include "Queue.h"
  24:Accelerometer.h **** 
  25:Accelerometer.h **** /* Slave addresses */
  26:Accelerometer.h **** #define ACC_ADDRESS 0x68    // 1101000[0|1]
  27:Accelerometer.h **** 
  28:Accelerometer.h **** /* Output Register Bank */
  29:Accelerometer.h **** #define WHOAMI      0x00
  30:Accelerometer.h **** #define INT_ENABLE  0x01
  31:Accelerometer.h **** #define XACCEL_H    0x2D
  32:Accelerometer.h **** #define YACCEL_H    0x2F
  33:Accelerometer.h **** #define ZACCEL_H    0x31
  34:Accelerometer.h **** #define XGYRO_H     0x33
  35:Accelerometer.h **** #define YGYRO_H     0x35
  36:Accelerometer.h **** #define ZGYRO_H     0x37
  37:Accelerometer.h **** 
  38:Accelerometer.h **** /* Critical benchmarks */
  39:Accelerometer.h **** #define CRIT_INACTIVITY	(12)
  40:Accelerometer.h **** #define ACC_CUTOFF	(10)
  41:Accelerometer.h **** 
  42:Accelerometer.h **** /* Global Variables */
  43:Accelerometer.h **** int accInactive;
  44:Accelerometer.h **** int prev_gX = 0;
  45:Accelerometer.h **** int prev_gY = 0;
  46:Accelerometer.h **** int prev_gZ = 0;
  47:Accelerometer.h **** 
  48:Accelerometer.h **** uint16_t accI2CRead(uint8_t reg)
  49:Accelerometer.h **** {
 1160              		.loc 6 49 0
 1161              		.cfi_startproc
 1162              		@ args = 0, pretend = 0, frame = 32
 1163              		@ frame_needed = 0, uses_anonymous_args = 0
 1164              	.LVL130:
 1165 0000 F0B5     		push	{r4, r5, r6, r7, lr}
 1166              		.cfi_def_cfa_offset 20
 1167              		.cfi_offset 4, -20
 1168              		.cfi_offset 5, -16
 1169              		.cfi_offset 6, -12
 1170              		.cfi_offset 7, -8
 1171              		.cfi_offset 14, -4
 1172 0002 8DB0     		sub	sp, sp, #52
 1173              		.cfi_def_cfa_offset 72
 1174 0004 0600     		movs	r6, r0
  50:Accelerometer.h ****     volatile cy_en_scb_i2c_status_t ret0 = 0;
 1175              		.loc 6 50 0
 1176 0006 0023     		movs	r3, #0
 1177 0008 0B93     		str	r3, [sp, #44]
  51:Accelerometer.h ****     volatile cy_en_scb_i2c_status_t ret1 = 0;
 1178              		.loc 6 51 0
 1179 000a 0A93     		str	r3, [sp, #40]
  52:Accelerometer.h ****     volatile cy_en_scb_i2c_status_t ret2 = 0;
 1180              		.loc 6 52 0
 1181 000c 0993     		str	r3, [sp, #36]
  53:Accelerometer.h ****     volatile cy_en_scb_i2c_status_t ret3 = 0;
 1182              		.loc 6 53 0
 1183 000e 0893     		str	r3, [sp, #32]
  54:Accelerometer.h ****     volatile cy_en_scb_i2c_status_t ret4 = 0;
ARM GAS  C:\Users\ASUS\AppData\Local\Temp\ccYYtRfk.s 			page 46


 1184              		.loc 6 54 0
 1185 0010 0793     		str	r3, [sp, #28]
  55:Accelerometer.h ****     volatile cy_en_scb_i2c_status_t ret5 = 0;
 1186              		.loc 6 55 0
 1187 0012 0693     		str	r3, [sp, #24]
  56:Accelerometer.h ****     uint8_t readBuf[2] = {0, 0};
 1188              		.loc 6 56 0
 1189 0014 05AD     		add	r5, sp, #20
 1190 0016 2B70     		strb	r3, [r5]
 1191 0018 6B70     		strb	r3, [r5, #1]
 1192              	.LVL131:
 1193              	.LBB71:
 1194              	.LBB72:
 570:Generated_Source\PSoC6/I2C.h **** }
 1195              		.loc 5 570 0
 1196 001a 284C     		ldr	r4, .L61
 1197 001c 284F     		ldr	r7, .L61+4
 1198 001e 0097     		str	r7, [sp]
 1199 0020 6433     		adds	r3, r3, #100
 1200 0022 0022     		movs	r2, #0
 1201 0024 6821     		movs	r1, #104
 1202 0026 2000     		movs	r0, r4
 1203              	.LVL132:
 1204 0028 FFF7FEFF 		bl	Cy_SCB_I2C_MasterSendStart
 1205              	.LVL133:
 1206              	.LBE72:
 1207              	.LBE71:
  57:Accelerometer.h ****     
  58:Accelerometer.h ****     // Start condition and broadcast slave address + WRITE bit (0)
  59:Accelerometer.h ****     ret0 = I2C_MasterSendStart(ACC_ADDRESS, CY_SCB_I2C_WRITE_XFER, 100);
 1208              		.loc 6 59 0
 1209 002c 0B90     		str	r0, [sp, #44]
  60:Accelerometer.h ****     CyDelay(1);
 1210              		.loc 6 60 0
 1211 002e 0120     		movs	r0, #1
 1212 0030 FFF7FEFF 		bl	Cy_SysLib_Delay
 1213              	.LVL134:
 1214              	.LBB73:
 1215              	.LBB74:
 1216              		.loc 5 622 0
 1217 0034 3B00     		movs	r3, r7
 1218 0036 6422     		movs	r2, #100
 1219 0038 3100     		movs	r1, r6
 1220 003a 2000     		movs	r0, r4
 1221 003c FFF7FEFF 		bl	Cy_SCB_I2C_MasterWriteByte
 1222              	.LVL135:
 1223              	.LBE74:
 1224              	.LBE73:
  61:Accelerometer.h ****     // Broadcast register requested from slave ACC_ADDRESS
  62:Accelerometer.h ****     ret1 = I2C_MasterWriteByte(reg, 100);
 1225              		.loc 6 62 0
 1226 0040 0A90     		str	r0, [sp, #40]
  63:Accelerometer.h ****     CyDelay(1);
 1227              		.loc 6 63 0
 1228 0042 0120     		movs	r0, #1
 1229 0044 FFF7FEFF 		bl	Cy_SysLib_Delay
 1230              	.LVL136:
ARM GAS  C:\Users\ASUS\AppData\Local\Temp\ccYYtRfk.s 			page 47


 1231              	.LBB75:
 1232              	.LBB76:
 583:Generated_Source\PSoC6/I2C.h **** }
 1233              		.loc 5 583 0
 1234 0048 0097     		str	r7, [sp]
 1235 004a 6423     		movs	r3, #100
 1236 004c 0122     		movs	r2, #1
 1237 004e 6821     		movs	r1, #104
 1238 0050 2000     		movs	r0, r4
 1239 0052 FFF7FEFF 		bl	Cy_SCB_I2C_MasterSendReStart
 1240              	.LVL137:
 1241              	.LBE76:
 1242              	.LBE75:
  64:Accelerometer.h ****     // Start repeat condition, broadcast slave address + READ bit (1)
  65:Accelerometer.h ****     ret2 = I2C_MasterSendReStart(ACC_ADDRESS, CY_SCB_I2C_READ_XFER, 100);
 1243              		.loc 6 65 0
 1244 0056 0990     		str	r0, [sp, #36]
  66:Accelerometer.h ****     CyDelay(1);
 1245              		.loc 6 66 0
 1246 0058 0120     		movs	r0, #1
 1247 005a FFF7FEFF 		bl	Cy_SysLib_Delay
 1248              	.LVL138:
 1249              	.LBB77:
 1250              	.LBB78:
 609:Generated_Source\PSoC6/I2C.h **** }
 1251              		.loc 5 609 0
 1252 005e 0097     		str	r7, [sp]
 1253 0060 6423     		movs	r3, #100
 1254 0062 1522     		movs	r2, #21
 1255 0064 6A44     		add	r2, r2, sp
 1256 0066 0021     		movs	r1, #0
 1257 0068 2000     		movs	r0, r4
 1258 006a FFF7FEFF 		bl	Cy_SCB_I2C_MasterReadByte
 1259              	.LVL139:
 1260              	.LBE78:
 1261              	.LBE77:
  67:Accelerometer.h ****     // Read from I2C device, put received byte in readBuf and send ack signal.
  68:Accelerometer.h ****     ret3 = I2C_MasterReadByte(CY_SCB_I2C_ACK, &(readBuf[1]), 100);
 1262              		.loc 6 68 0
 1263 006e 0890     		str	r0, [sp, #32]
  69:Accelerometer.h ****     CyDelay(1);
 1264              		.loc 6 69 0
 1265 0070 0120     		movs	r0, #1
 1266 0072 FFF7FEFF 		bl	Cy_SysLib_Delay
 1267              	.LVL140:
 1268              	.LBB79:
 1269              	.LBB80:
 609:Generated_Source\PSoC6/I2C.h **** }
 1270              		.loc 5 609 0
 1271 0076 0097     		str	r7, [sp]
 1272 0078 6423     		movs	r3, #100
 1273 007a 2A00     		movs	r2, r5
 1274 007c 0121     		movs	r1, #1
 1275 007e 2000     		movs	r0, r4
 1276 0080 FFF7FEFF 		bl	Cy_SCB_I2C_MasterReadByte
 1277              	.LVL141:
 1278              	.LBE80:
ARM GAS  C:\Users\ASUS\AppData\Local\Temp\ccYYtRfk.s 			page 48


 1279              	.LBE79:
  70:Accelerometer.h ****     ret5 = I2C_MasterReadByte(CY_SCB_I2C_NAK, &(readBuf[0]), 100);
 1280              		.loc 6 70 0
 1281 0084 0690     		str	r0, [sp, #24]
  71:Accelerometer.h ****     CyDelay(1);
 1282              		.loc 6 71 0
 1283 0086 0120     		movs	r0, #1
 1284 0088 FFF7FEFF 		bl	Cy_SysLib_Delay
 1285              	.LVL142:
 1286              	.LBB81:
 1287              	.LBB82:
 596:Generated_Source\PSoC6/I2C.h **** }
 1288              		.loc 5 596 0
 1289 008c 3A00     		movs	r2, r7
 1290 008e 6421     		movs	r1, #100
 1291 0090 2000     		movs	r0, r4
 1292 0092 FFF7FEFF 		bl	Cy_SCB_I2C_MasterSendStop
 1293              	.LVL143:
 1294              	.LBE82:
 1295              	.LBE81:
  72:Accelerometer.h ****     // End I2C transaction
  73:Accelerometer.h ****     ret4 = I2C_MasterSendStop(100);
 1296              		.loc 6 73 0
 1297 0096 0790     		str	r0, [sp, #28]
  74:Accelerometer.h ****     
  75:Accelerometer.h ****     printf("SendStart: %X,"
 1298              		.loc 6 75 0
 1299 0098 0B99     		ldr	r1, [sp, #44]
 1300 009a 0A9A     		ldr	r2, [sp, #40]
 1301 009c 099B     		ldr	r3, [sp, #36]
 1302 009e 0898     		ldr	r0, [sp, #32]
 1303 00a0 069C     		ldr	r4, [sp, #24]
 1304 00a2 079E     		ldr	r6, [sp, #28]
 1305 00a4 0296     		str	r6, [sp, #8]
 1306 00a6 0194     		str	r4, [sp, #4]
 1307 00a8 0090     		str	r0, [sp]
 1308 00aa 0648     		ldr	r0, .L61+8
 1309 00ac FFF7FEFF 		bl	printf
 1310              	.LVL144:
  76:Accelerometer.h **** 		    "WriteByte: %X,"
  77:Accelerometer.h **** 		    "SendReStart: %X,"
  78:Accelerometer.h **** 		    "ReadByte: %X,"
  79:Accelerometer.h ****             "ReadByte2: %X"
  80:Accelerometer.h **** 		    "SendStop: %X\r\n", ret0, ret1, ret2, ret3, ret5, ret4);
  81:Accelerometer.h ****     
  82:Accelerometer.h ****     //Start_Number = (Start_Number_High << 8) | (Start_Number_Low & 0xff);
  83:Accelerometer.h ****     return (readBuf[1] << 8) | (readBuf[0] & 0xff);
 1311              		.loc 6 83 0
 1312 00b0 6878     		ldrb	r0, [r5, #1]
 1313 00b2 0002     		lsls	r0, r0, #8
 1314 00b4 2B78     		ldrb	r3, [r5]
 1315 00b6 1843     		orrs	r0, r3
  84:Accelerometer.h **** }
 1316              		.loc 6 84 0
 1317 00b8 0DB0     		add	sp, sp, #52
 1318              		@ sp needed
 1319 00ba F0BD     		pop	{r4, r5, r6, r7, pc}
ARM GAS  C:\Users\ASUS\AppData\Local\Temp\ccYYtRfk.s 			page 49


 1320              	.L62:
 1321              		.align	2
 1322              	.L61:
 1323 00bc 00006740 		.word	1080492032
 1324 00c0 00000000 		.word	I2C_context
 1325 00c4 40000000 		.word	.LC13
 1326              		.cfi_endproc
 1327              	.LFE475:
 1328              		.size	accI2CRead, .-accI2CRead
 1329              		.section	.text.accI2CWrite,"ax",%progbits
 1330              		.align	2
 1331              		.global	accI2CWrite
 1332              		.code	16
 1333              		.thumb_func
 1334              		.type	accI2CWrite, %function
 1335              	accI2CWrite:
 1336              	.LFB476:
  85:Accelerometer.h **** 
  86:Accelerometer.h **** void accI2CWrite(uint8_t reg, uint8_t value)
  87:Accelerometer.h **** {
 1337              		.loc 6 87 0
 1338              		.cfi_startproc
 1339              		@ args = 0, pretend = 0, frame = 16
 1340              		@ frame_needed = 0, uses_anonymous_args = 0
 1341              	.LVL145:
 1342 0000 F0B5     		push	{r4, r5, r6, r7, lr}
 1343              		.cfi_def_cfa_offset 20
 1344              		.cfi_offset 4, -20
 1345              		.cfi_offset 5, -16
 1346              		.cfi_offset 6, -12
 1347              		.cfi_offset 7, -8
 1348              		.cfi_offset 14, -4
 1349 0002 87B0     		sub	sp, sp, #28
 1350              		.cfi_def_cfa_offset 48
 1351 0004 0700     		movs	r7, r0
 1352 0006 0E00     		movs	r6, r1
  88:Accelerometer.h ****     volatile cy_en_scb_i2c_status_t ret0 = 0;
 1353              		.loc 6 88 0
 1354 0008 0023     		movs	r3, #0
 1355 000a 0593     		str	r3, [sp, #20]
  89:Accelerometer.h ****     volatile cy_en_scb_i2c_status_t ret1 = 0;
 1356              		.loc 6 89 0
 1357 000c 0493     		str	r3, [sp, #16]
  90:Accelerometer.h ****     volatile cy_en_scb_i2c_status_t ret2 = 0;
 1358              		.loc 6 90 0
 1359 000e 0393     		str	r3, [sp, #12]
  91:Accelerometer.h ****     volatile cy_en_scb_i2c_status_t ret3 = 0;
 1360              		.loc 6 91 0
 1361 0010 0293     		str	r3, [sp, #8]
 1362              	.LVL146:
 1363              	.LBB83:
 1364              	.LBB84:
 570:Generated_Source\PSoC6/I2C.h **** }
 1365              		.loc 5 570 0
 1366 0012 174C     		ldr	r4, .L64
 1367 0014 174D     		ldr	r5, .L64+4
 1368 0016 0095     		str	r5, [sp]
ARM GAS  C:\Users\ASUS\AppData\Local\Temp\ccYYtRfk.s 			page 50


 1369 0018 6433     		adds	r3, r3, #100
 1370 001a 0022     		movs	r2, #0
 1371 001c 6821     		movs	r1, #104
 1372              	.LVL147:
 1373 001e 2000     		movs	r0, r4
 1374              	.LVL148:
 1375 0020 FFF7FEFF 		bl	Cy_SCB_I2C_MasterSendStart
 1376              	.LVL149:
 1377              	.LBE84:
 1378              	.LBE83:
  92:Accelerometer.h ****     
  93:Accelerometer.h ****     // Start I2C transaction
  94:Accelerometer.h ****     ret0 = I2C_MasterSendStart(ACC_ADDRESS, CY_SCB_I2C_WRITE_XFER, 100);
 1379              		.loc 6 94 0
 1380 0024 0590     		str	r0, [sp, #20]
  95:Accelerometer.h ****     CyDelay(1);
 1381              		.loc 6 95 0
 1382 0026 0120     		movs	r0, #1
 1383 0028 FFF7FEFF 		bl	Cy_SysLib_Delay
 1384              	.LVL150:
 1385              	.LBB85:
 1386              	.LBB86:
 1387              		.loc 5 622 0
 1388 002c 2B00     		movs	r3, r5
 1389 002e 6422     		movs	r2, #100
 1390 0030 3900     		movs	r1, r7
 1391 0032 2000     		movs	r0, r4
 1392 0034 FFF7FEFF 		bl	Cy_SCB_I2C_MasterWriteByte
 1393              	.LVL151:
 1394              	.LBE86:
 1395              	.LBE85:
  96:Accelerometer.h ****     //Write to I2C device
  97:Accelerometer.h ****     ret1 = I2C_MasterWriteByte(reg, 100);
 1396              		.loc 6 97 0
 1397 0038 0490     		str	r0, [sp, #16]
 1398              	.LVL152:
 1399              	.LBB87:
 1400              	.LBB88:
 1401              		.loc 5 622 0
 1402 003a 2B00     		movs	r3, r5
 1403 003c 6422     		movs	r2, #100
 1404 003e 3100     		movs	r1, r6
 1405 0040 2000     		movs	r0, r4
 1406 0042 FFF7FEFF 		bl	Cy_SCB_I2C_MasterWriteByte
 1407              	.LVL153:
 1408              	.LBE88:
 1409              	.LBE87:
  98:Accelerometer.h ****     ret2 = I2C_MasterWriteByte(value, 100);
 1410              		.loc 6 98 0
 1411 0046 0390     		str	r0, [sp, #12]
  99:Accelerometer.h ****     CyDelay(1);
 1412              		.loc 6 99 0
 1413 0048 0120     		movs	r0, #1
 1414 004a FFF7FEFF 		bl	Cy_SysLib_Delay
 1415              	.LVL154:
 1416              	.LBB89:
 1417              	.LBB90:
ARM GAS  C:\Users\ASUS\AppData\Local\Temp\ccYYtRfk.s 			page 51


 596:Generated_Source\PSoC6/I2C.h **** }
 1418              		.loc 5 596 0
 1419 004e 2A00     		movs	r2, r5
 1420 0050 6421     		movs	r1, #100
 1421 0052 2000     		movs	r0, r4
 1422 0054 FFF7FEFF 		bl	Cy_SCB_I2C_MasterSendStop
 1423              	.LVL155:
 1424              	.LBE90:
 1425              	.LBE89:
 100:Accelerometer.h ****     // End I2C transaction
 101:Accelerometer.h ****     ret3 = I2C_MasterSendStop(100);
 1426              		.loc 6 101 0
 1427 0058 0290     		str	r0, [sp, #8]
 102:Accelerometer.h ****     
 103:Accelerometer.h ****     printf("SendStart: %X, WriteByte: %X,%X, SendStop: %X\r\n", ret0, ret1,
 1428              		.loc 6 103 0
 1429 005a 0599     		ldr	r1, [sp, #20]
 1430 005c 049A     		ldr	r2, [sp, #16]
 1431 005e 039B     		ldr	r3, [sp, #12]
 1432 0060 0298     		ldr	r0, [sp, #8]
 1433 0062 0090     		str	r0, [sp]
 1434 0064 0448     		ldr	r0, .L64+8
 1435 0066 FFF7FEFF 		bl	printf
 1436              	.LVL156:
 104:Accelerometer.h **** 		    ret2, ret3);
 105:Accelerometer.h **** }
 1437              		.loc 6 105 0
 1438 006a 07B0     		add	sp, sp, #28
 1439              		@ sp needed
 1440 006c F0BD     		pop	{r4, r5, r6, r7, pc}
 1441              	.L65:
 1442 006e C046     		.align	2
 1443              	.L64:
 1444 0070 00006740 		.word	1080492032
 1445 0074 00000000 		.word	I2C_context
 1446 0078 98000000 		.word	.LC16
 1447              		.cfi_endproc
 1448              	.LFE476:
 1449              		.size	accI2CWrite, .-accI2CWrite
 1450              		.section	.text.accMeasure,"ax",%progbits
 1451              		.align	2
 1452              		.global	accMeasure
 1453              		.code	16
 1454              		.thumb_func
 1455              		.type	accMeasure, %function
 1456              	accMeasure:
 1457              	.LFB477:
 106:Accelerometer.h **** 
 107:Accelerometer.h **** void accMeasure(uint16_t *accX, uint16_t *accY, uint16_t *accZ)
 108:Accelerometer.h **** {
 1458              		.loc 6 108 0
 1459              		.cfi_startproc
 1460              		@ args = 0, pretend = 0, frame = 0
 1461              		@ frame_needed = 0, uses_anonymous_args = 0
 1462              	.LVL157:
 1463 0000 70B5     		push	{r4, r5, r6, lr}
 1464              		.cfi_def_cfa_offset 16
ARM GAS  C:\Users\ASUS\AppData\Local\Temp\ccYYtRfk.s 			page 52


 1465              		.cfi_offset 4, -16
 1466              		.cfi_offset 5, -12
 1467              		.cfi_offset 6, -8
 1468              		.cfi_offset 14, -4
 1469 0002 0600     		movs	r6, r0
 1470 0004 0D00     		movs	r5, r1
 1471 0006 1400     		movs	r4, r2
 109:Accelerometer.h ****     /* Read completed conversions */
 110:Accelerometer.h ****     *accX       = accI2CRead(XACCEL_H);
 1472              		.loc 6 110 0
 1473 0008 2D20     		movs	r0, #45
 1474              	.LVL158:
 1475 000a FFF7FEFF 		bl	accI2CRead
 1476              	.LVL159:
 1477 000e 3080     		strh	r0, [r6]
 111:Accelerometer.h ****     *accY       = accI2CRead(YACCEL_H);
 1478              		.loc 6 111 0
 1479 0010 2F20     		movs	r0, #47
 1480 0012 FFF7FEFF 		bl	accI2CRead
 1481              	.LVL160:
 1482 0016 2880     		strh	r0, [r5]
 112:Accelerometer.h ****     *accZ       = accI2CRead(ZACCEL_H);
 1483              		.loc 6 112 0
 1484 0018 3120     		movs	r0, #49
 1485 001a FFF7FEFF 		bl	accI2CRead
 1486              	.LVL161:
 1487 001e 2080     		strh	r0, [r4]
 113:Accelerometer.h **** }
 1488              		.loc 6 113 0
 1489              		@ sp needed
 1490              	.LVL162:
 1491              	.LVL163:
 1492              	.LVL164:
 1493 0020 70BD     		pop	{r4, r5, r6, pc}
 1494              		.cfi_endproc
 1495              	.LFE477:
 1496              		.size	accMeasure, .-accMeasure
 1497 0022 C046     		.section	.text.gyroMeasure,"ax",%progbits
 1498              		.align	2
 1499              		.global	gyroMeasure
 1500              		.code	16
 1501              		.thumb_func
 1502              		.type	gyroMeasure, %function
 1503              	gyroMeasure:
 1504              	.LFB478:
 114:Accelerometer.h **** 
 115:Accelerometer.h **** void gyroMeasure(uint16_t *gyroX, uint16_t *gyroY, uint16_t *gyroZ)
 116:Accelerometer.h **** {
 1505              		.loc 6 116 0
 1506              		.cfi_startproc
 1507              		@ args = 0, pretend = 0, frame = 0
 1508              		@ frame_needed = 0, uses_anonymous_args = 0
 1509              	.LVL165:
 1510 0000 70B5     		push	{r4, r5, r6, lr}
 1511              		.cfi_def_cfa_offset 16
 1512              		.cfi_offset 4, -16
 1513              		.cfi_offset 5, -12
ARM GAS  C:\Users\ASUS\AppData\Local\Temp\ccYYtRfk.s 			page 53


 1514              		.cfi_offset 6, -8
 1515              		.cfi_offset 14, -4
 1516 0002 0600     		movs	r6, r0
 1517 0004 0D00     		movs	r5, r1
 1518 0006 1400     		movs	r4, r2
 117:Accelerometer.h ****     /* Read completed conversions */
 118:Accelerometer.h ****     *gyroX       = accI2CRead(XGYRO_H);
 1519              		.loc 6 118 0
 1520 0008 3320     		movs	r0, #51
 1521              	.LVL166:
 1522 000a FFF7FEFF 		bl	accI2CRead
 1523              	.LVL167:
 1524 000e 3080     		strh	r0, [r6]
 119:Accelerometer.h ****     *gyroY       = accI2CRead(YGYRO_H);
 1525              		.loc 6 119 0
 1526 0010 3520     		movs	r0, #53
 1527 0012 FFF7FEFF 		bl	accI2CRead
 1528              	.LVL168:
 1529 0016 2880     		strh	r0, [r5]
 120:Accelerometer.h ****     *gyroZ       = accI2CRead(ZGYRO_H);
 1530              		.loc 6 120 0
 1531 0018 3720     		movs	r0, #55
 1532 001a FFF7FEFF 		bl	accI2CRead
 1533              	.LVL169:
 1534 001e 2080     		strh	r0, [r4]
 121:Accelerometer.h **** }
 1535              		.loc 6 121 0
 1536              		@ sp needed
 1537              	.LVL170:
 1538              	.LVL171:
 1539              	.LVL172:
 1540 0020 70BD     		pop	{r4, r5, r6, pc}
 1541              		.cfi_endproc
 1542              	.LFE478:
 1543              		.size	gyroMeasure, .-gyroMeasure
 1544 0022 C046     		.section	.text.accPrint,"ax",%progbits
 1545              		.align	2
 1546              		.global	accPrint
 1547              		.code	16
 1548              		.thumb_func
 1549              		.type	accPrint, %function
 1550              	accPrint:
 1551              	.LFB479:
 122:Accelerometer.h **** 
 123:Accelerometer.h **** void accPrint(uint16_t x, uint16_t y, uint16_t z)
 124:Accelerometer.h **** {
 1552              		.loc 6 124 0
 1553              		.cfi_startproc
 1554              		@ args = 0, pretend = 0, frame = 0
 1555              		@ frame_needed = 0, uses_anonymous_args = 0
 1556              	.LVL173:
 1557 0000 10B5     		push	{r4, lr}
 1558              		.cfi_def_cfa_offset 8
 1559              		.cfi_offset 4, -8
 1560              		.cfi_offset 14, -4
 1561 0002 1300     		movs	r3, r2
 125:Accelerometer.h ****     printf("\r\n\r\nAccelerometer Data:\r\n"
ARM GAS  C:\Users\ASUS\AppData\Local\Temp\ccYYtRfk.s 			page 54


 1562              		.loc 6 125 0
 1563 0004 0A00     		movs	r2, r1
 1564              	.LVL174:
 1565 0006 0100     		movs	r1, r0
 1566              	.LVL175:
 1567 0008 0148     		ldr	r0, .L69
 1568              	.LVL176:
 1569 000a FFF7FEFF 		bl	printf
 1570              	.LVL177:
 126:Accelerometer.h ****         "X Acceleration: %d\r\n"
 127:Accelerometer.h ****         "Y Acceleration: %d\r\n"
 128:Accelerometer.h ****         "Z Acceleration: %d\r\n", x, y, z);
 129:Accelerometer.h **** }
 1571              		.loc 6 129 0
 1572              		@ sp needed
 1573 000e 10BD     		pop	{r4, pc}
 1574              	.L70:
 1575              		.align	2
 1576              	.L69:
 1577 0010 68010000 		.word	.LC31
 1578              		.cfi_endproc
 1579              	.LFE479:
 1580              		.size	accPrint, .-accPrint
 1581              		.section	.text.gyroPrint,"ax",%progbits
 1582              		.align	2
 1583              		.global	gyroPrint
 1584              		.code	16
 1585              		.thumb_func
 1586              		.type	gyroPrint, %function
 1587              	gyroPrint:
 1588              	.LFB480:
 130:Accelerometer.h **** 
 131:Accelerometer.h **** void gyroPrint(uint16_t x, uint16_t y, uint16_t z)
 132:Accelerometer.h **** {
 1589              		.loc 6 132 0
 1590              		.cfi_startproc
 1591              		@ args = 0, pretend = 0, frame = 0
 1592              		@ frame_needed = 0, uses_anonymous_args = 0
 1593              	.LVL178:
 1594 0000 10B5     		push	{r4, lr}
 1595              		.cfi_def_cfa_offset 8
 1596              		.cfi_offset 4, -8
 1597              		.cfi_offset 14, -4
 1598 0002 1300     		movs	r3, r2
 133:Accelerometer.h ****     printf("\r\n\r\nGyroscope Data:\r\n"
 1599              		.loc 6 133 0
 1600 0004 0A00     		movs	r2, r1
 1601              	.LVL179:
 1602 0006 0100     		movs	r1, r0
 1603              	.LVL180:
 1604 0008 0148     		ldr	r0, .L72
 1605              	.LVL181:
 1606 000a FFF7FEFF 		bl	printf
 1607              	.LVL182:
 134:Accelerometer.h ****         "X Gyroscope: %d\r\n"
 135:Accelerometer.h ****         "Y Gyroscope: %d\r\n"
 136:Accelerometer.h ****         "Z Gyroscope: %d\r\n", x, y, z);
ARM GAS  C:\Users\ASUS\AppData\Local\Temp\ccYYtRfk.s 			page 55


 137:Accelerometer.h **** }
 1608              		.loc 6 137 0
 1609              		@ sp needed
 1610 000e 10BD     		pop	{r4, pc}
 1611              	.L73:
 1612              		.align	2
 1613              	.L72:
 1614 0010 C0010000 		.word	.LC33
 1615              		.cfi_endproc
 1616              	.LFE480:
 1617              		.size	gyroPrint, .-gyroPrint
 1618              		.section	.text.acc_process_data,"ax",%progbits
 1619              		.align	2
 1620              		.global	acc_process_data
 1621              		.code	16
 1622              		.thumb_func
 1623              		.type	acc_process_data, %function
 1624              	acc_process_data:
 1625              	.LFB481:
 138:Accelerometer.h **** 
 139:Accelerometer.h **** void acc_process_data(uint16_t accX, uint16_t accY, uint16_t accZ, queue_t aq)
 140:Accelerometer.h **** {
 1626              		.loc 6 140 0
 1627              		.cfi_startproc
 1628              		@ args = 0, pretend = 0, frame = 8
 1629              		@ frame_needed = 0, uses_anonymous_args = 0
 1630              	.LVL183:
 1631 0000 30B5     		push	{r4, r5, lr}
 1632              		.cfi_def_cfa_offset 12
 1633              		.cfi_offset 4, -12
 1634              		.cfi_offset 5, -8
 1635              		.cfi_offset 14, -4
 1636 0002 83B0     		sub	sp, sp, #12
 1637              		.cfi_def_cfa_offset 24
 1638 0004 1C00     		movs	r4, r3
 1639 0006 6B46     		mov	r3, sp
 1640              	.LVL184:
 1641 0008 D880     		strh	r0, [r3, #6]
 1642 000a 01AB     		add	r3, sp, #4
 1643 000c 1980     		strh	r1, [r3]
 1644 000e 6B46     		mov	r3, sp
 1645 0010 5A80     		strh	r2, [r3, #2]
 1646              	.LVL185:
 141:Accelerometer.h **** 	int inactive_count = 0;
 142:Accelerometer.h **** 	int is_cow_moving = accX >= ACC_CUTOFF || accY >= ACC_CUTOFF || accZ >=
 1647              		.loc 6 142 0
 1648 0012 0928     		cmp	r0, #9
 1649 0014 07D8     		bhi	.L81
 1650              		.loc 6 142 0 is_stmt 0 discriminator 2
 1651 0016 8BB2     		uxth	r3, r1
 1652 0018 092B     		cmp	r3, #9
 1653 001a 06D8     		bhi	.L82
 1654              		.loc 6 142 0 discriminator 4
 1655 001c 93B2     		uxth	r3, r2
 1656 001e 092B     		cmp	r3, #9
 1657 0020 05D9     		bls	.L83
 1658              		.loc 6 142 0
ARM GAS  C:\Users\ASUS\AppData\Local\Temp\ccYYtRfk.s 			page 56


 1659 0022 0123     		movs	r3, #1
 1660 0024 04E0     		b	.L75
 1661              	.L81:
 1662 0026 0123     		movs	r3, #1
 1663 0028 02E0     		b	.L75
 1664              	.L82:
 1665 002a 0123     		movs	r3, #1
 1666 002c 00E0     		b	.L75
 1667              	.L83:
 1668 002e 0023     		movs	r3, #0
 1669              	.L75:
 1670              	.LVL186:
 143:Accelerometer.h **** 		ACC_CUTOFF;
 144:Accelerometer.h **** 	if (!is_cow_moving)
 1671              		.loc 6 144 0 is_stmt 1 discriminator 8
 1672 0030 002B     		cmp	r3, #0
 1673 0032 01D1     		bne	.L84
 145:Accelerometer.h **** 		inactive_count++;
 1674              		.loc 6 145 0
 1675 0034 0125     		movs	r5, #1
 1676 0036 00E0     		b	.L76
 1677              	.L84:
 146:Accelerometer.h **** 	else
 147:Accelerometer.h **** 		inactive_count = 0;
 1678              		.loc 6 147 0
 1679 0038 0025     		movs	r5, #0
 1680              	.L76:
 1681              	.LVL187:
 148:Accelerometer.h **** 
 149:Accelerometer.h **** 	if (queue_enqueue(aq, &accX) != 0)
 1682              		.loc 6 149 0
 1683 003a 6B46     		mov	r3, sp
 1684              	.LVL188:
 1685 003c 991D     		adds	r1, r3, #6
 1686              	.LVL189:
 1687 003e 2000     		movs	r0, r4
 1688              	.LVL190:
 1689 0040 FFF7FEFF 		bl	queue_enqueue
 1690              	.LVL191:
 1691 0044 0028     		cmp	r0, #0
 1692 0046 02D0     		beq	.L77
 150:Accelerometer.h **** 		printf("Failed to queue accelerometer data.\r\n");
 1693              		.loc 6 150 0
 1694 0048 0E48     		ldr	r0, .L85
 1695 004a FFF7FEFF 		bl	puts
 1696              	.LVL192:
 1697              	.L77:
 151:Accelerometer.h **** 	if (queue_enqueue(aq, &accY) != 0)
 1698              		.loc 6 151 0
 1699 004e 01A9     		add	r1, sp, #4
 1700              	.LVL193:
 1701 0050 2000     		movs	r0, r4
 1702 0052 FFF7FEFF 		bl	queue_enqueue
 1703              	.LVL194:
 1704 0056 0028     		cmp	r0, #0
 1705 0058 02D0     		beq	.L78
 152:Accelerometer.h **** 		printf("Failed to queue accelerometer data.\r\n");
ARM GAS  C:\Users\ASUS\AppData\Local\Temp\ccYYtRfk.s 			page 57


 1706              		.loc 6 152 0
 1707 005a 0A48     		ldr	r0, .L85
 1708 005c FFF7FEFF 		bl	puts
 1709              	.LVL195:
 1710              	.L78:
 153:Accelerometer.h **** 	if (queue_enqueue(aq, &accZ) != 0)
 1711              		.loc 6 153 0
 1712 0060 6B46     		mov	r3, sp
 1713 0062 991C     		adds	r1, r3, #2
 1714              	.LVL196:
 1715 0064 2000     		movs	r0, r4
 1716 0066 FFF7FEFF 		bl	queue_enqueue
 1717              	.LVL197:
 1718 006a 0028     		cmp	r0, #0
 1719 006c 02D0     		beq	.L79
 154:Accelerometer.h **** 		printf("Failed to queue accelerometer data.\r\n");
 1720              		.loc 6 154 0
 1721 006e 0548     		ldr	r0, .L85
 1722 0070 FFF7FEFF 		bl	puts
 1723              	.LVL198:
 1724              	.L79:
 155:Accelerometer.h **** 
 156:Accelerometer.h **** 	accInactive = inactive_count >= CRIT_INACTIVITY;
 1725              		.loc 6 156 0
 1726 0074 0123     		movs	r3, #1
 1727 0076 0B2D     		cmp	r5, #11
 1728 0078 00DC     		bgt	.L80
 1729 007a 0023     		movs	r3, #0
 1730              	.L80:
 1731 007c 024A     		ldr	r2, .L85+4
 1732 007e D360     		str	r3, [r2, #12]
 157:Accelerometer.h **** }
 1733              		.loc 6 157 0
 1734 0080 03B0     		add	sp, sp, #12
 1735              	.LVL199:
 1736              		@ sp needed
 1737              	.LVL200:
 1738              	.LVL201:
 1739 0082 30BD     		pop	{r4, r5, pc}
 1740              	.L86:
 1741              		.align	2
 1742              	.L85:
 1743 0084 0C020000 		.word	.LC35
 1744 0088 00000000 		.word	.LANCHOR0
 1745              		.cfi_endproc
 1746              	.LFE481:
 1747              		.size	acc_process_data, .-acc_process_data
 1748              		.section	.text.gyro_process_data,"ax",%progbits
 1749              		.align	2
 1750              		.global	gyro_process_data
 1751              		.code	16
 1752              		.thumb_func
 1753              		.type	gyro_process_data, %function
 1754              	gyro_process_data:
 1755              	.LFB482:
 158:Accelerometer.h **** 
 159:Accelerometer.h **** void gyro_process_data(uint16_t gyroX, uint16_t gyroY, uint16_t gyroZ, queue_t gq)
ARM GAS  C:\Users\ASUS\AppData\Local\Temp\ccYYtRfk.s 			page 58


 160:Accelerometer.h **** {
 1756              		.loc 6 160 0
 1757              		.cfi_startproc
 1758              		@ args = 0, pretend = 0, frame = 8
 1759              		@ frame_needed = 0, uses_anonymous_args = 0
 1760              	.LVL202:
 1761 0000 10B5     		push	{r4, lr}
 1762              		.cfi_def_cfa_offset 8
 1763              		.cfi_offset 4, -8
 1764              		.cfi_offset 14, -4
 1765 0002 82B0     		sub	sp, sp, #8
 1766              		.cfi_def_cfa_offset 16
 1767 0004 1C00     		movs	r4, r3
 1768 0006 6B46     		mov	r3, sp
 1769              	.LVL203:
 1770 0008 D880     		strh	r0, [r3, #6]
 1771 000a 01AB     		add	r3, sp, #4
 1772 000c 1980     		strh	r1, [r3]
 1773 000e 6B46     		mov	r3, sp
 1774 0010 5A80     		strh	r2, [r3, #2]
 161:Accelerometer.h **** 	if (!prev_gX && !prev_gY && !prev_gZ) {
 1775              		.loc 6 161 0
 1776 0012 204B     		ldr	r3, .L93
 1777 0014 1B69     		ldr	r3, [r3, #16]
 1778 0016 002B     		cmp	r3, #0
 1779 0018 11D1     		bne	.L88
 1780              		.loc 6 161 0 is_stmt 0 discriminator 1
 1781 001a 1E4B     		ldr	r3, .L93
 1782 001c 5B69     		ldr	r3, [r3, #20]
 1783 001e 002B     		cmp	r3, #0
 1784 0020 0DD1     		bne	.L88
 1785              		.loc 6 161 0 discriminator 2
 1786 0022 1C4B     		ldr	r3, .L93
 1787 0024 9B69     		ldr	r3, [r3, #24]
 1788 0026 002B     		cmp	r3, #0
 1789 0028 09D1     		bne	.L88
 162:Accelerometer.h **** 		prev_gX = gyroX;
 1790              		.loc 6 162 0 is_stmt 1
 1791 002a 1A4B     		ldr	r3, .L93
 1792 002c 82B2     		uxth	r2, r0
 1793              	.LVL204:
 1794 002e 1A61     		str	r2, [r3, #16]
 163:Accelerometer.h **** 		prev_gY = gyroY;
 1795              		.loc 6 163 0
 1796 0030 8AB2     		uxth	r2, r1
 1797 0032 5A61     		str	r2, [r3, #20]
 164:Accelerometer.h **** 		prev_gZ = gyroZ;
 1798              		.loc 6 164 0
 1799 0034 6A46     		mov	r2, sp
 1800 0036 0232     		adds	r2, r2, #2
 1801              	.LVL205:
 1802 0038 1288     		ldrh	r2, [r2]
 1803              	.LVL206:
 1804 003a 9A61     		str	r2, [r3, #24]
 165:Accelerometer.h **** 		return;
 1805              		.loc 6 165 0
 1806 003c 28E0     		b	.L87
ARM GAS  C:\Users\ASUS\AppData\Local\Temp\ccYYtRfk.s 			page 59


 1807              	.LVL207:
 1808              	.L88:
 166:Accelerometer.h **** 	}
 167:Accelerometer.h **** 
 168:Accelerometer.h **** 	if (queue_enqueue(gq, &gyroX) != 0)
 1809              		.loc 6 168 0
 1810 003e 6B46     		mov	r3, sp
 1811 0040 991D     		adds	r1, r3, #6
 1812              	.LVL208:
 1813 0042 2000     		movs	r0, r4
 1814              	.LVL209:
 1815 0044 FFF7FEFF 		bl	queue_enqueue
 1816              	.LVL210:
 1817 0048 0028     		cmp	r0, #0
 1818 004a 02D0     		beq	.L90
 169:Accelerometer.h **** 		printf("Failed to queue gyroscope data.\r\n");
 1819              		.loc 6 169 0
 1820 004c 1248     		ldr	r0, .L93+4
 1821 004e FFF7FEFF 		bl	puts
 1822              	.LVL211:
 1823              	.L90:
 170:Accelerometer.h **** 	if (queue_enqueue(gq, &gyroY) != 0)
 1824              		.loc 6 170 0
 1825 0052 01A9     		add	r1, sp, #4
 1826              	.LVL212:
 1827 0054 2000     		movs	r0, r4
 1828 0056 FFF7FEFF 		bl	queue_enqueue
 1829              	.LVL213:
 1830 005a 0028     		cmp	r0, #0
 1831 005c 02D0     		beq	.L91
 171:Accelerometer.h **** 		printf("Failed to queue gyroscope data.\r\n");
 1832              		.loc 6 171 0
 1833 005e 0E48     		ldr	r0, .L93+4
 1834 0060 FFF7FEFF 		bl	puts
 1835              	.LVL214:
 1836              	.L91:
 172:Accelerometer.h **** 	if (queue_enqueue(gq, &gyroZ) != 0)
 1837              		.loc 6 172 0
 1838 0064 6B46     		mov	r3, sp
 1839 0066 991C     		adds	r1, r3, #2
 1840              	.LVL215:
 1841 0068 2000     		movs	r0, r4
 1842 006a FFF7FEFF 		bl	queue_enqueue
 1843              	.LVL216:
 1844 006e 0028     		cmp	r0, #0
 1845 0070 02D0     		beq	.L92
 173:Accelerometer.h **** 		printf("Failed to queue gyroscope data.\r\n");
 1846              		.loc 6 173 0
 1847 0072 0948     		ldr	r0, .L93+4
 1848 0074 FFF7FEFF 		bl	puts
 1849              	.LVL217:
 1850              	.L92:
 174:Accelerometer.h **** 
 175:Accelerometer.h **** 	prev_gX = gyroX;
 1851              		.loc 6 175 0
 1852 0078 064B     		ldr	r3, .L93
 1853 007a 6A46     		mov	r2, sp
ARM GAS  C:\Users\ASUS\AppData\Local\Temp\ccYYtRfk.s 			page 60


 1854 007c 0632     		adds	r2, r2, #6
 1855              	.LVL218:
 1856 007e 1288     		ldrh	r2, [r2]
 1857              	.LVL219:
 1858 0080 1A61     		str	r2, [r3, #16]
 176:Accelerometer.h **** 	prev_gY = gyroY;
 1859              		.loc 6 176 0
 1860 0082 01AA     		add	r2, sp, #4
 1861              	.LVL220:
 1862 0084 1288     		ldrh	r2, [r2]
 1863              	.LVL221:
 1864 0086 5A61     		str	r2, [r3, #20]
 177:Accelerometer.h **** 	prev_gZ = gyroZ;
 1865              		.loc 6 177 0
 1866 0088 6A46     		mov	r2, sp
 1867 008a 0232     		adds	r2, r2, #2
 1868              	.LVL222:
 1869 008c 1288     		ldrh	r2, [r2]
 1870              	.LVL223:
 1871 008e 9A61     		str	r2, [r3, #24]
 1872              	.L87:
 178:Accelerometer.h **** }
 1873              		.loc 6 178 0
 1874 0090 02B0     		add	sp, sp, #8
 1875              	.LVL224:
 1876              		@ sp needed
 1877              	.LVL225:
 1878 0092 10BD     		pop	{r4, pc}
 1879              	.L94:
 1880              		.align	2
 1881              	.L93:
 1882 0094 00000000 		.word	.LANCHOR0
 1883 0098 34020000 		.word	.LC39
 1884              		.cfi_endproc
 1885              	.LFE482:
 1886              		.size	gyro_process_data, .-gyro_process_data
 1887              		.section	.text.RtcInit,"ax",%progbits
 1888              		.align	2
 1889              		.global	RtcInit
 1890              		.code	16
 1891              		.thumb_func
 1892              		.type	RtcInit, %function
 1893              	RtcInit:
 1894              	.LFB484:
 143:RTC_Alarm.h   ****     uint32_t attempts = MAX_ATTEMPTS;
 1895              		.loc 2 143 0
 1896              		.cfi_startproc
 1897              		@ args = 0, pretend = 0, frame = 0
 1898              		@ frame_needed = 0, uses_anonymous_args = 0
 1899 0000 70B5     		push	{r4, r5, r6, lr}
 1900              		.cfi_def_cfa_offset 16
 1901              		.cfi_offset 4, -16
 1902              		.cfi_offset 5, -12
 1903              		.cfi_offset 6, -8
 1904              		.cfi_offset 14, -4
 1905              	.LVL226:
 144:RTC_Alarm.h   ****     cy_en_rtc_status_t result;
ARM GAS  C:\Users\ASUS\AppData\Local\Temp\ccYYtRfk.s 			page 61


 1906              		.loc 2 144 0
 1907 0002 FA24     		movs	r4, #250
 1908 0004 6400     		lsls	r4, r4, #1
 1909              	.LVL227:
 1910              	.L97:
 151:RTC_Alarm.h   ****         attempts--;
 1911              		.loc 2 151 0 discriminator 2
 1912 0006 0748     		ldr	r0, .L98
 1913 0008 FFF7FEFF 		bl	Cy_RTC_Init
 1914              	.LVL228:
 1915 000c 0500     		movs	r5, r0
 1916              	.LVL229:
 152:RTC_Alarm.h   ****         
 1917              		.loc 2 152 0 discriminator 2
 1918 000e 013C     		subs	r4, r4, #1
 1919              	.LVL230:
 154:RTC_Alarm.h   ****     } while(( result != CY_RTC_SUCCESS) && (attempts != 0u));
 1920              		.loc 2 154 0 discriminator 2
 1921 0010 0520     		movs	r0, #5
 1922              	.LVL231:
 1923 0012 FFF7FEFF 		bl	Cy_SysLib_Delay
 1924              	.LVL232:
 155:RTC_Alarm.h   ****     
 1925              		.loc 2 155 0 discriminator 2
 1926 0016 002D     		cmp	r5, #0
 1927 0018 01D0     		beq	.L96
 155:RTC_Alarm.h   ****     
 1928              		.loc 2 155 0 is_stmt 0 discriminator 1
 1929 001a 002C     		cmp	r4, #0
 1930 001c F3D1     		bne	.L97
 1931              	.L96:
 158:RTC_Alarm.h   **** 
 1932              		.loc 2 158 0 is_stmt 1
 1933 001e 2800     		movs	r0, r5
 1934              		@ sp needed
 1935              	.LVL233:
 1936              	.LVL234:
 1937 0020 70BD     		pop	{r4, r5, r6, pc}
 1938              	.L99:
 1939 0022 C046     		.align	2
 1940              	.L98:
 1941 0024 00000000 		.word	RTC_config
 1942              		.cfi_endproc
 1943              	.LFE484:
 1944              		.size	RtcInit, .-RtcInit
 1945              		.section	.text.RtcAlarmConfig,"ax",%progbits
 1946              		.align	2
 1947              		.global	RtcAlarmConfig
 1948              		.code	16
 1949              		.thumb_func
 1950              		.type	RtcAlarmConfig, %function
 1951              	RtcAlarmConfig:
 1952              	.LFB485:
 179:RTC_Alarm.h   ****     uint32_t attempts = MAX_ATTEMPTS;
 1953              		.loc 2 179 0
 1954              		.cfi_startproc
 1955              		@ args = 0, pretend = 0, frame = 0
ARM GAS  C:\Users\ASUS\AppData\Local\Temp\ccYYtRfk.s 			page 62


 1956              		@ frame_needed = 0, uses_anonymous_args = 0
 1957 0000 70B5     		push	{r4, r5, r6, lr}
 1958              		.cfi_def_cfa_offset 16
 1959              		.cfi_offset 4, -16
 1960              		.cfi_offset 5, -12
 1961              		.cfi_offset 6, -8
 1962              		.cfi_offset 14, -4
 1963              	.LVL235:
 180:RTC_Alarm.h   ****     cy_en_rtc_status_t result;
 1964              		.loc 2 180 0
 1965 0002 FA24     		movs	r4, #250
 1966 0004 6400     		lsls	r4, r4, #1
 1967              	.LVL236:
 1968              	.L102:
 189:RTC_Alarm.h   **** 					*)&alarmConfig, CY_RTC_ALARM_2);
 1969              		.loc 2 189 0 discriminator 2
 1970 0006 0121     		movs	r1, #1
 1971 0008 0648     		ldr	r0, .L103
 1972 000a FFF7FEFF 		bl	Cy_RTC_SetAlarmDateAndTime
 1973              	.LVL237:
 1974 000e 0500     		movs	r5, r0
 1975              	.LVL238:
 191:RTC_Alarm.h   ****         
 1976              		.loc 2 191 0 discriminator 2
 1977 0010 013C     		subs	r4, r4, #1
 1978              	.LVL239:
 193:RTC_Alarm.h   ****     } while(( result != CY_RTC_SUCCESS) && (attempts != 0u));
 1979              		.loc 2 193 0 discriminator 2
 1980 0012 0520     		movs	r0, #5
 1981              	.LVL240:
 1982 0014 FFF7FEFF 		bl	Cy_SysLib_Delay
 1983              	.LVL241:
 194:RTC_Alarm.h   ****     
 1984              		.loc 2 194 0 discriminator 2
 1985 0018 002D     		cmp	r5, #0
 1986 001a 01D0     		beq	.L101
 194:RTC_Alarm.h   ****     
 1987              		.loc 2 194 0 is_stmt 0 discriminator 1
 1988 001c 002C     		cmp	r4, #0
 1989 001e F2D1     		bne	.L102
 1990              	.L101:
 197:RTC_Alarm.h   **** 
 1991              		.loc 2 197 0 is_stmt 1
 1992 0020 2800     		movs	r0, r5
 1993              		@ sp needed
 1994              	.LVL242:
 1995              	.LVL243:
 1996 0022 70BD     		pop	{r4, r5, r6, pc}
 1997              	.L104:
 1998              		.align	2
 1999              	.L103:
 2000 0024 00000000 		.word	.LANCHOR1
 2001              		.cfi_endproc
 2002              	.LFE485:
 2003              		.size	RtcAlarmConfig, .-RtcAlarmConfig
 2004              		.section	.text.init_RTC,"ax",%progbits
 2005              		.align	2
ARM GAS  C:\Users\ASUS\AppData\Local\Temp\ccYYtRfk.s 			page 63


 2006              		.global	init_RTC
 2007              		.code	16
 2008              		.thumb_func
 2009              		.type	init_RTC, %function
 2010              	init_RTC:
 2011              	.LFB483:
  87:RTC_Alarm.h   ****     /* Init RTC - Configure the time and date */
 2012              		.loc 2 87 0
 2013              		.cfi_startproc
 2014              		@ args = 0, pretend = 0, frame = 0
 2015              		@ frame_needed = 0, uses_anonymous_args = 0
 2016 0000 10B5     		push	{r4, lr}
 2017              		.cfi_def_cfa_offset 8
 2018              		.cfi_offset 4, -8
 2019              		.cfi_offset 14, -4
  89:RTC_Alarm.h   ****     {
 2020              		.loc 2 89 0
 2021 0002 FFF7FEFF 		bl	RtcInit
 2022              	.LVL244:
 2023 0006 0028     		cmp	r0, #0
 2024 0008 04D0     		beq	.L106
  92:RTC_Alarm.h   ****     }
 2025              		.loc 2 92 0 discriminator 1
 2026 000a 5C21     		movs	r1, #92
 2027 000c 0F48     		ldr	r0, .L110
 2028 000e FFF7FEFF 		bl	Cy_SysLib_AssertFailed
 2029              	.LVL245:
 2030 0012 0BE0     		b	.L107
 2031              	.L106:
 108:RTC_Alarm.h   ****         {
 2032              		.loc 2 108 0
 2033 0014 FFF7FEFF 		bl	RtcAlarmConfig
 2034              	.LVL246:
 2035 0018 0028     		cmp	r0, #0
 2036 001a 04D0     		beq	.L108
 111:RTC_Alarm.h   ****         }
 2037              		.loc 2 111 0 discriminator 1
 2038 001c 6F21     		movs	r1, #111
 2039 001e 0B48     		ldr	r0, .L110
 2040 0020 FFF7FEFF 		bl	Cy_SysLib_AssertFailed
 2041              	.LVL247:
 2042 0024 02E0     		b	.L107
 2043              	.L108:
 116:RTC_Alarm.h   ****         }
 2044              		.loc 2 116 0
 2045 0026 0220     		movs	r0, #2
 2046 0028 FFF7FEFF 		bl	Cy_RTC_SetInterruptMask
 2047              	.LVL248:
 2048              	.L107:
 121:RTC_Alarm.h   ****     NVIC_EnableIRQ(RTC_RTC_IRQ_cfg.intrSrc);
 2049              		.loc 2 121 0
 2050 002c 084C     		ldr	r4, .L110+4
 2051 002e 0949     		ldr	r1, .L110+8
 2052 0030 2000     		movs	r0, r4
 2053 0032 FFF7FEFF 		bl	Cy_SysInt_Init
 2054              	.LVL249:
 122:RTC_Alarm.h   **** }
ARM GAS  C:\Users\ASUS\AppData\Local\Temp\ccYYtRfk.s 			page 64


 2055              		.loc 2 122 0
 2056 0036 0023     		movs	r3, #0
 2057 0038 E25E     		ldrsh	r2, [r4, r3]
 2058              	.LVL250:
 2059              	.LBB91:
 2060              	.LBB92:
 2061              		.file 7 "Generated_Source\\PSoC6\\pdl\\cmsis/include/core_cm0plus.h"
   1:Generated_Source\PSoC6\pdl\cmsis/include/core_cm0plus.h **** /**************************************************************************//**
   2:Generated_Source\PSoC6\pdl\cmsis/include/core_cm0plus.h ****  * @file     core_cm0plus.h
   3:Generated_Source\PSoC6\pdl\cmsis/include/core_cm0plus.h ****  * @brief    CMSIS Cortex-M0+ Core Peripheral Access Layer Header File
   4:Generated_Source\PSoC6\pdl\cmsis/include/core_cm0plus.h ****  * @version  V5.0.4
   5:Generated_Source\PSoC6\pdl\cmsis/include/core_cm0plus.h ****  * @date     10. January 2018
   6:Generated_Source\PSoC6\pdl\cmsis/include/core_cm0plus.h ****  ******************************************************************************/
   7:Generated_Source\PSoC6\pdl\cmsis/include/core_cm0plus.h **** /*
   8:Generated_Source\PSoC6\pdl\cmsis/include/core_cm0plus.h ****  * Copyright (c) 2009-2018 Arm Limited. All rights reserved.
   9:Generated_Source\PSoC6\pdl\cmsis/include/core_cm0plus.h ****  *
  10:Generated_Source\PSoC6\pdl\cmsis/include/core_cm0plus.h ****  * SPDX-License-Identifier: Apache-2.0
  11:Generated_Source\PSoC6\pdl\cmsis/include/core_cm0plus.h ****  *
  12:Generated_Source\PSoC6\pdl\cmsis/include/core_cm0plus.h ****  * Licensed under the Apache License, Version 2.0 (the License); you may
  13:Generated_Source\PSoC6\pdl\cmsis/include/core_cm0plus.h ****  * not use this file except in compliance with the License.
  14:Generated_Source\PSoC6\pdl\cmsis/include/core_cm0plus.h ****  * You may obtain a copy of the License at
  15:Generated_Source\PSoC6\pdl\cmsis/include/core_cm0plus.h ****  *
  16:Generated_Source\PSoC6\pdl\cmsis/include/core_cm0plus.h ****  * www.apache.org/licenses/LICENSE-2.0
  17:Generated_Source\PSoC6\pdl\cmsis/include/core_cm0plus.h ****  *
  18:Generated_Source\PSoC6\pdl\cmsis/include/core_cm0plus.h ****  * Unless required by applicable law or agreed to in writing, software
  19:Generated_Source\PSoC6\pdl\cmsis/include/core_cm0plus.h ****  * distributed under the License is distributed on an AS IS BASIS, WITHOUT
  20:Generated_Source\PSoC6\pdl\cmsis/include/core_cm0plus.h ****  * WARRANTIES OR CONDITIONS OF ANY KIND, either express or implied.
  21:Generated_Source\PSoC6\pdl\cmsis/include/core_cm0plus.h ****  * See the License for the specific language governing permissions and
  22:Generated_Source\PSoC6\pdl\cmsis/include/core_cm0plus.h ****  * limitations under the License.
  23:Generated_Source\PSoC6\pdl\cmsis/include/core_cm0plus.h ****  */
  24:Generated_Source\PSoC6\pdl\cmsis/include/core_cm0plus.h **** 
  25:Generated_Source\PSoC6\pdl\cmsis/include/core_cm0plus.h **** #if   defined ( __ICCARM__ )
  26:Generated_Source\PSoC6\pdl\cmsis/include/core_cm0plus.h ****   #pragma system_include         /* treat file as system include file for MISRA check */
  27:Generated_Source\PSoC6\pdl\cmsis/include/core_cm0plus.h **** #elif defined (__clang__)
  28:Generated_Source\PSoC6\pdl\cmsis/include/core_cm0plus.h ****   #pragma clang system_header   /* treat file as system include file */
  29:Generated_Source\PSoC6\pdl\cmsis/include/core_cm0plus.h **** #endif
  30:Generated_Source\PSoC6\pdl\cmsis/include/core_cm0plus.h **** 
  31:Generated_Source\PSoC6\pdl\cmsis/include/core_cm0plus.h **** #ifndef __CORE_CM0PLUS_H_GENERIC
  32:Generated_Source\PSoC6\pdl\cmsis/include/core_cm0plus.h **** #define __CORE_CM0PLUS_H_GENERIC
  33:Generated_Source\PSoC6\pdl\cmsis/include/core_cm0plus.h **** 
  34:Generated_Source\PSoC6\pdl\cmsis/include/core_cm0plus.h **** #include <stdint.h>
  35:Generated_Source\PSoC6\pdl\cmsis/include/core_cm0plus.h **** 
  36:Generated_Source\PSoC6\pdl\cmsis/include/core_cm0plus.h **** #ifdef __cplusplus
  37:Generated_Source\PSoC6\pdl\cmsis/include/core_cm0plus.h ****  extern "C" {
  38:Generated_Source\PSoC6\pdl\cmsis/include/core_cm0plus.h **** #endif
  39:Generated_Source\PSoC6\pdl\cmsis/include/core_cm0plus.h **** 
  40:Generated_Source\PSoC6\pdl\cmsis/include/core_cm0plus.h **** /**
  41:Generated_Source\PSoC6\pdl\cmsis/include/core_cm0plus.h ****   \page CMSIS_MISRA_Exceptions  MISRA-C:2004 Compliance Exceptions
  42:Generated_Source\PSoC6\pdl\cmsis/include/core_cm0plus.h ****   CMSIS violates the following MISRA-C:2004 rules:
  43:Generated_Source\PSoC6\pdl\cmsis/include/core_cm0plus.h **** 
  44:Generated_Source\PSoC6\pdl\cmsis/include/core_cm0plus.h ****    \li Required Rule 8.5, object/function definition in header file.<br>
  45:Generated_Source\PSoC6\pdl\cmsis/include/core_cm0plus.h ****      Function definitions in header files are used to allow 'inlining'.
  46:Generated_Source\PSoC6\pdl\cmsis/include/core_cm0plus.h **** 
  47:Generated_Source\PSoC6\pdl\cmsis/include/core_cm0plus.h ****    \li Required Rule 18.4, declaration of union type or object of union type: '{...}'.<br>
  48:Generated_Source\PSoC6\pdl\cmsis/include/core_cm0plus.h ****      Unions are used for effective representation of core registers.
  49:Generated_Source\PSoC6\pdl\cmsis/include/core_cm0plus.h **** 
  50:Generated_Source\PSoC6\pdl\cmsis/include/core_cm0plus.h ****    \li Advisory Rule 19.7, Function-like macro defined.<br>
ARM GAS  C:\Users\ASUS\AppData\Local\Temp\ccYYtRfk.s 			page 65


  51:Generated_Source\PSoC6\pdl\cmsis/include/core_cm0plus.h ****      Function-like macros are used to allow more efficient code.
  52:Generated_Source\PSoC6\pdl\cmsis/include/core_cm0plus.h ****  */
  53:Generated_Source\PSoC6\pdl\cmsis/include/core_cm0plus.h **** 
  54:Generated_Source\PSoC6\pdl\cmsis/include/core_cm0plus.h **** 
  55:Generated_Source\PSoC6\pdl\cmsis/include/core_cm0plus.h **** /*******************************************************************************
  56:Generated_Source\PSoC6\pdl\cmsis/include/core_cm0plus.h ****  *                 CMSIS definitions
  57:Generated_Source\PSoC6\pdl\cmsis/include/core_cm0plus.h ****  ******************************************************************************/
  58:Generated_Source\PSoC6\pdl\cmsis/include/core_cm0plus.h **** /**
  59:Generated_Source\PSoC6\pdl\cmsis/include/core_cm0plus.h ****   \ingroup Cortex-M0+
  60:Generated_Source\PSoC6\pdl\cmsis/include/core_cm0plus.h ****   @{
  61:Generated_Source\PSoC6\pdl\cmsis/include/core_cm0plus.h ****  */
  62:Generated_Source\PSoC6\pdl\cmsis/include/core_cm0plus.h **** 
  63:Generated_Source\PSoC6\pdl\cmsis/include/core_cm0plus.h **** #include "cmsis_version.h"
  64:Generated_Source\PSoC6\pdl\cmsis/include/core_cm0plus.h ****  
  65:Generated_Source\PSoC6\pdl\cmsis/include/core_cm0plus.h **** /*  CMSIS CM0+ definitions */
  66:Generated_Source\PSoC6\pdl\cmsis/include/core_cm0plus.h **** #define __CM0PLUS_CMSIS_VERSION_MAIN (__CM_CMSIS_VERSION_MAIN)                  /*!< \deprecated [3
  67:Generated_Source\PSoC6\pdl\cmsis/include/core_cm0plus.h **** #define __CM0PLUS_CMSIS_VERSION_SUB  (__CM_CMSIS_VERSION_SUB)                   /*!< \deprecated [1
  68:Generated_Source\PSoC6\pdl\cmsis/include/core_cm0plus.h **** #define __CM0PLUS_CMSIS_VERSION      ((__CM0PLUS_CMSIS_VERSION_MAIN << 16U) | \
  69:Generated_Source\PSoC6\pdl\cmsis/include/core_cm0plus.h ****                                        __CM0PLUS_CMSIS_VERSION_SUB           )  /*!< \deprecated CM
  70:Generated_Source\PSoC6\pdl\cmsis/include/core_cm0plus.h **** 
  71:Generated_Source\PSoC6\pdl\cmsis/include/core_cm0plus.h **** #define __CORTEX_M                   (0U)                                       /*!< Cortex-M Core 
  72:Generated_Source\PSoC6\pdl\cmsis/include/core_cm0plus.h **** 
  73:Generated_Source\PSoC6\pdl\cmsis/include/core_cm0plus.h **** /** __FPU_USED indicates whether an FPU is used or not.
  74:Generated_Source\PSoC6\pdl\cmsis/include/core_cm0plus.h ****     This core does not support an FPU at all
  75:Generated_Source\PSoC6\pdl\cmsis/include/core_cm0plus.h **** */
  76:Generated_Source\PSoC6\pdl\cmsis/include/core_cm0plus.h **** #define __FPU_USED       0U
  77:Generated_Source\PSoC6\pdl\cmsis/include/core_cm0plus.h **** 
  78:Generated_Source\PSoC6\pdl\cmsis/include/core_cm0plus.h **** #if defined ( __CC_ARM )
  79:Generated_Source\PSoC6\pdl\cmsis/include/core_cm0plus.h ****   #if defined __TARGET_FPU_VFP
  80:Generated_Source\PSoC6\pdl\cmsis/include/core_cm0plus.h ****     #error "Compiler generates FPU instructions for a device without an FPU (check __FPU_PRESENT)"
  81:Generated_Source\PSoC6\pdl\cmsis/include/core_cm0plus.h ****   #endif
  82:Generated_Source\PSoC6\pdl\cmsis/include/core_cm0plus.h **** 
  83:Generated_Source\PSoC6\pdl\cmsis/include/core_cm0plus.h **** #elif defined (__ARMCC_VERSION) && (__ARMCC_VERSION >= 6010050)
  84:Generated_Source\PSoC6\pdl\cmsis/include/core_cm0plus.h ****   #if defined __ARM_PCS_VFP
  85:Generated_Source\PSoC6\pdl\cmsis/include/core_cm0plus.h ****     #error "Compiler generates FPU instructions for a device without an FPU (check __FPU_PRESENT)"
  86:Generated_Source\PSoC6\pdl\cmsis/include/core_cm0plus.h ****   #endif
  87:Generated_Source\PSoC6\pdl\cmsis/include/core_cm0plus.h **** 
  88:Generated_Source\PSoC6\pdl\cmsis/include/core_cm0plus.h **** #elif defined ( __GNUC__ )
  89:Generated_Source\PSoC6\pdl\cmsis/include/core_cm0plus.h ****   #if defined (__VFP_FP__) && !defined(__SOFTFP__)
  90:Generated_Source\PSoC6\pdl\cmsis/include/core_cm0plus.h ****     #error "Compiler generates FPU instructions for a device without an FPU (check __FPU_PRESENT)"
  91:Generated_Source\PSoC6\pdl\cmsis/include/core_cm0plus.h ****   #endif
  92:Generated_Source\PSoC6\pdl\cmsis/include/core_cm0plus.h **** 
  93:Generated_Source\PSoC6\pdl\cmsis/include/core_cm0plus.h **** #elif defined ( __ICCARM__ )
  94:Generated_Source\PSoC6\pdl\cmsis/include/core_cm0plus.h ****   #if defined __ARMVFP__
  95:Generated_Source\PSoC6\pdl\cmsis/include/core_cm0plus.h ****     #error "Compiler generates FPU instructions for a device without an FPU (check __FPU_PRESENT)"
  96:Generated_Source\PSoC6\pdl\cmsis/include/core_cm0plus.h ****   #endif
  97:Generated_Source\PSoC6\pdl\cmsis/include/core_cm0plus.h **** 
  98:Generated_Source\PSoC6\pdl\cmsis/include/core_cm0plus.h **** #elif defined ( __TI_ARM__ )
  99:Generated_Source\PSoC6\pdl\cmsis/include/core_cm0plus.h ****   #if defined __TI_VFP_SUPPORT__
 100:Generated_Source\PSoC6\pdl\cmsis/include/core_cm0plus.h ****     #error "Compiler generates FPU instructions for a device without an FPU (check __FPU_PRESENT)"
 101:Generated_Source\PSoC6\pdl\cmsis/include/core_cm0plus.h ****   #endif
 102:Generated_Source\PSoC6\pdl\cmsis/include/core_cm0plus.h **** 
 103:Generated_Source\PSoC6\pdl\cmsis/include/core_cm0plus.h **** #elif defined ( __TASKING__ )
 104:Generated_Source\PSoC6\pdl\cmsis/include/core_cm0plus.h ****   #if defined __FPU_VFP__
 105:Generated_Source\PSoC6\pdl\cmsis/include/core_cm0plus.h ****     #error "Compiler generates FPU instructions for a device without an FPU (check __FPU_PRESENT)"
 106:Generated_Source\PSoC6\pdl\cmsis/include/core_cm0plus.h ****   #endif
 107:Generated_Source\PSoC6\pdl\cmsis/include/core_cm0plus.h **** 
ARM GAS  C:\Users\ASUS\AppData\Local\Temp\ccYYtRfk.s 			page 66


 108:Generated_Source\PSoC6\pdl\cmsis/include/core_cm0plus.h **** #elif defined ( __CSMC__ )
 109:Generated_Source\PSoC6\pdl\cmsis/include/core_cm0plus.h ****   #if ( __CSMC__ & 0x400U)
 110:Generated_Source\PSoC6\pdl\cmsis/include/core_cm0plus.h ****     #error "Compiler generates FPU instructions for a device without an FPU (check __FPU_PRESENT)"
 111:Generated_Source\PSoC6\pdl\cmsis/include/core_cm0plus.h ****   #endif
 112:Generated_Source\PSoC6\pdl\cmsis/include/core_cm0plus.h **** 
 113:Generated_Source\PSoC6\pdl\cmsis/include/core_cm0plus.h **** #endif
 114:Generated_Source\PSoC6\pdl\cmsis/include/core_cm0plus.h **** 
 115:Generated_Source\PSoC6\pdl\cmsis/include/core_cm0plus.h **** #include "cmsis_compiler.h"               /* CMSIS compiler specific defines */
 116:Generated_Source\PSoC6\pdl\cmsis/include/core_cm0plus.h **** 
 117:Generated_Source\PSoC6\pdl\cmsis/include/core_cm0plus.h **** 
 118:Generated_Source\PSoC6\pdl\cmsis/include/core_cm0plus.h **** #ifdef __cplusplus
 119:Generated_Source\PSoC6\pdl\cmsis/include/core_cm0plus.h **** }
 120:Generated_Source\PSoC6\pdl\cmsis/include/core_cm0plus.h **** #endif
 121:Generated_Source\PSoC6\pdl\cmsis/include/core_cm0plus.h **** 
 122:Generated_Source\PSoC6\pdl\cmsis/include/core_cm0plus.h **** #endif /* __CORE_CM0PLUS_H_GENERIC */
 123:Generated_Source\PSoC6\pdl\cmsis/include/core_cm0plus.h **** 
 124:Generated_Source\PSoC6\pdl\cmsis/include/core_cm0plus.h **** #ifndef __CMSIS_GENERIC
 125:Generated_Source\PSoC6\pdl\cmsis/include/core_cm0plus.h **** 
 126:Generated_Source\PSoC6\pdl\cmsis/include/core_cm0plus.h **** #ifndef __CORE_CM0PLUS_H_DEPENDANT
 127:Generated_Source\PSoC6\pdl\cmsis/include/core_cm0plus.h **** #define __CORE_CM0PLUS_H_DEPENDANT
 128:Generated_Source\PSoC6\pdl\cmsis/include/core_cm0plus.h **** 
 129:Generated_Source\PSoC6\pdl\cmsis/include/core_cm0plus.h **** #ifdef __cplusplus
 130:Generated_Source\PSoC6\pdl\cmsis/include/core_cm0plus.h ****  extern "C" {
 131:Generated_Source\PSoC6\pdl\cmsis/include/core_cm0plus.h **** #endif
 132:Generated_Source\PSoC6\pdl\cmsis/include/core_cm0plus.h **** 
 133:Generated_Source\PSoC6\pdl\cmsis/include/core_cm0plus.h **** /* check device defines and use defaults */
 134:Generated_Source\PSoC6\pdl\cmsis/include/core_cm0plus.h **** #if defined __CHECK_DEVICE_DEFINES
 135:Generated_Source\PSoC6\pdl\cmsis/include/core_cm0plus.h ****   #ifndef __CM0PLUS_REV
 136:Generated_Source\PSoC6\pdl\cmsis/include/core_cm0plus.h ****     #define __CM0PLUS_REV             0x0000U
 137:Generated_Source\PSoC6\pdl\cmsis/include/core_cm0plus.h ****     #warning "__CM0PLUS_REV not defined in device header file; using default!"
 138:Generated_Source\PSoC6\pdl\cmsis/include/core_cm0plus.h ****   #endif
 139:Generated_Source\PSoC6\pdl\cmsis/include/core_cm0plus.h **** 
 140:Generated_Source\PSoC6\pdl\cmsis/include/core_cm0plus.h ****   #ifndef __MPU_PRESENT
 141:Generated_Source\PSoC6\pdl\cmsis/include/core_cm0plus.h ****     #define __MPU_PRESENT             0U
 142:Generated_Source\PSoC6\pdl\cmsis/include/core_cm0plus.h ****     #warning "__MPU_PRESENT not defined in device header file; using default!"
 143:Generated_Source\PSoC6\pdl\cmsis/include/core_cm0plus.h ****   #endif
 144:Generated_Source\PSoC6\pdl\cmsis/include/core_cm0plus.h **** 
 145:Generated_Source\PSoC6\pdl\cmsis/include/core_cm0plus.h ****   #ifndef __VTOR_PRESENT
 146:Generated_Source\PSoC6\pdl\cmsis/include/core_cm0plus.h ****     #define __VTOR_PRESENT            0U
 147:Generated_Source\PSoC6\pdl\cmsis/include/core_cm0plus.h ****     #warning "__VTOR_PRESENT not defined in device header file; using default!"
 148:Generated_Source\PSoC6\pdl\cmsis/include/core_cm0plus.h ****   #endif
 149:Generated_Source\PSoC6\pdl\cmsis/include/core_cm0plus.h **** 
 150:Generated_Source\PSoC6\pdl\cmsis/include/core_cm0plus.h ****   #ifndef __NVIC_PRIO_BITS
 151:Generated_Source\PSoC6\pdl\cmsis/include/core_cm0plus.h ****     #define __NVIC_PRIO_BITS          2U
 152:Generated_Source\PSoC6\pdl\cmsis/include/core_cm0plus.h ****     #warning "__NVIC_PRIO_BITS not defined in device header file; using default!"
 153:Generated_Source\PSoC6\pdl\cmsis/include/core_cm0plus.h ****   #endif
 154:Generated_Source\PSoC6\pdl\cmsis/include/core_cm0plus.h **** 
 155:Generated_Source\PSoC6\pdl\cmsis/include/core_cm0plus.h ****   #ifndef __Vendor_SysTickConfig
 156:Generated_Source\PSoC6\pdl\cmsis/include/core_cm0plus.h ****     #define __Vendor_SysTickConfig    0U
 157:Generated_Source\PSoC6\pdl\cmsis/include/core_cm0plus.h ****     #warning "__Vendor_SysTickConfig not defined in device header file; using default!"
 158:Generated_Source\PSoC6\pdl\cmsis/include/core_cm0plus.h ****   #endif
 159:Generated_Source\PSoC6\pdl\cmsis/include/core_cm0plus.h **** #endif
 160:Generated_Source\PSoC6\pdl\cmsis/include/core_cm0plus.h **** 
 161:Generated_Source\PSoC6\pdl\cmsis/include/core_cm0plus.h **** /* IO definitions (access restrictions to peripheral registers) */
 162:Generated_Source\PSoC6\pdl\cmsis/include/core_cm0plus.h **** /**
 163:Generated_Source\PSoC6\pdl\cmsis/include/core_cm0plus.h ****     \defgroup CMSIS_glob_defs CMSIS Global Defines
 164:Generated_Source\PSoC6\pdl\cmsis/include/core_cm0plus.h **** 
ARM GAS  C:\Users\ASUS\AppData\Local\Temp\ccYYtRfk.s 			page 67


 165:Generated_Source\PSoC6\pdl\cmsis/include/core_cm0plus.h ****     <strong>IO Type Qualifiers</strong> are used
 166:Generated_Source\PSoC6\pdl\cmsis/include/core_cm0plus.h ****     \li to specify the access to peripheral variables.
 167:Generated_Source\PSoC6\pdl\cmsis/include/core_cm0plus.h ****     \li for automatic generation of peripheral register debug information.
 168:Generated_Source\PSoC6\pdl\cmsis/include/core_cm0plus.h **** */
 169:Generated_Source\PSoC6\pdl\cmsis/include/core_cm0plus.h **** #ifdef __cplusplus
 170:Generated_Source\PSoC6\pdl\cmsis/include/core_cm0plus.h ****   #define   __I     volatile             /*!< Defines 'read only' permissions */
 171:Generated_Source\PSoC6\pdl\cmsis/include/core_cm0plus.h **** #else
 172:Generated_Source\PSoC6\pdl\cmsis/include/core_cm0plus.h ****   #define   __I     volatile const       /*!< Defines 'read only' permissions */
 173:Generated_Source\PSoC6\pdl\cmsis/include/core_cm0plus.h **** #endif
 174:Generated_Source\PSoC6\pdl\cmsis/include/core_cm0plus.h **** #define     __O     volatile             /*!< Defines 'write only' permissions */
 175:Generated_Source\PSoC6\pdl\cmsis/include/core_cm0plus.h **** #define     __IO    volatile             /*!< Defines 'read / write' permissions */
 176:Generated_Source\PSoC6\pdl\cmsis/include/core_cm0plus.h **** 
 177:Generated_Source\PSoC6\pdl\cmsis/include/core_cm0plus.h **** /* following defines should be used for structure members */
 178:Generated_Source\PSoC6\pdl\cmsis/include/core_cm0plus.h **** #define     __IM     volatile const      /*! Defines 'read only' structure member permissions */
 179:Generated_Source\PSoC6\pdl\cmsis/include/core_cm0plus.h **** #define     __OM     volatile            /*! Defines 'write only' structure member permissions */
 180:Generated_Source\PSoC6\pdl\cmsis/include/core_cm0plus.h **** #define     __IOM    volatile            /*! Defines 'read / write' structure member permissions */
 181:Generated_Source\PSoC6\pdl\cmsis/include/core_cm0plus.h **** 
 182:Generated_Source\PSoC6\pdl\cmsis/include/core_cm0plus.h **** /*@} end of group Cortex-M0+ */
 183:Generated_Source\PSoC6\pdl\cmsis/include/core_cm0plus.h **** 
 184:Generated_Source\PSoC6\pdl\cmsis/include/core_cm0plus.h **** 
 185:Generated_Source\PSoC6\pdl\cmsis/include/core_cm0plus.h **** 
 186:Generated_Source\PSoC6\pdl\cmsis/include/core_cm0plus.h **** /*******************************************************************************
 187:Generated_Source\PSoC6\pdl\cmsis/include/core_cm0plus.h ****  *                 Register Abstraction
 188:Generated_Source\PSoC6\pdl\cmsis/include/core_cm0plus.h ****   Core Register contain:
 189:Generated_Source\PSoC6\pdl\cmsis/include/core_cm0plus.h ****   - Core Register
 190:Generated_Source\PSoC6\pdl\cmsis/include/core_cm0plus.h ****   - Core NVIC Register
 191:Generated_Source\PSoC6\pdl\cmsis/include/core_cm0plus.h ****   - Core SCB Register
 192:Generated_Source\PSoC6\pdl\cmsis/include/core_cm0plus.h ****   - Core SysTick Register
 193:Generated_Source\PSoC6\pdl\cmsis/include/core_cm0plus.h ****   - Core MPU Register
 194:Generated_Source\PSoC6\pdl\cmsis/include/core_cm0plus.h ****  ******************************************************************************/
 195:Generated_Source\PSoC6\pdl\cmsis/include/core_cm0plus.h **** /**
 196:Generated_Source\PSoC6\pdl\cmsis/include/core_cm0plus.h ****   \defgroup CMSIS_core_register Defines and Type Definitions
 197:Generated_Source\PSoC6\pdl\cmsis/include/core_cm0plus.h ****   \brief Type definitions and defines for Cortex-M processor based devices.
 198:Generated_Source\PSoC6\pdl\cmsis/include/core_cm0plus.h **** */
 199:Generated_Source\PSoC6\pdl\cmsis/include/core_cm0plus.h **** 
 200:Generated_Source\PSoC6\pdl\cmsis/include/core_cm0plus.h **** /**
 201:Generated_Source\PSoC6\pdl\cmsis/include/core_cm0plus.h ****   \ingroup    CMSIS_core_register
 202:Generated_Source\PSoC6\pdl\cmsis/include/core_cm0plus.h ****   \defgroup   CMSIS_CORE  Status and Control Registers
 203:Generated_Source\PSoC6\pdl\cmsis/include/core_cm0plus.h ****   \brief      Core Register type definitions.
 204:Generated_Source\PSoC6\pdl\cmsis/include/core_cm0plus.h ****   @{
 205:Generated_Source\PSoC6\pdl\cmsis/include/core_cm0plus.h ****  */
 206:Generated_Source\PSoC6\pdl\cmsis/include/core_cm0plus.h **** 
 207:Generated_Source\PSoC6\pdl\cmsis/include/core_cm0plus.h **** /**
 208:Generated_Source\PSoC6\pdl\cmsis/include/core_cm0plus.h ****   \brief  Union type to access the Application Program Status Register (APSR).
 209:Generated_Source\PSoC6\pdl\cmsis/include/core_cm0plus.h ****  */
 210:Generated_Source\PSoC6\pdl\cmsis/include/core_cm0plus.h **** typedef union
 211:Generated_Source\PSoC6\pdl\cmsis/include/core_cm0plus.h **** {
 212:Generated_Source\PSoC6\pdl\cmsis/include/core_cm0plus.h ****   struct
 213:Generated_Source\PSoC6\pdl\cmsis/include/core_cm0plus.h ****   {
 214:Generated_Source\PSoC6\pdl\cmsis/include/core_cm0plus.h ****     uint32_t _reserved0:28;              /*!< bit:  0..27  Reserved */
 215:Generated_Source\PSoC6\pdl\cmsis/include/core_cm0plus.h ****     uint32_t V:1;                        /*!< bit:     28  Overflow condition code flag */
 216:Generated_Source\PSoC6\pdl\cmsis/include/core_cm0plus.h ****     uint32_t C:1;                        /*!< bit:     29  Carry condition code flag */
 217:Generated_Source\PSoC6\pdl\cmsis/include/core_cm0plus.h ****     uint32_t Z:1;                        /*!< bit:     30  Zero condition code flag */
 218:Generated_Source\PSoC6\pdl\cmsis/include/core_cm0plus.h ****     uint32_t N:1;                        /*!< bit:     31  Negative condition code flag */
 219:Generated_Source\PSoC6\pdl\cmsis/include/core_cm0plus.h ****   } b;                                   /*!< Structure used for bit  access */
 220:Generated_Source\PSoC6\pdl\cmsis/include/core_cm0plus.h ****   uint32_t w;                            /*!< Type      used for word access */
 221:Generated_Source\PSoC6\pdl\cmsis/include/core_cm0plus.h **** } APSR_Type;
ARM GAS  C:\Users\ASUS\AppData\Local\Temp\ccYYtRfk.s 			page 68


 222:Generated_Source\PSoC6\pdl\cmsis/include/core_cm0plus.h **** 
 223:Generated_Source\PSoC6\pdl\cmsis/include/core_cm0plus.h **** /* APSR Register Definitions */
 224:Generated_Source\PSoC6\pdl\cmsis/include/core_cm0plus.h **** #define APSR_N_Pos                         31U                                            /*!< APSR
 225:Generated_Source\PSoC6\pdl\cmsis/include/core_cm0plus.h **** #define APSR_N_Msk                         (1UL << APSR_N_Pos)                            /*!< APSR
 226:Generated_Source\PSoC6\pdl\cmsis/include/core_cm0plus.h **** 
 227:Generated_Source\PSoC6\pdl\cmsis/include/core_cm0plus.h **** #define APSR_Z_Pos                         30U                                            /*!< APSR
 228:Generated_Source\PSoC6\pdl\cmsis/include/core_cm0plus.h **** #define APSR_Z_Msk                         (1UL << APSR_Z_Pos)                            /*!< APSR
 229:Generated_Source\PSoC6\pdl\cmsis/include/core_cm0plus.h **** 
 230:Generated_Source\PSoC6\pdl\cmsis/include/core_cm0plus.h **** #define APSR_C_Pos                         29U                                            /*!< APSR
 231:Generated_Source\PSoC6\pdl\cmsis/include/core_cm0plus.h **** #define APSR_C_Msk                         (1UL << APSR_C_Pos)                            /*!< APSR
 232:Generated_Source\PSoC6\pdl\cmsis/include/core_cm0plus.h **** 
 233:Generated_Source\PSoC6\pdl\cmsis/include/core_cm0plus.h **** #define APSR_V_Pos                         28U                                            /*!< APSR
 234:Generated_Source\PSoC6\pdl\cmsis/include/core_cm0plus.h **** #define APSR_V_Msk                         (1UL << APSR_V_Pos)                            /*!< APSR
 235:Generated_Source\PSoC6\pdl\cmsis/include/core_cm0plus.h **** 
 236:Generated_Source\PSoC6\pdl\cmsis/include/core_cm0plus.h **** 
 237:Generated_Source\PSoC6\pdl\cmsis/include/core_cm0plus.h **** /**
 238:Generated_Source\PSoC6\pdl\cmsis/include/core_cm0plus.h ****   \brief  Union type to access the Interrupt Program Status Register (IPSR).
 239:Generated_Source\PSoC6\pdl\cmsis/include/core_cm0plus.h ****  */
 240:Generated_Source\PSoC6\pdl\cmsis/include/core_cm0plus.h **** typedef union
 241:Generated_Source\PSoC6\pdl\cmsis/include/core_cm0plus.h **** {
 242:Generated_Source\PSoC6\pdl\cmsis/include/core_cm0plus.h ****   struct
 243:Generated_Source\PSoC6\pdl\cmsis/include/core_cm0plus.h ****   {
 244:Generated_Source\PSoC6\pdl\cmsis/include/core_cm0plus.h ****     uint32_t ISR:9;                      /*!< bit:  0.. 8  Exception number */
 245:Generated_Source\PSoC6\pdl\cmsis/include/core_cm0plus.h ****     uint32_t _reserved0:23;              /*!< bit:  9..31  Reserved */
 246:Generated_Source\PSoC6\pdl\cmsis/include/core_cm0plus.h ****   } b;                                   /*!< Structure used for bit  access */
 247:Generated_Source\PSoC6\pdl\cmsis/include/core_cm0plus.h ****   uint32_t w;                            /*!< Type      used for word access */
 248:Generated_Source\PSoC6\pdl\cmsis/include/core_cm0plus.h **** } IPSR_Type;
 249:Generated_Source\PSoC6\pdl\cmsis/include/core_cm0plus.h **** 
 250:Generated_Source\PSoC6\pdl\cmsis/include/core_cm0plus.h **** /* IPSR Register Definitions */
 251:Generated_Source\PSoC6\pdl\cmsis/include/core_cm0plus.h **** #define IPSR_ISR_Pos                        0U                                            /*!< IPSR
 252:Generated_Source\PSoC6\pdl\cmsis/include/core_cm0plus.h **** #define IPSR_ISR_Msk                       (0x1FFUL /*<< IPSR_ISR_Pos*/)                  /*!< IPSR
 253:Generated_Source\PSoC6\pdl\cmsis/include/core_cm0plus.h **** 
 254:Generated_Source\PSoC6\pdl\cmsis/include/core_cm0plus.h **** 
 255:Generated_Source\PSoC6\pdl\cmsis/include/core_cm0plus.h **** /**
 256:Generated_Source\PSoC6\pdl\cmsis/include/core_cm0plus.h ****   \brief  Union type to access the Special-Purpose Program Status Registers (xPSR).
 257:Generated_Source\PSoC6\pdl\cmsis/include/core_cm0plus.h ****  */
 258:Generated_Source\PSoC6\pdl\cmsis/include/core_cm0plus.h **** typedef union
 259:Generated_Source\PSoC6\pdl\cmsis/include/core_cm0plus.h **** {
 260:Generated_Source\PSoC6\pdl\cmsis/include/core_cm0plus.h ****   struct
 261:Generated_Source\PSoC6\pdl\cmsis/include/core_cm0plus.h ****   {
 262:Generated_Source\PSoC6\pdl\cmsis/include/core_cm0plus.h ****     uint32_t ISR:9;                      /*!< bit:  0.. 8  Exception number */
 263:Generated_Source\PSoC6\pdl\cmsis/include/core_cm0plus.h ****     uint32_t _reserved0:15;              /*!< bit:  9..23  Reserved */
 264:Generated_Source\PSoC6\pdl\cmsis/include/core_cm0plus.h ****     uint32_t T:1;                        /*!< bit:     24  Thumb bit        (read 0) */
 265:Generated_Source\PSoC6\pdl\cmsis/include/core_cm0plus.h ****     uint32_t _reserved1:3;               /*!< bit: 25..27  Reserved */
 266:Generated_Source\PSoC6\pdl\cmsis/include/core_cm0plus.h ****     uint32_t V:1;                        /*!< bit:     28  Overflow condition code flag */
 267:Generated_Source\PSoC6\pdl\cmsis/include/core_cm0plus.h ****     uint32_t C:1;                        /*!< bit:     29  Carry condition code flag */
 268:Generated_Source\PSoC6\pdl\cmsis/include/core_cm0plus.h ****     uint32_t Z:1;                        /*!< bit:     30  Zero condition code flag */
 269:Generated_Source\PSoC6\pdl\cmsis/include/core_cm0plus.h ****     uint32_t N:1;                        /*!< bit:     31  Negative condition code flag */
 270:Generated_Source\PSoC6\pdl\cmsis/include/core_cm0plus.h ****   } b;                                   /*!< Structure used for bit  access */
 271:Generated_Source\PSoC6\pdl\cmsis/include/core_cm0plus.h ****   uint32_t w;                            /*!< Type      used for word access */
 272:Generated_Source\PSoC6\pdl\cmsis/include/core_cm0plus.h **** } xPSR_Type;
 273:Generated_Source\PSoC6\pdl\cmsis/include/core_cm0plus.h **** 
 274:Generated_Source\PSoC6\pdl\cmsis/include/core_cm0plus.h **** /* xPSR Register Definitions */
 275:Generated_Source\PSoC6\pdl\cmsis/include/core_cm0plus.h **** #define xPSR_N_Pos                         31U                                            /*!< xPSR
 276:Generated_Source\PSoC6\pdl\cmsis/include/core_cm0plus.h **** #define xPSR_N_Msk                         (1UL << xPSR_N_Pos)                            /*!< xPSR
 277:Generated_Source\PSoC6\pdl\cmsis/include/core_cm0plus.h **** 
 278:Generated_Source\PSoC6\pdl\cmsis/include/core_cm0plus.h **** #define xPSR_Z_Pos                         30U                                            /*!< xPSR
ARM GAS  C:\Users\ASUS\AppData\Local\Temp\ccYYtRfk.s 			page 69


 279:Generated_Source\PSoC6\pdl\cmsis/include/core_cm0plus.h **** #define xPSR_Z_Msk                         (1UL << xPSR_Z_Pos)                            /*!< xPSR
 280:Generated_Source\PSoC6\pdl\cmsis/include/core_cm0plus.h **** 
 281:Generated_Source\PSoC6\pdl\cmsis/include/core_cm0plus.h **** #define xPSR_C_Pos                         29U                                            /*!< xPSR
 282:Generated_Source\PSoC6\pdl\cmsis/include/core_cm0plus.h **** #define xPSR_C_Msk                         (1UL << xPSR_C_Pos)                            /*!< xPSR
 283:Generated_Source\PSoC6\pdl\cmsis/include/core_cm0plus.h **** 
 284:Generated_Source\PSoC6\pdl\cmsis/include/core_cm0plus.h **** #define xPSR_V_Pos                         28U                                            /*!< xPSR
 285:Generated_Source\PSoC6\pdl\cmsis/include/core_cm0plus.h **** #define xPSR_V_Msk                         (1UL << xPSR_V_Pos)                            /*!< xPSR
 286:Generated_Source\PSoC6\pdl\cmsis/include/core_cm0plus.h **** 
 287:Generated_Source\PSoC6\pdl\cmsis/include/core_cm0plus.h **** #define xPSR_T_Pos                         24U                                            /*!< xPSR
 288:Generated_Source\PSoC6\pdl\cmsis/include/core_cm0plus.h **** #define xPSR_T_Msk                         (1UL << xPSR_T_Pos)                            /*!< xPSR
 289:Generated_Source\PSoC6\pdl\cmsis/include/core_cm0plus.h **** 
 290:Generated_Source\PSoC6\pdl\cmsis/include/core_cm0plus.h **** #define xPSR_ISR_Pos                        0U                                            /*!< xPSR
 291:Generated_Source\PSoC6\pdl\cmsis/include/core_cm0plus.h **** #define xPSR_ISR_Msk                       (0x1FFUL /*<< xPSR_ISR_Pos*/)                  /*!< xPSR
 292:Generated_Source\PSoC6\pdl\cmsis/include/core_cm0plus.h **** 
 293:Generated_Source\PSoC6\pdl\cmsis/include/core_cm0plus.h **** 
 294:Generated_Source\PSoC6\pdl\cmsis/include/core_cm0plus.h **** /**
 295:Generated_Source\PSoC6\pdl\cmsis/include/core_cm0plus.h ****   \brief  Union type to access the Control Registers (CONTROL).
 296:Generated_Source\PSoC6\pdl\cmsis/include/core_cm0plus.h ****  */
 297:Generated_Source\PSoC6\pdl\cmsis/include/core_cm0plus.h **** typedef union
 298:Generated_Source\PSoC6\pdl\cmsis/include/core_cm0plus.h **** {
 299:Generated_Source\PSoC6\pdl\cmsis/include/core_cm0plus.h ****   struct
 300:Generated_Source\PSoC6\pdl\cmsis/include/core_cm0plus.h ****   {
 301:Generated_Source\PSoC6\pdl\cmsis/include/core_cm0plus.h ****     uint32_t nPRIV:1;                    /*!< bit:      0  Execution privilege in Thread mode */
 302:Generated_Source\PSoC6\pdl\cmsis/include/core_cm0plus.h ****     uint32_t SPSEL:1;                    /*!< bit:      1  Stack to be used */
 303:Generated_Source\PSoC6\pdl\cmsis/include/core_cm0plus.h ****     uint32_t _reserved1:30;              /*!< bit:  2..31  Reserved */
 304:Generated_Source\PSoC6\pdl\cmsis/include/core_cm0plus.h ****   } b;                                   /*!< Structure used for bit  access */
 305:Generated_Source\PSoC6\pdl\cmsis/include/core_cm0plus.h ****   uint32_t w;                            /*!< Type      used for word access */
 306:Generated_Source\PSoC6\pdl\cmsis/include/core_cm0plus.h **** } CONTROL_Type;
 307:Generated_Source\PSoC6\pdl\cmsis/include/core_cm0plus.h **** 
 308:Generated_Source\PSoC6\pdl\cmsis/include/core_cm0plus.h **** /* CONTROL Register Definitions */
 309:Generated_Source\PSoC6\pdl\cmsis/include/core_cm0plus.h **** #define CONTROL_SPSEL_Pos                   1U                                            /*!< CONT
 310:Generated_Source\PSoC6\pdl\cmsis/include/core_cm0plus.h **** #define CONTROL_SPSEL_Msk                  (1UL << CONTROL_SPSEL_Pos)                     /*!< CONT
 311:Generated_Source\PSoC6\pdl\cmsis/include/core_cm0plus.h **** 
 312:Generated_Source\PSoC6\pdl\cmsis/include/core_cm0plus.h **** #define CONTROL_nPRIV_Pos                   0U                                            /*!< CONT
 313:Generated_Source\PSoC6\pdl\cmsis/include/core_cm0plus.h **** #define CONTROL_nPRIV_Msk                  (1UL /*<< CONTROL_nPRIV_Pos*/)                 /*!< CONT
 314:Generated_Source\PSoC6\pdl\cmsis/include/core_cm0plus.h **** 
 315:Generated_Source\PSoC6\pdl\cmsis/include/core_cm0plus.h **** /*@} end of group CMSIS_CORE */
 316:Generated_Source\PSoC6\pdl\cmsis/include/core_cm0plus.h **** 
 317:Generated_Source\PSoC6\pdl\cmsis/include/core_cm0plus.h **** 
 318:Generated_Source\PSoC6\pdl\cmsis/include/core_cm0plus.h **** /**
 319:Generated_Source\PSoC6\pdl\cmsis/include/core_cm0plus.h ****   \ingroup    CMSIS_core_register
 320:Generated_Source\PSoC6\pdl\cmsis/include/core_cm0plus.h ****   \defgroup   CMSIS_NVIC  Nested Vectored Interrupt Controller (NVIC)
 321:Generated_Source\PSoC6\pdl\cmsis/include/core_cm0plus.h ****   \brief      Type definitions for the NVIC Registers
 322:Generated_Source\PSoC6\pdl\cmsis/include/core_cm0plus.h ****   @{
 323:Generated_Source\PSoC6\pdl\cmsis/include/core_cm0plus.h ****  */
 324:Generated_Source\PSoC6\pdl\cmsis/include/core_cm0plus.h **** 
 325:Generated_Source\PSoC6\pdl\cmsis/include/core_cm0plus.h **** /**
 326:Generated_Source\PSoC6\pdl\cmsis/include/core_cm0plus.h ****   \brief  Structure type to access the Nested Vectored Interrupt Controller (NVIC).
 327:Generated_Source\PSoC6\pdl\cmsis/include/core_cm0plus.h ****  */
 328:Generated_Source\PSoC6\pdl\cmsis/include/core_cm0plus.h **** typedef struct
 329:Generated_Source\PSoC6\pdl\cmsis/include/core_cm0plus.h **** {
 330:Generated_Source\PSoC6\pdl\cmsis/include/core_cm0plus.h ****   __IOM uint32_t ISER[1U];               /*!< Offset: 0x000 (R/W)  Interrupt Set Enable Register */
 331:Generated_Source\PSoC6\pdl\cmsis/include/core_cm0plus.h ****         uint32_t RESERVED0[31U];
 332:Generated_Source\PSoC6\pdl\cmsis/include/core_cm0plus.h ****   __IOM uint32_t ICER[1U];               /*!< Offset: 0x080 (R/W)  Interrupt Clear Enable Register 
 333:Generated_Source\PSoC6\pdl\cmsis/include/core_cm0plus.h ****         uint32_t RSERVED1[31U];
 334:Generated_Source\PSoC6\pdl\cmsis/include/core_cm0plus.h ****   __IOM uint32_t ISPR[1U];               /*!< Offset: 0x100 (R/W)  Interrupt Set Pending Register *
 335:Generated_Source\PSoC6\pdl\cmsis/include/core_cm0plus.h ****         uint32_t RESERVED2[31U];
ARM GAS  C:\Users\ASUS\AppData\Local\Temp\ccYYtRfk.s 			page 70


 336:Generated_Source\PSoC6\pdl\cmsis/include/core_cm0plus.h ****   __IOM uint32_t ICPR[1U];               /*!< Offset: 0x180 (R/W)  Interrupt Clear Pending Register
 337:Generated_Source\PSoC6\pdl\cmsis/include/core_cm0plus.h ****         uint32_t RESERVED3[31U];
 338:Generated_Source\PSoC6\pdl\cmsis/include/core_cm0plus.h ****         uint32_t RESERVED4[64U];
 339:Generated_Source\PSoC6\pdl\cmsis/include/core_cm0plus.h ****   __IOM uint32_t IP[8U];                 /*!< Offset: 0x300 (R/W)  Interrupt Priority Register */
 340:Generated_Source\PSoC6\pdl\cmsis/include/core_cm0plus.h **** }  NVIC_Type;
 341:Generated_Source\PSoC6\pdl\cmsis/include/core_cm0plus.h **** 
 342:Generated_Source\PSoC6\pdl\cmsis/include/core_cm0plus.h **** /*@} end of group CMSIS_NVIC */
 343:Generated_Source\PSoC6\pdl\cmsis/include/core_cm0plus.h **** 
 344:Generated_Source\PSoC6\pdl\cmsis/include/core_cm0plus.h **** 
 345:Generated_Source\PSoC6\pdl\cmsis/include/core_cm0plus.h **** /**
 346:Generated_Source\PSoC6\pdl\cmsis/include/core_cm0plus.h ****   \ingroup  CMSIS_core_register
 347:Generated_Source\PSoC6\pdl\cmsis/include/core_cm0plus.h ****   \defgroup CMSIS_SCB     System Control Block (SCB)
 348:Generated_Source\PSoC6\pdl\cmsis/include/core_cm0plus.h ****   \brief    Type definitions for the System Control Block Registers
 349:Generated_Source\PSoC6\pdl\cmsis/include/core_cm0plus.h ****   @{
 350:Generated_Source\PSoC6\pdl\cmsis/include/core_cm0plus.h ****  */
 351:Generated_Source\PSoC6\pdl\cmsis/include/core_cm0plus.h **** 
 352:Generated_Source\PSoC6\pdl\cmsis/include/core_cm0plus.h **** /**
 353:Generated_Source\PSoC6\pdl\cmsis/include/core_cm0plus.h ****   \brief  Structure type to access the System Control Block (SCB).
 354:Generated_Source\PSoC6\pdl\cmsis/include/core_cm0plus.h ****  */
 355:Generated_Source\PSoC6\pdl\cmsis/include/core_cm0plus.h **** typedef struct
 356:Generated_Source\PSoC6\pdl\cmsis/include/core_cm0plus.h **** {
 357:Generated_Source\PSoC6\pdl\cmsis/include/core_cm0plus.h ****   __IM  uint32_t CPUID;                  /*!< Offset: 0x000 (R/ )  CPUID Base Register */
 358:Generated_Source\PSoC6\pdl\cmsis/include/core_cm0plus.h ****   __IOM uint32_t ICSR;                   /*!< Offset: 0x004 (R/W)  Interrupt Control and State Regi
 359:Generated_Source\PSoC6\pdl\cmsis/include/core_cm0plus.h **** #if defined (__VTOR_PRESENT) && (__VTOR_PRESENT == 1U)
 360:Generated_Source\PSoC6\pdl\cmsis/include/core_cm0plus.h ****   __IOM uint32_t VTOR;                   /*!< Offset: 0x008 (R/W)  Vector Table Offset Register */
 361:Generated_Source\PSoC6\pdl\cmsis/include/core_cm0plus.h **** #else
 362:Generated_Source\PSoC6\pdl\cmsis/include/core_cm0plus.h ****         uint32_t RESERVED0;
 363:Generated_Source\PSoC6\pdl\cmsis/include/core_cm0plus.h **** #endif
 364:Generated_Source\PSoC6\pdl\cmsis/include/core_cm0plus.h ****   __IOM uint32_t AIRCR;                  /*!< Offset: 0x00C (R/W)  Application Interrupt and Reset 
 365:Generated_Source\PSoC6\pdl\cmsis/include/core_cm0plus.h ****   __IOM uint32_t SCR;                    /*!< Offset: 0x010 (R/W)  System Control Register */
 366:Generated_Source\PSoC6\pdl\cmsis/include/core_cm0plus.h ****   __IOM uint32_t CCR;                    /*!< Offset: 0x014 (R/W)  Configuration Control Register *
 367:Generated_Source\PSoC6\pdl\cmsis/include/core_cm0plus.h ****         uint32_t RESERVED1;
 368:Generated_Source\PSoC6\pdl\cmsis/include/core_cm0plus.h ****   __IOM uint32_t SHP[2U];                /*!< Offset: 0x01C (R/W)  System Handlers Priority Registe
 369:Generated_Source\PSoC6\pdl\cmsis/include/core_cm0plus.h ****   __IOM uint32_t SHCSR;                  /*!< Offset: 0x024 (R/W)  System Handler Control and State
 370:Generated_Source\PSoC6\pdl\cmsis/include/core_cm0plus.h **** } SCB_Type;
 371:Generated_Source\PSoC6\pdl\cmsis/include/core_cm0plus.h **** 
 372:Generated_Source\PSoC6\pdl\cmsis/include/core_cm0plus.h **** /* SCB CPUID Register Definitions */
 373:Generated_Source\PSoC6\pdl\cmsis/include/core_cm0plus.h **** #define SCB_CPUID_IMPLEMENTER_Pos          24U                                            /*!< SCB 
 374:Generated_Source\PSoC6\pdl\cmsis/include/core_cm0plus.h **** #define SCB_CPUID_IMPLEMENTER_Msk          (0xFFUL << SCB_CPUID_IMPLEMENTER_Pos)          /*!< SCB 
 375:Generated_Source\PSoC6\pdl\cmsis/include/core_cm0plus.h **** 
 376:Generated_Source\PSoC6\pdl\cmsis/include/core_cm0plus.h **** #define SCB_CPUID_VARIANT_Pos              20U                                            /*!< SCB 
 377:Generated_Source\PSoC6\pdl\cmsis/include/core_cm0plus.h **** #define SCB_CPUID_VARIANT_Msk              (0xFUL << SCB_CPUID_VARIANT_Pos)               /*!< SCB 
 378:Generated_Source\PSoC6\pdl\cmsis/include/core_cm0plus.h **** 
 379:Generated_Source\PSoC6\pdl\cmsis/include/core_cm0plus.h **** #define SCB_CPUID_ARCHITECTURE_Pos         16U                                            /*!< SCB 
 380:Generated_Source\PSoC6\pdl\cmsis/include/core_cm0plus.h **** #define SCB_CPUID_ARCHITECTURE_Msk         (0xFUL << SCB_CPUID_ARCHITECTURE_Pos)          /*!< SCB 
 381:Generated_Source\PSoC6\pdl\cmsis/include/core_cm0plus.h **** 
 382:Generated_Source\PSoC6\pdl\cmsis/include/core_cm0plus.h **** #define SCB_CPUID_PARTNO_Pos                4U                                            /*!< SCB 
 383:Generated_Source\PSoC6\pdl\cmsis/include/core_cm0plus.h **** #define SCB_CPUID_PARTNO_Msk               (0xFFFUL << SCB_CPUID_PARTNO_Pos)              /*!< SCB 
 384:Generated_Source\PSoC6\pdl\cmsis/include/core_cm0plus.h **** 
 385:Generated_Source\PSoC6\pdl\cmsis/include/core_cm0plus.h **** #define SCB_CPUID_REVISION_Pos              0U                                            /*!< SCB 
 386:Generated_Source\PSoC6\pdl\cmsis/include/core_cm0plus.h **** #define SCB_CPUID_REVISION_Msk             (0xFUL /*<< SCB_CPUID_REVISION_Pos*/)          /*!< SCB 
 387:Generated_Source\PSoC6\pdl\cmsis/include/core_cm0plus.h **** 
 388:Generated_Source\PSoC6\pdl\cmsis/include/core_cm0plus.h **** /* SCB Interrupt Control State Register Definitions */
 389:Generated_Source\PSoC6\pdl\cmsis/include/core_cm0plus.h **** #define SCB_ICSR_NMIPENDSET_Pos            31U                                            /*!< SCB 
 390:Generated_Source\PSoC6\pdl\cmsis/include/core_cm0plus.h **** #define SCB_ICSR_NMIPENDSET_Msk            (1UL << SCB_ICSR_NMIPENDSET_Pos)               /*!< SCB 
 391:Generated_Source\PSoC6\pdl\cmsis/include/core_cm0plus.h **** 
 392:Generated_Source\PSoC6\pdl\cmsis/include/core_cm0plus.h **** #define SCB_ICSR_PENDSVSET_Pos             28U                                            /*!< SCB 
ARM GAS  C:\Users\ASUS\AppData\Local\Temp\ccYYtRfk.s 			page 71


 393:Generated_Source\PSoC6\pdl\cmsis/include/core_cm0plus.h **** #define SCB_ICSR_PENDSVSET_Msk             (1UL << SCB_ICSR_PENDSVSET_Pos)                /*!< SCB 
 394:Generated_Source\PSoC6\pdl\cmsis/include/core_cm0plus.h **** 
 395:Generated_Source\PSoC6\pdl\cmsis/include/core_cm0plus.h **** #define SCB_ICSR_PENDSVCLR_Pos             27U                                            /*!< SCB 
 396:Generated_Source\PSoC6\pdl\cmsis/include/core_cm0plus.h **** #define SCB_ICSR_PENDSVCLR_Msk             (1UL << SCB_ICSR_PENDSVCLR_Pos)                /*!< SCB 
 397:Generated_Source\PSoC6\pdl\cmsis/include/core_cm0plus.h **** 
 398:Generated_Source\PSoC6\pdl\cmsis/include/core_cm0plus.h **** #define SCB_ICSR_PENDSTSET_Pos             26U                                            /*!< SCB 
 399:Generated_Source\PSoC6\pdl\cmsis/include/core_cm0plus.h **** #define SCB_ICSR_PENDSTSET_Msk             (1UL << SCB_ICSR_PENDSTSET_Pos)                /*!< SCB 
 400:Generated_Source\PSoC6\pdl\cmsis/include/core_cm0plus.h **** 
 401:Generated_Source\PSoC6\pdl\cmsis/include/core_cm0plus.h **** #define SCB_ICSR_PENDSTCLR_Pos             25U                                            /*!< SCB 
 402:Generated_Source\PSoC6\pdl\cmsis/include/core_cm0plus.h **** #define SCB_ICSR_PENDSTCLR_Msk             (1UL << SCB_ICSR_PENDSTCLR_Pos)                /*!< SCB 
 403:Generated_Source\PSoC6\pdl\cmsis/include/core_cm0plus.h **** 
 404:Generated_Source\PSoC6\pdl\cmsis/include/core_cm0plus.h **** #define SCB_ICSR_ISRPREEMPT_Pos            23U                                            /*!< SCB 
 405:Generated_Source\PSoC6\pdl\cmsis/include/core_cm0plus.h **** #define SCB_ICSR_ISRPREEMPT_Msk            (1UL << SCB_ICSR_ISRPREEMPT_Pos)               /*!< SCB 
 406:Generated_Source\PSoC6\pdl\cmsis/include/core_cm0plus.h **** 
 407:Generated_Source\PSoC6\pdl\cmsis/include/core_cm0plus.h **** #define SCB_ICSR_ISRPENDING_Pos            22U                                            /*!< SCB 
 408:Generated_Source\PSoC6\pdl\cmsis/include/core_cm0plus.h **** #define SCB_ICSR_ISRPENDING_Msk            (1UL << SCB_ICSR_ISRPENDING_Pos)               /*!< SCB 
 409:Generated_Source\PSoC6\pdl\cmsis/include/core_cm0plus.h **** 
 410:Generated_Source\PSoC6\pdl\cmsis/include/core_cm0plus.h **** #define SCB_ICSR_VECTPENDING_Pos           12U                                            /*!< SCB 
 411:Generated_Source\PSoC6\pdl\cmsis/include/core_cm0plus.h **** #define SCB_ICSR_VECTPENDING_Msk           (0x1FFUL << SCB_ICSR_VECTPENDING_Pos)          /*!< SCB 
 412:Generated_Source\PSoC6\pdl\cmsis/include/core_cm0plus.h **** 
 413:Generated_Source\PSoC6\pdl\cmsis/include/core_cm0plus.h **** #define SCB_ICSR_VECTACTIVE_Pos             0U                                            /*!< SCB 
 414:Generated_Source\PSoC6\pdl\cmsis/include/core_cm0plus.h **** #define SCB_ICSR_VECTACTIVE_Msk            (0x1FFUL /*<< SCB_ICSR_VECTACTIVE_Pos*/)       /*!< SCB 
 415:Generated_Source\PSoC6\pdl\cmsis/include/core_cm0plus.h **** 
 416:Generated_Source\PSoC6\pdl\cmsis/include/core_cm0plus.h **** #if defined (__VTOR_PRESENT) && (__VTOR_PRESENT == 1U)
 417:Generated_Source\PSoC6\pdl\cmsis/include/core_cm0plus.h **** /* SCB Interrupt Control State Register Definitions */
 418:Generated_Source\PSoC6\pdl\cmsis/include/core_cm0plus.h **** #define SCB_VTOR_TBLOFF_Pos                 8U                                            /*!< SCB 
 419:Generated_Source\PSoC6\pdl\cmsis/include/core_cm0plus.h **** #define SCB_VTOR_TBLOFF_Msk                (0xFFFFFFUL << SCB_VTOR_TBLOFF_Pos)            /*!< SCB 
 420:Generated_Source\PSoC6\pdl\cmsis/include/core_cm0plus.h **** #endif
 421:Generated_Source\PSoC6\pdl\cmsis/include/core_cm0plus.h **** 
 422:Generated_Source\PSoC6\pdl\cmsis/include/core_cm0plus.h **** /* SCB Application Interrupt and Reset Control Register Definitions */
 423:Generated_Source\PSoC6\pdl\cmsis/include/core_cm0plus.h **** #define SCB_AIRCR_VECTKEY_Pos              16U                                            /*!< SCB 
 424:Generated_Source\PSoC6\pdl\cmsis/include/core_cm0plus.h **** #define SCB_AIRCR_VECTKEY_Msk              (0xFFFFUL << SCB_AIRCR_VECTKEY_Pos)            /*!< SCB 
 425:Generated_Source\PSoC6\pdl\cmsis/include/core_cm0plus.h **** 
 426:Generated_Source\PSoC6\pdl\cmsis/include/core_cm0plus.h **** #define SCB_AIRCR_VECTKEYSTAT_Pos          16U                                            /*!< SCB 
 427:Generated_Source\PSoC6\pdl\cmsis/include/core_cm0plus.h **** #define SCB_AIRCR_VECTKEYSTAT_Msk          (0xFFFFUL << SCB_AIRCR_VECTKEYSTAT_Pos)        /*!< SCB 
 428:Generated_Source\PSoC6\pdl\cmsis/include/core_cm0plus.h **** 
 429:Generated_Source\PSoC6\pdl\cmsis/include/core_cm0plus.h **** #define SCB_AIRCR_ENDIANESS_Pos            15U                                            /*!< SCB 
 430:Generated_Source\PSoC6\pdl\cmsis/include/core_cm0plus.h **** #define SCB_AIRCR_ENDIANESS_Msk            (1UL << SCB_AIRCR_ENDIANESS_Pos)               /*!< SCB 
 431:Generated_Source\PSoC6\pdl\cmsis/include/core_cm0plus.h **** 
 432:Generated_Source\PSoC6\pdl\cmsis/include/core_cm0plus.h **** #define SCB_AIRCR_SYSRESETREQ_Pos           2U                                            /*!< SCB 
 433:Generated_Source\PSoC6\pdl\cmsis/include/core_cm0plus.h **** #define SCB_AIRCR_SYSRESETREQ_Msk          (1UL << SCB_AIRCR_SYSRESETREQ_Pos)             /*!< SCB 
 434:Generated_Source\PSoC6\pdl\cmsis/include/core_cm0plus.h **** 
 435:Generated_Source\PSoC6\pdl\cmsis/include/core_cm0plus.h **** #define SCB_AIRCR_VECTCLRACTIVE_Pos         1U                                            /*!< SCB 
 436:Generated_Source\PSoC6\pdl\cmsis/include/core_cm0plus.h **** #define SCB_AIRCR_VECTCLRACTIVE_Msk        (1UL << SCB_AIRCR_VECTCLRACTIVE_Pos)           /*!< SCB 
 437:Generated_Source\PSoC6\pdl\cmsis/include/core_cm0plus.h **** 
 438:Generated_Source\PSoC6\pdl\cmsis/include/core_cm0plus.h **** /* SCB System Control Register Definitions */
 439:Generated_Source\PSoC6\pdl\cmsis/include/core_cm0plus.h **** #define SCB_SCR_SEVONPEND_Pos               4U                                            /*!< SCB 
 440:Generated_Source\PSoC6\pdl\cmsis/include/core_cm0plus.h **** #define SCB_SCR_SEVONPEND_Msk              (1UL << SCB_SCR_SEVONPEND_Pos)                 /*!< SCB 
 441:Generated_Source\PSoC6\pdl\cmsis/include/core_cm0plus.h **** 
 442:Generated_Source\PSoC6\pdl\cmsis/include/core_cm0plus.h **** #define SCB_SCR_SLEEPDEEP_Pos               2U                                            /*!< SCB 
 443:Generated_Source\PSoC6\pdl\cmsis/include/core_cm0plus.h **** #define SCB_SCR_SLEEPDEEP_Msk              (1UL << SCB_SCR_SLEEPDEEP_Pos)                 /*!< SCB 
 444:Generated_Source\PSoC6\pdl\cmsis/include/core_cm0plus.h **** 
 445:Generated_Source\PSoC6\pdl\cmsis/include/core_cm0plus.h **** #define SCB_SCR_SLEEPONEXIT_Pos             1U                                            /*!< SCB 
 446:Generated_Source\PSoC6\pdl\cmsis/include/core_cm0plus.h **** #define SCB_SCR_SLEEPONEXIT_Msk            (1UL << SCB_SCR_SLEEPONEXIT_Pos)               /*!< SCB 
 447:Generated_Source\PSoC6\pdl\cmsis/include/core_cm0plus.h **** 
 448:Generated_Source\PSoC6\pdl\cmsis/include/core_cm0plus.h **** /* SCB Configuration Control Register Definitions */
 449:Generated_Source\PSoC6\pdl\cmsis/include/core_cm0plus.h **** #define SCB_CCR_STKALIGN_Pos                9U                                            /*!< SCB 
ARM GAS  C:\Users\ASUS\AppData\Local\Temp\ccYYtRfk.s 			page 72


 450:Generated_Source\PSoC6\pdl\cmsis/include/core_cm0plus.h **** #define SCB_CCR_STKALIGN_Msk               (1UL << SCB_CCR_STKALIGN_Pos)                  /*!< SCB 
 451:Generated_Source\PSoC6\pdl\cmsis/include/core_cm0plus.h **** 
 452:Generated_Source\PSoC6\pdl\cmsis/include/core_cm0plus.h **** #define SCB_CCR_UNALIGN_TRP_Pos             3U                                            /*!< SCB 
 453:Generated_Source\PSoC6\pdl\cmsis/include/core_cm0plus.h **** #define SCB_CCR_UNALIGN_TRP_Msk            (1UL << SCB_CCR_UNALIGN_TRP_Pos)               /*!< SCB 
 454:Generated_Source\PSoC6\pdl\cmsis/include/core_cm0plus.h **** 
 455:Generated_Source\PSoC6\pdl\cmsis/include/core_cm0plus.h **** /* SCB System Handler Control and State Register Definitions */
 456:Generated_Source\PSoC6\pdl\cmsis/include/core_cm0plus.h **** #define SCB_SHCSR_SVCALLPENDED_Pos         15U                                            /*!< SCB 
 457:Generated_Source\PSoC6\pdl\cmsis/include/core_cm0plus.h **** #define SCB_SHCSR_SVCALLPENDED_Msk         (1UL << SCB_SHCSR_SVCALLPENDED_Pos)            /*!< SCB 
 458:Generated_Source\PSoC6\pdl\cmsis/include/core_cm0plus.h **** 
 459:Generated_Source\PSoC6\pdl\cmsis/include/core_cm0plus.h **** /*@} end of group CMSIS_SCB */
 460:Generated_Source\PSoC6\pdl\cmsis/include/core_cm0plus.h **** 
 461:Generated_Source\PSoC6\pdl\cmsis/include/core_cm0plus.h **** 
 462:Generated_Source\PSoC6\pdl\cmsis/include/core_cm0plus.h **** /**
 463:Generated_Source\PSoC6\pdl\cmsis/include/core_cm0plus.h ****   \ingroup  CMSIS_core_register
 464:Generated_Source\PSoC6\pdl\cmsis/include/core_cm0plus.h ****   \defgroup CMSIS_SysTick     System Tick Timer (SysTick)
 465:Generated_Source\PSoC6\pdl\cmsis/include/core_cm0plus.h ****   \brief    Type definitions for the System Timer Registers.
 466:Generated_Source\PSoC6\pdl\cmsis/include/core_cm0plus.h ****   @{
 467:Generated_Source\PSoC6\pdl\cmsis/include/core_cm0plus.h ****  */
 468:Generated_Source\PSoC6\pdl\cmsis/include/core_cm0plus.h **** 
 469:Generated_Source\PSoC6\pdl\cmsis/include/core_cm0plus.h **** /**
 470:Generated_Source\PSoC6\pdl\cmsis/include/core_cm0plus.h ****   \brief  Structure type to access the System Timer (SysTick).
 471:Generated_Source\PSoC6\pdl\cmsis/include/core_cm0plus.h ****  */
 472:Generated_Source\PSoC6\pdl\cmsis/include/core_cm0plus.h **** typedef struct
 473:Generated_Source\PSoC6\pdl\cmsis/include/core_cm0plus.h **** {
 474:Generated_Source\PSoC6\pdl\cmsis/include/core_cm0plus.h ****   __IOM uint32_t CTRL;                   /*!< Offset: 0x000 (R/W)  SysTick Control and Status Regis
 475:Generated_Source\PSoC6\pdl\cmsis/include/core_cm0plus.h ****   __IOM uint32_t LOAD;                   /*!< Offset: 0x004 (R/W)  SysTick Reload Value Register */
 476:Generated_Source\PSoC6\pdl\cmsis/include/core_cm0plus.h ****   __IOM uint32_t VAL;                    /*!< Offset: 0x008 (R/W)  SysTick Current Value Register *
 477:Generated_Source\PSoC6\pdl\cmsis/include/core_cm0plus.h ****   __IM  uint32_t CALIB;                  /*!< Offset: 0x00C (R/ )  SysTick Calibration Register */
 478:Generated_Source\PSoC6\pdl\cmsis/include/core_cm0plus.h **** } SysTick_Type;
 479:Generated_Source\PSoC6\pdl\cmsis/include/core_cm0plus.h **** 
 480:Generated_Source\PSoC6\pdl\cmsis/include/core_cm0plus.h **** /* SysTick Control / Status Register Definitions */
 481:Generated_Source\PSoC6\pdl\cmsis/include/core_cm0plus.h **** #define SysTick_CTRL_COUNTFLAG_Pos         16U                                            /*!< SysT
 482:Generated_Source\PSoC6\pdl\cmsis/include/core_cm0plus.h **** #define SysTick_CTRL_COUNTFLAG_Msk         (1UL << SysTick_CTRL_COUNTFLAG_Pos)            /*!< SysT
 483:Generated_Source\PSoC6\pdl\cmsis/include/core_cm0plus.h **** 
 484:Generated_Source\PSoC6\pdl\cmsis/include/core_cm0plus.h **** #define SysTick_CTRL_CLKSOURCE_Pos          2U                                            /*!< SysT
 485:Generated_Source\PSoC6\pdl\cmsis/include/core_cm0plus.h **** #define SysTick_CTRL_CLKSOURCE_Msk         (1UL << SysTick_CTRL_CLKSOURCE_Pos)            /*!< SysT
 486:Generated_Source\PSoC6\pdl\cmsis/include/core_cm0plus.h **** 
 487:Generated_Source\PSoC6\pdl\cmsis/include/core_cm0plus.h **** #define SysTick_CTRL_TICKINT_Pos            1U                                            /*!< SysT
 488:Generated_Source\PSoC6\pdl\cmsis/include/core_cm0plus.h **** #define SysTick_CTRL_TICKINT_Msk           (1UL << SysTick_CTRL_TICKINT_Pos)              /*!< SysT
 489:Generated_Source\PSoC6\pdl\cmsis/include/core_cm0plus.h **** 
 490:Generated_Source\PSoC6\pdl\cmsis/include/core_cm0plus.h **** #define SysTick_CTRL_ENABLE_Pos             0U                                            /*!< SysT
 491:Generated_Source\PSoC6\pdl\cmsis/include/core_cm0plus.h **** #define SysTick_CTRL_ENABLE_Msk            (1UL /*<< SysTick_CTRL_ENABLE_Pos*/)           /*!< SysT
 492:Generated_Source\PSoC6\pdl\cmsis/include/core_cm0plus.h **** 
 493:Generated_Source\PSoC6\pdl\cmsis/include/core_cm0plus.h **** /* SysTick Reload Register Definitions */
 494:Generated_Source\PSoC6\pdl\cmsis/include/core_cm0plus.h **** #define SysTick_LOAD_RELOAD_Pos             0U                                            /*!< SysT
 495:Generated_Source\PSoC6\pdl\cmsis/include/core_cm0plus.h **** #define SysTick_LOAD_RELOAD_Msk            (0xFFFFFFUL /*<< SysTick_LOAD_RELOAD_Pos*/)    /*!< SysT
 496:Generated_Source\PSoC6\pdl\cmsis/include/core_cm0plus.h **** 
 497:Generated_Source\PSoC6\pdl\cmsis/include/core_cm0plus.h **** /* SysTick Current Register Definitions */
 498:Generated_Source\PSoC6\pdl\cmsis/include/core_cm0plus.h **** #define SysTick_VAL_CURRENT_Pos             0U                                            /*!< SysT
 499:Generated_Source\PSoC6\pdl\cmsis/include/core_cm0plus.h **** #define SysTick_VAL_CURRENT_Msk            (0xFFFFFFUL /*<< SysTick_VAL_CURRENT_Pos*/)    /*!< SysT
 500:Generated_Source\PSoC6\pdl\cmsis/include/core_cm0plus.h **** 
 501:Generated_Source\PSoC6\pdl\cmsis/include/core_cm0plus.h **** /* SysTick Calibration Register Definitions */
 502:Generated_Source\PSoC6\pdl\cmsis/include/core_cm0plus.h **** #define SysTick_CALIB_NOREF_Pos            31U                                            /*!< SysT
 503:Generated_Source\PSoC6\pdl\cmsis/include/core_cm0plus.h **** #define SysTick_CALIB_NOREF_Msk            (1UL << SysTick_CALIB_NOREF_Pos)               /*!< SysT
 504:Generated_Source\PSoC6\pdl\cmsis/include/core_cm0plus.h **** 
 505:Generated_Source\PSoC6\pdl\cmsis/include/core_cm0plus.h **** #define SysTick_CALIB_SKEW_Pos             30U                                            /*!< SysT
 506:Generated_Source\PSoC6\pdl\cmsis/include/core_cm0plus.h **** #define SysTick_CALIB_SKEW_Msk             (1UL << SysTick_CALIB_SKEW_Pos)                /*!< SysT
ARM GAS  C:\Users\ASUS\AppData\Local\Temp\ccYYtRfk.s 			page 73


 507:Generated_Source\PSoC6\pdl\cmsis/include/core_cm0plus.h **** 
 508:Generated_Source\PSoC6\pdl\cmsis/include/core_cm0plus.h **** #define SysTick_CALIB_TENMS_Pos             0U                                            /*!< SysT
 509:Generated_Source\PSoC6\pdl\cmsis/include/core_cm0plus.h **** #define SysTick_CALIB_TENMS_Msk            (0xFFFFFFUL /*<< SysTick_CALIB_TENMS_Pos*/)    /*!< SysT
 510:Generated_Source\PSoC6\pdl\cmsis/include/core_cm0plus.h **** 
 511:Generated_Source\PSoC6\pdl\cmsis/include/core_cm0plus.h **** /*@} end of group CMSIS_SysTick */
 512:Generated_Source\PSoC6\pdl\cmsis/include/core_cm0plus.h **** 
 513:Generated_Source\PSoC6\pdl\cmsis/include/core_cm0plus.h **** #if defined (__MPU_PRESENT) && (__MPU_PRESENT == 1U)
 514:Generated_Source\PSoC6\pdl\cmsis/include/core_cm0plus.h **** /**
 515:Generated_Source\PSoC6\pdl\cmsis/include/core_cm0plus.h ****   \ingroup  CMSIS_core_register
 516:Generated_Source\PSoC6\pdl\cmsis/include/core_cm0plus.h ****   \defgroup CMSIS_MPU     Memory Protection Unit (MPU)
 517:Generated_Source\PSoC6\pdl\cmsis/include/core_cm0plus.h ****   \brief    Type definitions for the Memory Protection Unit (MPU)
 518:Generated_Source\PSoC6\pdl\cmsis/include/core_cm0plus.h ****   @{
 519:Generated_Source\PSoC6\pdl\cmsis/include/core_cm0plus.h ****  */
 520:Generated_Source\PSoC6\pdl\cmsis/include/core_cm0plus.h **** 
 521:Generated_Source\PSoC6\pdl\cmsis/include/core_cm0plus.h **** /**
 522:Generated_Source\PSoC6\pdl\cmsis/include/core_cm0plus.h ****   \brief  Structure type to access the Memory Protection Unit (MPU).
 523:Generated_Source\PSoC6\pdl\cmsis/include/core_cm0plus.h ****  */
 524:Generated_Source\PSoC6\pdl\cmsis/include/core_cm0plus.h **** typedef struct
 525:Generated_Source\PSoC6\pdl\cmsis/include/core_cm0plus.h **** {
 526:Generated_Source\PSoC6\pdl\cmsis/include/core_cm0plus.h ****   __IM  uint32_t TYPE;                   /*!< Offset: 0x000 (R/ )  MPU Type Register */
 527:Generated_Source\PSoC6\pdl\cmsis/include/core_cm0plus.h ****   __IOM uint32_t CTRL;                   /*!< Offset: 0x004 (R/W)  MPU Control Register */
 528:Generated_Source\PSoC6\pdl\cmsis/include/core_cm0plus.h ****   __IOM uint32_t RNR;                    /*!< Offset: 0x008 (R/W)  MPU Region RNRber Register */
 529:Generated_Source\PSoC6\pdl\cmsis/include/core_cm0plus.h ****   __IOM uint32_t RBAR;                   /*!< Offset: 0x00C (R/W)  MPU Region Base Address Register
 530:Generated_Source\PSoC6\pdl\cmsis/include/core_cm0plus.h ****   __IOM uint32_t RASR;                   /*!< Offset: 0x010 (R/W)  MPU Region Attribute and Size Re
 531:Generated_Source\PSoC6\pdl\cmsis/include/core_cm0plus.h **** } MPU_Type;
 532:Generated_Source\PSoC6\pdl\cmsis/include/core_cm0plus.h **** 
 533:Generated_Source\PSoC6\pdl\cmsis/include/core_cm0plus.h **** #define MPU_TYPE_RALIASES                  1U
 534:Generated_Source\PSoC6\pdl\cmsis/include/core_cm0plus.h **** 
 535:Generated_Source\PSoC6\pdl\cmsis/include/core_cm0plus.h **** /* MPU Type Register Definitions */
 536:Generated_Source\PSoC6\pdl\cmsis/include/core_cm0plus.h **** #define MPU_TYPE_IREGION_Pos               16U                                            /*!< MPU 
 537:Generated_Source\PSoC6\pdl\cmsis/include/core_cm0plus.h **** #define MPU_TYPE_IREGION_Msk               (0xFFUL << MPU_TYPE_IREGION_Pos)               /*!< MPU 
 538:Generated_Source\PSoC6\pdl\cmsis/include/core_cm0plus.h **** 
 539:Generated_Source\PSoC6\pdl\cmsis/include/core_cm0plus.h **** #define MPU_TYPE_DREGION_Pos                8U                                            /*!< MPU 
 540:Generated_Source\PSoC6\pdl\cmsis/include/core_cm0plus.h **** #define MPU_TYPE_DREGION_Msk               (0xFFUL << MPU_TYPE_DREGION_Pos)               /*!< MPU 
 541:Generated_Source\PSoC6\pdl\cmsis/include/core_cm0plus.h **** 
 542:Generated_Source\PSoC6\pdl\cmsis/include/core_cm0plus.h **** #define MPU_TYPE_SEPARATE_Pos               0U                                            /*!< MPU 
 543:Generated_Source\PSoC6\pdl\cmsis/include/core_cm0plus.h **** #define MPU_TYPE_SEPARATE_Msk              (1UL /*<< MPU_TYPE_SEPARATE_Pos*/)             /*!< MPU 
 544:Generated_Source\PSoC6\pdl\cmsis/include/core_cm0plus.h **** 
 545:Generated_Source\PSoC6\pdl\cmsis/include/core_cm0plus.h **** /* MPU Control Register Definitions */
 546:Generated_Source\PSoC6\pdl\cmsis/include/core_cm0plus.h **** #define MPU_CTRL_PRIVDEFENA_Pos             2U                                            /*!< MPU 
 547:Generated_Source\PSoC6\pdl\cmsis/include/core_cm0plus.h **** #define MPU_CTRL_PRIVDEFENA_Msk            (1UL << MPU_CTRL_PRIVDEFENA_Pos)               /*!< MPU 
 548:Generated_Source\PSoC6\pdl\cmsis/include/core_cm0plus.h **** 
 549:Generated_Source\PSoC6\pdl\cmsis/include/core_cm0plus.h **** #define MPU_CTRL_HFNMIENA_Pos               1U                                            /*!< MPU 
 550:Generated_Source\PSoC6\pdl\cmsis/include/core_cm0plus.h **** #define MPU_CTRL_HFNMIENA_Msk              (1UL << MPU_CTRL_HFNMIENA_Pos)                 /*!< MPU 
 551:Generated_Source\PSoC6\pdl\cmsis/include/core_cm0plus.h **** 
 552:Generated_Source\PSoC6\pdl\cmsis/include/core_cm0plus.h **** #define MPU_CTRL_ENABLE_Pos                 0U                                            /*!< MPU 
 553:Generated_Source\PSoC6\pdl\cmsis/include/core_cm0plus.h **** #define MPU_CTRL_ENABLE_Msk                (1UL /*<< MPU_CTRL_ENABLE_Pos*/)               /*!< MPU 
 554:Generated_Source\PSoC6\pdl\cmsis/include/core_cm0plus.h **** 
 555:Generated_Source\PSoC6\pdl\cmsis/include/core_cm0plus.h **** /* MPU Region Number Register Definitions */
 556:Generated_Source\PSoC6\pdl\cmsis/include/core_cm0plus.h **** #define MPU_RNR_REGION_Pos                  0U                                            /*!< MPU 
 557:Generated_Source\PSoC6\pdl\cmsis/include/core_cm0plus.h **** #define MPU_RNR_REGION_Msk                 (0xFFUL /*<< MPU_RNR_REGION_Pos*/)             /*!< MPU 
 558:Generated_Source\PSoC6\pdl\cmsis/include/core_cm0plus.h **** 
 559:Generated_Source\PSoC6\pdl\cmsis/include/core_cm0plus.h **** /* MPU Region Base Address Register Definitions */
 560:Generated_Source\PSoC6\pdl\cmsis/include/core_cm0plus.h **** #define MPU_RBAR_ADDR_Pos                   8U                                            /*!< MPU 
 561:Generated_Source\PSoC6\pdl\cmsis/include/core_cm0plus.h **** #define MPU_RBAR_ADDR_Msk                  (0xFFFFFFUL << MPU_RBAR_ADDR_Pos)              /*!< MPU 
 562:Generated_Source\PSoC6\pdl\cmsis/include/core_cm0plus.h **** 
 563:Generated_Source\PSoC6\pdl\cmsis/include/core_cm0plus.h **** #define MPU_RBAR_VALID_Pos                  4U                                            /*!< MPU 
ARM GAS  C:\Users\ASUS\AppData\Local\Temp\ccYYtRfk.s 			page 74


 564:Generated_Source\PSoC6\pdl\cmsis/include/core_cm0plus.h **** #define MPU_RBAR_VALID_Msk                 (1UL << MPU_RBAR_VALID_Pos)                    /*!< MPU 
 565:Generated_Source\PSoC6\pdl\cmsis/include/core_cm0plus.h **** 
 566:Generated_Source\PSoC6\pdl\cmsis/include/core_cm0plus.h **** #define MPU_RBAR_REGION_Pos                 0U                                            /*!< MPU 
 567:Generated_Source\PSoC6\pdl\cmsis/include/core_cm0plus.h **** #define MPU_RBAR_REGION_Msk                (0xFUL /*<< MPU_RBAR_REGION_Pos*/)             /*!< MPU 
 568:Generated_Source\PSoC6\pdl\cmsis/include/core_cm0plus.h **** 
 569:Generated_Source\PSoC6\pdl\cmsis/include/core_cm0plus.h **** /* MPU Region Attribute and Size Register Definitions */
 570:Generated_Source\PSoC6\pdl\cmsis/include/core_cm0plus.h **** #define MPU_RASR_ATTRS_Pos                 16U                                            /*!< MPU 
 571:Generated_Source\PSoC6\pdl\cmsis/include/core_cm0plus.h **** #define MPU_RASR_ATTRS_Msk                 (0xFFFFUL << MPU_RASR_ATTRS_Pos)               /*!< MPU 
 572:Generated_Source\PSoC6\pdl\cmsis/include/core_cm0plus.h **** 
 573:Generated_Source\PSoC6\pdl\cmsis/include/core_cm0plus.h **** #define MPU_RASR_XN_Pos                    28U                                            /*!< MPU 
 574:Generated_Source\PSoC6\pdl\cmsis/include/core_cm0plus.h **** #define MPU_RASR_XN_Msk                    (1UL << MPU_RASR_XN_Pos)                       /*!< MPU 
 575:Generated_Source\PSoC6\pdl\cmsis/include/core_cm0plus.h **** 
 576:Generated_Source\PSoC6\pdl\cmsis/include/core_cm0plus.h **** #define MPU_RASR_AP_Pos                    24U                                            /*!< MPU 
 577:Generated_Source\PSoC6\pdl\cmsis/include/core_cm0plus.h **** #define MPU_RASR_AP_Msk                    (0x7UL << MPU_RASR_AP_Pos)                     /*!< MPU 
 578:Generated_Source\PSoC6\pdl\cmsis/include/core_cm0plus.h **** 
 579:Generated_Source\PSoC6\pdl\cmsis/include/core_cm0plus.h **** #define MPU_RASR_TEX_Pos                   19U                                            /*!< MPU 
 580:Generated_Source\PSoC6\pdl\cmsis/include/core_cm0plus.h **** #define MPU_RASR_TEX_Msk                   (0x7UL << MPU_RASR_TEX_Pos)                    /*!< MPU 
 581:Generated_Source\PSoC6\pdl\cmsis/include/core_cm0plus.h **** 
 582:Generated_Source\PSoC6\pdl\cmsis/include/core_cm0plus.h **** #define MPU_RASR_S_Pos                     18U                                            /*!< MPU 
 583:Generated_Source\PSoC6\pdl\cmsis/include/core_cm0plus.h **** #define MPU_RASR_S_Msk                     (1UL << MPU_RASR_S_Pos)                        /*!< MPU 
 584:Generated_Source\PSoC6\pdl\cmsis/include/core_cm0plus.h **** 
 585:Generated_Source\PSoC6\pdl\cmsis/include/core_cm0plus.h **** #define MPU_RASR_C_Pos                     17U                                            /*!< MPU 
 586:Generated_Source\PSoC6\pdl\cmsis/include/core_cm0plus.h **** #define MPU_RASR_C_Msk                     (1UL << MPU_RASR_C_Pos)                        /*!< MPU 
 587:Generated_Source\PSoC6\pdl\cmsis/include/core_cm0plus.h **** 
 588:Generated_Source\PSoC6\pdl\cmsis/include/core_cm0plus.h **** #define MPU_RASR_B_Pos                     16U                                            /*!< MPU 
 589:Generated_Source\PSoC6\pdl\cmsis/include/core_cm0plus.h **** #define MPU_RASR_B_Msk                     (1UL << MPU_RASR_B_Pos)                        /*!< MPU 
 590:Generated_Source\PSoC6\pdl\cmsis/include/core_cm0plus.h **** 
 591:Generated_Source\PSoC6\pdl\cmsis/include/core_cm0plus.h **** #define MPU_RASR_SRD_Pos                    8U                                            /*!< MPU 
 592:Generated_Source\PSoC6\pdl\cmsis/include/core_cm0plus.h **** #define MPU_RASR_SRD_Msk                   (0xFFUL << MPU_RASR_SRD_Pos)                   /*!< MPU 
 593:Generated_Source\PSoC6\pdl\cmsis/include/core_cm0plus.h **** 
 594:Generated_Source\PSoC6\pdl\cmsis/include/core_cm0plus.h **** #define MPU_RASR_SIZE_Pos                   1U                                            /*!< MPU 
 595:Generated_Source\PSoC6\pdl\cmsis/include/core_cm0plus.h **** #define MPU_RASR_SIZE_Msk                  (0x1FUL << MPU_RASR_SIZE_Pos)                  /*!< MPU 
 596:Generated_Source\PSoC6\pdl\cmsis/include/core_cm0plus.h **** 
 597:Generated_Source\PSoC6\pdl\cmsis/include/core_cm0plus.h **** #define MPU_RASR_ENABLE_Pos                 0U                                            /*!< MPU 
 598:Generated_Source\PSoC6\pdl\cmsis/include/core_cm0plus.h **** #define MPU_RASR_ENABLE_Msk                (1UL /*<< MPU_RASR_ENABLE_Pos*/)               /*!< MPU 
 599:Generated_Source\PSoC6\pdl\cmsis/include/core_cm0plus.h **** 
 600:Generated_Source\PSoC6\pdl\cmsis/include/core_cm0plus.h **** /*@} end of group CMSIS_MPU */
 601:Generated_Source\PSoC6\pdl\cmsis/include/core_cm0plus.h **** #endif
 602:Generated_Source\PSoC6\pdl\cmsis/include/core_cm0plus.h **** 
 603:Generated_Source\PSoC6\pdl\cmsis/include/core_cm0plus.h **** 
 604:Generated_Source\PSoC6\pdl\cmsis/include/core_cm0plus.h **** /**
 605:Generated_Source\PSoC6\pdl\cmsis/include/core_cm0plus.h ****   \ingroup  CMSIS_core_register
 606:Generated_Source\PSoC6\pdl\cmsis/include/core_cm0plus.h ****   \defgroup CMSIS_CoreDebug       Core Debug Registers (CoreDebug)
 607:Generated_Source\PSoC6\pdl\cmsis/include/core_cm0plus.h ****   \brief    Cortex-M0+ Core Debug Registers (DCB registers, SHCSR, and DFSR) are only accessible ov
 608:Generated_Source\PSoC6\pdl\cmsis/include/core_cm0plus.h ****             Therefore they are not covered by the Cortex-M0+ header file.
 609:Generated_Source\PSoC6\pdl\cmsis/include/core_cm0plus.h ****   @{
 610:Generated_Source\PSoC6\pdl\cmsis/include/core_cm0plus.h ****  */
 611:Generated_Source\PSoC6\pdl\cmsis/include/core_cm0plus.h **** /*@} end of group CMSIS_CoreDebug */
 612:Generated_Source\PSoC6\pdl\cmsis/include/core_cm0plus.h **** 
 613:Generated_Source\PSoC6\pdl\cmsis/include/core_cm0plus.h **** 
 614:Generated_Source\PSoC6\pdl\cmsis/include/core_cm0plus.h **** /**
 615:Generated_Source\PSoC6\pdl\cmsis/include/core_cm0plus.h ****   \ingroup    CMSIS_core_register
 616:Generated_Source\PSoC6\pdl\cmsis/include/core_cm0plus.h ****   \defgroup   CMSIS_core_bitfield     Core register bit field macros
 617:Generated_Source\PSoC6\pdl\cmsis/include/core_cm0plus.h ****   \brief      Macros for use with bit field definitions (xxx_Pos, xxx_Msk).
 618:Generated_Source\PSoC6\pdl\cmsis/include/core_cm0plus.h ****   @{
 619:Generated_Source\PSoC6\pdl\cmsis/include/core_cm0plus.h ****  */
 620:Generated_Source\PSoC6\pdl\cmsis/include/core_cm0plus.h **** 
ARM GAS  C:\Users\ASUS\AppData\Local\Temp\ccYYtRfk.s 			page 75


 621:Generated_Source\PSoC6\pdl\cmsis/include/core_cm0plus.h **** /**
 622:Generated_Source\PSoC6\pdl\cmsis/include/core_cm0plus.h ****   \brief   Mask and shift a bit field value for use in a register bit range.
 623:Generated_Source\PSoC6\pdl\cmsis/include/core_cm0plus.h ****   \param[in] field  Name of the register bit field.
 624:Generated_Source\PSoC6\pdl\cmsis/include/core_cm0plus.h ****   \param[in] value  Value of the bit field. This parameter is interpreted as an uint32_t type.
 625:Generated_Source\PSoC6\pdl\cmsis/include/core_cm0plus.h ****   \return           Masked and shifted value.
 626:Generated_Source\PSoC6\pdl\cmsis/include/core_cm0plus.h **** */
 627:Generated_Source\PSoC6\pdl\cmsis/include/core_cm0plus.h **** #define _VAL2FLD(field, value)    (((uint32_t)(value) << field ## _Pos) & field ## _Msk)
 628:Generated_Source\PSoC6\pdl\cmsis/include/core_cm0plus.h **** 
 629:Generated_Source\PSoC6\pdl\cmsis/include/core_cm0plus.h **** /**
 630:Generated_Source\PSoC6\pdl\cmsis/include/core_cm0plus.h ****   \brief     Mask and shift a register value to extract a bit filed value.
 631:Generated_Source\PSoC6\pdl\cmsis/include/core_cm0plus.h ****   \param[in] field  Name of the register bit field.
 632:Generated_Source\PSoC6\pdl\cmsis/include/core_cm0plus.h ****   \param[in] value  Value of register. This parameter is interpreted as an uint32_t type.
 633:Generated_Source\PSoC6\pdl\cmsis/include/core_cm0plus.h ****   \return           Masked and shifted bit field value.
 634:Generated_Source\PSoC6\pdl\cmsis/include/core_cm0plus.h **** */
 635:Generated_Source\PSoC6\pdl\cmsis/include/core_cm0plus.h **** #define _FLD2VAL(field, value)    (((uint32_t)(value) & field ## _Msk) >> field ## _Pos)
 636:Generated_Source\PSoC6\pdl\cmsis/include/core_cm0plus.h **** 
 637:Generated_Source\PSoC6\pdl\cmsis/include/core_cm0plus.h **** /*@} end of group CMSIS_core_bitfield */
 638:Generated_Source\PSoC6\pdl\cmsis/include/core_cm0plus.h **** 
 639:Generated_Source\PSoC6\pdl\cmsis/include/core_cm0plus.h **** 
 640:Generated_Source\PSoC6\pdl\cmsis/include/core_cm0plus.h **** /**
 641:Generated_Source\PSoC6\pdl\cmsis/include/core_cm0plus.h ****   \ingroup    CMSIS_core_register
 642:Generated_Source\PSoC6\pdl\cmsis/include/core_cm0plus.h ****   \defgroup   CMSIS_core_base     Core Definitions
 643:Generated_Source\PSoC6\pdl\cmsis/include/core_cm0plus.h ****   \brief      Definitions for base addresses, unions, and structures.
 644:Generated_Source\PSoC6\pdl\cmsis/include/core_cm0plus.h ****   @{
 645:Generated_Source\PSoC6\pdl\cmsis/include/core_cm0plus.h ****  */
 646:Generated_Source\PSoC6\pdl\cmsis/include/core_cm0plus.h **** 
 647:Generated_Source\PSoC6\pdl\cmsis/include/core_cm0plus.h **** /* Memory mapping of Core Hardware */
 648:Generated_Source\PSoC6\pdl\cmsis/include/core_cm0plus.h **** #define SCS_BASE            (0xE000E000UL)                            /*!< System Control Space Bas
 649:Generated_Source\PSoC6\pdl\cmsis/include/core_cm0plus.h **** #define SysTick_BASE        (SCS_BASE +  0x0010UL)                    /*!< SysTick Base Address */
 650:Generated_Source\PSoC6\pdl\cmsis/include/core_cm0plus.h **** #define NVIC_BASE           (SCS_BASE +  0x0100UL)                    /*!< NVIC Base Address */
 651:Generated_Source\PSoC6\pdl\cmsis/include/core_cm0plus.h **** #define SCB_BASE            (SCS_BASE +  0x0D00UL)                    /*!< System Control Block Bas
 652:Generated_Source\PSoC6\pdl\cmsis/include/core_cm0plus.h **** 
 653:Generated_Source\PSoC6\pdl\cmsis/include/core_cm0plus.h **** #define SCB                 ((SCB_Type       *)     SCB_BASE      )   /*!< SCB configuration struct
 654:Generated_Source\PSoC6\pdl\cmsis/include/core_cm0plus.h **** #define SysTick             ((SysTick_Type   *)     SysTick_BASE  )   /*!< SysTick configuration st
 655:Generated_Source\PSoC6\pdl\cmsis/include/core_cm0plus.h **** #define NVIC                ((NVIC_Type      *)     NVIC_BASE     )   /*!< NVIC configuration struc
 656:Generated_Source\PSoC6\pdl\cmsis/include/core_cm0plus.h **** 
 657:Generated_Source\PSoC6\pdl\cmsis/include/core_cm0plus.h **** #if defined (__MPU_PRESENT) && (__MPU_PRESENT == 1U)
 658:Generated_Source\PSoC6\pdl\cmsis/include/core_cm0plus.h ****   #define MPU_BASE          (SCS_BASE +  0x0D90UL)                    /*!< Memory Protection Unit *
 659:Generated_Source\PSoC6\pdl\cmsis/include/core_cm0plus.h ****   #define MPU               ((MPU_Type       *)     MPU_BASE      )   /*!< Memory Protection Unit *
 660:Generated_Source\PSoC6\pdl\cmsis/include/core_cm0plus.h **** #endif
 661:Generated_Source\PSoC6\pdl\cmsis/include/core_cm0plus.h **** 
 662:Generated_Source\PSoC6\pdl\cmsis/include/core_cm0plus.h **** /*@} */
 663:Generated_Source\PSoC6\pdl\cmsis/include/core_cm0plus.h **** 
 664:Generated_Source\PSoC6\pdl\cmsis/include/core_cm0plus.h **** 
 665:Generated_Source\PSoC6\pdl\cmsis/include/core_cm0plus.h **** 
 666:Generated_Source\PSoC6\pdl\cmsis/include/core_cm0plus.h **** /*******************************************************************************
 667:Generated_Source\PSoC6\pdl\cmsis/include/core_cm0plus.h ****  *                Hardware Abstraction Layer
 668:Generated_Source\PSoC6\pdl\cmsis/include/core_cm0plus.h ****   Core Function Interface contains:
 669:Generated_Source\PSoC6\pdl\cmsis/include/core_cm0plus.h ****   - Core NVIC Functions
 670:Generated_Source\PSoC6\pdl\cmsis/include/core_cm0plus.h ****   - Core SysTick Functions
 671:Generated_Source\PSoC6\pdl\cmsis/include/core_cm0plus.h ****   - Core Register Access Functions
 672:Generated_Source\PSoC6\pdl\cmsis/include/core_cm0plus.h ****  ******************************************************************************/
 673:Generated_Source\PSoC6\pdl\cmsis/include/core_cm0plus.h **** /**
 674:Generated_Source\PSoC6\pdl\cmsis/include/core_cm0plus.h ****   \defgroup CMSIS_Core_FunctionInterface Functions and Instructions Reference
 675:Generated_Source\PSoC6\pdl\cmsis/include/core_cm0plus.h **** */
 676:Generated_Source\PSoC6\pdl\cmsis/include/core_cm0plus.h **** 
 677:Generated_Source\PSoC6\pdl\cmsis/include/core_cm0plus.h **** 
ARM GAS  C:\Users\ASUS\AppData\Local\Temp\ccYYtRfk.s 			page 76


 678:Generated_Source\PSoC6\pdl\cmsis/include/core_cm0plus.h **** 
 679:Generated_Source\PSoC6\pdl\cmsis/include/core_cm0plus.h **** /* ##########################   NVIC functions  #################################### */
 680:Generated_Source\PSoC6\pdl\cmsis/include/core_cm0plus.h **** /**
 681:Generated_Source\PSoC6\pdl\cmsis/include/core_cm0plus.h ****   \ingroup  CMSIS_Core_FunctionInterface
 682:Generated_Source\PSoC6\pdl\cmsis/include/core_cm0plus.h ****   \defgroup CMSIS_Core_NVICFunctions NVIC Functions
 683:Generated_Source\PSoC6\pdl\cmsis/include/core_cm0plus.h ****   \brief    Functions that manage interrupts and exceptions via the NVIC.
 684:Generated_Source\PSoC6\pdl\cmsis/include/core_cm0plus.h ****   @{
 685:Generated_Source\PSoC6\pdl\cmsis/include/core_cm0plus.h ****  */
 686:Generated_Source\PSoC6\pdl\cmsis/include/core_cm0plus.h **** 
 687:Generated_Source\PSoC6\pdl\cmsis/include/core_cm0plus.h **** #ifdef CMSIS_NVIC_VIRTUAL
 688:Generated_Source\PSoC6\pdl\cmsis/include/core_cm0plus.h ****   #ifndef CMSIS_NVIC_VIRTUAL_HEADER_FILE
 689:Generated_Source\PSoC6\pdl\cmsis/include/core_cm0plus.h ****     #define CMSIS_NVIC_VIRTUAL_HEADER_FILE "cmsis_nvic_virtual.h"
 690:Generated_Source\PSoC6\pdl\cmsis/include/core_cm0plus.h ****   #endif
 691:Generated_Source\PSoC6\pdl\cmsis/include/core_cm0plus.h ****   #include CMSIS_NVIC_VIRTUAL_HEADER_FILE
 692:Generated_Source\PSoC6\pdl\cmsis/include/core_cm0plus.h **** #else
 693:Generated_Source\PSoC6\pdl\cmsis/include/core_cm0plus.h **** /*#define NVIC_SetPriorityGrouping    __NVIC_SetPriorityGrouping   not available for Cortex-M0+ */
 694:Generated_Source\PSoC6\pdl\cmsis/include/core_cm0plus.h **** /*#define NVIC_GetPriorityGrouping    __NVIC_GetPriorityGrouping   not available for Cortex-M0+ */
 695:Generated_Source\PSoC6\pdl\cmsis/include/core_cm0plus.h ****   #define NVIC_EnableIRQ              __NVIC_EnableIRQ
 696:Generated_Source\PSoC6\pdl\cmsis/include/core_cm0plus.h ****   #define NVIC_GetEnableIRQ           __NVIC_GetEnableIRQ
 697:Generated_Source\PSoC6\pdl\cmsis/include/core_cm0plus.h ****   #define NVIC_DisableIRQ             __NVIC_DisableIRQ
 698:Generated_Source\PSoC6\pdl\cmsis/include/core_cm0plus.h ****   #define NVIC_GetPendingIRQ          __NVIC_GetPendingIRQ
 699:Generated_Source\PSoC6\pdl\cmsis/include/core_cm0plus.h ****   #define NVIC_SetPendingIRQ          __NVIC_SetPendingIRQ
 700:Generated_Source\PSoC6\pdl\cmsis/include/core_cm0plus.h ****   #define NVIC_ClearPendingIRQ        __NVIC_ClearPendingIRQ
 701:Generated_Source\PSoC6\pdl\cmsis/include/core_cm0plus.h **** /*#define NVIC_GetActive              __NVIC_GetActive             not available for Cortex-M0+ */
 702:Generated_Source\PSoC6\pdl\cmsis/include/core_cm0plus.h ****   #define NVIC_SetPriority            __NVIC_SetPriority
 703:Generated_Source\PSoC6\pdl\cmsis/include/core_cm0plus.h ****   #define NVIC_GetPriority            __NVIC_GetPriority
 704:Generated_Source\PSoC6\pdl\cmsis/include/core_cm0plus.h ****   #define NVIC_SystemReset            __NVIC_SystemReset
 705:Generated_Source\PSoC6\pdl\cmsis/include/core_cm0plus.h **** #endif /* CMSIS_NVIC_VIRTUAL */
 706:Generated_Source\PSoC6\pdl\cmsis/include/core_cm0plus.h **** 
 707:Generated_Source\PSoC6\pdl\cmsis/include/core_cm0plus.h **** #ifdef CMSIS_VECTAB_VIRTUAL
 708:Generated_Source\PSoC6\pdl\cmsis/include/core_cm0plus.h ****   #ifndef CMSIS_VECTAB_VIRTUAL_HEADER_FILE
 709:Generated_Source\PSoC6\pdl\cmsis/include/core_cm0plus.h ****     #define CMSIS_VECTAB_VIRTUAL_HEADER_FILE "cmsis_vectab_virtual.h"
 710:Generated_Source\PSoC6\pdl\cmsis/include/core_cm0plus.h ****   #endif
 711:Generated_Source\PSoC6\pdl\cmsis/include/core_cm0plus.h ****   #include CMSIS_VECTAB_VIRTUAL_HEADER_FILE
 712:Generated_Source\PSoC6\pdl\cmsis/include/core_cm0plus.h **** #else
 713:Generated_Source\PSoC6\pdl\cmsis/include/core_cm0plus.h ****   #define NVIC_SetVector              __NVIC_SetVector
 714:Generated_Source\PSoC6\pdl\cmsis/include/core_cm0plus.h ****   #define NVIC_GetVector              __NVIC_GetVector
 715:Generated_Source\PSoC6\pdl\cmsis/include/core_cm0plus.h **** #endif  /* (CMSIS_VECTAB_VIRTUAL) */
 716:Generated_Source\PSoC6\pdl\cmsis/include/core_cm0plus.h **** 
 717:Generated_Source\PSoC6\pdl\cmsis/include/core_cm0plus.h **** #define NVIC_USER_IRQ_OFFSET          16
 718:Generated_Source\PSoC6\pdl\cmsis/include/core_cm0plus.h **** 
 719:Generated_Source\PSoC6\pdl\cmsis/include/core_cm0plus.h **** 
 720:Generated_Source\PSoC6\pdl\cmsis/include/core_cm0plus.h **** /* Interrupt Priorities are WORD accessible only under Armv6-M                  */
 721:Generated_Source\PSoC6\pdl\cmsis/include/core_cm0plus.h **** /* The following MACROS handle generation of the register offset and byte masks */
 722:Generated_Source\PSoC6\pdl\cmsis/include/core_cm0plus.h **** #define _BIT_SHIFT(IRQn)         (  ((((uint32_t)(int32_t)(IRQn))         )      &  0x03UL) * 8UL)
 723:Generated_Source\PSoC6\pdl\cmsis/include/core_cm0plus.h **** #define _SHP_IDX(IRQn)           ( (((((uint32_t)(int32_t)(IRQn)) & 0x0FUL)-8UL) >>    2UL)      )
 724:Generated_Source\PSoC6\pdl\cmsis/include/core_cm0plus.h **** #define _IP_IDX(IRQn)            (   (((uint32_t)(int32_t)(IRQn))                >>    2UL)      )
 725:Generated_Source\PSoC6\pdl\cmsis/include/core_cm0plus.h **** 
 726:Generated_Source\PSoC6\pdl\cmsis/include/core_cm0plus.h **** 
 727:Generated_Source\PSoC6\pdl\cmsis/include/core_cm0plus.h **** /**
 728:Generated_Source\PSoC6\pdl\cmsis/include/core_cm0plus.h ****   \brief   Enable Interrupt
 729:Generated_Source\PSoC6\pdl\cmsis/include/core_cm0plus.h ****   \details Enables a device specific interrupt in the NVIC interrupt controller.
 730:Generated_Source\PSoC6\pdl\cmsis/include/core_cm0plus.h ****   \param [in]      IRQn  Device specific interrupt number.
 731:Generated_Source\PSoC6\pdl\cmsis/include/core_cm0plus.h ****   \note    IRQn must not be negative.
 732:Generated_Source\PSoC6\pdl\cmsis/include/core_cm0plus.h ****  */
 733:Generated_Source\PSoC6\pdl\cmsis/include/core_cm0plus.h **** __STATIC_INLINE void __NVIC_EnableIRQ(IRQn_Type IRQn)
 734:Generated_Source\PSoC6\pdl\cmsis/include/core_cm0plus.h **** {
ARM GAS  C:\Users\ASUS\AppData\Local\Temp\ccYYtRfk.s 			page 77


 735:Generated_Source\PSoC6\pdl\cmsis/include/core_cm0plus.h ****   if ((int32_t)(IRQn) >= 0)
 2062              		.loc 7 735 0
 2063 003a 002A     		cmp	r2, #0
 2064 003c 05DB     		blt	.L105
 736:Generated_Source\PSoC6\pdl\cmsis/include/core_cm0plus.h ****   {
 737:Generated_Source\PSoC6\pdl\cmsis/include/core_cm0plus.h ****     NVIC->ISER[0U] = (uint32_t)(1UL << (((uint32_t)IRQn) & 0x1FUL));
 2065              		.loc 7 737 0
 2066 003e 1F23     		movs	r3, #31
 2067 0040 1A40     		ands	r2, r3
 2068              	.LVL251:
 2069 0042 1E3B     		subs	r3, r3, #30
 2070 0044 9340     		lsls	r3, r3, r2
 2071 0046 044A     		ldr	r2, .L110+12
 2072 0048 1360     		str	r3, [r2]
 2073              	.LVL252:
 2074              	.L105:
 2075              	.LBE92:
 2076              	.LBE91:
 123:RTC_Alarm.h   **** 
 2077              		.loc 2 123 0
 2078              		@ sp needed
 2079 004a 10BD     		pop	{r4, pc}
 2080              	.L111:
 2081              		.align	2
 2082              	.L110:
 2083 004c 58020000 		.word	.LC43
 2084 0050 00000000 		.word	RTC_RTC_IRQ_cfg
 2085 0054 00000000 		.word	RtcInterruptHandler
 2086 0058 00E100E0 		.word	-536813312
 2087              		.cfi_endproc
 2088              	.LFE483:
 2089              		.size	init_RTC, .-init_RTC
 2090              		.section	.text.Cy_RTC_Alarm2Interrupt,"ax",%progbits
 2091              		.align	2
 2092              		.global	Cy_RTC_Alarm2Interrupt
 2093              		.code	16
 2094              		.thumb_func
 2095              		.type	Cy_RTC_Alarm2Interrupt, %function
 2096              	Cy_RTC_Alarm2Interrupt:
 2097              	.LFB487:
 219:RTC_Alarm.h   **** 
 220:RTC_Alarm.h   **** /******************************************************************************
 221:RTC_Alarm.h   **** * Function Name: Cy_RTC_Alarm2Interrupt
 222:RTC_Alarm.h   **** *******************************************************************************
 223:RTC_Alarm.h   **** *
 224:RTC_Alarm.h   **** * Summary: 
 225:RTC_Alarm.h   **** *  The function overrides the __WEAK Cy_RTC_Alarm2Interrupt() in cy_rtc.c to 
 226:RTC_Alarm.h   **** *  handle CY_RTC_ALARM_2 interrupt.
 227:RTC_Alarm.h   **** *
 228:RTC_Alarm.h   **** * Parameters:
 229:RTC_Alarm.h   **** *  None
 230:RTC_Alarm.h   **** *
 231:RTC_Alarm.h   **** * Return:
 232:RTC_Alarm.h   **** *  None
 233:RTC_Alarm.h   **** *
 234:RTC_Alarm.h   **** ******************************************************************************/
 235:RTC_Alarm.h   **** void Cy_RTC_Alarm2Interrupt(void)
ARM GAS  C:\Users\ASUS\AppData\Local\Temp\ccYYtRfk.s 			page 78


 236:RTC_Alarm.h   **** {
 2098              		.loc 2 236 0
 2099              		.cfi_startproc
 2100              		@ args = 0, pretend = 0, frame = 0
 2101              		@ frame_needed = 0, uses_anonymous_args = 0
 2102              		@ link register save eliminated.
 237:RTC_Alarm.h   ****     /* the interrupt has fired, meaning time expired and the alarm went off */
 238:RTC_Alarm.h   **** 	alarmFlag = 1u;  
 2103              		.loc 2 238 0
 2104 0000 0122     		movs	r2, #1
 2105 0002 014B     		ldr	r3, .L113
 2106 0004 DA61     		str	r2, [r3, #28]
 239:RTC_Alarm.h   **** 
 240:RTC_Alarm.h   **** }
 2107              		.loc 2 240 0
 2108              		@ sp needed
 2109 0006 7047     		bx	lr
 2110              	.L114:
 2111              		.align	2
 2112              	.L113:
 2113 0008 00000000 		.word	.LANCHOR0
 2114              		.cfi_endproc
 2115              	.LFE487:
 2116              		.size	Cy_RTC_Alarm2Interrupt, .-Cy_RTC_Alarm2Interrupt
 2117              		.global	__aeabi_uidivmod
 2118              		.section	.text.RtcStepAlarm,"ax",%progbits
 2119              		.align	2
 2120              		.global	RtcStepAlarm
 2121              		.code	16
 2122              		.thumb_func
 2123              		.type	RtcStepAlarm, %function
 2124              	RtcStepAlarm:
 2125              	.LFB488:
 241:RTC_Alarm.h   **** 
 242:RTC_Alarm.h   **** /******************************************************************************
 243:RTC_Alarm.h   **** * Function Name: RtcStepAlarm
 244:RTC_Alarm.h   **** *******************************************************************************
 245:RTC_Alarm.h   **** *
 246:RTC_Alarm.h   **** * Summary: 
 247:RTC_Alarm.h   **** *  This function sets the time for CY_RTC_ALARM_2, and configures the interrupt.
 248:RTC_Alarm.h   **** *  The available periods are one second to sixty seconds and one minute to sixty 
 249:RTC_Alarm.h   **** *  minutes. 
 250:RTC_Alarm.h   **** *
 251:RTC_Alarm.h   **** * Parameters:
 252:RTC_Alarm.h   **** *  None
 253:RTC_Alarm.h   **** *
 254:RTC_Alarm.h   **** * Return:
 255:RTC_Alarm.h   **** *  None
 256:RTC_Alarm.h   **** *
 257:RTC_Alarm.h   **** ******************************************************************************/
 258:RTC_Alarm.h   **** void RtcStepAlarm(void)
 259:RTC_Alarm.h   **** {
 2126              		.loc 2 259 0
 2127              		.cfi_startproc
 2128              		@ args = 0, pretend = 0, frame = 0
 2129              		@ frame_needed = 0, uses_anonymous_args = 0
 2130 0000 10B5     		push	{r4, lr}
ARM GAS  C:\Users\ASUS\AppData\Local\Temp\ccYYtRfk.s 			page 79


 2131              		.cfi_def_cfa_offset 8
 2132              		.cfi_offset 4, -8
 2133              		.cfi_offset 14, -4
 260:RTC_Alarm.h   ****     /* Don't set next time, if the interval is one second or one minute */
 261:RTC_Alarm.h   ****     if(TICK_INTERVAL != 1u)
 262:RTC_Alarm.h   ****     {
 263:RTC_Alarm.h   ****         if (USE_MINUTES)  /* match minutes, and advance by minutes */
 264:RTC_Alarm.h   ****     	{
 265:RTC_Alarm.h   **** 		/*
 266:RTC_Alarm.h   **** 		Enable the correct matches. This is a periodic interrupt, but
 267:RTC_Alarm.h   **** 		happens every two or more minutes. Because we are stepping by
 268:RTC_Alarm.h   **** 		minutes, we need to match the minutes number. We also match the
 269:RTC_Alarm.h   **** 		seconds number so the alarm only goes off when both the seconds
 270:RTC_Alarm.h   **** 		and minutes match. Because we are not changing the value of the
 271:RTC_Alarm.h   **** 		seconds in the alarm, the alarm happens only once when the
 272:RTC_Alarm.h   **** 		minutes match.
 273:RTC_Alarm.h   **** 		*/
 274:RTC_Alarm.h   ****             alarmConfig.secEn = CY_RTC_ALARM_ENABLE;
 275:RTC_Alarm.h   ****             alarmConfig.minEn = CY_RTC_ALARM_ENABLE;
 276:RTC_Alarm.h   **** 
 277:RTC_Alarm.h   ****     		/* advance the minute by the specified interval */
 278:RTC_Alarm.h   ****     		alarmConfig.min += TICK_INTERVAL;
 279:RTC_Alarm.h   **** 
 280:RTC_Alarm.h   ****             /* keep it in range, 0-59 */
 281:RTC_Alarm.h   ****             alarmConfig.min = alarmConfig.min % MINUTES_PER_HOUR;
 282:RTC_Alarm.h   ****     	}
 283:RTC_Alarm.h   ****     	else   /* USE_SECONDS, alarm when the seconds match */
 284:RTC_Alarm.h   ****     	{
 285:RTC_Alarm.h   ****     		/* 
 286:RTC_Alarm.h   ****                 Enable the correct matches. Because we are stepping by seconds, 
 287:RTC_Alarm.h   ****                 we need to match just the seconds number.
 288:RTC_Alarm.h   ****             */
 289:RTC_Alarm.h   ****             alarmConfig.secEn = CY_RTC_ALARM_ENABLE;
 2134              		.loc 2 289 0
 2135 0002 094C     		ldr	r4, .L117
 2136 0004 0123     		movs	r3, #1
 2137 0006 2371     		strb	r3, [r4, #4]
 290:RTC_Alarm.h   **** 
 291:RTC_Alarm.h   ****     		/* advance the second by the specified interval */
 292:RTC_Alarm.h   ****     		alarmConfig.sec += TICK_INTERVAL;
 2138              		.loc 2 292 0
 2139 0008 2368     		ldr	r3, [r4]
 2140 000a 581D     		adds	r0, r3, #5
 293:RTC_Alarm.h   **** 
 294:RTC_Alarm.h   ****             /* keep it in range, 0-59 */
 295:RTC_Alarm.h   ****             alarmConfig.sec = alarmConfig.sec % SECONDS_PER_MIN;
 2141              		.loc 2 295 0
 2142 000c 3C21     		movs	r1, #60
 2143 000e FFF7FEFF 		bl	__aeabi_uidivmod
 2144              	.LVL253:
 2145 0012 2160     		str	r1, [r4]
 296:RTC_Alarm.h   ****     	}
 297:RTC_Alarm.h   ****     	
 298:RTC_Alarm.h   ****     	/* update the alarm configuration */
 299:RTC_Alarm.h   ****     	if(RtcAlarmConfig() != CY_RTC_SUCCESS)
 2146              		.loc 2 299 0
 2147 0014 FFF7FEFF 		bl	RtcAlarmConfig
ARM GAS  C:\Users\ASUS\AppData\Local\Temp\ccYYtRfk.s 			page 80


 2148              	.LVL254:
 2149 0018 0028     		cmp	r0, #0
 2150 001a 04D0     		beq	.L115
 300:RTC_Alarm.h   ****     	{
 301:RTC_Alarm.h   ****     	   /* If the operation fails, halt */
 302:RTC_Alarm.h   ****     	   CY_ASSERT(0u);
 2151              		.loc 2 302 0 discriminator 1
 2152 001c 9721     		movs	r1, #151
 2153 001e 4900     		lsls	r1, r1, #1
 2154 0020 0248     		ldr	r0, .L117+4
 2155 0022 FFF7FEFF 		bl	Cy_SysLib_AssertFailed
 2156              	.LVL255:
 2157              	.L115:
 303:RTC_Alarm.h   ****     	}
 304:RTC_Alarm.h   ****     }
 305:RTC_Alarm.h   **** }
 2158              		.loc 2 305 0
 2159              		@ sp needed
 2160 0026 10BD     		pop	{r4, pc}
 2161              	.L118:
 2162              		.align	2
 2163              	.L117:
 2164 0028 00000000 		.word	.LANCHOR1
 2165 002c 58020000 		.word	.LC43
 2166              		.cfi_endproc
 2167              	.LFE488:
 2168              		.size	RtcStepAlarm, .-RtcStepAlarm
 2169              		.global	__aeabi_idiv
 2170              		.global	__aeabi_i2f
 2171              		.global	__aeabi_fdiv
 2172              		.global	__aeabi_fmul
 2173              		.global	__aeabi_fcmpgt
 2174              		.global	__aeabi_fadd
 2175              		.global	__aeabi_f2d
 2176              		.section	.text.update_happy_score,"ax",%progbits
 2177              		.align	2
 2178              		.global	update_happy_score
 2179              		.code	16
 2180              		.thumb_func
 2181              		.type	update_happy_score, %function
 2182              	update_happy_score:
 2183              	.LFB489:
 2184              		.file 8 "main_cm0p.c"
   1:main_cm0p.c   **** /******************************************************************************
   2:main_cm0p.c   **** * File Name: main_cm0p.c
   3:main_cm0p.c   **** *
   4:main_cm0p.c   **** * Version: Beta
   5:main_cm0p.c   **** *
   6:main_cm0p.c   **** * Description: This is the main firmware file for the EasyMoo capstone project.
   7:main_cm0p.c   **** * This PSoC project is for a cow physical health monitor product, utilizing SoC
   8:main_cm0p.c   **** * circuitry, including sensors and a battery powered module.
   9:main_cm0p.c   **** *
  10:main_cm0p.c   **** * Related Document: TrueColor_LightSensor.pdf
  11:main_cm0p.c   **** * Hardware Dependency:  CY8CKIT-063-BLE PSoC 6 BLE Pioneer kit
  12:main_cm0p.c   **** *                       AS73211 True Color Sensor
  13:main_cm0p.c   **** *
  14:main_cm0p.c   **** * Author(s):
ARM GAS  C:\Users\ASUS\AppData\Local\Temp\ccYYtRfk.s 			page 81


  15:main_cm0p.c   **** *	Yousef H. Akbar & and Cow Team
  16:main_cm0p.c   **** *	Dept. Electrical and Computer Engineering
  17:main_cm0p.c   **** *	University of California, Davis
  18:main_cm0p.c   **** ******************************************************************************/
  19:main_cm0p.c   **** #include "project.h"
  20:main_cm0p.c   **** #include "stdio.h"
  21:main_cm0p.c   **** 
  22:main_cm0p.c   **** /* Project Firmware Dependencies */
  23:main_cm0p.c   **** #include "FSM.h"
  24:main_cm0p.c   **** #include "BLE.h"
  25:main_cm0p.c   **** #include "Light.h"
  26:main_cm0p.c   **** #include "Accelerometer.h"
  27:main_cm0p.c   **** #include "RTC_Alarm.h"
  28:main_cm0p.c   **** #include "Queue.h"
  29:main_cm0p.c   **** 
  30:main_cm0p.c   **** /* Happy Score Benchmarks */
  31:main_cm0p.c   **** #define TARG_LIGHT_AVG  (25)
  32:main_cm0p.c   **** #define TARG_TEMP_AVG   (25)
  33:main_cm0p.c   **** 
  34:main_cm0p.c   **** /* Global Variables */
  35:main_cm0p.c   **** uint16_t xChannel, yChannel, zChannel, temperature;	// Light Sensor Vars
  36:main_cm0p.c   **** uint16_t accX, accY, accZ;				// Accelerometer
  37:main_cm0p.c   **** uint16_t gyroX, gyroY, gyroZ;				// Gyroscope
  38:main_cm0p.c   **** int tempFlag    = 0;
  39:main_cm0p.c   **** int accInactive = 0;
  40:main_cm0p.c   **** int lightFlag   = 0;
  41:main_cm0p.c   **** queue_t light_queue = NULL;
  42:main_cm0p.c   **** queue_t temp_queue  = NULL;
  43:main_cm0p.c   **** queue_t acc_queue   = NULL;
  44:main_cm0p.c   **** queue_t gyro_queue  = NULL;
  45:main_cm0p.c   **** 
  46:main_cm0p.c   **** int update_happy_score(void)
  47:main_cm0p.c   **** {
 2185              		.loc 8 47 0
 2186              		.cfi_startproc
 2187              		@ args = 0, pretend = 0, frame = 8
 2188              		@ frame_needed = 0, uses_anonymous_args = 0
 2189 0000 F0B5     		push	{r4, r5, r6, r7, lr}
 2190              		.cfi_def_cfa_offset 20
 2191              		.cfi_offset 4, -20
 2192              		.cfi_offset 5, -16
 2193              		.cfi_offset 6, -12
 2194              		.cfi_offset 7, -8
 2195              		.cfi_offset 14, -4
 2196 0002 4746     		mov	r7, r8
 2197 0004 80B4     		push	{r7}
 2198              		.cfi_def_cfa_offset 24
 2199              		.cfi_offset 8, -24
 2200 0006 82B0     		sub	sp, sp, #8
 2201              		.cfi_def_cfa_offset 32
 2202              	.LVL256:
  48:main_cm0p.c   ****     int avg_light_score = 0;
  49:main_cm0p.c   ****     int avg_temp_score  = 0;
  50:main_cm0p.c   ****     int count           = queue_length(light_queue);
 2203              		.loc 8 50 0
 2204 0008 2F4B     		ldr	r3, .L126
 2205 000a 186A     		ldr	r0, [r3, #32]
ARM GAS  C:\Users\ASUS\AppData\Local\Temp\ccYYtRfk.s 			page 82


 2206 000c FFF7FEFF 		bl	queue_length
 2207              	.LVL257:
 2208 0010 8046     		mov	r8, r0
 2209              	.LVL258:
  51:main_cm0p.c   ****     int tmp             = 0;
 2210              		.loc 8 51 0
 2211 0012 0023     		movs	r3, #0
 2212 0014 0193     		str	r3, [sp, #4]
 2213              	.LVL259:
 2214              	.LBB93:
  52:main_cm0p.c   ****     
  53:main_cm0p.c   ****     for (int i = 0; i < count; i++) {
 2215              		.loc 8 53 0
 2216 0016 0025     		movs	r5, #0
 2217              	.LBE93:
  49:main_cm0p.c   ****     int count           = queue_length(light_queue);
 2218              		.loc 8 49 0
 2219 0018 0026     		movs	r6, #0
  48:main_cm0p.c   ****     int avg_temp_score  = 0;
 2220              		.loc 8 48 0
 2221 001a 0027     		movs	r7, #0
 2222              	.LBB94:
 2223              		.loc 8 53 0
 2224 001c 17E0     		b	.L120
 2225              	.LVL260:
 2226              	.L121:
  54:main_cm0p.c   ****         queue_dequeue(light_queue, &tmp);
 2227              		.loc 8 54 0 discriminator 3
 2228 001e 2A4C     		ldr	r4, .L126
 2229 0020 01A9     		add	r1, sp, #4
 2230 0022 206A     		ldr	r0, [r4, #32]
 2231 0024 FFF7FEFF 		bl	queue_dequeue
 2232              	.LVL261:
  55:main_cm0p.c   ****         avg_light_score += tmp;
 2233              		.loc 8 55 0 discriminator 3
 2234 0028 019B     		ldr	r3, [sp, #4]
 2235 002a 9C46     		mov	ip, r3
 2236 002c 6744     		add	r7, r7, ip
 2237              	.LVL262:
  56:main_cm0p.c   ****         queue_enqueue(light_queue, tmp);
 2238              		.loc 8 56 0 discriminator 3
 2239 002e 1900     		movs	r1, r3
 2240 0030 206A     		ldr	r0, [r4, #32]
 2241 0032 FFF7FEFF 		bl	queue_enqueue
 2242              	.LVL263:
  57:main_cm0p.c   ****         queue_dequeue(temp_queue, &tmp);
 2243              		.loc 8 57 0 discriminator 3
 2244 0036 01A9     		add	r1, sp, #4
 2245 0038 606A     		ldr	r0, [r4, #36]
 2246 003a FFF7FEFF 		bl	queue_dequeue
 2247              	.LVL264:
  58:main_cm0p.c   ****         avg_temp_score += tmp;
 2248              		.loc 8 58 0 discriminator 3
 2249 003e 019B     		ldr	r3, [sp, #4]
 2250 0040 9C46     		mov	ip, r3
 2251 0042 6644     		add	r6, r6, ip
 2252              	.LVL265:
ARM GAS  C:\Users\ASUS\AppData\Local\Temp\ccYYtRfk.s 			page 83


  59:main_cm0p.c   ****         queue_enqueue(temp_queue, tmp);
 2253              		.loc 8 59 0 discriminator 3
 2254 0044 606A     		ldr	r0, [r4, #36]
 2255 0046 1900     		movs	r1, r3
 2256 0048 FFF7FEFF 		bl	queue_enqueue
 2257              	.LVL266:
  53:main_cm0p.c   ****         queue_dequeue(light_queue, &tmp);
 2258              		.loc 8 53 0 discriminator 3
 2259 004c 0135     		adds	r5, r5, #1
 2260              	.LVL267:
 2261              	.L120:
  53:main_cm0p.c   ****         queue_dequeue(light_queue, &tmp);
 2262              		.loc 8 53 0 is_stmt 0 discriminator 1
 2263 004e 4545     		cmp	r5, r8
 2264 0050 E5DB     		blt	.L121
 2265              	.LBE94:
  60:main_cm0p.c   ****     }
  61:main_cm0p.c   ****     
  62:main_cm0p.c   ****     avg_light_score = avg_light_score / count;
 2266              		.loc 8 62 0 is_stmt 1
 2267 0052 4146     		mov	r1, r8
 2268 0054 3800     		movs	r0, r7
 2269 0056 FFF7FEFF 		bl	__aeabi_idiv
 2270              	.LVL268:
 2271 005a 0500     		movs	r5, r0
 2272              	.LVL269:
  63:main_cm0p.c   ****     avg_temp_score  = avg_temp_score / count;
 2273              		.loc 8 63 0
 2274 005c 4146     		mov	r1, r8
 2275 005e 3000     		movs	r0, r6
 2276              	.LVL270:
 2277 0060 FFF7FEFF 		bl	__aeabi_idiv
 2278              	.LVL271:
 2279 0064 0400     		movs	r4, r0
 2280              	.LVL272:
  64:main_cm0p.c   ****     
  65:main_cm0p.c   ****     /* TODO: calculate deviation for happy score (avg - targ_avg) */
  66:main_cm0p.c   ****     float happy_light_score = (float)avg_light_score / TARG_LIGHT_AVG * 100.0;
 2281              		.loc 8 66 0
 2282 0066 2800     		movs	r0, r5
 2283              	.LVL273:
 2284 0068 FFF7FEFF 		bl	__aeabi_i2f
 2285              	.LVL274:
 2286 006c 1749     		ldr	r1, .L126+4
 2287 006e FFF7FEFF 		bl	__aeabi_fdiv
 2288              	.LVL275:
 2289 0072 1749     		ldr	r1, .L126+8
 2290 0074 FFF7FEFF 		bl	__aeabi_fmul
 2291              	.LVL276:
 2292 0078 051C     		adds	r5, r0, #0
 2293              	.LVL277:
  67:main_cm0p.c   ****     if (happy_light_score > 100.0)
 2294              		.loc 8 67 0
 2295 007a 1549     		ldr	r1, .L126+8
 2296 007c FFF7FEFF 		bl	__aeabi_fcmpgt
 2297              	.LVL278:
 2298 0080 0028     		cmp	r0, #0
ARM GAS  C:\Users\ASUS\AppData\Local\Temp\ccYYtRfk.s 			page 84


 2299 0082 00D0     		beq	.L122
  68:main_cm0p.c   **** 	    happy_light_score = 100.0;
 2300              		.loc 8 68 0
 2301 0084 124D     		ldr	r5, .L126+8
 2302              	.LVL279:
 2303              	.L122:
  69:main_cm0p.c   **** 
  70:main_cm0p.c   ****     float happy_temp_score = (float)avg_temp_score / TARG_TEMP_AVG * 100.0;
 2304              		.loc 8 70 0
 2305 0086 2000     		movs	r0, r4
 2306 0088 FFF7FEFF 		bl	__aeabi_i2f
 2307              	.LVL280:
 2308 008c 0F49     		ldr	r1, .L126+4
 2309 008e FFF7FEFF 		bl	__aeabi_fdiv
 2310              	.LVL281:
 2311 0092 0F49     		ldr	r1, .L126+8
 2312 0094 FFF7FEFF 		bl	__aeabi_fmul
 2313              	.LVL282:
 2314 0098 041C     		adds	r4, r0, #0
 2315              	.LVL283:
  71:main_cm0p.c   ****     if (happy_temp_score > 100.0)
 2316              		.loc 8 71 0
 2317 009a 0D49     		ldr	r1, .L126+8
 2318 009c FFF7FEFF 		bl	__aeabi_fcmpgt
 2319              	.LVL284:
 2320 00a0 0028     		cmp	r0, #0
 2321 00a2 00D0     		beq	.L123
  72:main_cm0p.c   **** 	    happy_temp_score = 100.0;
 2322              		.loc 8 72 0
 2323 00a4 0A4C     		ldr	r4, .L126+8
 2324              	.LVL285:
 2325              	.L123:
  73:main_cm0p.c   ****     
  74:main_cm0p.c   ****     return (happy_light_score + happy_temp_score) / 2.0; //temp
 2326              		.loc 8 74 0
 2327 00a6 211C     		adds	r1, r4, #0
 2328 00a8 281C     		adds	r0, r5, #0
 2329 00aa FFF7FEFF 		bl	__aeabi_fadd
 2330              	.LVL286:
 2331 00ae FFF7FEFF 		bl	__aeabi_f2d
 2332              	.LVL287:
 2333 00b2 0022     		movs	r2, #0
 2334 00b4 074B     		ldr	r3, .L126+12
 2335 00b6 FFF7FEFF 		bl	__aeabi_dmul
 2336              	.LVL288:
 2337 00ba FFF7FEFF 		bl	__aeabi_d2iz
 2338              	.LVL289:
  75:main_cm0p.c   **** }
 2339              		.loc 8 75 0
 2340 00be 02B0     		add	sp, sp, #8
 2341              		@ sp needed
 2342              	.LVL290:
 2343              	.LVL291:
 2344              	.LVL292:
 2345 00c0 04BC     		pop	{r2}
 2346 00c2 9046     		mov	r8, r2
 2347 00c4 F0BD     		pop	{r4, r5, r6, r7, pc}
ARM GAS  C:\Users\ASUS\AppData\Local\Temp\ccYYtRfk.s 			page 85


 2348              	.L127:
 2349 00c6 C046     		.align	2
 2350              	.L126:
 2351 00c8 00000000 		.word	.LANCHOR0
 2352 00cc 0000C841 		.word	1103626240
 2353 00d0 0000C842 		.word	1120403456
 2354 00d4 0000E03F 		.word	1071644672
 2355              		.cfi_endproc
 2356              	.LFE489:
 2357              		.size	update_happy_score, .-update_happy_score
 2358              		.section	.text.main,"ax",%progbits
 2359              		.align	2
 2360              		.global	main
 2361              		.code	16
 2362              		.thumb_func
 2363              		.type	main, %function
 2364              	main:
 2365              	.LFB490:
  76:main_cm0p.c   **** 
  77:main_cm0p.c   **** int main(void)
  78:main_cm0p.c   **** {
 2366              		.loc 8 78 0
 2367              		.cfi_startproc
 2368              		@ args = 0, pretend = 0, frame = 8
 2369              		@ frame_needed = 0, uses_anonymous_args = 0
 2370 0000 F0B5     		push	{r4, r5, r6, r7, lr}
 2371              		.cfi_def_cfa_offset 20
 2372              		.cfi_offset 4, -20
 2373              		.cfi_offset 5, -16
 2374              		.cfi_offset 6, -12
 2375              		.cfi_offset 7, -8
 2376              		.cfi_offset 14, -4
 2377 0002 85B0     		sub	sp, sp, #20
 2378              		.cfi_def_cfa_offset 40
 2379              	.LBB95:
 2380              	.LBB96:
 2381              		.file 9 "Generated_Source\\PSoC6\\pdl\\cmsis/include/cmsis_gcc.h"
   1:Generated_Source\PSoC6\pdl\cmsis/include/cmsis_gcc.h **** /**************************************************************************//**
   2:Generated_Source\PSoC6\pdl\cmsis/include/cmsis_gcc.h ****  * @file     cmsis_gcc.h
   3:Generated_Source\PSoC6\pdl\cmsis/include/cmsis_gcc.h ****  * @brief    CMSIS compiler GCC header file
   4:Generated_Source\PSoC6\pdl\cmsis/include/cmsis_gcc.h ****  * @version  V5.0.3
   5:Generated_Source\PSoC6\pdl\cmsis/include/cmsis_gcc.h ****  * @date     16. January 2018
   6:Generated_Source\PSoC6\pdl\cmsis/include/cmsis_gcc.h ****  ******************************************************************************/
   7:Generated_Source\PSoC6\pdl\cmsis/include/cmsis_gcc.h **** /*
   8:Generated_Source\PSoC6\pdl\cmsis/include/cmsis_gcc.h ****  * Copyright (c) 2009-2017 ARM Limited. All rights reserved.
   9:Generated_Source\PSoC6\pdl\cmsis/include/cmsis_gcc.h ****  *
  10:Generated_Source\PSoC6\pdl\cmsis/include/cmsis_gcc.h ****  * SPDX-License-Identifier: Apache-2.0
  11:Generated_Source\PSoC6\pdl\cmsis/include/cmsis_gcc.h ****  *
  12:Generated_Source\PSoC6\pdl\cmsis/include/cmsis_gcc.h ****  * Licensed under the Apache License, Version 2.0 (the License); you may
  13:Generated_Source\PSoC6\pdl\cmsis/include/cmsis_gcc.h ****  * not use this file except in compliance with the License.
  14:Generated_Source\PSoC6\pdl\cmsis/include/cmsis_gcc.h ****  * You may obtain a copy of the License at
  15:Generated_Source\PSoC6\pdl\cmsis/include/cmsis_gcc.h ****  *
  16:Generated_Source\PSoC6\pdl\cmsis/include/cmsis_gcc.h ****  * www.apache.org/licenses/LICENSE-2.0
  17:Generated_Source\PSoC6\pdl\cmsis/include/cmsis_gcc.h ****  *
  18:Generated_Source\PSoC6\pdl\cmsis/include/cmsis_gcc.h ****  * Unless required by applicable law or agreed to in writing, software
  19:Generated_Source\PSoC6\pdl\cmsis/include/cmsis_gcc.h ****  * distributed under the License is distributed on an AS IS BASIS, WITHOUT
  20:Generated_Source\PSoC6\pdl\cmsis/include/cmsis_gcc.h ****  * WARRANTIES OR CONDITIONS OF ANY KIND, either express or implied.
ARM GAS  C:\Users\ASUS\AppData\Local\Temp\ccYYtRfk.s 			page 86


  21:Generated_Source\PSoC6\pdl\cmsis/include/cmsis_gcc.h ****  * See the License for the specific language governing permissions and
  22:Generated_Source\PSoC6\pdl\cmsis/include/cmsis_gcc.h ****  * limitations under the License.
  23:Generated_Source\PSoC6\pdl\cmsis/include/cmsis_gcc.h ****  */
  24:Generated_Source\PSoC6\pdl\cmsis/include/cmsis_gcc.h **** 
  25:Generated_Source\PSoC6\pdl\cmsis/include/cmsis_gcc.h **** #ifndef __CMSIS_GCC_H
  26:Generated_Source\PSoC6\pdl\cmsis/include/cmsis_gcc.h **** #define __CMSIS_GCC_H
  27:Generated_Source\PSoC6\pdl\cmsis/include/cmsis_gcc.h **** 
  28:Generated_Source\PSoC6\pdl\cmsis/include/cmsis_gcc.h **** /* ignore some GCC warnings */
  29:Generated_Source\PSoC6\pdl\cmsis/include/cmsis_gcc.h **** #pragma GCC diagnostic push
  30:Generated_Source\PSoC6\pdl\cmsis/include/cmsis_gcc.h **** #pragma GCC diagnostic ignored "-Wsign-conversion"
  31:Generated_Source\PSoC6\pdl\cmsis/include/cmsis_gcc.h **** #pragma GCC diagnostic ignored "-Wconversion"
  32:Generated_Source\PSoC6\pdl\cmsis/include/cmsis_gcc.h **** #pragma GCC diagnostic ignored "-Wunused-parameter"
  33:Generated_Source\PSoC6\pdl\cmsis/include/cmsis_gcc.h **** 
  34:Generated_Source\PSoC6\pdl\cmsis/include/cmsis_gcc.h **** /* Fallback for __has_builtin */
  35:Generated_Source\PSoC6\pdl\cmsis/include/cmsis_gcc.h **** #ifndef __has_builtin
  36:Generated_Source\PSoC6\pdl\cmsis/include/cmsis_gcc.h ****   #define __has_builtin(x) (0)
  37:Generated_Source\PSoC6\pdl\cmsis/include/cmsis_gcc.h **** #endif
  38:Generated_Source\PSoC6\pdl\cmsis/include/cmsis_gcc.h **** 
  39:Generated_Source\PSoC6\pdl\cmsis/include/cmsis_gcc.h **** /* CMSIS compiler specific defines */
  40:Generated_Source\PSoC6\pdl\cmsis/include/cmsis_gcc.h **** #ifndef   __ASM
  41:Generated_Source\PSoC6\pdl\cmsis/include/cmsis_gcc.h ****   #define __ASM                                  __asm
  42:Generated_Source\PSoC6\pdl\cmsis/include/cmsis_gcc.h **** #endif
  43:Generated_Source\PSoC6\pdl\cmsis/include/cmsis_gcc.h **** #ifndef   __INLINE
  44:Generated_Source\PSoC6\pdl\cmsis/include/cmsis_gcc.h ****   #define __INLINE                               inline
  45:Generated_Source\PSoC6\pdl\cmsis/include/cmsis_gcc.h **** #endif
  46:Generated_Source\PSoC6\pdl\cmsis/include/cmsis_gcc.h **** #ifndef   __STATIC_INLINE
  47:Generated_Source\PSoC6\pdl\cmsis/include/cmsis_gcc.h ****   #define __STATIC_INLINE                        static inline
  48:Generated_Source\PSoC6\pdl\cmsis/include/cmsis_gcc.h **** #endif
  49:Generated_Source\PSoC6\pdl\cmsis/include/cmsis_gcc.h **** #ifndef   __STATIC_FORCEINLINE                 
  50:Generated_Source\PSoC6\pdl\cmsis/include/cmsis_gcc.h ****   #define __STATIC_FORCEINLINE                   __attribute__((always_inline)) static inline
  51:Generated_Source\PSoC6\pdl\cmsis/include/cmsis_gcc.h **** #endif                                           
  52:Generated_Source\PSoC6\pdl\cmsis/include/cmsis_gcc.h **** #ifndef   __NO_RETURN
  53:Generated_Source\PSoC6\pdl\cmsis/include/cmsis_gcc.h ****   #define __NO_RETURN                            __attribute__((__noreturn__))
  54:Generated_Source\PSoC6\pdl\cmsis/include/cmsis_gcc.h **** #endif
  55:Generated_Source\PSoC6\pdl\cmsis/include/cmsis_gcc.h **** #ifndef   __USED
  56:Generated_Source\PSoC6\pdl\cmsis/include/cmsis_gcc.h ****   #define __USED                                 __attribute__((used))
  57:Generated_Source\PSoC6\pdl\cmsis/include/cmsis_gcc.h **** #endif
  58:Generated_Source\PSoC6\pdl\cmsis/include/cmsis_gcc.h **** #ifndef   __WEAK
  59:Generated_Source\PSoC6\pdl\cmsis/include/cmsis_gcc.h ****   #define __WEAK                                 __attribute__((weak))
  60:Generated_Source\PSoC6\pdl\cmsis/include/cmsis_gcc.h **** #endif
  61:Generated_Source\PSoC6\pdl\cmsis/include/cmsis_gcc.h **** #ifndef   __PACKED
  62:Generated_Source\PSoC6\pdl\cmsis/include/cmsis_gcc.h ****   #define __PACKED                               __attribute__((packed, aligned(1)))
  63:Generated_Source\PSoC6\pdl\cmsis/include/cmsis_gcc.h **** #endif
  64:Generated_Source\PSoC6\pdl\cmsis/include/cmsis_gcc.h **** #ifndef   __PACKED_STRUCT
  65:Generated_Source\PSoC6\pdl\cmsis/include/cmsis_gcc.h ****   #define __PACKED_STRUCT                        struct __attribute__((packed, aligned(1)))
  66:Generated_Source\PSoC6\pdl\cmsis/include/cmsis_gcc.h **** #endif
  67:Generated_Source\PSoC6\pdl\cmsis/include/cmsis_gcc.h **** #ifndef   __PACKED_UNION
  68:Generated_Source\PSoC6\pdl\cmsis/include/cmsis_gcc.h ****   #define __PACKED_UNION                         union __attribute__((packed, aligned(1)))
  69:Generated_Source\PSoC6\pdl\cmsis/include/cmsis_gcc.h **** #endif
  70:Generated_Source\PSoC6\pdl\cmsis/include/cmsis_gcc.h **** #ifndef   __UNALIGNED_UINT32        /* deprecated */
  71:Generated_Source\PSoC6\pdl\cmsis/include/cmsis_gcc.h ****   #pragma GCC diagnostic push
  72:Generated_Source\PSoC6\pdl\cmsis/include/cmsis_gcc.h ****   #pragma GCC diagnostic ignored "-Wpacked"
  73:Generated_Source\PSoC6\pdl\cmsis/include/cmsis_gcc.h ****   #pragma GCC diagnostic ignored "-Wattributes"
  74:Generated_Source\PSoC6\pdl\cmsis/include/cmsis_gcc.h ****   struct __attribute__((packed)) T_UINT32 { uint32_t v; };
  75:Generated_Source\PSoC6\pdl\cmsis/include/cmsis_gcc.h ****   #pragma GCC diagnostic pop
  76:Generated_Source\PSoC6\pdl\cmsis/include/cmsis_gcc.h ****   #define __UNALIGNED_UINT32(x)                  (((struct T_UINT32 *)(x))->v)
  77:Generated_Source\PSoC6\pdl\cmsis/include/cmsis_gcc.h **** #endif
ARM GAS  C:\Users\ASUS\AppData\Local\Temp\ccYYtRfk.s 			page 87


  78:Generated_Source\PSoC6\pdl\cmsis/include/cmsis_gcc.h **** #ifndef   __UNALIGNED_UINT16_WRITE
  79:Generated_Source\PSoC6\pdl\cmsis/include/cmsis_gcc.h ****   #pragma GCC diagnostic push
  80:Generated_Source\PSoC6\pdl\cmsis/include/cmsis_gcc.h ****   #pragma GCC diagnostic ignored "-Wpacked"
  81:Generated_Source\PSoC6\pdl\cmsis/include/cmsis_gcc.h ****   #pragma GCC diagnostic ignored "-Wattributes"
  82:Generated_Source\PSoC6\pdl\cmsis/include/cmsis_gcc.h ****   __PACKED_STRUCT T_UINT16_WRITE { uint16_t v; };
  83:Generated_Source\PSoC6\pdl\cmsis/include/cmsis_gcc.h ****   #pragma GCC diagnostic pop
  84:Generated_Source\PSoC6\pdl\cmsis/include/cmsis_gcc.h ****   #define __UNALIGNED_UINT16_WRITE(addr, val)    (void)((((struct T_UINT16_WRITE *)(void *)(addr))-
  85:Generated_Source\PSoC6\pdl\cmsis/include/cmsis_gcc.h **** #endif
  86:Generated_Source\PSoC6\pdl\cmsis/include/cmsis_gcc.h **** #ifndef   __UNALIGNED_UINT16_READ
  87:Generated_Source\PSoC6\pdl\cmsis/include/cmsis_gcc.h ****   #pragma GCC diagnostic push
  88:Generated_Source\PSoC6\pdl\cmsis/include/cmsis_gcc.h ****   #pragma GCC diagnostic ignored "-Wpacked"
  89:Generated_Source\PSoC6\pdl\cmsis/include/cmsis_gcc.h ****   #pragma GCC diagnostic ignored "-Wattributes"
  90:Generated_Source\PSoC6\pdl\cmsis/include/cmsis_gcc.h ****   __PACKED_STRUCT T_UINT16_READ { uint16_t v; };
  91:Generated_Source\PSoC6\pdl\cmsis/include/cmsis_gcc.h ****   #pragma GCC diagnostic pop
  92:Generated_Source\PSoC6\pdl\cmsis/include/cmsis_gcc.h ****   #define __UNALIGNED_UINT16_READ(addr)          (((const struct T_UINT16_READ *)(const void *)(add
  93:Generated_Source\PSoC6\pdl\cmsis/include/cmsis_gcc.h **** #endif
  94:Generated_Source\PSoC6\pdl\cmsis/include/cmsis_gcc.h **** #ifndef   __UNALIGNED_UINT32_WRITE
  95:Generated_Source\PSoC6\pdl\cmsis/include/cmsis_gcc.h ****   #pragma GCC diagnostic push
  96:Generated_Source\PSoC6\pdl\cmsis/include/cmsis_gcc.h ****   #pragma GCC diagnostic ignored "-Wpacked"
  97:Generated_Source\PSoC6\pdl\cmsis/include/cmsis_gcc.h ****   #pragma GCC diagnostic ignored "-Wattributes"
  98:Generated_Source\PSoC6\pdl\cmsis/include/cmsis_gcc.h ****   __PACKED_STRUCT T_UINT32_WRITE { uint32_t v; };
  99:Generated_Source\PSoC6\pdl\cmsis/include/cmsis_gcc.h ****   #pragma GCC diagnostic pop
 100:Generated_Source\PSoC6\pdl\cmsis/include/cmsis_gcc.h ****   #define __UNALIGNED_UINT32_WRITE(addr, val)    (void)((((struct T_UINT32_WRITE *)(void *)(addr))-
 101:Generated_Source\PSoC6\pdl\cmsis/include/cmsis_gcc.h **** #endif
 102:Generated_Source\PSoC6\pdl\cmsis/include/cmsis_gcc.h **** #ifndef   __UNALIGNED_UINT32_READ
 103:Generated_Source\PSoC6\pdl\cmsis/include/cmsis_gcc.h ****   #pragma GCC diagnostic push
 104:Generated_Source\PSoC6\pdl\cmsis/include/cmsis_gcc.h ****   #pragma GCC diagnostic ignored "-Wpacked"
 105:Generated_Source\PSoC6\pdl\cmsis/include/cmsis_gcc.h ****   #pragma GCC diagnostic ignored "-Wattributes"
 106:Generated_Source\PSoC6\pdl\cmsis/include/cmsis_gcc.h ****   __PACKED_STRUCT T_UINT32_READ { uint32_t v; };
 107:Generated_Source\PSoC6\pdl\cmsis/include/cmsis_gcc.h ****   #pragma GCC diagnostic pop
 108:Generated_Source\PSoC6\pdl\cmsis/include/cmsis_gcc.h ****   #define __UNALIGNED_UINT32_READ(addr)          (((const struct T_UINT32_READ *)(const void *)(add
 109:Generated_Source\PSoC6\pdl\cmsis/include/cmsis_gcc.h **** #endif
 110:Generated_Source\PSoC6\pdl\cmsis/include/cmsis_gcc.h **** #ifndef   __ALIGNED
 111:Generated_Source\PSoC6\pdl\cmsis/include/cmsis_gcc.h ****   #define __ALIGNED(x)                           __attribute__((aligned(x)))
 112:Generated_Source\PSoC6\pdl\cmsis/include/cmsis_gcc.h **** #endif
 113:Generated_Source\PSoC6\pdl\cmsis/include/cmsis_gcc.h **** #ifndef   __RESTRICT
 114:Generated_Source\PSoC6\pdl\cmsis/include/cmsis_gcc.h ****   #define __RESTRICT                             __restrict
 115:Generated_Source\PSoC6\pdl\cmsis/include/cmsis_gcc.h **** #endif
 116:Generated_Source\PSoC6\pdl\cmsis/include/cmsis_gcc.h **** 
 117:Generated_Source\PSoC6\pdl\cmsis/include/cmsis_gcc.h **** 
 118:Generated_Source\PSoC6\pdl\cmsis/include/cmsis_gcc.h **** /* ###########################  Core Function Access  ########################### */
 119:Generated_Source\PSoC6\pdl\cmsis/include/cmsis_gcc.h **** /** \ingroup  CMSIS_Core_FunctionInterface
 120:Generated_Source\PSoC6\pdl\cmsis/include/cmsis_gcc.h ****     \defgroup CMSIS_Core_RegAccFunctions CMSIS Core Register Access Functions
 121:Generated_Source\PSoC6\pdl\cmsis/include/cmsis_gcc.h ****   @{
 122:Generated_Source\PSoC6\pdl\cmsis/include/cmsis_gcc.h ****  */
 123:Generated_Source\PSoC6\pdl\cmsis/include/cmsis_gcc.h **** 
 124:Generated_Source\PSoC6\pdl\cmsis/include/cmsis_gcc.h **** /**
 125:Generated_Source\PSoC6\pdl\cmsis/include/cmsis_gcc.h ****   \brief   Enable IRQ Interrupts
 126:Generated_Source\PSoC6\pdl\cmsis/include/cmsis_gcc.h ****   \details Enables IRQ interrupts by clearing the I-bit in the CPSR.
 127:Generated_Source\PSoC6\pdl\cmsis/include/cmsis_gcc.h ****            Can only be executed in Privileged modes.
 128:Generated_Source\PSoC6\pdl\cmsis/include/cmsis_gcc.h ****  */
 129:Generated_Source\PSoC6\pdl\cmsis/include/cmsis_gcc.h **** __STATIC_FORCEINLINE void __enable_irq(void)
 130:Generated_Source\PSoC6\pdl\cmsis/include/cmsis_gcc.h **** {
 131:Generated_Source\PSoC6\pdl\cmsis/include/cmsis_gcc.h ****   __ASM volatile ("cpsie i" : : : "memory");
 2382              		.loc 9 131 0
 2383              		.syntax divided
 2384              	@ 131 "Generated_Source\PSoC6\pdl\cmsis/include/cmsis_gcc.h" 1
ARM GAS  C:\Users\ASUS\AppData\Local\Temp\ccYYtRfk.s 			page 88


 2385 0004 62B6     		cpsie i
 2386              	@ 0 "" 2
 2387              		.thumb
 2388              		.syntax unified
 2389              	.LBE96:
 2390              	.LBE95:
  79:main_cm0p.c   ****     __enable_irq(); /* Enable global interrupts. */
  80:main_cm0p.c   ****     Cy_SysEnableCM4(CY_CORTEX_M4_APPL_ADDR);
 2391              		.loc 8 80 0
 2392 0006 3348     		ldr	r0, .L132
 2393 0008 FFF7FEFF 		bl	Cy_SysEnableCM4
 2394              	.LVL293:
  81:main_cm0p.c   **** 
  82:main_cm0p.c   ****     /* UART Initialization */
  83:main_cm0p.c   ****     UART_Start();
 2395              		.loc 8 83 0
 2396 000c FFF7FEFF 		bl	UART_Start
 2397              	.LVL294:
  84:main_cm0p.c   ****     setvbuf(stdin,NULL,_IONBF,0);
 2398              		.loc 8 84 0
 2399 0010 314B     		ldr	r3, .L132+4
 2400 0012 1B68     		ldr	r3, [r3]
 2401 0014 5868     		ldr	r0, [r3, #4]
 2402 0016 0023     		movs	r3, #0
 2403 0018 0222     		movs	r2, #2
 2404 001a 0021     		movs	r1, #0
 2405 001c FFF7FEFF 		bl	setvbuf
 2406              	.LVL295:
  85:main_cm0p.c   ****     
  86:main_cm0p.c   ****     /* initiate I2C */
  87:main_cm0p.c   ****     I2C_Start();
 2407              		.loc 8 87 0
 2408 0020 FFF7FEFF 		bl	I2C_Start
 2409              	.LVL296:
  88:main_cm0p.c   ****     
  89:main_cm0p.c   ****     CyDelay(5000);
 2410              		.loc 8 89 0
 2411 0024 2D48     		ldr	r0, .L132+8
 2412 0026 FFF7FEFF 		bl	Cy_SysLib_Delay
 2413              	.LVL297:
  90:main_cm0p.c   ****     
  91:main_cm0p.c   ****     init_RTC();
 2414              		.loc 8 91 0
 2415 002a FFF7FEFF 		bl	init_RTC
 2416              	.LVL298:
  92:main_cm0p.c   ****     
  93:main_cm0p.c   ****     light_queue = queue_create();
 2417              		.loc 8 93 0
 2418 002e FFF7FEFF 		bl	queue_create
 2419              	.LVL299:
 2420 0032 2B4C     		ldr	r4, .L132+12
 2421 0034 2062     		str	r0, [r4, #32]
  94:main_cm0p.c   ****     temp_queue  = queue_create();
 2422              		.loc 8 94 0
 2423 0036 FFF7FEFF 		bl	queue_create
 2424              	.LVL300:
 2425 003a 6062     		str	r0, [r4, #36]
ARM GAS  C:\Users\ASUS\AppData\Local\Temp\ccYYtRfk.s 			page 89


  95:main_cm0p.c   ****     acc_queue   = queue_create();
 2426              		.loc 8 95 0
 2427 003c FFF7FEFF 		bl	queue_create
 2428              	.LVL301:
 2429 0040 A062     		str	r0, [r4, #40]
  96:main_cm0p.c   ****     gyro_queue  = queue_create();
 2430              		.loc 8 96 0
 2431 0042 FFF7FEFF 		bl	queue_create
 2432              	.LVL302:
 2433 0046 E062     		str	r0, [r4, #44]
 2434              	.LVL303:
 2435              	.L131:
  97:main_cm0p.c   ****     int *lightdata;
  98:main_cm0p.c   ****     int happy_score;
  99:main_cm0p.c   ****     int data_count = 0;
 100:main_cm0p.c   ****     
 101:main_cm0p.c   ****     for(;;)
 102:main_cm0p.c   ****     {
 103:main_cm0p.c   ****         lightMeasure(&xChannel, &yChannel, &zChannel, &temperature);
 2436              		.loc 8 103 0
 2437 0048 264F     		ldr	r7, .L132+16
 2438 004a 274E     		ldr	r6, .L132+20
 2439 004c 274D     		ldr	r5, .L132+24
 2440 004e 284B     		ldr	r3, .L132+28
 2441 0050 3A00     		movs	r2, r7
 2442 0052 3100     		movs	r1, r6
 2443 0054 2800     		movs	r0, r5
 2444 0056 FFF7FEFF 		bl	lightMeasure
 2445              	.LVL304:
 104:main_cm0p.c   ****         lightPrint(xChannel, yChannel, zChannel);
 2446              		.loc 8 104 0
 2447 005a 3A88     		ldrh	r2, [r7]
 2448 005c 3188     		ldrh	r1, [r6]
 2449 005e 2888     		ldrh	r0, [r5]
 2450 0060 FFF7FEFF 		bl	lightPrint
 2451              	.LVL305:
 105:main_cm0p.c   ****         light_process_data(xChannel, yChannel, zChannel, temp_queue, light_queue);
 2452              		.loc 8 105 0
 2453 0064 1E4C     		ldr	r4, .L132+12
 2454 0066 636A     		ldr	r3, [r4, #36]
 2455 0068 3A88     		ldrh	r2, [r7]
 2456 006a 3188     		ldrh	r1, [r6]
 2457 006c 2888     		ldrh	r0, [r5]
 2458 006e 256A     		ldr	r5, [r4, #32]
 2459 0070 0095     		str	r5, [sp]
 2460 0072 FFF7FEFF 		bl	light_process_data
 2461              	.LVL306:
 106:main_cm0p.c   ****         printf("Most recent Combined Light: %d\r\n"
 107:main_cm0p.c   ****             "Current Light_queue size: %d\r\n", light_queue->last->data, light_queue->size);
 2462              		.loc 8 107 0
 2463 0076 236A     		ldr	r3, [r4, #32]
 2464 0078 5968     		ldr	r1, [r3, #4]
 106:main_cm0p.c   ****         printf("Most recent Combined Light: %d\r\n"
 2465              		.loc 8 106 0
 2466 007a 9A68     		ldr	r2, [r3, #8]
 2467 007c 0968     		ldr	r1, [r1]
 2468 007e 1D48     		ldr	r0, .L132+32
ARM GAS  C:\Users\ASUS\AppData\Local\Temp\ccYYtRfk.s 			page 90


 2469 0080 FFF7FEFF 		bl	printf
 2470              	.LVL307:
 108:main_cm0p.c   ****         data_count++;
 109:main_cm0p.c   **** 
 110:main_cm0p.c   ****         CyDelay(1000);
 2471              		.loc 8 110 0
 2472 0084 FA20     		movs	r0, #250
 2473 0086 8000     		lsls	r0, r0, #2
 2474 0088 FFF7FEFF 		bl	Cy_SysLib_Delay
 2475              	.LVL308:
 111:main_cm0p.c   ****         
 112:main_cm0p.c   ****         /* If the alarm flag is set, clear it, toggle the LED, and step */
 113:main_cm0p.c   ****         if(alarmFlag)  /* the flag is set, meaning time has expired */
 2476              		.loc 8 113 0
 2477 008c E369     		ldr	r3, [r4, #28]
 2478 008e 002B     		cmp	r3, #0
 2479 0090 04D0     		beq	.L129
 114:main_cm0p.c   ****         {
 115:main_cm0p.c   **** 			/* We have handled this alarm */
 116:main_cm0p.c   **** 			alarmFlag = 0u;	
 2480              		.loc 8 116 0
 2481 0092 0022     		movs	r2, #0
 2482 0094 124B     		ldr	r3, .L132+12
 2483 0096 DA61     		str	r2, [r3, #28]
 117:main_cm0p.c   ****             
 118:main_cm0p.c   ****             /* Configure the next RTC alarm, add the interval to the time
 119:main_cm0p.c   ****                for the next alarm */
 120:main_cm0p.c   ****             RtcStepAlarm();
 2484              		.loc 8 120 0
 2485 0098 FFF7FEFF 		bl	RtcStepAlarm
 2486              	.LVL309:
 2487              	.L129:
 121:main_cm0p.c   ****         }
 122:main_cm0p.c   **** 
 123:main_cm0p.c   ****         happy_score = update_happy_score();
 2488              		.loc 8 123 0
 2489 009c FFF7FEFF 		bl	update_happy_score
 2490              	.LVL310:
 2491 00a0 0100     		movs	r1, r0
 2492              	.LVL311:
 124:main_cm0p.c   ****         printf("Happy Score: %d\r\n", happy_score);
 2493              		.loc 8 124 0
 2494 00a2 1548     		ldr	r0, .L132+36
 2495              	.LVL312:
 2496 00a4 FFF7FEFF 		bl	printf
 2497              	.LVL313:
 125:main_cm0p.c   ****         if (light_queue->size > 23) {
 2498              		.loc 8 125 0
 2499 00a8 0D4B     		ldr	r3, .L132+12
 2500 00aa 186A     		ldr	r0, [r3, #32]
 2501 00ac 8368     		ldr	r3, [r0, #8]
 2502 00ae 172B     		cmp	r3, #23
 2503 00b0 0CDD     		ble	.L130
 2504              	.LBB97:
 126:main_cm0p.c   ****             int tmp = 0;
 2505              		.loc 8 126 0
 2506 00b2 0023     		movs	r3, #0
ARM GAS  C:\Users\ASUS\AppData\Local\Temp\ccYYtRfk.s 			page 91


 2507 00b4 0393     		str	r3, [sp, #12]
 127:main_cm0p.c   ****             queue_dequeue(light_queue, &tmp);
 2508              		.loc 8 127 0
 2509 00b6 03A9     		add	r1, sp, #12
 2510 00b8 FFF7FEFF 		bl	queue_dequeue
 2511              	.LVL314:
 128:main_cm0p.c   ****             queue_dequeue(temp_queue, &tmp);
 2512              		.loc 8 128 0
 2513 00bc 084B     		ldr	r3, .L132+12
 2514 00be 586A     		ldr	r0, [r3, #36]
 2515 00c0 03A9     		add	r1, sp, #12
 2516 00c2 FFF7FEFF 		bl	queue_dequeue
 2517              	.LVL315:
 129:main_cm0p.c   ****             printf("readjusted queue sizes");
 2518              		.loc 8 129 0
 2519 00c6 0D48     		ldr	r0, .L132+40
 2520 00c8 FFF7FEFF 		bl	printf
 2521              	.LVL316:
 2522              	.L130:
 2523              	.LBE97:
 130:main_cm0p.c   ****         }
 131:main_cm0p.c   ****         //updateFSM(&fsm, accInactive, lightFlag, tempFlag);
 132:main_cm0p.c   ****         
 133:main_cm0p.c   ****         /* Go to Deep Sleep mode until next interrupt  */
 134:main_cm0p.c   ****         Cy_SysPm_DeepSleep(CY_SYSPM_WAIT_FOR_INTERRUPT);
 2524              		.loc 8 134 0
 2525 00cc 0020     		movs	r0, #0
 2526 00ce FFF7FEFF 		bl	Cy_SysPm_CpuEnterDeepSleep
 2527              	.LVL317:
 135:main_cm0p.c   ****     }
 2528              		.loc 8 135 0
 2529 00d2 B9E7     		b	.L131
 2530              	.L133:
 2531              		.align	2
 2532              	.L132:
 2533 00d4 00000810 		.word	268959744
 2534 00d8 00000000 		.word	_impure_ptr
 2535 00dc 88130000 		.word	5000
 2536 00e0 00000000 		.word	.LANCHOR0
 2537 00e4 00000000 		.word	zChannel
 2538 00e8 00000000 		.word	yChannel
 2539 00ec 00000000 		.word	xChannel
 2540 00f0 00000000 		.word	temperature
 2541 00f4 64020000 		.word	.LC57
 2542 00f8 A4020000 		.word	.LC59
 2543 00fc B8020000 		.word	.LC61
 2544              		.cfi_endproc
 2545              	.LFE490:
 2546              		.size	main, .-main
 2547              		.global	gyro_queue
 2548              		.global	acc_queue
 2549              		.global	temp_queue
 2550              		.global	light_queue
 2551              		.comm	gyroZ,2,2
 2552              		.comm	gyroY,2,2
 2553              		.comm	gyroX,2,2
 2554              		.comm	accZ,2,2
ARM GAS  C:\Users\ASUS\AppData\Local\Temp\ccYYtRfk.s 			page 92


 2555              		.comm	accY,2,2
 2556              		.comm	accX,2,2
 2557              		.comm	zChannel,2,2
 2558              		.comm	yChannel,2,2
 2559              		.comm	xChannel,2,2
 2560              		.global	alarmConfig
 2561              		.global	prev_gZ
 2562              		.global	prev_gY
 2563              		.global	prev_gX
 2564              		.global	accInactive
 2565              		.global	lightFlag
 2566              		.global	tempFlag
 2567              		.comm	temperature,2,2
 2568              		.data
 2569              		.align	2
 2570              		.set	.LANCHOR1,. + 0
 2571              		.type	alarmConfig, %object
 2572              		.size	alarmConfig, 48
 2573              	alarmConfig:
 2574 0000 00000000 		.word	0
 2575 0004 00       		.byte	0
 2576 0005 000000   		.space	3
 2577 0008 00000000 		.word	0
 2578 000c 00       		.byte	0
 2579 000d 000000   		.space	3
 2580 0010 01000000 		.word	1
 2581 0014 00       		.byte	0
 2582 0015 000000   		.space	3
 2583 0018 04000000 		.word	4
 2584 001c 00       		.byte	0
 2585 001d 000000   		.space	3
 2586 0020 0B000000 		.word	11
 2587 0024 00       		.byte	0
 2588 0025 000000   		.space	3
 2589 0028 03000000 		.word	3
 2590 002c 00       		.byte	0
 2591 002d 01       		.byte	1
 2592 002e 0000     		.space	2
 2593              		.section	.rodata.str1.4,"aMS",%progbits,1
 2594              		.align	2
 2595              	.LC2:
 2596 0000 0D00     		.ascii	"\015\000"
 2597 0002 0000     		.space	2
 2598              	.LC4:
 2599 0004 49443A20 		.ascii	"ID: %d      Value: %d       Previous: %d\015\012\000"
 2599      25642020 
 2599      20202020 
 2599      56616C75 
 2599      653A2025 
 2600 002f 00       		.space	1
 2601              	.LC9:
 2602 0030 48656C6C 		.ascii	"Hello world!\015\000"
 2602      6F20776F 
 2602      726C6421 
 2602      0D00
 2603 003e 0000     		.space	2
 2604              	.LC13:
ARM GAS  C:\Users\ASUS\AppData\Local\Temp\ccYYtRfk.s 			page 93


 2605 0040 53656E64 		.ascii	"SendStart: %X,WriteByte: %X,SendReStart: %X,ReadByt"
 2605      53746172 
 2605      743A2025 
 2605      582C5772 
 2605      69746542 
 2606 0073 653A2025 		.ascii	"e: %X,ReadByte2: %XSendStop: %X\015\012\000"
 2606      582C5265 
 2606      61644279 
 2606      7465323A 
 2606      20255853 
 2607 0095 000000   		.space	3
 2608              	.LC16:
 2609 0098 53656E64 		.ascii	"SendStart: %X, WriteByte: %X,%X, SendStop: %X\015\012"
 2609      53746172 
 2609      743A2025 
 2609      582C2057 
 2609      72697465 
 2610 00c7 00       		.ascii	"\000"
 2611              	.LC19:
 2612 00c8 0D0A0D0A 		.ascii	"\015\012\015\012Light Sensor Data:\015\012Red Light"
 2612      4C696768 
 2612      74205365 
 2612      6E736F72 
 2612      20446174 
 2613 00e9 3A202564 		.ascii	": %d\015\012Green Light: %d\015\012Blue Light: %d\015"
 2613      0D0A4772 
 2613      65656E20 
 2613      4C696768 
 2613      743A2025 
 2614 010f 0A54656D 		.ascii	"\012Temperature: %.2f\015\012\000"
 2614      70657261 
 2614      74757265 
 2614      3A20252E 
 2614      32660D0A 
 2615              	.LC22:
 2616 0124 4661696C 		.ascii	"Failed to queue light data.\015\000"
 2616      65642074 
 2616      6F207175 
 2616      65756520 
 2616      6C696768 
 2617 0141 000000   		.space	3
 2618              	.LC24:
 2619 0144 4661696C 		.ascii	"Failed to queue temperature data.\015\000"
 2619      65642074 
 2619      6F207175 
 2619      65756520 
 2619      74656D70 
 2620 0167 00       		.space	1
 2621              	.LC31:
 2622 0168 0D0A0D0A 		.ascii	"\015\012\015\012Accelerometer Data:\015\012X Accele"
 2622      41636365 
 2622      6C65726F 
 2622      6D657465 
 2622      72204461 
 2623 0189 72617469 		.ascii	"ration: %d\015\012Y Acceleration: %d\015\012Z Accel"
 2623      6F6E3A20 
 2623      25640D0A 
ARM GAS  C:\Users\ASUS\AppData\Local\Temp\ccYYtRfk.s 			page 94


 2623      59204163 
 2623      63656C65 
 2624 01b0 65726174 		.ascii	"eration: %d\015\012\000"
 2624      696F6E3A 
 2624      2025640D 
 2624      0A00
 2625 01be 0000     		.space	2
 2626              	.LC33:
 2627 01c0 0D0A0D0A 		.ascii	"\015\012\015\012Gyroscope Data:\015\012X Gyroscope:"
 2627      4779726F 
 2627      73636F70 
 2627      65204461 
 2627      74613A0D 
 2628 01e1 2025640D 		.ascii	" %d\015\012Y Gyroscope: %d\015\012Z Gyroscope: %d\015"
 2628      0A592047 
 2628      79726F73 
 2628      636F7065 
 2628      3A202564 
 2629 0207 0A00     		.ascii	"\012\000"
 2630 0209 000000   		.space	3
 2631              	.LC35:
 2632 020c 4661696C 		.ascii	"Failed to queue accelerometer data.\015\000"
 2632      65642074 
 2632      6F207175 
 2632      65756520 
 2632      61636365 
 2633 0231 000000   		.space	3
 2634              	.LC39:
 2635 0234 4661696C 		.ascii	"Failed to queue gyroscope data.\015\000"
 2635      65642074 
 2635      6F207175 
 2635      65756520 
 2635      6779726F 
 2636 0255 000000   		.space	3
 2637              	.LC43:
 2638 0258 5254435F 		.ascii	"RTC_Alarm.h\000"
 2638      416C6172 
 2638      6D2E6800 
 2639              	.LC57:
 2640 0264 4D6F7374 		.ascii	"Most recent Combined Light: %d\015\012Current Light"
 2640      20726563 
 2640      656E7420 
 2640      436F6D62 
 2640      696E6564 
 2641 0291 5F717565 		.ascii	"_queue size: %d\015\012\000"
 2641      75652073 
 2641      697A653A 
 2641      2025640D 
 2641      0A00
 2642 02a3 00       		.space	1
 2643              	.LC59:
 2644 02a4 48617070 		.ascii	"Happy Score: %d\015\012\000"
 2644      79205363 
 2644      6F72653A 
 2644      2025640D 
 2644      0A00
 2645 02b6 0000     		.space	2
ARM GAS  C:\Users\ASUS\AppData\Local\Temp\ccYYtRfk.s 			page 95


 2646              	.LC61:
 2647 02b8 72656164 		.ascii	"readjusted queue sizes\000"
 2647      6A757374 
 2647      65642071 
 2647      75657565 
 2647      2073697A 
 2648              		.bss
 2649              		.align	2
 2650              		.set	.LANCHOR0,. + 0
 2651              		.type	data, %object
 2652              		.size	data, 1
 2653              	data:
 2654 0000 00       		.space	1
 2655 0001 000000   		.space	3
 2656              		.type	lightFlag, %object
 2657              		.size	lightFlag, 4
 2658              	lightFlag:
 2659 0004 00000000 		.space	4
 2660              		.type	tempFlag, %object
 2661              		.size	tempFlag, 4
 2662              	tempFlag:
 2663 0008 00000000 		.space	4
 2664              		.type	accInactive, %object
 2665              		.size	accInactive, 4
 2666              	accInactive:
 2667 000c 00000000 		.space	4
 2668              		.type	prev_gX, %object
 2669              		.size	prev_gX, 4
 2670              	prev_gX:
 2671 0010 00000000 		.space	4
 2672              		.type	prev_gY, %object
 2673              		.size	prev_gY, 4
 2674              	prev_gY:
 2675 0014 00000000 		.space	4
 2676              		.type	prev_gZ, %object
 2677              		.size	prev_gZ, 4
 2678              	prev_gZ:
 2679 0018 00000000 		.space	4
 2680              		.type	alarmFlag, %object
 2681              		.size	alarmFlag, 4
 2682              	alarmFlag:
 2683 001c 00000000 		.space	4
 2684              		.type	light_queue, %object
 2685              		.size	light_queue, 4
 2686              	light_queue:
 2687 0020 00000000 		.space	4
 2688              		.type	temp_queue, %object
 2689              		.size	temp_queue, 4
 2690              	temp_queue:
 2691 0024 00000000 		.space	4
 2692              		.type	acc_queue, %object
 2693              		.size	acc_queue, 4
 2694              	acc_queue:
 2695 0028 00000000 		.space	4
 2696              		.type	gyro_queue, %object
 2697              		.size	gyro_queue, 4
 2698              	gyro_queue:
ARM GAS  C:\Users\ASUS\AppData\Local\Temp\ccYYtRfk.s 			page 96


 2699 002c 00000000 		.space	4
 2700              		.text
 2701              	.Letext0:
 2702              		.file 10 "Generated_Source\\PSoC6\\pdl\\devices/psoc6/include/cyble_416045_02.h"
 2703              		.file 11 "d:\\program files (x86)\\cypress\\psoc creator\\4.2\\psoc creator\\import\\gnu\\arm\\5.4
 2704              		.file 12 "d:\\program files (x86)\\cypress\\psoc creator\\4.2\\psoc creator\\import\\gnu\\arm\\5.4
 2705              		.file 13 "Generated_Source\\PSoC6\\pdl\\devices/psoc6/include/ip/cyip_scb.h"
 2706              		.file 14 "Generated_Source\\PSoC6\\pdl\\devices/psoc6/include/psoc6_01_config.h"
 2707              		.file 15 "Generated_Source\\PSoC6\\pdl\\drivers/peripheral/device/cy_device.h"
 2708              		.file 16 "Generated_Source\\PSoC6\\pdl\\drivers/peripheral/syslib/cy_syslib.h"
 2709              		.file 17 "Generated_Source\\PSoC6\\pdl\\drivers/peripheral/sysint/cy_sysint.h"
 2710              		.file 18 "Generated_Source\\PSoC6\\pdl\\drivers/peripheral/syspm/cy_syspm.h"
 2711              		.file 19 "Generated_Source\\PSoC6\\pdl\\drivers/peripheral/rtc/cy_rtc.h"
 2712              		.file 20 "Generated_Source\\PSoC6\\pdl\\drivers/peripheral/scb/cy_scb_i2c.h"
 2713              		.file 21 "Generated_Source\\PSoC6\\pdl\\drivers/peripheral/scb/cy_scb_uart.h"
 2714              		.file 22 "d:\\program files (x86)\\cypress\\psoc creator\\4.2\\psoc creator\\import\\gnu\\arm\\5.4
 2715              		.file 23 "d:\\program files (x86)\\cypress\\psoc creator\\4.2\\psoc creator\\import\\gnu\\arm\\5.4
 2716              		.file 24 "d:\\program files (x86)\\cypress\\psoc creator\\4.2\\psoc creator\\import\\gnu\\arm\\5.4
 2717              		.file 25 "d:\\program files (x86)\\cypress\\psoc creator\\4.2\\psoc creator\\import\\gnu\\arm\\5.4
 2718              		.file 26 "Generated_Source\\PSoC6\\pdl\\middleware/ble/cy_ble_stack.h"
 2719              		.file 27 "Generated_Source\\PSoC6\\pdl\\middleware/ble/cy_ble_stack_host_main.h"
 2720              		.file 28 "Generated_Source\\PSoC6\\pdl\\middleware/ble/cy_ble_stack_gatt.h"
 2721              		.file 29 "Generated_Source\\PSoC6\\pdl\\middleware/ble/cy_ble_gap.h"
 2722              		.file 30 "Generated_Source\\PSoC6\\pdl\\middleware/ble/cy_ble_stack_gatt_server.h"
 2723              		.file 31 "Queue.h"
 2724              		.file 32 "Generated_Source\\PSoC6/cyfitter_sysint_cfg.h"
 2725              		.file 33 "Generated_Source\\PSoC6/UART.h"
 2726              		.file 34 "Generated_Source\\PSoC6/RTC.h"
 2727              		.file 35 "d:\\program files (x86)\\cypress\\psoc creator\\4.2\\psoc creator\\import\\gnu\\arm\\5.4
 2728              		.file 36 "Generated_Source\\PSoC6\\pdl\\middleware/ble/cy_ble_gatt.h"
 2729              		.file 37 "Generated_Source\\PSoC6/BLE.h"
 2730              		.file 38 "Generated_Source\\PSoC6\\pdl\\middleware/ble/cy_ble.h"
 2731              		.file 39 "./system_psoc6.h"
 2732              		.file 40 "<built-in>"
 2733              		.section	.debug_info,"",%progbits
 2734              	.Ldebug_info0:
 2735 0000 33400000 		.4byte	0x4033
 2736 0004 0400     		.2byte	0x4
 2737 0006 00000000 		.4byte	.Ldebug_abbrev0
 2738 000a 04       		.byte	0x4
 2739 000b 01       		.uleb128 0x1
 2740 000c CC0D0000 		.4byte	.LASF894
 2741 0010 0C       		.byte	0xc
 2742 0011 5D0D0000 		.4byte	.LASF895
 2743 0015 5C200000 		.4byte	.LASF896
 2744 0019 18000000 		.4byte	.Ldebug_ranges0+0x18
 2745 001d 00000000 		.4byte	0
 2746 0021 00000000 		.4byte	.Ldebug_line0
 2747 0025 02       		.uleb128 0x2
 2748 0026 02       		.byte	0x2
 2749 0027 1C010000 		.4byte	0x11c
 2750 002b 0A       		.byte	0xa
 2751 002c 24       		.byte	0x24
 2752 002d 1C010000 		.4byte	0x11c
 2753 0031 03       		.uleb128 0x3
 2754 0032 D62D0000 		.4byte	.LASF0
 2755 0036 71       		.sleb128 -15
ARM GAS  C:\Users\ASUS\AppData\Local\Temp\ccYYtRfk.s 			page 97


 2756 0037 03       		.uleb128 0x3
 2757 0038 AB190000 		.4byte	.LASF1
 2758 003c 72       		.sleb128 -14
 2759 003d 03       		.uleb128 0x3
 2760 003e 9E040000 		.4byte	.LASF2
 2761 0042 73       		.sleb128 -13
 2762 0043 03       		.uleb128 0x3
 2763 0044 59210000 		.4byte	.LASF3
 2764 0048 7B       		.sleb128 -5
 2765 0049 03       		.uleb128 0x3
 2766 004a C7200000 		.4byte	.LASF4
 2767 004e 7E       		.sleb128 -2
 2768 004f 03       		.uleb128 0x3
 2769 0050 B10C0000 		.4byte	.LASF5
 2770 0054 7F       		.sleb128 -1
 2771 0055 04       		.uleb128 0x4
 2772 0056 12050000 		.4byte	.LASF6
 2773 005a 00       		.byte	0
 2774 005b 04       		.uleb128 0x4
 2775 005c 47010000 		.4byte	.LASF7
 2776 0060 01       		.byte	0x1
 2777 0061 04       		.uleb128 0x4
 2778 0062 8D220000 		.4byte	.LASF8
 2779 0066 02       		.byte	0x2
 2780 0067 04       		.uleb128 0x4
 2781 0068 14110000 		.4byte	.LASF9
 2782 006c 03       		.byte	0x3
 2783 006d 04       		.uleb128 0x4
 2784 006e 6C380000 		.4byte	.LASF10
 2785 0072 04       		.byte	0x4
 2786 0073 04       		.uleb128 0x4
 2787 0074 D7340000 		.4byte	.LASF11
 2788 0078 05       		.byte	0x5
 2789 0079 04       		.uleb128 0x4
 2790 007a A51A0000 		.4byte	.LASF12
 2791 007e 06       		.byte	0x6
 2792 007f 04       		.uleb128 0x4
 2793 0080 78020000 		.4byte	.LASF13
 2794 0084 07       		.byte	0x7
 2795 0085 04       		.uleb128 0x4
 2796 0086 8D3F0000 		.4byte	.LASF14
 2797 008a 08       		.byte	0x8
 2798 008b 04       		.uleb128 0x4
 2799 008c B1250000 		.4byte	.LASF15
 2800 0090 09       		.byte	0x9
 2801 0091 04       		.uleb128 0x4
 2802 0092 45020000 		.4byte	.LASF16
 2803 0096 0A       		.byte	0xa
 2804 0097 04       		.uleb128 0x4
 2805 0098 75230000 		.4byte	.LASF17
 2806 009c 0B       		.byte	0xb
 2807 009d 04       		.uleb128 0x4
 2808 009e FE350000 		.4byte	.LASF18
 2809 00a2 0C       		.byte	0xc
 2810 00a3 04       		.uleb128 0x4
 2811 00a4 A6070000 		.4byte	.LASF19
 2812 00a8 0D       		.byte	0xd
ARM GAS  C:\Users\ASUS\AppData\Local\Temp\ccYYtRfk.s 			page 98


 2813 00a9 04       		.uleb128 0x4
 2814 00aa 11230000 		.4byte	.LASF20
 2815 00ae 0E       		.byte	0xe
 2816 00af 04       		.uleb128 0x4
 2817 00b0 812A0000 		.4byte	.LASF21
 2818 00b4 0F       		.byte	0xf
 2819 00b5 04       		.uleb128 0x4
 2820 00b6 1D130000 		.4byte	.LASF22
 2821 00ba 10       		.byte	0x10
 2822 00bb 04       		.uleb128 0x4
 2823 00bc 603A0000 		.4byte	.LASF23
 2824 00c0 11       		.byte	0x11
 2825 00c1 04       		.uleb128 0x4
 2826 00c2 71360000 		.4byte	.LASF24
 2827 00c6 12       		.byte	0x12
 2828 00c7 04       		.uleb128 0x4
 2829 00c8 9D1C0000 		.4byte	.LASF25
 2830 00cc 13       		.byte	0x13
 2831 00cd 04       		.uleb128 0x4
 2832 00ce 99400000 		.4byte	.LASF26
 2833 00d2 14       		.byte	0x14
 2834 00d3 04       		.uleb128 0x4
 2835 00d4 AF260000 		.4byte	.LASF27
 2836 00d8 15       		.byte	0x15
 2837 00d9 04       		.uleb128 0x4
 2838 00da 36280000 		.4byte	.LASF28
 2839 00de 16       		.byte	0x16
 2840 00df 04       		.uleb128 0x4
 2841 00e0 940A0000 		.4byte	.LASF29
 2842 00e4 17       		.byte	0x17
 2843 00e5 04       		.uleb128 0x4
 2844 00e6 28330000 		.4byte	.LASF30
 2845 00ea 18       		.byte	0x18
 2846 00eb 04       		.uleb128 0x4
 2847 00ec 712E0000 		.4byte	.LASF31
 2848 00f0 19       		.byte	0x19
 2849 00f1 04       		.uleb128 0x4
 2850 00f2 AC150000 		.4byte	.LASF32
 2851 00f6 1A       		.byte	0x1a
 2852 00f7 04       		.uleb128 0x4
 2853 00f8 C23D0000 		.4byte	.LASF33
 2854 00fc 1B       		.byte	0x1b
 2855 00fd 04       		.uleb128 0x4
 2856 00fe 66390000 		.4byte	.LASF34
 2857 0102 1C       		.byte	0x1c
 2858 0103 04       		.uleb128 0x4
 2859 0104 A1200000 		.4byte	.LASF35
 2860 0108 1D       		.byte	0x1d
 2861 0109 04       		.uleb128 0x4
 2862 010a 95020000 		.4byte	.LASF36
 2863 010e 1E       		.byte	0x1e
 2864 010f 04       		.uleb128 0x4
 2865 0110 A53F0000 		.4byte	.LASF37
 2866 0114 1F       		.byte	0x1f
 2867 0115 04       		.uleb128 0x4
 2868 0116 E2170000 		.4byte	.LASF38
 2869 011a F0       		.byte	0xf0
ARM GAS  C:\Users\ASUS\AppData\Local\Temp\ccYYtRfk.s 			page 99


 2870 011b 00       		.byte	0
 2871 011c 05       		.uleb128 0x5
 2872 011d 02       		.byte	0x2
 2873 011e 05       		.byte	0x5
 2874 011f 1B350000 		.4byte	.LASF187
 2875 0123 06       		.uleb128 0x6
 2876 0124 431B0000 		.4byte	.LASF189
 2877 0128 0A       		.byte	0xa
 2878 0129 F4       		.byte	0xf4
 2879 012a 25000000 		.4byte	0x25
 2880 012e 02       		.uleb128 0x2
 2881 012f 01       		.byte	0x1
 2882 0130 B3040000 		.4byte	0x4b3
 2883 0134 0A       		.byte	0xa
 2884 0135 FD       		.byte	0xfd
 2885 0136 B3040000 		.4byte	0x4b3
 2886 013a 04       		.uleb128 0x4
 2887 013b 05120000 		.4byte	.LASF39
 2888 013f 00       		.byte	0
 2889 0140 04       		.uleb128 0x4
 2890 0141 2A3D0000 		.4byte	.LASF40
 2891 0145 01       		.byte	0x1
 2892 0146 04       		.uleb128 0x4
 2893 0147 421E0000 		.4byte	.LASF41
 2894 014b 02       		.byte	0x2
 2895 014c 04       		.uleb128 0x4
 2896 014d 561F0000 		.4byte	.LASF42
 2897 0151 03       		.byte	0x3
 2898 0152 04       		.uleb128 0x4
 2899 0153 59070000 		.4byte	.LASF43
 2900 0157 04       		.byte	0x4
 2901 0158 04       		.uleb128 0x4
 2902 0159 54030000 		.4byte	.LASF44
 2903 015d 05       		.byte	0x5
 2904 015e 04       		.uleb128 0x4
 2905 015f 652A0000 		.4byte	.LASF45
 2906 0163 06       		.byte	0x6
 2907 0164 04       		.uleb128 0x4
 2908 0165 01130000 		.4byte	.LASF46
 2909 0169 07       		.byte	0x7
 2910 016a 04       		.uleb128 0x4
 2911 016b 180F0000 		.4byte	.LASF47
 2912 016f 08       		.byte	0x8
 2913 0170 04       		.uleb128 0x4
 2914 0171 55360000 		.4byte	.LASF48
 2915 0175 09       		.byte	0x9
 2916 0176 04       		.uleb128 0x4
 2917 0177 66370000 		.4byte	.LASF49
 2918 017b 0A       		.byte	0xa
 2919 017c 04       		.uleb128 0x4
 2920 017d 951D0000 		.4byte	.LASF50
 2921 0181 0B       		.byte	0xb
 2922 0182 04       		.uleb128 0x4
 2923 0183 53050000 		.4byte	.LASF51
 2924 0187 0C       		.byte	0xc
 2925 0188 04       		.uleb128 0x4
 2926 0189 98010000 		.4byte	.LASF52
ARM GAS  C:\Users\ASUS\AppData\Local\Temp\ccYYtRfk.s 			page 100


 2927 018d 0D       		.byte	0xd
 2928 018e 04       		.uleb128 0x4
 2929 018f 99280000 		.4byte	.LASF53
 2930 0193 0E       		.byte	0xe
 2931 0194 04       		.uleb128 0x4
 2932 0195 8E260000 		.4byte	.LASF54
 2933 0199 0F       		.byte	0xf
 2934 019a 04       		.uleb128 0x4
 2935 019b CE390000 		.4byte	.LASF55
 2936 019f 10       		.byte	0x10
 2937 01a0 04       		.uleb128 0x4
 2938 01a1 9D350000 		.4byte	.LASF56
 2939 01a5 11       		.byte	0x11
 2940 01a6 04       		.uleb128 0x4
 2941 01a7 E9350000 		.4byte	.LASF57
 2942 01ab 12       		.byte	0x12
 2943 01ac 04       		.uleb128 0x4
 2944 01ad 153F0000 		.4byte	.LASF58
 2945 01b1 13       		.byte	0x13
 2946 01b2 04       		.uleb128 0x4
 2947 01b3 07290000 		.4byte	.LASF59
 2948 01b7 14       		.byte	0x14
 2949 01b8 04       		.uleb128 0x4
 2950 01b9 D33E0000 		.4byte	.LASF60
 2951 01bd 15       		.byte	0x15
 2952 01be 04       		.uleb128 0x4
 2953 01bf B5370000 		.4byte	.LASF61
 2954 01c3 16       		.byte	0x16
 2955 01c4 04       		.uleb128 0x4
 2956 01c5 B3350000 		.4byte	.LASF62
 2957 01c9 17       		.byte	0x17
 2958 01ca 04       		.uleb128 0x4
 2959 01cb 9A100000 		.4byte	.LASF63
 2960 01cf 18       		.byte	0x18
 2961 01d0 04       		.uleb128 0x4
 2962 01d1 783A0000 		.4byte	.LASF64
 2963 01d5 19       		.byte	0x19
 2964 01d6 04       		.uleb128 0x4
 2965 01d7 97380000 		.4byte	.LASF65
 2966 01db 1A       		.byte	0x1a
 2967 01dc 04       		.uleb128 0x4
 2968 01dd F61E0000 		.4byte	.LASF66
 2969 01e1 1B       		.byte	0x1b
 2970 01e2 04       		.uleb128 0x4
 2971 01e3 0D070000 		.4byte	.LASF67
 2972 01e7 1C       		.byte	0x1c
 2973 01e8 04       		.uleb128 0x4
 2974 01e9 0F030000 		.4byte	.LASF68
 2975 01ed 1D       		.byte	0x1d
 2976 01ee 04       		.uleb128 0x4
 2977 01ef 3A2A0000 		.4byte	.LASF69
 2978 01f3 1E       		.byte	0x1e
 2979 01f4 04       		.uleb128 0x4
 2980 01f5 CE120000 		.4byte	.LASF70
 2981 01f9 1F       		.byte	0x1f
 2982 01fa 04       		.uleb128 0x4
 2983 01fb A50E0000 		.4byte	.LASF71
ARM GAS  C:\Users\ASUS\AppData\Local\Temp\ccYYtRfk.s 			page 101


 2984 01ff 20       		.byte	0x20
 2985 0200 04       		.uleb128 0x4
 2986 0201 0D360000 		.4byte	.LASF72
 2987 0205 21       		.byte	0x21
 2988 0206 04       		.uleb128 0x4
 2989 0207 811C0000 		.4byte	.LASF73
 2990 020b 22       		.byte	0x22
 2991 020c 04       		.uleb128 0x4
 2992 020d 84230000 		.4byte	.LASF74
 2993 0211 23       		.byte	0x23
 2994 0212 04       		.uleb128 0x4
 2995 0213 A90B0000 		.4byte	.LASF75
 2996 0217 24       		.byte	0x24
 2997 0218 04       		.uleb128 0x4
 2998 0219 EC330000 		.4byte	.LASF76
 2999 021d 25       		.byte	0x25
 3000 021e 04       		.uleb128 0x4
 3001 021f D72F0000 		.4byte	.LASF77
 3002 0223 26       		.byte	0x26
 3003 0224 04       		.uleb128 0x4
 3004 0225 75160000 		.4byte	.LASF78
 3005 0229 27       		.byte	0x27
 3006 022a 04       		.uleb128 0x4
 3007 022b 9B3E0000 		.4byte	.LASF79
 3008 022f 28       		.byte	0x28
 3009 0230 04       		.uleb128 0x4
 3010 0231 F4130000 		.4byte	.LASF80
 3011 0235 29       		.byte	0x29
 3012 0236 04       		.uleb128 0x4
 3013 0237 952E0000 		.4byte	.LASF81
 3014 023b 2A       		.byte	0x2a
 3015 023c 04       		.uleb128 0x4
 3016 023d 171D0000 		.4byte	.LASF82
 3017 0241 2B       		.byte	0x2b
 3018 0242 04       		.uleb128 0x4
 3019 0243 68130000 		.4byte	.LASF83
 3020 0247 2C       		.byte	0x2c
 3021 0248 04       		.uleb128 0x4
 3022 0249 21280000 		.4byte	.LASF84
 3023 024d 2D       		.byte	0x2d
 3024 024e 04       		.uleb128 0x4
 3025 024f E5340000 		.4byte	.LASF85
 3026 0253 2E       		.byte	0x2e
 3027 0254 04       		.uleb128 0x4
 3028 0255 BC140000 		.4byte	.LASF86
 3029 0259 2F       		.byte	0x2f
 3030 025a 04       		.uleb128 0x4
 3031 025b 340F0000 		.4byte	.LASF87
 3032 025f 30       		.byte	0x30
 3033 0260 04       		.uleb128 0x4
 3034 0261 0A0D0000 		.4byte	.LASF88
 3035 0265 31       		.byte	0x31
 3036 0266 04       		.uleb128 0x4
 3037 0267 E1140000 		.4byte	.LASF89
 3038 026b 32       		.byte	0x32
 3039 026c 04       		.uleb128 0x4
 3040 026d 733C0000 		.4byte	.LASF90
ARM GAS  C:\Users\ASUS\AppData\Local\Temp\ccYYtRfk.s 			page 102


 3041 0271 33       		.byte	0x33
 3042 0272 04       		.uleb128 0x4
 3043 0273 09340000 		.4byte	.LASF91
 3044 0277 34       		.byte	0x34
 3045 0278 04       		.uleb128 0x4
 3046 0279 AE1E0000 		.4byte	.LASF92
 3047 027d 35       		.byte	0x35
 3048 027e 04       		.uleb128 0x4
 3049 027f B1060000 		.4byte	.LASF93
 3050 0283 36       		.byte	0x36
 3051 0284 04       		.uleb128 0x4
 3052 0285 C12E0000 		.4byte	.LASF94
 3053 0289 37       		.byte	0x37
 3054 028a 04       		.uleb128 0x4
 3055 028b E2290000 		.4byte	.LASF95
 3056 028f 38       		.byte	0x38
 3057 0290 04       		.uleb128 0x4
 3058 0291 3C120000 		.4byte	.LASF96
 3059 0295 39       		.byte	0x39
 3060 0296 04       		.uleb128 0x4
 3061 0297 93390000 		.4byte	.LASF97
 3062 029b 3A       		.byte	0x3a
 3063 029c 04       		.uleb128 0x4
 3064 029d D3200000 		.4byte	.LASF98
 3065 02a1 3B       		.byte	0x3b
 3066 02a2 04       		.uleb128 0x4
 3067 02a3 C51D0000 		.4byte	.LASF99
 3068 02a7 3C       		.byte	0x3c
 3069 02a8 04       		.uleb128 0x4
 3070 02a9 70050000 		.4byte	.LASF100
 3071 02ad 3D       		.byte	0x3d
 3072 02ae 04       		.uleb128 0x4
 3073 02af 8F2D0000 		.4byte	.LASF101
 3074 02b3 3E       		.byte	0x3e
 3075 02b4 04       		.uleb128 0x4
 3076 02b5 DD160000 		.4byte	.LASF102
 3077 02b9 3F       		.byte	0x3f
 3078 02ba 04       		.uleb128 0x4
 3079 02bb 60110000 		.4byte	.LASF103
 3080 02bf 40       		.byte	0x40
 3081 02c0 04       		.uleb128 0x4
 3082 02c1 7A380000 		.4byte	.LASF104
 3083 02c5 41       		.byte	0x41
 3084 02c6 04       		.uleb128 0x4
 3085 02c7 FB3D0000 		.4byte	.LASF105
 3086 02cb 42       		.byte	0x42
 3087 02cc 04       		.uleb128 0x4
 3088 02cd 38240000 		.4byte	.LASF106
 3089 02d1 43       		.byte	0x43
 3090 02d2 04       		.uleb128 0x4
 3091 02d3 6F0C0000 		.4byte	.LASF107
 3092 02d7 44       		.byte	0x44
 3093 02d8 04       		.uleb128 0x4
 3094 02d9 81350000 		.4byte	.LASF108
 3095 02dd 45       		.byte	0x45
 3096 02de 04       		.uleb128 0x4
 3097 02df 7B300000 		.4byte	.LASF109
ARM GAS  C:\Users\ASUS\AppData\Local\Temp\ccYYtRfk.s 			page 103


 3098 02e3 46       		.byte	0x46
 3099 02e4 04       		.uleb128 0x4
 3100 02e5 E4030000 		.4byte	.LASF110
 3101 02e9 47       		.byte	0x47
 3102 02ea 04       		.uleb128 0x4
 3103 02eb B3130000 		.4byte	.LASF111
 3104 02ef 48       		.byte	0x48
 3105 02f0 04       		.uleb128 0x4
 3106 02f1 163B0000 		.4byte	.LASF112
 3107 02f5 49       		.byte	0x49
 3108 02f6 04       		.uleb128 0x4
 3109 02f7 38220000 		.4byte	.LASF113
 3110 02fb 4A       		.byte	0x4a
 3111 02fc 04       		.uleb128 0x4
 3112 02fd 983D0000 		.4byte	.LASF114
 3113 0301 4B       		.byte	0x4b
 3114 0302 04       		.uleb128 0x4
 3115 0303 D22C0000 		.4byte	.LASF115
 3116 0307 4C       		.byte	0x4c
 3117 0308 04       		.uleb128 0x4
 3118 0309 7A140000 		.4byte	.LASF116
 3119 030d 4D       		.byte	0x4d
 3120 030e 04       		.uleb128 0x4
 3121 030f 73210000 		.4byte	.LASF117
 3122 0313 4E       		.byte	0x4e
 3123 0314 04       		.uleb128 0x4
 3124 0315 F7370000 		.4byte	.LASF118
 3125 0319 4F       		.byte	0x4f
 3126 031a 04       		.uleb128 0x4
 3127 031b 731E0000 		.4byte	.LASF119
 3128 031f 50       		.byte	0x50
 3129 0320 04       		.uleb128 0x4
 3130 0321 2E060000 		.4byte	.LASF120
 3131 0325 51       		.byte	0x51
 3132 0326 04       		.uleb128 0x4
 3133 0327 9E300000 		.4byte	.LASF121
 3134 032b 52       		.byte	0x52
 3135 032c 04       		.uleb128 0x4
 3136 032d 6B170000 		.4byte	.LASF122
 3137 0331 53       		.byte	0x53
 3138 0332 04       		.uleb128 0x4
 3139 0333 5A310000 		.4byte	.LASF123
 3140 0337 54       		.byte	0x54
 3141 0338 04       		.uleb128 0x4
 3142 0339 50040000 		.4byte	.LASF124
 3143 033d 55       		.byte	0x55
 3144 033e 04       		.uleb128 0x4
 3145 033f 5B300000 		.4byte	.LASF125
 3146 0343 56       		.byte	0x56
 3147 0344 04       		.uleb128 0x4
 3148 0345 4B060000 		.4byte	.LASF126
 3149 0349 57       		.byte	0x57
 3150 034a 04       		.uleb128 0x4
 3151 034b DB3D0000 		.4byte	.LASF127
 3152 034f 58       		.byte	0x58
 3153 0350 04       		.uleb128 0x4
 3154 0351 8D360000 		.4byte	.LASF128
ARM GAS  C:\Users\ASUS\AppData\Local\Temp\ccYYtRfk.s 			page 104


 3155 0355 59       		.byte	0x59
 3156 0356 04       		.uleb128 0x4
 3157 0357 66320000 		.4byte	.LASF129
 3158 035b 5A       		.byte	0x5a
 3159 035c 04       		.uleb128 0x4
 3160 035d 5E020000 		.4byte	.LASF130
 3161 0361 5B       		.byte	0x5b
 3162 0362 04       		.uleb128 0x4
 3163 0363 2E190000 		.4byte	.LASF131
 3164 0367 5C       		.byte	0x5c
 3165 0368 04       		.uleb128 0x4
 3166 0369 28310000 		.4byte	.LASF132
 3167 036d 5D       		.byte	0x5d
 3168 036e 04       		.uleb128 0x4
 3169 036f B3380000 		.4byte	.LASF133
 3170 0373 5E       		.byte	0x5e
 3171 0374 04       		.uleb128 0x4
 3172 0375 221F0000 		.4byte	.LASF134
 3173 0379 5F       		.byte	0x5f
 3174 037a 04       		.uleb128 0x4
 3175 037b 29070000 		.4byte	.LASF135
 3176 037f 60       		.byte	0x60
 3177 0380 04       		.uleb128 0x4
 3178 0381 2B030000 		.4byte	.LASF136
 3179 0385 61       		.byte	0x61
 3180 0386 04       		.uleb128 0x4
 3181 0387 BE330000 		.4byte	.LASF137
 3182 038b 62       		.byte	0x62
 3183 038c 04       		.uleb128 0x4
 3184 038d 202A0000 		.4byte	.LASF138
 3185 0391 63       		.byte	0x63
 3186 0392 04       		.uleb128 0x4
 3187 0393 B4120000 		.4byte	.LASF139
 3188 0397 64       		.byte	0x64
 3189 0398 04       		.uleb128 0x4
 3190 0399 E1280000 		.4byte	.LASF140
 3191 039d 65       		.byte	0x65
 3192 039e 04       		.uleb128 0x4
 3193 039f 0C000000 		.4byte	.LASF141
 3194 03a3 66       		.byte	0x66
 3195 03a4 04       		.uleb128 0x4
 3196 03a5 671C0000 		.4byte	.LASF142
 3197 03a9 67       		.byte	0x67
 3198 03aa 04       		.uleb128 0x4
 3199 03ab 36040000 		.4byte	.LASF143
 3200 03af 68       		.byte	0x68
 3201 03b0 04       		.uleb128 0x4
 3202 03b1 D32B0000 		.4byte	.LASF144
 3203 03b5 69       		.byte	0x69
 3204 03b6 04       		.uleb128 0x4
 3205 03b7 53270000 		.4byte	.LASF145
 3206 03bb 6A       		.byte	0x6a
 3207 03bc 04       		.uleb128 0x4
 3208 03bd 96320000 		.4byte	.LASF146
 3209 03c1 6B       		.byte	0x6b
 3210 03c2 04       		.uleb128 0x4
 3211 03c3 2B140000 		.4byte	.LASF147
ARM GAS  C:\Users\ASUS\AppData\Local\Temp\ccYYtRfk.s 			page 105


 3212 03c7 6C       		.byte	0x6c
 3213 03c8 04       		.uleb128 0x4
 3214 03c9 BF190000 		.4byte	.LASF148
 3215 03cd 6D       		.byte	0x6d
 3216 03ce 04       		.uleb128 0x4
 3217 03cf C5220000 		.4byte	.LASF149
 3218 03d3 6E       		.byte	0x6e
 3219 03d4 04       		.uleb128 0x4
 3220 03d5 E8090000 		.4byte	.LASF150
 3221 03d9 6F       		.byte	0x6f
 3222 03da 04       		.uleb128 0x4
 3223 03db CD050000 		.4byte	.LASF151
 3224 03df 70       		.byte	0x70
 3225 03e0 04       		.uleb128 0x4
 3226 03e1 22150000 		.4byte	.LASF152
 3227 03e5 71       		.byte	0x71
 3228 03e6 04       		.uleb128 0x4
 3229 03e7 B82B0000 		.4byte	.LASF153
 3230 03eb 72       		.byte	0x72
 3231 03ec 04       		.uleb128 0x4
 3232 03ed 7C340000 		.4byte	.LASF154
 3233 03f1 73       		.byte	0x73
 3234 03f2 04       		.uleb128 0x4
 3235 03f3 DD380000 		.4byte	.LASF155
 3236 03f7 74       		.byte	0x74
 3237 03f8 04       		.uleb128 0x4
 3238 03f9 721F0000 		.4byte	.LASF156
 3239 03fd 75       		.byte	0x75
 3240 03fe 04       		.uleb128 0x4
 3241 03ff FA160000 		.4byte	.LASF157
 3242 0403 76       		.byte	0x76
 3243 0404 04       		.uleb128 0x4
 3244 0405 3C3F0000 		.4byte	.LASF158
 3245 0409 77       		.byte	0x77
 3246 040a 04       		.uleb128 0x4
 3247 040b 51250000 		.4byte	.LASF159
 3248 040f 78       		.byte	0x78
 3249 0410 04       		.uleb128 0x4
 3250 0411 13220000 		.4byte	.LASF160
 3251 0415 79       		.byte	0x79
 3252 0416 04       		.uleb128 0x4
 3253 0417 98000000 		.4byte	.LASF161
 3254 041b 7A       		.byte	0x7a
 3255 041c 04       		.uleb128 0x4
 3256 041d 80320000 		.4byte	.LASF162
 3257 0421 7B       		.byte	0x7b
 3258 0422 04       		.uleb128 0x4
 3259 0423 94180000 		.4byte	.LASF163
 3260 0427 7C       		.byte	0x7c
 3261 0428 04       		.uleb128 0x4
 3262 0429 3C090000 		.4byte	.LASF164
 3263 042d 7D       		.byte	0x7d
 3264 042e 04       		.uleb128 0x4
 3265 042f 143D0000 		.4byte	.LASF165
 3266 0433 7E       		.byte	0x7e
 3267 0434 04       		.uleb128 0x4
 3268 0435 4D230000 		.4byte	.LASF166
ARM GAS  C:\Users\ASUS\AppData\Local\Temp\ccYYtRfk.s 			page 106


 3269 0439 7F       		.byte	0x7f
 3270 043a 04       		.uleb128 0x4
 3271 043b 4D0B0000 		.4byte	.LASF167
 3272 043f 80       		.byte	0x80
 3273 0440 04       		.uleb128 0x4
 3274 0441 43070000 		.4byte	.LASF168
 3275 0445 81       		.byte	0x81
 3276 0446 04       		.uleb128 0x4
 3277 0447 6B2F0000 		.4byte	.LASF169
 3278 044b 82       		.byte	0x82
 3279 044c 04       		.uleb128 0x4
 3280 044d 5F160000 		.4byte	.LASF170
 3281 0451 83       		.byte	0x83
 3282 0452 04       		.uleb128 0x4
 3283 0453 B7390000 		.4byte	.LASF171
 3284 0457 84       		.byte	0x84
 3285 0458 04       		.uleb128 0x4
 3286 0459 05210000 		.4byte	.LASF172
 3287 045d 85       		.byte	0x85
 3288 045e 04       		.uleb128 0x4
 3289 045f 281C0000 		.4byte	.LASF173
 3290 0463 86       		.byte	0x86
 3291 0464 04       		.uleb128 0x4
 3292 0465 2E180000 		.4byte	.LASF174
 3293 0469 87       		.byte	0x87
 3294 046a 04       		.uleb128 0x4
 3295 046b A12B0000 		.4byte	.LASF175
 3296 046f 88       		.byte	0x88
 3297 0470 04       		.uleb128 0x4
 3298 0471 02270000 		.4byte	.LASF176
 3299 0475 89       		.byte	0x89
 3300 0476 04       		.uleb128 0x4
 3301 0477 3D150000 		.4byte	.LASF177
 3302 047b 8A       		.byte	0x8a
 3303 047c 04       		.uleb128 0x4
 3304 047d 42320000 		.4byte	.LASF178
 3305 0481 8B       		.byte	0x8b
 3306 0482 04       		.uleb128 0x4
 3307 0483 982A0000 		.4byte	.LASF179
 3308 0487 8C       		.byte	0x8c
 3309 0488 04       		.uleb128 0x4
 3310 0489 3C050000 		.4byte	.LASF180
 3311 048d 8D       		.byte	0x8d
 3312 048e 04       		.uleb128 0x4
 3313 048f B9050000 		.4byte	.LASF181
 3314 0493 8E       		.byte	0x8e
 3315 0494 04       		.uleb128 0x4
 3316 0495 3A3B0000 		.4byte	.LASF182
 3317 0499 8F       		.byte	0x8f
 3318 049a 04       		.uleb128 0x4
 3319 049b EE110000 		.4byte	.LASF183
 3320 049f 90       		.byte	0x90
 3321 04a0 04       		.uleb128 0x4
 3322 04a1 54100000 		.4byte	.LASF184
 3323 04a5 91       		.byte	0x91
 3324 04a6 04       		.uleb128 0x4
 3325 04a7 15170000 		.4byte	.LASF185
ARM GAS  C:\Users\ASUS\AppData\Local\Temp\ccYYtRfk.s 			page 107


 3326 04ab 92       		.byte	0x92
 3327 04ac 04       		.uleb128 0x4
 3328 04ad A0050000 		.4byte	.LASF186
 3329 04b1 F0       		.byte	0xf0
 3330 04b2 00       		.byte	0
 3331 04b3 05       		.uleb128 0x5
 3332 04b4 01       		.byte	0x1
 3333 04b5 08       		.byte	0x8
 3334 04b6 870F0000 		.4byte	.LASF188
 3335 04ba 07       		.uleb128 0x7
 3336 04bb 29390000 		.4byte	.LASF190
 3337 04bf 0A       		.byte	0xa
 3338 04c0 9201     		.2byte	0x192
 3339 04c2 2E010000 		.4byte	0x12e
 3340 04c6 05       		.uleb128 0x5
 3341 04c7 01       		.byte	0x1
 3342 04c8 06       		.byte	0x6
 3343 04c9 690D0000 		.4byte	.LASF191
 3344 04cd 06       		.uleb128 0x6
 3345 04ce 0F080000 		.4byte	.LASF192
 3346 04d2 0B       		.byte	0xb
 3347 04d3 1D       		.byte	0x1d
 3348 04d4 B3040000 		.4byte	0x4b3
 3349 04d8 06       		.uleb128 0x6
 3350 04d9 4D1B0000 		.4byte	.LASF193
 3351 04dd 0B       		.byte	0xb
 3352 04de 29       		.byte	0x29
 3353 04df 1C010000 		.4byte	0x11c
 3354 04e3 06       		.uleb128 0x6
 3355 04e4 9E0B0000 		.4byte	.LASF194
 3356 04e8 0B       		.byte	0xb
 3357 04e9 2B       		.byte	0x2b
 3358 04ea EE040000 		.4byte	0x4ee
 3359 04ee 05       		.uleb128 0x5
 3360 04ef 02       		.byte	0x2
 3361 04f0 07       		.byte	0x7
 3362 04f1 1D3C0000 		.4byte	.LASF195
 3363 04f5 06       		.uleb128 0x6
 3364 04f6 D13D0000 		.4byte	.LASF196
 3365 04fa 0B       		.byte	0xb
 3366 04fb 3F       		.byte	0x3f
 3367 04fc 00050000 		.4byte	0x500
 3368 0500 05       		.uleb128 0x5
 3369 0501 04       		.byte	0x4
 3370 0502 05       		.byte	0x5
 3371 0503 33090000 		.4byte	.LASF197
 3372 0507 06       		.uleb128 0x6
 3373 0508 CA1E0000 		.4byte	.LASF198
 3374 050c 0B       		.byte	0xb
 3375 050d 41       		.byte	0x41
 3376 050e 12050000 		.4byte	0x512
 3377 0512 05       		.uleb128 0x5
 3378 0513 04       		.byte	0x4
 3379 0514 07       		.byte	0x7
 3380 0515 1D1A0000 		.4byte	.LASF199
 3381 0519 05       		.uleb128 0x5
 3382 051a 08       		.byte	0x8
ARM GAS  C:\Users\ASUS\AppData\Local\Temp\ccYYtRfk.s 			page 108


 3383 051b 05       		.byte	0x5
 3384 051c 323A0000 		.4byte	.LASF200
 3385 0520 05       		.uleb128 0x5
 3386 0521 08       		.byte	0x8
 3387 0522 07       		.byte	0x7
 3388 0523 822C0000 		.4byte	.LASF201
 3389 0527 08       		.uleb128 0x8
 3390 0528 04       		.byte	0x4
 3391 0529 05       		.byte	0x5
 3392 052a 696E7400 		.ascii	"int\000"
 3393 052e 05       		.uleb128 0x5
 3394 052f 04       		.byte	0x4
 3395 0530 07       		.byte	0x7
 3396 0531 63230000 		.4byte	.LASF202
 3397 0535 06       		.uleb128 0x6
 3398 0536 970D0000 		.4byte	.LASF203
 3399 053a 0C       		.byte	0xc
 3400 053b 18       		.byte	0x18
 3401 053c CD040000 		.4byte	0x4cd
 3402 0540 06       		.uleb128 0x6
 3403 0541 E1350000 		.4byte	.LASF204
 3404 0545 0C       		.byte	0xc
 3405 0546 20       		.byte	0x20
 3406 0547 D8040000 		.4byte	0x4d8
 3407 054b 06       		.uleb128 0x6
 3408 054c 0F2D0000 		.4byte	.LASF205
 3409 0550 0C       		.byte	0xc
 3410 0551 24       		.byte	0x24
 3411 0552 E3040000 		.4byte	0x4e3
 3412 0556 06       		.uleb128 0x6
 3413 0557 761B0000 		.4byte	.LASF206
 3414 055b 0C       		.byte	0xc
 3415 055c 2C       		.byte	0x2c
 3416 055d F5040000 		.4byte	0x4f5
 3417 0561 06       		.uleb128 0x6
 3418 0562 6F3A0000 		.4byte	.LASF207
 3419 0566 0C       		.byte	0xc
 3420 0567 30       		.byte	0x30
 3421 0568 07050000 		.4byte	0x507
 3422 056c 09       		.uleb128 0x9
 3423 056d 2003     		.2byte	0x320
 3424 056f 07       		.byte	0x7
 3425 0570 4801     		.2byte	0x148
 3426 0572 FE050000 		.4byte	0x5fe
 3427 0576 0A       		.uleb128 0xa
 3428 0577 963E0000 		.4byte	.LASF208
 3429 057b 07       		.byte	0x7
 3430 057c 4A01     		.2byte	0x14a
 3431 057e 1A060000 		.4byte	0x61a
 3432 0582 00       		.byte	0
 3433 0583 0A       		.uleb128 0xa
 3434 0584 730F0000 		.4byte	.LASF209
 3435 0588 07       		.byte	0x7
 3436 0589 4B01     		.2byte	0x14b
 3437 058b 1F060000 		.4byte	0x61f
 3438 058f 04       		.byte	0x4
 3439 0590 0A       		.uleb128 0xa
ARM GAS  C:\Users\ASUS\AppData\Local\Temp\ccYYtRfk.s 			page 109


 3440 0591 3F300000 		.4byte	.LASF210
 3441 0595 07       		.byte	0x7
 3442 0596 4C01     		.2byte	0x14c
 3443 0598 2F060000 		.4byte	0x62f
 3444 059c 80       		.byte	0x80
 3445 059d 0A       		.uleb128 0xa
 3446 059e AE000000 		.4byte	.LASF211
 3447 05a2 07       		.byte	0x7
 3448 05a3 4D01     		.2byte	0x14d
 3449 05a5 1F060000 		.4byte	0x61f
 3450 05a9 84       		.byte	0x84
 3451 05aa 0B       		.uleb128 0xb
 3452 05ab 18150000 		.4byte	.LASF212
 3453 05af 07       		.byte	0x7
 3454 05b0 4E01     		.2byte	0x14e
 3455 05b2 34060000 		.4byte	0x634
 3456 05b6 0001     		.2byte	0x100
 3457 05b8 0B       		.uleb128 0xb
 3458 05b9 A2130000 		.4byte	.LASF213
 3459 05bd 07       		.byte	0x7
 3460 05be 4F01     		.2byte	0x14f
 3461 05c0 1F060000 		.4byte	0x61f
 3462 05c4 0401     		.2byte	0x104
 3463 05c6 0B       		.uleb128 0xb
 3464 05c7 73060000 		.4byte	.LASF214
 3465 05cb 07       		.byte	0x7
 3466 05cc 5001     		.2byte	0x150
 3467 05ce 39060000 		.4byte	0x639
 3468 05d2 8001     		.2byte	0x180
 3469 05d4 0B       		.uleb128 0xb
 3470 05d5 7D110000 		.4byte	.LASF215
 3471 05d9 07       		.byte	0x7
 3472 05da 5101     		.2byte	0x151
 3473 05dc 1F060000 		.4byte	0x61f
 3474 05e0 8401     		.2byte	0x184
 3475 05e2 0B       		.uleb128 0xb
 3476 05e3 A20F0000 		.4byte	.LASF216
 3477 05e7 07       		.byte	0x7
 3478 05e8 5201     		.2byte	0x152
 3479 05ea 3E060000 		.4byte	0x63e
 3480 05ee 0002     		.2byte	0x200
 3481 05f0 0C       		.uleb128 0xc
 3482 05f1 495000   		.ascii	"IP\000"
 3483 05f4 07       		.byte	0x7
 3484 05f5 5301     		.2byte	0x153
 3485 05f7 5E060000 		.4byte	0x65e
 3486 05fb 0003     		.2byte	0x300
 3487 05fd 00       		.byte	0
 3488 05fe 0D       		.uleb128 0xd
 3489 05ff 15060000 		.4byte	0x615
 3490 0603 0E060000 		.4byte	0x60e
 3491 0607 0E       		.uleb128 0xe
 3492 0608 0E060000 		.4byte	0x60e
 3493 060c 00       		.byte	0
 3494 060d 00       		.byte	0
 3495 060e 05       		.uleb128 0x5
 3496 060f 04       		.byte	0x4
ARM GAS  C:\Users\ASUS\AppData\Local\Temp\ccYYtRfk.s 			page 110


 3497 0610 07       		.byte	0x7
 3498 0611 D2000000 		.4byte	.LASF217
 3499 0615 0F       		.uleb128 0xf
 3500 0616 61050000 		.4byte	0x561
 3501 061a 0F       		.uleb128 0xf
 3502 061b FE050000 		.4byte	0x5fe
 3503 061f 0D       		.uleb128 0xd
 3504 0620 61050000 		.4byte	0x561
 3505 0624 2F060000 		.4byte	0x62f
 3506 0628 0E       		.uleb128 0xe
 3507 0629 0E060000 		.4byte	0x60e
 3508 062d 1E       		.byte	0x1e
 3509 062e 00       		.byte	0
 3510 062f 0F       		.uleb128 0xf
 3511 0630 FE050000 		.4byte	0x5fe
 3512 0634 0F       		.uleb128 0xf
 3513 0635 FE050000 		.4byte	0x5fe
 3514 0639 0F       		.uleb128 0xf
 3515 063a FE050000 		.4byte	0x5fe
 3516 063e 0D       		.uleb128 0xd
 3517 063f 61050000 		.4byte	0x561
 3518 0643 4E060000 		.4byte	0x64e
 3519 0647 0E       		.uleb128 0xe
 3520 0648 0E060000 		.4byte	0x60e
 3521 064c 3F       		.byte	0x3f
 3522 064d 00       		.byte	0
 3523 064e 0D       		.uleb128 0xd
 3524 064f 15060000 		.4byte	0x615
 3525 0653 5E060000 		.4byte	0x65e
 3526 0657 0E       		.uleb128 0xe
 3527 0658 0E060000 		.4byte	0x60e
 3528 065c 07       		.byte	0x7
 3529 065d 00       		.byte	0
 3530 065e 0F       		.uleb128 0xf
 3531 065f 4E060000 		.4byte	0x64e
 3532 0663 07       		.uleb128 0x7
 3533 0664 832B0000 		.4byte	.LASF218
 3534 0668 07       		.byte	0x7
 3535 0669 5401     		.2byte	0x154
 3536 066b 6C050000 		.4byte	0x56c
 3537 066f 10       		.uleb128 0x10
 3538 0670 15060000 		.4byte	0x615
 3539 0674 0D       		.uleb128 0xd
 3540 0675 6F060000 		.4byte	0x66f
 3541 0679 84060000 		.4byte	0x684
 3542 067d 0E       		.uleb128 0xe
 3543 067e 0E060000 		.4byte	0x60e
 3544 0682 05       		.byte	0x5
 3545 0683 00       		.byte	0
 3546 0684 0D       		.uleb128 0xd
 3547 0685 6F060000 		.4byte	0x66f
 3548 0689 94060000 		.4byte	0x694
 3549 068d 0E       		.uleb128 0xe
 3550 068e 0E060000 		.4byte	0x60e
 3551 0692 7F       		.byte	0x7f
 3552 0693 00       		.byte	0
 3553 0694 0D       		.uleb128 0xd
ARM GAS  C:\Users\ASUS\AppData\Local\Temp\ccYYtRfk.s 			page 111


 3554 0695 6F060000 		.4byte	0x66f
 3555 0699 A4060000 		.4byte	0x6a4
 3556 069d 0E       		.uleb128 0xe
 3557 069e 0E060000 		.4byte	0x60e
 3558 06a2 0C       		.byte	0xc
 3559 06a3 00       		.byte	0
 3560 06a4 0D       		.uleb128 0xd
 3561 06a5 6F060000 		.4byte	0x66f
 3562 06a9 B4060000 		.4byte	0x6b4
 3563 06ad 0E       		.uleb128 0xe
 3564 06ae 0E060000 		.4byte	0x60e
 3565 06b2 1E       		.byte	0x1e
 3566 06b3 00       		.byte	0
 3567 06b4 0D       		.uleb128 0xd
 3568 06b5 6F060000 		.4byte	0x66f
 3569 06b9 C4060000 		.4byte	0x6c4
 3570 06bd 0E       		.uleb128 0xe
 3571 06be 0E060000 		.4byte	0x60e
 3572 06c2 03       		.byte	0x3
 3573 06c3 00       		.byte	0
 3574 06c4 0D       		.uleb128 0xd
 3575 06c5 6F060000 		.4byte	0x66f
 3576 06c9 D4060000 		.4byte	0x6d4
 3577 06cd 0E       		.uleb128 0xe
 3578 06ce 0E060000 		.4byte	0x60e
 3579 06d2 3E       		.byte	0x3e
 3580 06d3 00       		.byte	0
 3581 06d4 0D       		.uleb128 0xd
 3582 06d5 6F060000 		.4byte	0x66f
 3583 06d9 E4060000 		.4byte	0x6e4
 3584 06dd 0E       		.uleb128 0xe
 3585 06de 0E060000 		.4byte	0x60e
 3586 06e2 02       		.byte	0x2
 3587 06e3 00       		.byte	0
 3588 06e4 0D       		.uleb128 0xd
 3589 06e5 6F060000 		.4byte	0x66f
 3590 06e9 F4060000 		.4byte	0x6f4
 3591 06ed 0E       		.uleb128 0xe
 3592 06ee 0E060000 		.4byte	0x60e
 3593 06f2 0B       		.byte	0xb
 3594 06f3 00       		.byte	0
 3595 06f4 0D       		.uleb128 0xd
 3596 06f5 35050000 		.4byte	0x535
 3597 06f9 04070000 		.4byte	0x704
 3598 06fd 0E       		.uleb128 0xe
 3599 06fe 0E060000 		.4byte	0x60e
 3600 0702 01       		.byte	0x1
 3601 0703 00       		.byte	0
 3602 0704 0D       		.uleb128 0xd
 3603 0705 6F060000 		.4byte	0x66f
 3604 0709 14070000 		.4byte	0x714
 3605 070d 0E       		.uleb128 0xe
 3606 070e 0E060000 		.4byte	0x60e
 3607 0712 0A       		.byte	0xa
 3608 0713 00       		.byte	0
 3609 0714 0D       		.uleb128 0xd
 3610 0715 6F060000 		.4byte	0x66f
ARM GAS  C:\Users\ASUS\AppData\Local\Temp\ccYYtRfk.s 			page 112


 3611 0719 24070000 		.4byte	0x724
 3612 071d 0E       		.uleb128 0xe
 3613 071e 0E060000 		.4byte	0x60e
 3614 0722 2E       		.byte	0x2e
 3615 0723 00       		.byte	0
 3616 0724 0D       		.uleb128 0xd
 3617 0725 6F060000 		.4byte	0x66f
 3618 0729 34070000 		.4byte	0x734
 3619 072d 0E       		.uleb128 0xe
 3620 072e 0E060000 		.4byte	0x60e
 3621 0732 2D       		.byte	0x2d
 3622 0733 00       		.byte	0
 3623 0734 0D       		.uleb128 0xd
 3624 0735 15060000 		.4byte	0x615
 3625 0739 45070000 		.4byte	0x745
 3626 073d 11       		.uleb128 0x11
 3627 073e 0E060000 		.4byte	0x60e
 3628 0742 FF01     		.2byte	0x1ff
 3629 0744 00       		.byte	0
 3630 0745 12       		.uleb128 0x12
 3631 0746 D00F     		.2byte	0xfd0
 3632 0748 0D       		.byte	0xd
 3633 0749 21       		.byte	0x21
 3634 074a C90A0000 		.4byte	0xac9
 3635 074e 13       		.uleb128 0x13
 3636 074f 70230000 		.4byte	.LASF219
 3637 0753 0D       		.byte	0xd
 3638 0754 22       		.byte	0x22
 3639 0755 15060000 		.4byte	0x615
 3640 0759 00       		.byte	0
 3641 075a 13       		.uleb128 0x13
 3642 075b A1310000 		.4byte	.LASF220
 3643 075f 0D       		.byte	0xd
 3644 0760 23       		.byte	0x23
 3645 0761 6F060000 		.4byte	0x66f
 3646 0765 04       		.byte	0x4
 3647 0766 13       		.uleb128 0x13
 3648 0767 650F0000 		.4byte	.LASF221
 3649 076b 0D       		.byte	0xd
 3650 076c 24       		.byte	0x24
 3651 076d 15060000 		.4byte	0x615
 3652 0771 08       		.byte	0x8
 3653 0772 13       		.uleb128 0x13
 3654 0773 3B2F0000 		.4byte	.LASF222
 3655 0777 0D       		.byte	0xd
 3656 0778 25       		.byte	0x25
 3657 0779 6F060000 		.4byte	0x66f
 3658 077d 0C       		.byte	0xc
 3659 077e 13       		.uleb128 0x13
 3660 077f 2E170000 		.4byte	.LASF223
 3661 0783 0D       		.byte	0xd
 3662 0784 26       		.byte	0x26
 3663 0785 CE0A0000 		.4byte	0xace
 3664 0789 10       		.byte	0x10
 3665 078a 13       		.uleb128 0x13
 3666 078b 240A0000 		.4byte	.LASF224
 3667 078f 0D       		.byte	0xd
ARM GAS  C:\Users\ASUS\AppData\Local\Temp\ccYYtRfk.s 			page 113


 3668 0790 27       		.byte	0x27
 3669 0791 15060000 		.4byte	0x615
 3670 0795 20       		.byte	0x20
 3671 0796 13       		.uleb128 0x13
 3672 0797 26230000 		.4byte	.LASF225
 3673 079b 0D       		.byte	0xd
 3674 079c 28       		.byte	0x28
 3675 079d 6F060000 		.4byte	0x66f
 3676 07a1 24       		.byte	0x24
 3677 07a2 13       		.uleb128 0x13
 3678 07a3 7D0F0000 		.4byte	.LASF226
 3679 07a7 0D       		.byte	0xd
 3680 07a8 29       		.byte	0x29
 3681 07a9 D80A0000 		.4byte	0xad8
 3682 07ad 28       		.byte	0x28
 3683 07ae 13       		.uleb128 0x13
 3684 07af CA010000 		.4byte	.LASF227
 3685 07b3 0D       		.byte	0xd
 3686 07b4 2A       		.byte	0x2a
 3687 07b5 15060000 		.4byte	0x615
 3688 07b9 40       		.byte	0x40
 3689 07ba 13       		.uleb128 0x13
 3690 07bb F4120000 		.4byte	.LASF228
 3691 07bf 0D       		.byte	0xd
 3692 07c0 2B       		.byte	0x2b
 3693 07c1 15060000 		.4byte	0x615
 3694 07c5 44       		.byte	0x44
 3695 07c6 13       		.uleb128 0x13
 3696 07c7 060C0000 		.4byte	.LASF229
 3697 07cb 0D       		.byte	0xd
 3698 07cc 2C       		.byte	0x2c
 3699 07cd 15060000 		.4byte	0x615
 3700 07d1 48       		.byte	0x48
 3701 07d2 13       		.uleb128 0x13
 3702 07d3 5C170000 		.4byte	.LASF230
 3703 07d7 0D       		.byte	0xd
 3704 07d8 2D       		.byte	0x2d
 3705 07d9 6F060000 		.4byte	0x66f
 3706 07dd 4C       		.byte	0x4c
 3707 07de 13       		.uleb128 0x13
 3708 07df C4260000 		.4byte	.LASF231
 3709 07e3 0D       		.byte	0xd
 3710 07e4 2E       		.byte	0x2e
 3711 07e5 15060000 		.4byte	0x615
 3712 07e9 50       		.byte	0x50
 3713 07ea 13       		.uleb128 0x13
 3714 07eb A2130000 		.4byte	.LASF213
 3715 07ef 0D       		.byte	0xd
 3716 07f0 2F       		.byte	0x2f
 3717 07f1 E20A0000 		.4byte	0xae2
 3718 07f5 54       		.byte	0x54
 3719 07f6 13       		.uleb128 0x13
 3720 07f7 38400000 		.4byte	.LASF232
 3721 07fb 0D       		.byte	0xd
 3722 07fc 30       		.byte	0x30
 3723 07fd 15060000 		.4byte	0x615
 3724 0801 60       		.byte	0x60
ARM GAS  C:\Users\ASUS\AppData\Local\Temp\ccYYtRfk.s 			page 114


 3725 0802 13       		.uleb128 0x13
 3726 0803 F5390000 		.4byte	.LASF233
 3727 0807 0D       		.byte	0xd
 3728 0808 31       		.byte	0x31
 3729 0809 6F060000 		.4byte	0x66f
 3730 080d 64       		.byte	0x64
 3731 080e 13       		.uleb128 0x13
 3732 080f 000D0000 		.4byte	.LASF234
 3733 0813 0D       		.byte	0xd
 3734 0814 32       		.byte	0x32
 3735 0815 15060000 		.4byte	0x615
 3736 0819 68       		.byte	0x68
 3737 081a 13       		.uleb128 0x13
 3738 081b CE110000 		.4byte	.LASF235
 3739 081f 0D       		.byte	0xd
 3740 0820 33       		.byte	0x33
 3741 0821 15060000 		.4byte	0x615
 3742 0825 6C       		.byte	0x6c
 3743 0826 13       		.uleb128 0x13
 3744 0827 89060000 		.4byte	.LASF236
 3745 082b 0D       		.byte	0xd
 3746 082c 34       		.byte	0x34
 3747 082d 15060000 		.4byte	0x615
 3748 0831 70       		.byte	0x70
 3749 0832 13       		.uleb128 0x13
 3750 0833 7D110000 		.4byte	.LASF215
 3751 0837 0D       		.byte	0xd
 3752 0838 35       		.byte	0x35
 3753 0839 FC0A0000 		.4byte	0xafc
 3754 083d 74       		.byte	0x74
 3755 083e 14       		.uleb128 0x14
 3756 083f 56110000 		.4byte	.LASF237
 3757 0843 0D       		.byte	0xd
 3758 0844 36       		.byte	0x36
 3759 0845 15060000 		.4byte	0x615
 3760 0849 0001     		.2byte	0x100
 3761 084b 14       		.uleb128 0x14
 3762 084c A20F0000 		.4byte	.LASF216
 3763 0850 0D       		.byte	0xd
 3764 0851 37       		.byte	0x37
 3765 0852 060B0000 		.4byte	0xb06
 3766 0856 0401     		.2byte	0x104
 3767 0858 14       		.uleb128 0x14
 3768 0859 A9250000 		.4byte	.LASF238
 3769 085d 0D       		.byte	0xd
 3770 085e 38       		.byte	0x38
 3771 085f 15060000 		.4byte	0x615
 3772 0863 0002     		.2byte	0x200
 3773 0865 14       		.uleb128 0x14
 3774 0866 5B2D0000 		.4byte	.LASF239
 3775 086a 0D       		.byte	0xd
 3776 086b 39       		.byte	0x39
 3777 086c 15060000 		.4byte	0x615
 3778 0870 0402     		.2byte	0x204
 3779 0872 14       		.uleb128 0x14
 3780 0873 28110000 		.4byte	.LASF240
 3781 0877 0D       		.byte	0xd
ARM GAS  C:\Users\ASUS\AppData\Local\Temp\ccYYtRfk.s 			page 115


 3782 0878 3A       		.byte	0x3a
 3783 0879 6F060000 		.4byte	0x66f
 3784 087d 0802     		.2byte	0x208
 3785 087f 14       		.uleb128 0x14
 3786 0880 AC0F0000 		.4byte	.LASF241
 3787 0884 0D       		.byte	0xd
 3788 0885 3B       		.byte	0x3b
 3789 0886 100B0000 		.4byte	0xb10
 3790 088a 0C02     		.2byte	0x20c
 3791 088c 14       		.uleb128 0x14
 3792 088d 2C130000 		.4byte	.LASF242
 3793 0891 0D       		.byte	0xd
 3794 0892 3C       		.byte	0x3c
 3795 0893 15060000 		.4byte	0x615
 3796 0897 4002     		.2byte	0x240
 3797 0899 14       		.uleb128 0x14
 3798 089a B60F0000 		.4byte	.LASF243
 3799 089e 0D       		.byte	0xd
 3800 089f 3D       		.byte	0x3d
 3801 08a0 1A0B0000 		.4byte	0xb1a
 3802 08a4 4402     		.2byte	0x244
 3803 08a6 14       		.uleb128 0x14
 3804 08a7 15090000 		.4byte	.LASF244
 3805 08ab 0D       		.byte	0xd
 3806 08ac 3E       		.byte	0x3e
 3807 08ad 15060000 		.4byte	0x615
 3808 08b1 0003     		.2byte	0x300
 3809 08b3 14       		.uleb128 0x14
 3810 08b4 80360000 		.4byte	.LASF245
 3811 08b8 0D       		.byte	0xd
 3812 08b9 3F       		.byte	0x3f
 3813 08ba 15060000 		.4byte	0x615
 3814 08be 0403     		.2byte	0x304
 3815 08c0 14       		.uleb128 0x14
 3816 08c1 B5070000 		.4byte	.LASF246
 3817 08c5 0D       		.byte	0xd
 3818 08c6 40       		.byte	0x40
 3819 08c7 6F060000 		.4byte	0x66f
 3820 08cb 0803     		.2byte	0x308
 3821 08cd 14       		.uleb128 0x14
 3822 08ce 87110000 		.4byte	.LASF247
 3823 08d2 0D       		.byte	0xd
 3824 08d3 41       		.byte	0x41
 3825 08d4 6F060000 		.4byte	0x66f
 3826 08d8 0C03     		.2byte	0x30c
 3827 08da 14       		.uleb128 0x14
 3828 08db 3E010000 		.4byte	.LASF248
 3829 08df 0D       		.byte	0xd
 3830 08e0 42       		.byte	0x42
 3831 08e1 15060000 		.4byte	0x615
 3832 08e5 1003     		.2byte	0x310
 3833 08e7 14       		.uleb128 0x14
 3834 08e8 91110000 		.4byte	.LASF249
 3835 08ec 0D       		.byte	0xd
 3836 08ed 43       		.byte	0x43
 3837 08ee 240B0000 		.4byte	0xb24
 3838 08f2 1403     		.2byte	0x314
ARM GAS  C:\Users\ASUS\AppData\Local\Temp\ccYYtRfk.s 			page 116


 3839 08f4 14       		.uleb128 0x14
 3840 08f5 41340000 		.4byte	.LASF250
 3841 08f9 0D       		.byte	0xd
 3842 08fa 44       		.byte	0x44
 3843 08fb 6F060000 		.4byte	0x66f
 3844 08ff 4003     		.2byte	0x340
 3845 0901 14       		.uleb128 0x14
 3846 0902 AB3B0000 		.4byte	.LASF251
 3847 0906 0D       		.byte	0xd
 3848 0907 45       		.byte	0x45
 3849 0908 6F060000 		.4byte	0x66f
 3850 090c 4403     		.2byte	0x344
 3851 090e 14       		.uleb128 0x14
 3852 090f DD0F0000 		.4byte	.LASF252
 3853 0913 0D       		.byte	0xd
 3854 0914 46       		.byte	0x46
 3855 0915 2E0B0000 		.4byte	0xb2e
 3856 0919 4803     		.2byte	0x348
 3857 091b 14       		.uleb128 0x14
 3858 091c E01E0000 		.4byte	.LASF253
 3859 0920 0D       		.byte	0xd
 3860 0921 47       		.byte	0x47
 3861 0922 330B0000 		.4byte	0xb33
 3862 0926 0004     		.2byte	0x400
 3863 0928 14       		.uleb128 0x14
 3864 0929 CB2D0000 		.4byte	.LASF254
 3865 092d 0D       		.byte	0xd
 3866 092e 48       		.byte	0x48
 3867 092f 3D0B0000 		.4byte	0xb3d
 3868 0933 000C     		.2byte	0xc00
 3869 0935 14       		.uleb128 0x14
 3870 0936 BF010000 		.4byte	.LASF255
 3871 093a 0D       		.byte	0xd
 3872 093b 49       		.byte	0x49
 3873 093c 6F060000 		.4byte	0x66f
 3874 0940 000E     		.2byte	0xe00
 3875 0942 14       		.uleb128 0x14
 3876 0943 E43C0000 		.4byte	.LASF256
 3877 0947 0D       		.byte	0xd
 3878 0948 4A       		.byte	0x4a
 3879 0949 470B0000 		.4byte	0xb47
 3880 094d 040E     		.2byte	0xe04
 3881 094f 14       		.uleb128 0x14
 3882 0950 D5350000 		.4byte	.LASF257
 3883 0954 0D       		.byte	0xd
 3884 0955 4B       		.byte	0x4b
 3885 0956 15060000 		.4byte	0x615
 3886 095a 800E     		.2byte	0xe80
 3887 095c 14       		.uleb128 0x14
 3888 095d E12D0000 		.4byte	.LASF258
 3889 0961 0D       		.byte	0xd
 3890 0962 4C       		.byte	0x4c
 3891 0963 6F060000 		.4byte	0x66f
 3892 0967 840E     		.2byte	0xe84
 3893 0969 14       		.uleb128 0x14
 3894 096a CA250000 		.4byte	.LASF259
 3895 096e 0D       		.byte	0xd
ARM GAS  C:\Users\ASUS\AppData\Local\Temp\ccYYtRfk.s 			page 117


 3896 096f 4D       		.byte	0x4d
 3897 0970 15060000 		.4byte	0x615
 3898 0974 880E     		.2byte	0xe88
 3899 0976 14       		.uleb128 0x14
 3900 0977 DA310000 		.4byte	.LASF260
 3901 097b 0D       		.byte	0xd
 3902 097c 4E       		.byte	0x4e
 3903 097d 6F060000 		.4byte	0x66f
 3904 0981 8C0E     		.2byte	0xe8c
 3905 0983 14       		.uleb128 0x14
 3906 0984 EC2D0000 		.4byte	.LASF261
 3907 0988 0D       		.byte	0xd
 3908 0989 4F       		.byte	0x4f
 3909 098a 510B0000 		.4byte	0xb51
 3910 098e 900E     		.2byte	0xe90
 3911 0990 14       		.uleb128 0x14
 3912 0991 D6290000 		.4byte	.LASF262
 3913 0995 0D       		.byte	0xd
 3914 0996 50       		.byte	0x50
 3915 0997 15060000 		.4byte	0x615
 3916 099b C00E     		.2byte	0xec0
 3917 099d 14       		.uleb128 0x14
 3918 099e F72D0000 		.4byte	.LASF263
 3919 09a2 0D       		.byte	0xd
 3920 09a3 51       		.byte	0x51
 3921 09a4 6F060000 		.4byte	0x66f
 3922 09a8 C40E     		.2byte	0xec4
 3923 09aa 14       		.uleb128 0x14
 3924 09ab 45280000 		.4byte	.LASF264
 3925 09af 0D       		.byte	0xd
 3926 09b0 52       		.byte	0x52
 3927 09b1 15060000 		.4byte	0x615
 3928 09b5 C80E     		.2byte	0xec8
 3929 09b7 14       		.uleb128 0x14
 3930 09b8 15330000 		.4byte	.LASF265
 3931 09bc 0D       		.byte	0xd
 3932 09bd 53       		.byte	0x53
 3933 09be 6F060000 		.4byte	0x66f
 3934 09c2 CC0E     		.2byte	0xecc
 3935 09c4 14       		.uleb128 0x14
 3936 09c5 022E0000 		.4byte	.LASF266
 3937 09c9 0D       		.byte	0xd
 3938 09ca 54       		.byte	0x54
 3939 09cb 5B0B0000 		.4byte	0xb5b
 3940 09cf D00E     		.2byte	0xed0
 3941 09d1 14       		.uleb128 0x14
 3942 09d2 F4040000 		.4byte	.LASF267
 3943 09d6 0D       		.byte	0xd
 3944 09d7 55       		.byte	0x55
 3945 09d8 15060000 		.4byte	0x615
 3946 09dc 000F     		.2byte	0xf00
 3947 09de 14       		.uleb128 0x14
 3948 09df 0A330000 		.4byte	.LASF268
 3949 09e3 0D       		.byte	0xd
 3950 09e4 56       		.byte	0x56
 3951 09e5 15060000 		.4byte	0x615
 3952 09e9 040F     		.2byte	0xf04
ARM GAS  C:\Users\ASUS\AppData\Local\Temp\ccYYtRfk.s 			page 118


 3953 09eb 14       		.uleb128 0x14
 3954 09ec 371B0000 		.4byte	.LASF269
 3955 09f0 0D       		.byte	0xd
 3956 09f1 57       		.byte	0x57
 3957 09f2 15060000 		.4byte	0x615
 3958 09f6 080F     		.2byte	0xf08
 3959 09f8 14       		.uleb128 0x14
 3960 09f9 F7200000 		.4byte	.LASF270
 3961 09fd 0D       		.byte	0xd
 3962 09fe 58       		.byte	0x58
 3963 09ff 6F060000 		.4byte	0x66f
 3964 0a03 0C0F     		.2byte	0xf0c
 3965 0a05 14       		.uleb128 0x14
 3966 0a06 5E3D0000 		.4byte	.LASF271
 3967 0a0a 0D       		.byte	0xd
 3968 0a0b 59       		.byte	0x59
 3969 0a0c 650B0000 		.4byte	0xb65
 3970 0a10 100F     		.2byte	0xf10
 3971 0a12 14       		.uleb128 0x14
 3972 0a13 20050000 		.4byte	.LASF272
 3973 0a17 0D       		.byte	0xd
 3974 0a18 5A       		.byte	0x5a
 3975 0a19 15060000 		.4byte	0x615
 3976 0a1d 400F     		.2byte	0xf40
 3977 0a1f 14       		.uleb128 0x14
 3978 0a20 D0360000 		.4byte	.LASF273
 3979 0a24 0D       		.byte	0xd
 3980 0a25 5B       		.byte	0x5b
 3981 0a26 15060000 		.4byte	0x615
 3982 0a2a 440F     		.2byte	0xf44
 3983 0a2c 14       		.uleb128 0x14
 3984 0a2d B0320000 		.4byte	.LASF274
 3985 0a31 0D       		.byte	0xd
 3986 0a32 5C       		.byte	0x5c
 3987 0a33 15060000 		.4byte	0x615
 3988 0a37 480F     		.2byte	0xf48
 3989 0a39 14       		.uleb128 0x14
 3990 0a3a 38290000 		.4byte	.LASF275
 3991 0a3e 0D       		.byte	0xd
 3992 0a3f 5D       		.byte	0x5d
 3993 0a40 6F060000 		.4byte	0x66f
 3994 0a44 4C0F     		.2byte	0xf4c
 3995 0a46 14       		.uleb128 0x14
 3996 0a47 2E2E0000 		.4byte	.LASF276
 3997 0a4b 0D       		.byte	0xd
 3998 0a4c 5E       		.byte	0x5e
 3999 0a4d 6F0B0000 		.4byte	0xb6f
 4000 0a51 500F     		.2byte	0xf50
 4001 0a53 14       		.uleb128 0x14
 4002 0a54 AF390000 		.4byte	.LASF277
 4003 0a58 0D       		.byte	0xd
 4004 0a59 5F       		.byte	0x5f
 4005 0a5a 15060000 		.4byte	0x615
 4006 0a5e 800F     		.2byte	0xf80
 4007 0a60 14       		.uleb128 0x14
 4008 0a61 892E0000 		.4byte	.LASF278
 4009 0a65 0D       		.byte	0xd
ARM GAS  C:\Users\ASUS\AppData\Local\Temp\ccYYtRfk.s 			page 119


 4010 0a66 60       		.byte	0x60
 4011 0a67 15060000 		.4byte	0x615
 4012 0a6b 840F     		.2byte	0xf84
 4013 0a6d 14       		.uleb128 0x14
 4014 0a6e 950F0000 		.4byte	.LASF279
 4015 0a72 0D       		.byte	0xd
 4016 0a73 61       		.byte	0x61
 4017 0a74 15060000 		.4byte	0x615
 4018 0a78 880F     		.2byte	0xf88
 4019 0a7a 14       		.uleb128 0x14
 4020 0a7b 090B0000 		.4byte	.LASF280
 4021 0a7f 0D       		.byte	0xd
 4022 0a80 62       		.byte	0x62
 4023 0a81 6F060000 		.4byte	0x66f
 4024 0a85 8C0F     		.2byte	0xf8c
 4025 0a87 14       		.uleb128 0x14
 4026 0a88 743D0000 		.4byte	.LASF281
 4027 0a8c 0D       		.byte	0xd
 4028 0a8d 63       		.byte	0x63
 4029 0a8e 790B0000 		.4byte	0xb79
 4030 0a92 900F     		.2byte	0xf90
 4031 0a94 14       		.uleb128 0x14
 4032 0a95 6B060000 		.4byte	.LASF282
 4033 0a99 0D       		.byte	0xd
 4034 0a9a 64       		.byte	0x64
 4035 0a9b 15060000 		.4byte	0x615
 4036 0a9f C00F     		.2byte	0xfc0
 4037 0aa1 14       		.uleb128 0x14
 4038 0aa2 2C0C0000 		.4byte	.LASF283
 4039 0aa6 0D       		.byte	0xd
 4040 0aa7 65       		.byte	0x65
 4041 0aa8 15060000 		.4byte	0x615
 4042 0aac C40F     		.2byte	0xfc4
 4043 0aae 14       		.uleb128 0x14
 4044 0aaf 44080000 		.4byte	.LASF284
 4045 0ab3 0D       		.byte	0xd
 4046 0ab4 66       		.byte	0x66
 4047 0ab5 15060000 		.4byte	0x615
 4048 0ab9 C80F     		.2byte	0xfc8
 4049 0abb 14       		.uleb128 0x14
 4050 0abc 37330000 		.4byte	.LASF285
 4051 0ac0 0D       		.byte	0xd
 4052 0ac1 67       		.byte	0x67
 4053 0ac2 6F060000 		.4byte	0x66f
 4054 0ac6 CC0F     		.2byte	0xfcc
 4055 0ac8 00       		.byte	0
 4056 0ac9 0F       		.uleb128 0xf
 4057 0aca B4060000 		.4byte	0x6b4
 4058 0ace 10       		.uleb128 0x10
 4059 0acf C90A0000 		.4byte	0xac9
 4060 0ad3 0F       		.uleb128 0xf
 4061 0ad4 74060000 		.4byte	0x674
 4062 0ad8 10       		.uleb128 0x10
 4063 0ad9 D30A0000 		.4byte	0xad3
 4064 0add 0F       		.uleb128 0xf
 4065 0ade D4060000 		.4byte	0x6d4
 4066 0ae2 10       		.uleb128 0x10
ARM GAS  C:\Users\ASUS\AppData\Local\Temp\ccYYtRfk.s 			page 120


 4067 0ae3 DD0A0000 		.4byte	0xadd
 4068 0ae7 0D       		.uleb128 0xd
 4069 0ae8 6F060000 		.4byte	0x66f
 4070 0aec F70A0000 		.4byte	0xaf7
 4071 0af0 0E       		.uleb128 0xe
 4072 0af1 0E060000 		.4byte	0x60e
 4073 0af5 22       		.byte	0x22
 4074 0af6 00       		.byte	0
 4075 0af7 0F       		.uleb128 0xf
 4076 0af8 E70A0000 		.4byte	0xae7
 4077 0afc 10       		.uleb128 0x10
 4078 0afd F70A0000 		.4byte	0xaf7
 4079 0b01 0F       		.uleb128 0xf
 4080 0b02 C4060000 		.4byte	0x6c4
 4081 0b06 10       		.uleb128 0x10
 4082 0b07 010B0000 		.4byte	0xb01
 4083 0b0b 0F       		.uleb128 0xf
 4084 0b0c 94060000 		.4byte	0x694
 4085 0b10 10       		.uleb128 0x10
 4086 0b11 0B0B0000 		.4byte	0xb0b
 4087 0b15 0F       		.uleb128 0xf
 4088 0b16 14070000 		.4byte	0x714
 4089 0b1a 10       		.uleb128 0x10
 4090 0b1b 150B0000 		.4byte	0xb15
 4091 0b1f 0F       		.uleb128 0xf
 4092 0b20 04070000 		.4byte	0x704
 4093 0b24 10       		.uleb128 0x10
 4094 0b25 1F0B0000 		.4byte	0xb1f
 4095 0b29 0F       		.uleb128 0xf
 4096 0b2a 24070000 		.4byte	0x724
 4097 0b2e 10       		.uleb128 0x10
 4098 0b2f 290B0000 		.4byte	0xb29
 4099 0b33 0F       		.uleb128 0xf
 4100 0b34 34070000 		.4byte	0x734
 4101 0b38 0F       		.uleb128 0xf
 4102 0b39 84060000 		.4byte	0x684
 4103 0b3d 10       		.uleb128 0x10
 4104 0b3e 380B0000 		.4byte	0xb38
 4105 0b42 0F       		.uleb128 0xf
 4106 0b43 A4060000 		.4byte	0x6a4
 4107 0b47 10       		.uleb128 0x10
 4108 0b48 420B0000 		.4byte	0xb42
 4109 0b4c 0F       		.uleb128 0xf
 4110 0b4d E4060000 		.4byte	0x6e4
 4111 0b51 10       		.uleb128 0x10
 4112 0b52 4C0B0000 		.4byte	0xb4c
 4113 0b56 0F       		.uleb128 0xf
 4114 0b57 E4060000 		.4byte	0x6e4
 4115 0b5b 10       		.uleb128 0x10
 4116 0b5c 560B0000 		.4byte	0xb56
 4117 0b60 0F       		.uleb128 0xf
 4118 0b61 E4060000 		.4byte	0x6e4
 4119 0b65 10       		.uleb128 0x10
 4120 0b66 600B0000 		.4byte	0xb60
 4121 0b6a 0F       		.uleb128 0xf
 4122 0b6b E4060000 		.4byte	0x6e4
 4123 0b6f 10       		.uleb128 0x10
ARM GAS  C:\Users\ASUS\AppData\Local\Temp\ccYYtRfk.s 			page 121


 4124 0b70 6A0B0000 		.4byte	0xb6a
 4125 0b74 0F       		.uleb128 0xf
 4126 0b75 E4060000 		.4byte	0x6e4
 4127 0b79 10       		.uleb128 0x10
 4128 0b7a 740B0000 		.4byte	0xb74
 4129 0b7e 06       		.uleb128 0x6
 4130 0b7f 392E0000 		.4byte	.LASF286
 4131 0b83 0D       		.byte	0xd
 4132 0b84 68       		.byte	0x68
 4133 0b85 45070000 		.4byte	0x745
 4134 0b89 07       		.uleb128 0x7
 4135 0b8a 06280000 		.4byte	.LASF287
 4136 0b8e 0E       		.byte	0xe
 4137 0b8f 4F06     		.2byte	0x64f
 4138 0b91 7E0B0000 		.4byte	0xb7e
 4139 0b95 05       		.uleb128 0x5
 4140 0b96 08       		.byte	0x8
 4141 0b97 04       		.byte	0x4
 4142 0b98 FB280000 		.4byte	.LASF288
 4143 0b9c 15       		.uleb128 0x15
 4144 0b9d B8       		.byte	0xb8
 4145 0b9e 0F       		.byte	0xf
 4146 0b9f 34       		.byte	0x34
 4147 0ba0 AD0F0000 		.4byte	0xfad
 4148 0ba4 13       		.uleb128 0x13
 4149 0ba5 901E0000 		.4byte	.LASF289
 4150 0ba9 0F       		.byte	0xf
 4151 0baa 37       		.byte	0x37
 4152 0bab 61050000 		.4byte	0x561
 4153 0baf 00       		.byte	0
 4154 0bb0 13       		.uleb128 0x13
 4155 0bb1 693D0000 		.4byte	.LASF290
 4156 0bb5 0F       		.byte	0xf
 4157 0bb6 38       		.byte	0x38
 4158 0bb7 61050000 		.4byte	0x561
 4159 0bbb 04       		.byte	0x4
 4160 0bbc 13       		.uleb128 0x13
 4161 0bbd BD180000 		.4byte	.LASF291
 4162 0bc1 0F       		.byte	0xf
 4163 0bc2 39       		.byte	0x39
 4164 0bc3 61050000 		.4byte	0x561
 4165 0bc7 08       		.byte	0x8
 4166 0bc8 13       		.uleb128 0x13
 4167 0bc9 D9140000 		.4byte	.LASF292
 4168 0bcd 0F       		.byte	0xf
 4169 0bce 3A       		.byte	0x3a
 4170 0bcf 61050000 		.4byte	0x561
 4171 0bd3 0C       		.byte	0xc
 4172 0bd4 13       		.uleb128 0x13
 4173 0bd5 9A1E0000 		.4byte	.LASF293
 4174 0bd9 0F       		.byte	0xf
 4175 0bda 3B       		.byte	0x3b
 4176 0bdb 61050000 		.4byte	0x561
 4177 0bdf 10       		.byte	0x10
 4178 0be0 13       		.uleb128 0x13
 4179 0be1 54020000 		.4byte	.LASF294
 4180 0be5 0F       		.byte	0xf
ARM GAS  C:\Users\ASUS\AppData\Local\Temp\ccYYtRfk.s 			page 122


 4181 0be6 3C       		.byte	0x3c
 4182 0be7 61050000 		.4byte	0x561
 4183 0beb 14       		.byte	0x14
 4184 0bec 13       		.uleb128 0x13
 4185 0bed 5D320000 		.4byte	.LASF295
 4186 0bf1 0F       		.byte	0xf
 4187 0bf2 3D       		.byte	0x3d
 4188 0bf3 61050000 		.4byte	0x561
 4189 0bf7 18       		.byte	0x18
 4190 0bf8 13       		.uleb128 0x13
 4191 0bf9 37110000 		.4byte	.LASF296
 4192 0bfd 0F       		.byte	0xf
 4193 0bfe 3E       		.byte	0x3e
 4194 0bff 61050000 		.4byte	0x561
 4195 0c03 1C       		.byte	0x1c
 4196 0c04 13       		.uleb128 0x13
 4197 0c05 913B0000 		.4byte	.LASF297
 4198 0c09 0F       		.byte	0xf
 4199 0c0a 3F       		.byte	0x3f
 4200 0c0b 61050000 		.4byte	0x561
 4201 0c0f 20       		.byte	0x20
 4202 0c10 13       		.uleb128 0x13
 4203 0c11 8D000000 		.4byte	.LASF298
 4204 0c15 0F       		.byte	0xf
 4205 0c16 40       		.byte	0x40
 4206 0c17 61050000 		.4byte	0x561
 4207 0c1b 24       		.byte	0x24
 4208 0c1c 13       		.uleb128 0x13
 4209 0c1d 571B0000 		.4byte	.LASF299
 4210 0c21 0F       		.byte	0xf
 4211 0c22 43       		.byte	0x43
 4212 0c23 35050000 		.4byte	0x535
 4213 0c27 28       		.byte	0x28
 4214 0c28 13       		.uleb128 0x13
 4215 0c29 65210000 		.4byte	.LASF300
 4216 0c2d 0F       		.byte	0xf
 4217 0c2e 44       		.byte	0x44
 4218 0c2f 35050000 		.4byte	0x535
 4219 0c33 29       		.byte	0x29
 4220 0c34 13       		.uleb128 0x13
 4221 0c35 F2310000 		.4byte	.LASF301
 4222 0c39 0F       		.byte	0xf
 4223 0c3a 45       		.byte	0x45
 4224 0c3b 35050000 		.4byte	0x535
 4225 0c3f 2A       		.byte	0x2a
 4226 0c40 13       		.uleb128 0x13
 4227 0c41 D12A0000 		.4byte	.LASF302
 4228 0c45 0F       		.byte	0xf
 4229 0c46 46       		.byte	0x46
 4230 0c47 35050000 		.4byte	0x535
 4231 0c4b 2B       		.byte	0x2b
 4232 0c4c 13       		.uleb128 0x13
 4233 0c4d 5A380000 		.4byte	.LASF303
 4234 0c51 0F       		.byte	0xf
 4235 0c52 47       		.byte	0x47
 4236 0c53 35050000 		.4byte	0x535
 4237 0c57 2C       		.byte	0x2c
ARM GAS  C:\Users\ASUS\AppData\Local\Temp\ccYYtRfk.s 			page 123


 4238 0c58 13       		.uleb128 0x13
 4239 0c59 A8400000 		.4byte	.LASF304
 4240 0c5d 0F       		.byte	0xf
 4241 0c5e 48       		.byte	0x48
 4242 0c5f 35050000 		.4byte	0x535
 4243 0c63 2D       		.byte	0x2d
 4244 0c64 13       		.uleb128 0x13
 4245 0c65 A31E0000 		.4byte	.LASF305
 4246 0c69 0F       		.byte	0xf
 4247 0c6a 49       		.byte	0x49
 4248 0c6b 35050000 		.4byte	0x535
 4249 0c6f 2E       		.byte	0x2e
 4250 0c70 13       		.uleb128 0x13
 4251 0c71 16200000 		.4byte	.LASF306
 4252 0c75 0F       		.byte	0xf
 4253 0c76 4A       		.byte	0x4a
 4254 0c77 35050000 		.4byte	0x535
 4255 0c7b 2F       		.byte	0x2f
 4256 0c7c 13       		.uleb128 0x13
 4257 0c7d C6340000 		.4byte	.LASF307
 4258 0c81 0F       		.byte	0xf
 4259 0c82 4B       		.byte	0x4b
 4260 0c83 35050000 		.4byte	0x535
 4261 0c87 30       		.byte	0x30
 4262 0c88 13       		.uleb128 0x13
 4263 0c89 37230000 		.4byte	.LASF308
 4264 0c8d 0F       		.byte	0xf
 4265 0c8e 4E       		.byte	0x4e
 4266 0c8f 35050000 		.4byte	0x535
 4267 0c93 31       		.byte	0x31
 4268 0c94 13       		.uleb128 0x13
 4269 0c95 063D0000 		.4byte	.LASF309
 4270 0c99 0F       		.byte	0xf
 4271 0c9a 4F       		.byte	0x4f
 4272 0c9b 35050000 		.4byte	0x535
 4273 0c9f 32       		.byte	0x32
 4274 0ca0 13       		.uleb128 0x13
 4275 0ca1 1E300000 		.4byte	.LASF310
 4276 0ca5 0F       		.byte	0xf
 4277 0ca6 50       		.byte	0x50
 4278 0ca7 35050000 		.4byte	0x535
 4279 0cab 33       		.byte	0x33
 4280 0cac 13       		.uleb128 0x13
 4281 0cad DA190000 		.4byte	.LASF311
 4282 0cb1 0F       		.byte	0xf
 4283 0cb2 51       		.byte	0x51
 4284 0cb3 35050000 		.4byte	0x535
 4285 0cb7 34       		.byte	0x34
 4286 0cb8 13       		.uleb128 0x13
 4287 0cb9 18140000 		.4byte	.LASF312
 4288 0cbd 0F       		.byte	0xf
 4289 0cbe 52       		.byte	0x52
 4290 0cbf 40050000 		.4byte	0x540
 4291 0cc3 36       		.byte	0x36
 4292 0cc4 13       		.uleb128 0x13
 4293 0cc5 9B1B0000 		.4byte	.LASF313
 4294 0cc9 0F       		.byte	0xf
ARM GAS  C:\Users\ASUS\AppData\Local\Temp\ccYYtRfk.s 			page 124


 4295 0cca 53       		.byte	0x53
 4296 0ccb 40050000 		.4byte	0x540
 4297 0ccf 38       		.byte	0x38
 4298 0cd0 13       		.uleb128 0x13
 4299 0cd1 6F180000 		.4byte	.LASF314
 4300 0cd5 0F       		.byte	0xf
 4301 0cd6 54       		.byte	0x54
 4302 0cd7 40050000 		.4byte	0x540
 4303 0cdb 3A       		.byte	0x3a
 4304 0cdc 13       		.uleb128 0x13
 4305 0cdd 86020000 		.4byte	.LASF315
 4306 0ce1 0F       		.byte	0xf
 4307 0ce2 55       		.byte	0x55
 4308 0ce3 35050000 		.4byte	0x535
 4309 0ce7 3C       		.byte	0x3c
 4310 0ce8 13       		.uleb128 0x13
 4311 0ce9 152A0000 		.4byte	.LASF316
 4312 0ced 0F       		.byte	0xf
 4313 0cee 56       		.byte	0x56
 4314 0cef 35050000 		.4byte	0x535
 4315 0cf3 3D       		.byte	0x3d
 4316 0cf4 13       		.uleb128 0x13
 4317 0cf5 900C0000 		.4byte	.LASF317
 4318 0cf9 0F       		.byte	0xf
 4319 0cfa 57       		.byte	0x57
 4320 0cfb 35050000 		.4byte	0x535
 4321 0cff 3E       		.byte	0x3e
 4322 0d00 13       		.uleb128 0x13
 4323 0d01 41400000 		.4byte	.LASF318
 4324 0d05 0F       		.byte	0xf
 4325 0d06 58       		.byte	0x58
 4326 0d07 35050000 		.4byte	0x535
 4327 0d0b 3F       		.byte	0x3f
 4328 0d0c 13       		.uleb128 0x13
 4329 0d0d D71C0000 		.4byte	.LASF319
 4330 0d11 0F       		.byte	0xf
 4331 0d12 59       		.byte	0x59
 4332 0d13 35050000 		.4byte	0x535
 4333 0d17 40       		.byte	0x40
 4334 0d18 13       		.uleb128 0x13
 4335 0d19 121F0000 		.4byte	.LASF320
 4336 0d1d 0F       		.byte	0xf
 4337 0d1e 5A       		.byte	0x5a
 4338 0d1f 35050000 		.4byte	0x535
 4339 0d23 41       		.byte	0x41
 4340 0d24 13       		.uleb128 0x13
 4341 0d25 BB1A0000 		.4byte	.LASF321
 4342 0d29 0F       		.byte	0xf
 4343 0d2a 5B       		.byte	0x5b
 4344 0d2b 35050000 		.4byte	0x535
 4345 0d2f 42       		.byte	0x42
 4346 0d30 13       		.uleb128 0x13
 4347 0d31 2D0A0000 		.4byte	.LASF322
 4348 0d35 0F       		.byte	0xf
 4349 0d36 5C       		.byte	0x5c
 4350 0d37 35050000 		.4byte	0x535
 4351 0d3b 43       		.byte	0x43
ARM GAS  C:\Users\ASUS\AppData\Local\Temp\ccYYtRfk.s 			page 125


 4352 0d3c 13       		.uleb128 0x13
 4353 0d3d C9320000 		.4byte	.LASF323
 4354 0d41 0F       		.byte	0xf
 4355 0d42 5D       		.byte	0x5d
 4356 0d43 35050000 		.4byte	0x535
 4357 0d47 44       		.byte	0x44
 4358 0d48 13       		.uleb128 0x13
 4359 0d49 D81B0000 		.4byte	.LASF324
 4360 0d4d 0F       		.byte	0xf
 4361 0d4e 5E       		.byte	0x5e
 4362 0d4f 61050000 		.4byte	0x561
 4363 0d53 48       		.byte	0x48
 4364 0d54 13       		.uleb128 0x13
 4365 0d55 F9010000 		.4byte	.LASF325
 4366 0d59 0F       		.byte	0xf
 4367 0d5a 5F       		.byte	0x5f
 4368 0d5b 61050000 		.4byte	0x561
 4369 0d5f 4C       		.byte	0x4c
 4370 0d60 13       		.uleb128 0x13
 4371 0d61 DE210000 		.4byte	.LASF326
 4372 0d65 0F       		.byte	0xf
 4373 0d66 60       		.byte	0x60
 4374 0d67 35050000 		.4byte	0x535
 4375 0d6b 50       		.byte	0x50
 4376 0d6c 13       		.uleb128 0x13
 4377 0d6d A30A0000 		.4byte	.LASF327
 4378 0d71 0F       		.byte	0xf
 4379 0d72 61       		.byte	0x61
 4380 0d73 35050000 		.4byte	0x535
 4381 0d77 51       		.byte	0x51
 4382 0d78 13       		.uleb128 0x13
 4383 0d79 CE210000 		.4byte	.LASF328
 4384 0d7d 0F       		.byte	0xf
 4385 0d7e 62       		.byte	0x62
 4386 0d7f 35050000 		.4byte	0x535
 4387 0d83 52       		.byte	0x52
 4388 0d84 13       		.uleb128 0x13
 4389 0d85 A3370000 		.4byte	.LASF329
 4390 0d89 0F       		.byte	0xf
 4391 0d8a 63       		.byte	0x63
 4392 0d8b 35050000 		.4byte	0x535
 4393 0d8f 53       		.byte	0x53
 4394 0d90 13       		.uleb128 0x13
 4395 0d91 11280000 		.4byte	.LASF330
 4396 0d95 0F       		.byte	0xf
 4397 0d96 64       		.byte	0x64
 4398 0d97 35050000 		.4byte	0x535
 4399 0d9b 54       		.byte	0x54
 4400 0d9c 13       		.uleb128 0x13
 4401 0d9d 4D400000 		.4byte	.LASF331
 4402 0da1 0F       		.byte	0xf
 4403 0da2 65       		.byte	0x65
 4404 0da3 35050000 		.4byte	0x535
 4405 0da7 55       		.byte	0x55
 4406 0da8 13       		.uleb128 0x13
 4407 0da9 29360000 		.4byte	.LASF332
 4408 0dad 0F       		.byte	0xf
ARM GAS  C:\Users\ASUS\AppData\Local\Temp\ccYYtRfk.s 			page 126


 4409 0dae 66       		.byte	0x66
 4410 0daf 35050000 		.4byte	0x535
 4411 0db3 56       		.byte	0x56
 4412 0db4 13       		.uleb128 0x13
 4413 0db5 8D2B0000 		.4byte	.LASF333
 4414 0db9 0F       		.byte	0xf
 4415 0dba 67       		.byte	0x67
 4416 0dbb 35050000 		.4byte	0x535
 4417 0dbf 57       		.byte	0x57
 4418 0dc0 13       		.uleb128 0x13
 4419 0dc1 EF210000 		.4byte	.LASF334
 4420 0dc5 0F       		.byte	0xf
 4421 0dc6 68       		.byte	0x68
 4422 0dc7 35050000 		.4byte	0x535
 4423 0dcb 58       		.byte	0x58
 4424 0dcc 13       		.uleb128 0x13
 4425 0dcd CE170000 		.4byte	.LASF335
 4426 0dd1 0F       		.byte	0xf
 4427 0dd2 69       		.byte	0x69
 4428 0dd3 35050000 		.4byte	0x535
 4429 0dd7 59       		.byte	0x59
 4430 0dd8 13       		.uleb128 0x13
 4431 0dd9 E9400000 		.4byte	.LASF336
 4432 0ddd 0F       		.byte	0xf
 4433 0dde 6E       		.byte	0x6e
 4434 0ddf 4B050000 		.4byte	0x54b
 4435 0de3 5A       		.byte	0x5a
 4436 0de4 13       		.uleb128 0x13
 4437 0de5 FE1B0000 		.4byte	.LASF337
 4438 0de9 0F       		.byte	0xf
 4439 0dea 6F       		.byte	0x6f
 4440 0deb 4B050000 		.4byte	0x54b
 4441 0def 5C       		.byte	0x5c
 4442 0df0 13       		.uleb128 0x13
 4443 0df1 823B0000 		.4byte	.LASF338
 4444 0df5 0F       		.byte	0xf
 4445 0df6 70       		.byte	0x70
 4446 0df7 35050000 		.4byte	0x535
 4447 0dfb 5E       		.byte	0x5e
 4448 0dfc 13       		.uleb128 0x13
 4449 0dfd 073C0000 		.4byte	.LASF339
 4450 0e01 0F       		.byte	0xf
 4451 0e02 71       		.byte	0x71
 4452 0e03 35050000 		.4byte	0x535
 4453 0e07 5F       		.byte	0x5f
 4454 0e08 13       		.uleb128 0x13
 4455 0e09 78060000 		.4byte	.LASF340
 4456 0e0d 0F       		.byte	0xf
 4457 0e0e 72       		.byte	0x72
 4458 0e0f 35050000 		.4byte	0x535
 4459 0e13 60       		.byte	0x60
 4460 0e14 13       		.uleb128 0x13
 4461 0e15 A8270000 		.4byte	.LASF341
 4462 0e19 0F       		.byte	0xf
 4463 0e1a 73       		.byte	0x73
 4464 0e1b 61050000 		.4byte	0x561
 4465 0e1f 64       		.byte	0x64
ARM GAS  C:\Users\ASUS\AppData\Local\Temp\ccYYtRfk.s 			page 127


 4466 0e20 13       		.uleb128 0x13
 4467 0e21 7D280000 		.4byte	.LASF342
 4468 0e25 0F       		.byte	0xf
 4469 0e26 76       		.byte	0x76
 4470 0e27 4B050000 		.4byte	0x54b
 4471 0e2b 68       		.byte	0x68
 4472 0e2c 13       		.uleb128 0x13
 4473 0e2d 820A0000 		.4byte	.LASF343
 4474 0e31 0F       		.byte	0xf
 4475 0e32 77       		.byte	0x77
 4476 0e33 4B050000 		.4byte	0x54b
 4477 0e37 6A       		.byte	0x6a
 4478 0e38 13       		.uleb128 0x13
 4479 0e39 9D150000 		.4byte	.LASF344
 4480 0e3d 0F       		.byte	0xf
 4481 0e3e 78       		.byte	0x78
 4482 0e3f 4B050000 		.4byte	0x54b
 4483 0e43 6C       		.byte	0x6c
 4484 0e44 13       		.uleb128 0x13
 4485 0e45 310B0000 		.4byte	.LASF345
 4486 0e49 0F       		.byte	0xf
 4487 0e4a 79       		.byte	0x79
 4488 0e4b 4B050000 		.4byte	0x54b
 4489 0e4f 6E       		.byte	0x6e
 4490 0e50 13       		.uleb128 0x13
 4491 0e51 E32E0000 		.4byte	.LASF346
 4492 0e55 0F       		.byte	0xf
 4493 0e56 7B       		.byte	0x7b
 4494 0e57 35050000 		.4byte	0x535
 4495 0e5b 70       		.byte	0x70
 4496 0e5c 13       		.uleb128 0x13
 4497 0e5d 5E1E0000 		.4byte	.LASF347
 4498 0e61 0F       		.byte	0xf
 4499 0e62 7C       		.byte	0x7c
 4500 0e63 35050000 		.4byte	0x535
 4501 0e67 71       		.byte	0x71
 4502 0e68 13       		.uleb128 0x13
 4503 0e69 7B0E0000 		.4byte	.LASF348
 4504 0e6d 0F       		.byte	0xf
 4505 0e6e 7D       		.byte	0x7d
 4506 0e6f 35050000 		.4byte	0x535
 4507 0e73 72       		.byte	0x72
 4508 0e74 13       		.uleb128 0x13
 4509 0e75 B32A0000 		.4byte	.LASF349
 4510 0e79 0F       		.byte	0xf
 4511 0e7a 7E       		.byte	0x7e
 4512 0e7b 35050000 		.4byte	0x535
 4513 0e7f 73       		.byte	0x73
 4514 0e80 13       		.uleb128 0x13
 4515 0e81 993B0000 		.4byte	.LASF350
 4516 0e85 0F       		.byte	0xf
 4517 0e86 80       		.byte	0x80
 4518 0e87 4B050000 		.4byte	0x54b
 4519 0e8b 74       		.byte	0x74
 4520 0e8c 13       		.uleb128 0x13
 4521 0e8d B21D0000 		.4byte	.LASF351
 4522 0e91 0F       		.byte	0xf
ARM GAS  C:\Users\ASUS\AppData\Local\Temp\ccYYtRfk.s 			page 128


 4523 0e92 81       		.byte	0x81
 4524 0e93 4B050000 		.4byte	0x54b
 4525 0e97 76       		.byte	0x76
 4526 0e98 13       		.uleb128 0x13
 4527 0e99 5D220000 		.4byte	.LASF352
 4528 0e9d 0F       		.byte	0xf
 4529 0e9e 82       		.byte	0x82
 4530 0e9f 4B050000 		.4byte	0x54b
 4531 0ea3 78       		.byte	0x78
 4532 0ea4 13       		.uleb128 0x13
 4533 0ea5 2A300000 		.4byte	.LASF353
 4534 0ea9 0F       		.byte	0xf
 4535 0eaa 83       		.byte	0x83
 4536 0eab 4B050000 		.4byte	0x54b
 4537 0eaf 7A       		.byte	0x7a
 4538 0eb0 13       		.uleb128 0x13
 4539 0eb1 E5240000 		.4byte	.LASF354
 4540 0eb5 0F       		.byte	0xf
 4541 0eb6 86       		.byte	0x86
 4542 0eb7 35050000 		.4byte	0x535
 4543 0ebb 7C       		.byte	0x7c
 4544 0ebc 13       		.uleb128 0x13
 4545 0ebd D7040000 		.4byte	.LASF355
 4546 0ec1 0F       		.byte	0xf
 4547 0ec2 87       		.byte	0x87
 4548 0ec3 35050000 		.4byte	0x535
 4549 0ec7 7D       		.byte	0x7d
 4550 0ec8 13       		.uleb128 0x13
 4551 0ec9 AA180000 		.4byte	.LASF356
 4552 0ecd 0F       		.byte	0xf
 4553 0ece 88       		.byte	0x88
 4554 0ecf 35050000 		.4byte	0x535
 4555 0ed3 7E       		.byte	0x7e
 4556 0ed4 13       		.uleb128 0x13
 4557 0ed5 21120000 		.4byte	.LASF357
 4558 0ed9 0F       		.byte	0xf
 4559 0eda 89       		.byte	0x89
 4560 0edb 35050000 		.4byte	0x535
 4561 0edf 7F       		.byte	0x7f
 4562 0ee0 13       		.uleb128 0x13
 4563 0ee1 380A0000 		.4byte	.LASF358
 4564 0ee5 0F       		.byte	0xf
 4565 0ee6 8A       		.byte	0x8a
 4566 0ee7 35050000 		.4byte	0x535
 4567 0eeb 80       		.byte	0x80
 4568 0eec 13       		.uleb128 0x13
 4569 0eed 69150000 		.4byte	.LASF359
 4570 0ef1 0F       		.byte	0xf
 4571 0ef2 8D       		.byte	0x8d
 4572 0ef3 61050000 		.4byte	0x561
 4573 0ef7 84       		.byte	0x84
 4574 0ef8 13       		.uleb128 0x13
 4575 0ef9 C6160000 		.4byte	.LASF360
 4576 0efd 0F       		.byte	0xf
 4577 0efe 8E       		.byte	0x8e
 4578 0eff 61050000 		.4byte	0x561
 4579 0f03 88       		.byte	0x88
ARM GAS  C:\Users\ASUS\AppData\Local\Temp\ccYYtRfk.s 			page 129


 4580 0f04 13       		.uleb128 0x13
 4581 0f05 97140000 		.4byte	.LASF361
 4582 0f09 0F       		.byte	0xf
 4583 0f0a 8F       		.byte	0x8f
 4584 0f0b 61050000 		.4byte	0x561
 4585 0f0f 8C       		.byte	0x8c
 4586 0f10 13       		.uleb128 0x13
 4587 0f11 BD000000 		.4byte	.LASF362
 4588 0f15 0F       		.byte	0xf
 4589 0f16 90       		.byte	0x90
 4590 0f17 61050000 		.4byte	0x561
 4591 0f1b 90       		.byte	0x90
 4592 0f1c 13       		.uleb128 0x13
 4593 0f1d 3D170000 		.4byte	.LASF363
 4594 0f21 0F       		.byte	0xf
 4595 0f22 91       		.byte	0x91
 4596 0f23 61050000 		.4byte	0x561
 4597 0f27 94       		.byte	0x94
 4598 0f28 13       		.uleb128 0x13
 4599 0f29 DF100000 		.4byte	.LASF364
 4600 0f2d 0F       		.byte	0xf
 4601 0f2e 92       		.byte	0x92
 4602 0f2f 61050000 		.4byte	0x561
 4603 0f33 98       		.byte	0x98
 4604 0f34 13       		.uleb128 0x13
 4605 0f35 40110000 		.4byte	.LASF365
 4606 0f39 0F       		.byte	0xf
 4607 0f3a 93       		.byte	0x93
 4608 0f3b 61050000 		.4byte	0x561
 4609 0f3f 9C       		.byte	0x9c
 4610 0f40 13       		.uleb128 0x13
 4611 0f41 E21D0000 		.4byte	.LASF366
 4612 0f45 0F       		.byte	0xf
 4613 0f46 94       		.byte	0x94
 4614 0f47 61050000 		.4byte	0x561
 4615 0f4b A0       		.byte	0xa0
 4616 0f4c 13       		.uleb128 0x13
 4617 0f4d 492B0000 		.4byte	.LASF367
 4618 0f51 0F       		.byte	0xf
 4619 0f52 95       		.byte	0x95
 4620 0f53 4B050000 		.4byte	0x54b
 4621 0f57 A4       		.byte	0xa4
 4622 0f58 13       		.uleb128 0x13
 4623 0f59 022B0000 		.4byte	.LASF368
 4624 0f5d 0F       		.byte	0xf
 4625 0f5e 96       		.byte	0x96
 4626 0f5f 4B050000 		.4byte	0x54b
 4627 0f63 A6       		.byte	0xa6
 4628 0f64 13       		.uleb128 0x13
 4629 0f65 990E0000 		.4byte	.LASF369
 4630 0f69 0F       		.byte	0xf
 4631 0f6a 97       		.byte	0x97
 4632 0f6b 4B050000 		.4byte	0x54b
 4633 0f6f A8       		.byte	0xa8
 4634 0f70 13       		.uleb128 0x13
 4635 0f71 44300000 		.4byte	.LASF370
 4636 0f75 0F       		.byte	0xf
ARM GAS  C:\Users\ASUS\AppData\Local\Temp\ccYYtRfk.s 			page 130


 4637 0f76 98       		.byte	0x98
 4638 0f77 4B050000 		.4byte	0x54b
 4639 0f7b AA       		.byte	0xaa
 4640 0f7c 13       		.uleb128 0x13
 4641 0f7d FA240000 		.4byte	.LASF371
 4642 0f81 0F       		.byte	0xf
 4643 0f82 99       		.byte	0x99
 4644 0f83 4B050000 		.4byte	0x54b
 4645 0f87 AC       		.byte	0xac
 4646 0f88 13       		.uleb128 0x13
 4647 0f89 291B0000 		.4byte	.LASF372
 4648 0f8d 0F       		.byte	0xf
 4649 0f8e 9A       		.byte	0x9a
 4650 0f8f 4B050000 		.4byte	0x54b
 4651 0f93 AE       		.byte	0xae
 4652 0f94 13       		.uleb128 0x13
 4653 0f95 463D0000 		.4byte	.LASF373
 4654 0f99 0F       		.byte	0xf
 4655 0f9a 9D       		.byte	0x9d
 4656 0f9b 4B050000 		.4byte	0x54b
 4657 0f9f B0       		.byte	0xb0
 4658 0fa0 13       		.uleb128 0x13
 4659 0fa1 CC150000 		.4byte	.LASF374
 4660 0fa5 0F       		.byte	0xf
 4661 0fa6 9E       		.byte	0x9e
 4662 0fa7 61050000 		.4byte	0x561
 4663 0fab B4       		.byte	0xb4
 4664 0fac 00       		.byte	0
 4665 0fad 06       		.uleb128 0x6
 4666 0fae B0200000 		.4byte	.LASF375
 4667 0fb2 0F       		.byte	0xf
 4668 0fb3 9F       		.byte	0x9f
 4669 0fb4 9C0B0000 		.4byte	0xb9c
 4670 0fb8 16       		.uleb128 0x16
 4671 0fb9 04       		.byte	0x4
 4672 0fba BE0F0000 		.4byte	0xfbe
 4673 0fbe 17       		.uleb128 0x17
 4674 0fbf 07       		.uleb128 0x7
 4675 0fc0 4F2C0000 		.4byte	.LASF376
 4676 0fc4 10       		.byte	0x10
 4677 0fc5 F601     		.2byte	0x1f6
 4678 0fc7 CB0F0000 		.4byte	0xfcb
 4679 0fcb 05       		.uleb128 0x5
 4680 0fcc 01       		.byte	0x1
 4681 0fcd 08       		.byte	0x8
 4682 0fce A6110000 		.4byte	.LASF377
 4683 0fd2 05       		.uleb128 0x5
 4684 0fd3 04       		.byte	0x4
 4685 0fd4 04       		.byte	0x4
 4686 0fd5 1D320000 		.4byte	.LASF378
 4687 0fd9 05       		.uleb128 0x5
 4688 0fda 08       		.byte	0x8
 4689 0fdb 04       		.byte	0x4
 4690 0fdc 52210000 		.4byte	.LASF379
 4691 0fe0 07       		.uleb128 0x7
 4692 0fe1 C0340000 		.4byte	.LASF380
 4693 0fe5 10       		.byte	0x10
ARM GAS  C:\Users\ASUS\AppData\Local\Temp\ccYYtRfk.s 			page 131


 4694 0fe6 EA03     		.2byte	0x3ea
 4695 0fe8 35050000 		.4byte	0x535
 4696 0fec 18       		.uleb128 0x18
 4697 0fed 08       		.byte	0x8
 4698 0fee 11       		.byte	0x11
 4699 0fef 2D01     		.2byte	0x12d
 4700 0ff1 1D100000 		.4byte	0x101d
 4701 0ff5 0A       		.uleb128 0xa
 4702 0ff6 3C080000 		.4byte	.LASF381
 4703 0ffa 11       		.byte	0x11
 4704 0ffb 2E01     		.2byte	0x12e
 4705 0ffd 23010000 		.4byte	0x123
 4706 1001 00       		.byte	0
 4707 1002 0A       		.uleb128 0xa
 4708 1003 511A0000 		.4byte	.LASF382
 4709 1007 11       		.byte	0x11
 4710 1008 3001     		.2byte	0x130
 4711 100a BA040000 		.4byte	0x4ba
 4712 100e 02       		.byte	0x2
 4713 100f 0A       		.uleb128 0xa
 4714 1010 BC320000 		.4byte	.LASF383
 4715 1014 11       		.byte	0x11
 4716 1015 3201     		.2byte	0x132
 4717 1017 61050000 		.4byte	0x561
 4718 101b 04       		.byte	0x4
 4719 101c 00       		.byte	0
 4720 101d 07       		.uleb128 0x7
 4721 101e B6160000 		.4byte	.LASF384
 4722 1022 11       		.byte	0x11
 4723 1023 3301     		.2byte	0x133
 4724 1025 EC0F0000 		.4byte	0xfec
 4725 1029 19       		.uleb128 0x19
 4726 102a 01       		.byte	0x1
 4727 102b B3040000 		.4byte	0x4b3
 4728 102f 12       		.byte	0x12
 4729 1030 2305     		.2byte	0x523
 4730 1032 43100000 		.4byte	0x1043
 4731 1036 04       		.uleb128 0x4
 4732 1037 071C0000 		.4byte	.LASF385
 4733 103b 00       		.byte	0
 4734 103c 04       		.uleb128 0x4
 4735 103d B5400000 		.4byte	.LASF386
 4736 1041 01       		.byte	0x1
 4737 1042 00       		.byte	0
 4738 1043 1A       		.uleb128 0x1a
 4739 1044 04       		.byte	0x4
 4740 1045 05       		.uleb128 0x5
 4741 1046 01       		.byte	0x1
 4742 1047 02       		.byte	0x2
 4743 1048 22110000 		.4byte	.LASF387
 4744 104c 19       		.uleb128 0x19
 4745 104d 04       		.byte	0x4
 4746 104e 2E050000 		.4byte	0x52e
 4747 1052 13       		.byte	0x13
 4748 1053 4A01     		.2byte	0x14a
 4749 1055 84100000 		.4byte	0x1084
 4750 1059 04       		.uleb128 0x4
ARM GAS  C:\Users\ASUS\AppData\Local\Temp\ccYYtRfk.s 			page 132


 4751 105a 55010000 		.4byte	.LASF388
 4752 105e 00       		.byte	0
 4753 105f 1B       		.uleb128 0x1b
 4754 1060 370D0000 		.4byte	.LASF389
 4755 1064 0100A200 		.4byte	0xa20001
 4756 1068 1B       		.uleb128 0x1b
 4757 1069 3A3C0000 		.4byte	.LASF390
 4758 106d 0200A200 		.4byte	0xa20002
 4759 1071 1B       		.uleb128 0x1b
 4760 1072 342B0000 		.4byte	.LASF391
 4761 1076 0300A200 		.4byte	0xa20003
 4762 107a 1B       		.uleb128 0x1b
 4763 107b B9270000 		.4byte	.LASF392
 4764 107f FF00A200 		.4byte	0xa200ff
 4765 1083 00       		.byte	0
 4766 1084 07       		.uleb128 0x7
 4767 1085 6C240000 		.4byte	.LASF393
 4768 1089 13       		.byte	0x13
 4769 108a 5001     		.2byte	0x150
 4770 108c 4C100000 		.4byte	0x104c
 4771 1090 1C       		.uleb128 0x1c
 4772 1091 812F0000 		.4byte	.LASF743
 4773 1095 01       		.byte	0x1
 4774 1096 B3040000 		.4byte	0x4b3
 4775 109a 13       		.byte	0x13
 4776 109b 5B01     		.2byte	0x15b
 4777 109d AE100000 		.4byte	0x10ae
 4778 10a1 04       		.uleb128 0x4
 4779 10a2 B50A0000 		.4byte	.LASF394
 4780 10a6 00       		.byte	0
 4781 10a7 04       		.uleb128 0x4
 4782 10a8 C40A0000 		.4byte	.LASF395
 4783 10ac 01       		.byte	0x1
 4784 10ad 00       		.byte	0
 4785 10ae 19       		.uleb128 0x19
 4786 10af 01       		.byte	0x1
 4787 10b0 B3040000 		.4byte	0x4b3
 4788 10b4 13       		.byte	0x13
 4789 10b5 6301     		.2byte	0x163
 4790 10b7 C8100000 		.4byte	0x10c8
 4791 10bb 04       		.uleb128 0x4
 4792 10bc 26040000 		.4byte	.LASF396
 4793 10c0 00       		.byte	0
 4794 10c1 04       		.uleb128 0x4
 4795 10c2 80150000 		.4byte	.LASF397
 4796 10c6 01       		.byte	0x1
 4797 10c7 00       		.byte	0
 4798 10c8 07       		.uleb128 0x7
 4799 10c9 75270000 		.4byte	.LASF398
 4800 10cd 13       		.byte	0x13
 4801 10ce 6601     		.2byte	0x166
 4802 10d0 AE100000 		.4byte	0x10ae
 4803 10d4 19       		.uleb128 0x19
 4804 10d5 01       		.byte	0x1
 4805 10d6 B3040000 		.4byte	0x4b3
 4806 10da 13       		.byte	0x13
 4807 10db 7101     		.2byte	0x171
ARM GAS  C:\Users\ASUS\AppData\Local\Temp\ccYYtRfk.s 			page 133


 4808 10dd EE100000 		.4byte	0x10ee
 4809 10e1 04       		.uleb128 0x4
 4810 10e2 DA080000 		.4byte	.LASF399
 4811 10e6 00       		.byte	0
 4812 10e7 04       		.uleb128 0x4
 4813 10e8 46140000 		.4byte	.LASF400
 4814 10ec 01       		.byte	0x1
 4815 10ed 00       		.byte	0
 4816 10ee 07       		.uleb128 0x7
 4817 10ef E0370000 		.4byte	.LASF401
 4818 10f3 13       		.byte	0x13
 4819 10f4 7401     		.2byte	0x174
 4820 10f6 D4100000 		.4byte	0x10d4
 4821 10fa 19       		.uleb128 0x19
 4822 10fb 01       		.byte	0x1
 4823 10fc B3040000 		.4byte	0x4b3
 4824 1100 13       		.byte	0x13
 4825 1101 7801     		.2byte	0x178
 4826 1103 14110000 		.4byte	0x1114
 4827 1107 04       		.uleb128 0x4
 4828 1108 52170000 		.4byte	.LASF402
 4829 110c 00       		.byte	0
 4830 110d 04       		.uleb128 0x4
 4831 110e F3230000 		.4byte	.LASF403
 4832 1112 01       		.byte	0x1
 4833 1113 00       		.byte	0
 4834 1114 07       		.uleb128 0x7
 4835 1115 C9370000 		.4byte	.LASF404
 4836 1119 13       		.byte	0x13
 4837 111a 7B01     		.2byte	0x17b
 4838 111c FA100000 		.4byte	0x10fa
 4839 1120 19       		.uleb128 0x19
 4840 1121 01       		.byte	0x1
 4841 1122 B3040000 		.4byte	0x4b3
 4842 1126 13       		.byte	0x13
 4843 1127 7F01     		.2byte	0x17f
 4844 1129 3A110000 		.4byte	0x113a
 4845 112d 04       		.uleb128 0x4
 4846 112e 84400000 		.4byte	.LASF405
 4847 1132 00       		.byte	0
 4848 1133 04       		.uleb128 0x4
 4849 1134 C00F0000 		.4byte	.LASF406
 4850 1138 01       		.byte	0x1
 4851 1139 00       		.byte	0
 4852 113a 07       		.uleb128 0x7
 4853 113b EB0A0000 		.4byte	.LASF407
 4854 113f 13       		.byte	0x13
 4855 1140 8201     		.2byte	0x182
 4856 1142 20110000 		.4byte	0x1120
 4857 1146 1D       		.uleb128 0x1d
 4858 1147 0C390000 		.4byte	.LASF416
 4859 114b 20       		.byte	0x20
 4860 114c 13       		.byte	0x13
 4861 114d 9301     		.2byte	0x193
 4862 114f C9110000 		.4byte	0x11c9
 4863 1153 1E       		.uleb128 0x1e
 4864 1154 73656300 		.ascii	"sec\000"
ARM GAS  C:\Users\ASUS\AppData\Local\Temp\ccYYtRfk.s 			page 134


 4865 1158 13       		.byte	0x13
 4866 1159 9601     		.2byte	0x196
 4867 115b 61050000 		.4byte	0x561
 4868 115f 00       		.byte	0
 4869 1160 1E       		.uleb128 0x1e
 4870 1161 6D696E00 		.ascii	"min\000"
 4871 1165 13       		.byte	0x13
 4872 1166 9701     		.2byte	0x197
 4873 1168 61050000 		.4byte	0x561
 4874 116c 04       		.byte	0x4
 4875 116d 0A       		.uleb128 0xa
 4876 116e DB370000 		.4byte	.LASF408
 4877 1172 13       		.byte	0x13
 4878 1173 9801     		.2byte	0x198
 4879 1175 61050000 		.4byte	0x561
 4880 1179 08       		.byte	0x8
 4881 117a 0A       		.uleb128 0xa
 4882 117b 562D0000 		.4byte	.LASF409
 4883 117f 13       		.byte	0x13
 4884 1180 9B01     		.2byte	0x19b
 4885 1182 14110000 		.4byte	0x1114
 4886 1186 0C       		.byte	0xc
 4887 1187 0A       		.uleb128 0xa
 4888 1188 271E0000 		.4byte	.LASF410
 4889 118c 13       		.byte	0x13
 4890 118d 9E01     		.2byte	0x19e
 4891 118f C8100000 		.4byte	0x10c8
 4892 1193 0D       		.byte	0xd
 4893 1194 0A       		.uleb128 0xa
 4894 1195 263E0000 		.4byte	.LASF411
 4895 1199 13       		.byte	0x13
 4896 119a 9F01     		.2byte	0x19f
 4897 119c 61050000 		.4byte	0x561
 4898 11a0 10       		.byte	0x10
 4899 11a1 0A       		.uleb128 0xa
 4900 11a2 8B0C0000 		.4byte	.LASF412
 4901 11a6 13       		.byte	0x13
 4902 11a7 A201     		.2byte	0x1a2
 4903 11a9 61050000 		.4byte	0x561
 4904 11ad 14       		.byte	0x14
 4905 11ae 0A       		.uleb128 0xa
 4906 11af 04330000 		.4byte	.LASF413
 4907 11b3 13       		.byte	0x13
 4908 11b4 A301     		.2byte	0x1a3
 4909 11b6 61050000 		.4byte	0x561
 4910 11ba 18       		.byte	0x18
 4911 11bb 0A       		.uleb128 0xa
 4912 11bc 1D150000 		.4byte	.LASF414
 4913 11c0 13       		.byte	0x13
 4914 11c1 A401     		.2byte	0x1a4
 4915 11c3 61050000 		.4byte	0x561
 4916 11c7 1C       		.byte	0x1c
 4917 11c8 00       		.byte	0
 4918 11c9 07       		.uleb128 0x7
 4919 11ca 2C1D0000 		.4byte	.LASF415
 4920 11ce 13       		.byte	0x13
 4921 11cf A501     		.2byte	0x1a5
ARM GAS  C:\Users\ASUS\AppData\Local\Temp\ccYYtRfk.s 			page 135


 4922 11d1 46110000 		.4byte	0x1146
 4923 11d5 1D       		.uleb128 0x1d
 4924 11d6 5B240000 		.4byte	.LASF417
 4925 11da 30       		.byte	0x30
 4926 11db 13       		.byte	0x13
 4927 11dc A801     		.2byte	0x1a8
 4928 11de 8C120000 		.4byte	0x128c
 4929 11e2 1E       		.uleb128 0x1e
 4930 11e3 73656300 		.ascii	"sec\000"
 4931 11e7 13       		.byte	0x13
 4932 11e8 AB01     		.2byte	0x1ab
 4933 11ea 61050000 		.4byte	0x561
 4934 11ee 00       		.byte	0
 4935 11ef 0A       		.uleb128 0xa
 4936 11f0 37170000 		.4byte	.LASF418
 4937 11f4 13       		.byte	0x13
 4938 11f5 AE01     		.2byte	0x1ae
 4939 11f7 3A110000 		.4byte	0x113a
 4940 11fb 04       		.byte	0x4
 4941 11fc 1E       		.uleb128 0x1e
 4942 11fd 6D696E00 		.ascii	"min\000"
 4943 1201 13       		.byte	0x13
 4944 1202 B001     		.2byte	0x1b0
 4945 1204 61050000 		.4byte	0x561
 4946 1208 08       		.byte	0x8
 4947 1209 0A       		.uleb128 0xa
 4948 120a A4240000 		.4byte	.LASF419
 4949 120e 13       		.byte	0x13
 4950 120f B301     		.2byte	0x1b3
 4951 1211 3A110000 		.4byte	0x113a
 4952 1215 0C       		.byte	0xc
 4953 1216 0A       		.uleb128 0xa
 4954 1217 DB370000 		.4byte	.LASF408
 4955 121b 13       		.byte	0x13
 4956 121c B501     		.2byte	0x1b5
 4957 121e 61050000 		.4byte	0x561
 4958 1222 10       		.byte	0x10
 4959 1223 0A       		.uleb128 0xa
 4960 1224 54240000 		.4byte	.LASF420
 4961 1228 13       		.byte	0x13
 4962 1229 B801     		.2byte	0x1b8
 4963 122b 3A110000 		.4byte	0x113a
 4964 122f 14       		.byte	0x14
 4965 1230 0A       		.uleb128 0xa
 4966 1231 263E0000 		.4byte	.LASF411
 4967 1235 13       		.byte	0x13
 4968 1236 BA01     		.2byte	0x1ba
 4969 1238 61050000 		.4byte	0x561
 4970 123c 18       		.byte	0x18
 4971 123d 0A       		.uleb128 0xa
 4972 123e 992C0000 		.4byte	.LASF421
 4973 1242 13       		.byte	0x13
 4974 1243 BD01     		.2byte	0x1bd
 4975 1245 3A110000 		.4byte	0x113a
 4976 1249 1C       		.byte	0x1c
 4977 124a 0A       		.uleb128 0xa
 4978 124b 8B0C0000 		.4byte	.LASF412
ARM GAS  C:\Users\ASUS\AppData\Local\Temp\ccYYtRfk.s 			page 136


 4979 124f 13       		.byte	0x13
 4980 1250 C101     		.2byte	0x1c1
 4981 1252 61050000 		.4byte	0x561
 4982 1256 20       		.byte	0x20
 4983 1257 0A       		.uleb128 0xa
 4984 1258 C0200000 		.4byte	.LASF422
 4985 125c 13       		.byte	0x13
 4986 125d C401     		.2byte	0x1c4
 4987 125f 3A110000 		.4byte	0x113a
 4988 1263 24       		.byte	0x24
 4989 1264 0A       		.uleb128 0xa
 4990 1265 04330000 		.4byte	.LASF413
 4991 1269 13       		.byte	0x13
 4992 126a C601     		.2byte	0x1c6
 4993 126c 61050000 		.4byte	0x561
 4994 1270 28       		.byte	0x28
 4995 1271 0A       		.uleb128 0xa
 4996 1272 72250000 		.4byte	.LASF423
 4997 1276 13       		.byte	0x13
 4998 1277 C901     		.2byte	0x1c9
 4999 1279 3A110000 		.4byte	0x113a
 5000 127d 2C       		.byte	0x2c
 5001 127e 0A       		.uleb128 0xa
 5002 127f 45180000 		.4byte	.LASF424
 5003 1283 13       		.byte	0x13
 5004 1284 CB01     		.2byte	0x1cb
 5005 1286 3A110000 		.4byte	0x113a
 5006 128a 2D       		.byte	0x2d
 5007 128b 00       		.byte	0
 5008 128c 07       		.uleb128 0x7
 5009 128d 98190000 		.4byte	.LASF425
 5010 1291 13       		.byte	0x13
 5011 1292 CE01     		.2byte	0x1ce
 5012 1294 D5110000 		.4byte	0x11d5
 5013 1298 18       		.uleb128 0x18
 5014 1299 18       		.byte	0x18
 5015 129a 13       		.byte	0x13
 5016 129b D501     		.2byte	0x1d5
 5017 129d F0120000 		.4byte	0x12f0
 5018 12a1 0A       		.uleb128 0xa
 5019 12a2 591A0000 		.4byte	.LASF426
 5020 12a6 13       		.byte	0x13
 5021 12a7 D701     		.2byte	0x1d7
 5022 12a9 EE100000 		.4byte	0x10ee
 5023 12ad 00       		.byte	0
 5024 12ae 0A       		.uleb128 0xa
 5025 12af DB370000 		.4byte	.LASF408
 5026 12b3 13       		.byte	0x13
 5027 12b4 DA01     		.2byte	0x1da
 5028 12b6 61050000 		.4byte	0x561
 5029 12ba 04       		.byte	0x4
 5030 12bb 0A       		.uleb128 0xa
 5031 12bc 9E0C0000 		.4byte	.LASF427
 5032 12c0 13       		.byte	0x13
 5033 12c1 DC01     		.2byte	0x1dc
 5034 12c3 61050000 		.4byte	0x561
 5035 12c7 08       		.byte	0x8
ARM GAS  C:\Users\ASUS\AppData\Local\Temp\ccYYtRfk.s 			page 137


 5036 12c8 0A       		.uleb128 0xa
 5037 12c9 14380000 		.4byte	.LASF428
 5038 12cd 13       		.byte	0x13
 5039 12ce DF01     		.2byte	0x1df
 5040 12d0 61050000 		.4byte	0x561
 5041 12d4 0C       		.byte	0xc
 5042 12d5 0A       		.uleb128 0xa
 5043 12d6 263E0000 		.4byte	.LASF411
 5044 12da 13       		.byte	0x13
 5045 12db E301     		.2byte	0x1e3
 5046 12dd 61050000 		.4byte	0x561
 5047 12e1 10       		.byte	0x10
 5048 12e2 0A       		.uleb128 0xa
 5049 12e3 04330000 		.4byte	.LASF413
 5050 12e7 13       		.byte	0x13
 5051 12e8 E701     		.2byte	0x1e7
 5052 12ea 61050000 		.4byte	0x561
 5053 12ee 14       		.byte	0x14
 5054 12ef 00       		.byte	0
 5055 12f0 07       		.uleb128 0x7
 5056 12f1 2D020000 		.4byte	.LASF429
 5057 12f5 13       		.byte	0x13
 5058 12f6 E901     		.2byte	0x1e9
 5059 12f8 98120000 		.4byte	0x1298
 5060 12fc 18       		.uleb128 0x18
 5061 12fd 30       		.byte	0x30
 5062 12fe 13       		.byte	0x13
 5063 12ff EC01     		.2byte	0x1ec
 5064 1301 20130000 		.4byte	0x1320
 5065 1305 0A       		.uleb128 0xa
 5066 1306 71140000 		.4byte	.LASF430
 5067 130a 13       		.byte	0x13
 5068 130b EE01     		.2byte	0x1ee
 5069 130d F0120000 		.4byte	0x12f0
 5070 1311 00       		.byte	0
 5071 1312 0A       		.uleb128 0xa
 5072 1313 68040000 		.4byte	.LASF431
 5073 1317 13       		.byte	0x13
 5074 1318 EF01     		.2byte	0x1ef
 5075 131a F0120000 		.4byte	0x12f0
 5076 131e 18       		.byte	0x18
 5077 131f 00       		.byte	0
 5078 1320 07       		.uleb128 0x7
 5079 1321 83370000 		.4byte	.LASF432
 5080 1325 13       		.byte	0x13
 5081 1326 F001     		.2byte	0x1f0
 5082 1328 FC120000 		.4byte	0x12fc
 5083 132c 19       		.uleb128 0x19
 5084 132d 04       		.byte	0x4
 5085 132e 2E050000 		.4byte	0x52e
 5086 1332 14       		.byte	0x14
 5087 1333 DF01     		.2byte	0x1df
 5088 1335 88130000 		.4byte	0x1388
 5089 1339 04       		.uleb128 0x4
 5090 133a 8E200000 		.4byte	.LASF433
 5091 133e 00       		.byte	0
 5092 133f 1B       		.uleb128 0x1b
ARM GAS  C:\Users\ASUS\AppData\Local\Temp\ccYYtRfk.s 			page 138


 5093 1340 23290000 		.4byte	.LASF434
 5094 1344 0120AA00 		.4byte	0xaa2001
 5095 1348 1B       		.uleb128 0x1b
 5096 1349 37270000 		.4byte	.LASF435
 5097 134d 0220AA00 		.4byte	0xaa2002
 5098 1351 1B       		.uleb128 0x1b
 5099 1352 FB360000 		.4byte	.LASF436
 5100 1356 0320AA00 		.4byte	0xaa2003
 5101 135a 1B       		.uleb128 0x1b
 5102 135b C7300000 		.4byte	.LASF437
 5103 135f 0420AA00 		.4byte	0xaa2004
 5104 1363 1B       		.uleb128 0x1b
 5105 1364 F72E0000 		.4byte	.LASF438
 5106 1368 0520AA00 		.4byte	0xaa2005
 5107 136c 1B       		.uleb128 0x1b
 5108 136d 65190000 		.4byte	.LASF439
 5109 1371 0620AA00 		.4byte	0xaa2006
 5110 1375 1B       		.uleb128 0x1b
 5111 1376 8F3C0000 		.4byte	.LASF440
 5112 137a 0720AA00 		.4byte	0xaa2007
 5113 137e 1B       		.uleb128 0x1b
 5114 137f 68000000 		.4byte	.LASF441
 5115 1383 0820AA00 		.4byte	0xaa2008
 5116 1387 00       		.byte	0
 5117 1388 07       		.uleb128 0x7
 5118 1389 51000000 		.4byte	.LASF442
 5119 138d 14       		.byte	0x14
 5120 138e 1102     		.2byte	0x211
 5121 1390 2C130000 		.4byte	0x132c
 5122 1394 19       		.uleb128 0x19
 5123 1395 01       		.byte	0x1
 5124 1396 B3040000 		.4byte	0x4b3
 5125 139a 14       		.byte	0x14
 5126 139b 1D02     		.2byte	0x21d
 5127 139d AE130000 		.4byte	0x13ae
 5128 13a1 04       		.uleb128 0x4
 5129 13a2 630B0000 		.4byte	.LASF443
 5130 13a6 00       		.byte	0
 5131 13a7 04       		.uleb128 0x4
 5132 13a8 02320000 		.4byte	.LASF444
 5133 13ac 01       		.byte	0x1
 5134 13ad 00       		.byte	0
 5135 13ae 07       		.uleb128 0x7
 5136 13af 8E270000 		.4byte	.LASF445
 5137 13b3 14       		.byte	0x14
 5138 13b4 2002     		.2byte	0x220
 5139 13b6 94130000 		.4byte	0x1394
 5140 13ba 19       		.uleb128 0x19
 5141 13bb 01       		.byte	0x1
 5142 13bc B3040000 		.4byte	0x4b3
 5143 13c0 14       		.byte	0x14
 5144 13c1 2402     		.2byte	0x224
 5145 13c3 D4130000 		.4byte	0x13d4
 5146 13c7 04       		.uleb128 0x4
 5147 13c8 AB170000 		.4byte	.LASF446
 5148 13cc 00       		.byte	0
 5149 13cd 04       		.uleb128 0x4
ARM GAS  C:\Users\ASUS\AppData\Local\Temp\ccYYtRfk.s 			page 139


 5150 13ce 733B0000 		.4byte	.LASF447
 5151 13d2 01       		.byte	0x1
 5152 13d3 00       		.byte	0
 5153 13d4 07       		.uleb128 0x7
 5154 13d5 F21A0000 		.4byte	.LASF448
 5155 13d9 14       		.byte	0x14
 5156 13da 2702     		.2byte	0x227
 5157 13dc BA130000 		.4byte	0x13ba
 5158 13e0 07       		.uleb128 0x7
 5159 13e1 19270000 		.4byte	.LASF449
 5160 13e5 14       		.byte	0x14
 5161 13e6 3902     		.2byte	0x239
 5162 13e8 EC130000 		.4byte	0x13ec
 5163 13ec 16       		.uleb128 0x16
 5164 13ed 04       		.byte	0x4
 5165 13ee F2130000 		.4byte	0x13f2
 5166 13f2 1F       		.uleb128 0x1f
 5167 13f3 FD130000 		.4byte	0x13fd
 5168 13f7 20       		.uleb128 0x20
 5169 13f8 61050000 		.4byte	0x561
 5170 13fc 00       		.byte	0
 5171 13fd 07       		.uleb128 0x7
 5172 13fe CD400000 		.4byte	.LASF450
 5173 1402 14       		.byte	0x14
 5174 1403 4402     		.2byte	0x244
 5175 1405 09140000 		.4byte	0x1409
 5176 1409 16       		.uleb128 0x16
 5177 140a 04       		.byte	0x4
 5178 140b 0F140000 		.4byte	0x140f
 5179 140f 21       		.uleb128 0x21
 5180 1410 D4130000 		.4byte	0x13d4
 5181 1414 1E140000 		.4byte	0x141e
 5182 1418 20       		.uleb128 0x20
 5183 1419 61050000 		.4byte	0x561
 5184 141d 00       		.byte	0
 5185 141e 1D       		.uleb128 0x1d
 5186 141f 663F0000 		.4byte	.LASF451
 5187 1423 4C       		.byte	0x4c
 5188 1424 14       		.byte	0x14
 5189 1425 C302     		.2byte	0x2c3
 5190 1427 3D150000 		.4byte	0x153d
 5191 142b 0A       		.uleb128 0xa
 5192 142c 79080000 		.4byte	.LASF452
 5193 1430 14       		.byte	0x14
 5194 1431 C602     		.2byte	0x2c6
 5195 1433 45100000 		.4byte	0x1045
 5196 1437 00       		.byte	0
 5197 1438 0A       		.uleb128 0xa
 5198 1439 322C0000 		.4byte	.LASF453
 5199 143d 14       		.byte	0x14
 5200 143e C702     		.2byte	0x2c7
 5201 1440 45100000 		.4byte	0x1045
 5202 1444 01       		.byte	0x1
 5203 1445 0A       		.uleb128 0xa
 5204 1446 98040000 		.4byte	.LASF454
 5205 144a 14       		.byte	0x14
 5206 144b C902     		.2byte	0x2c9
ARM GAS  C:\Users\ASUS\AppData\Local\Temp\ccYYtRfk.s 			page 140


 5207 144d 15060000 		.4byte	0x615
 5208 1451 04       		.byte	0x4
 5209 1452 0A       		.uleb128 0xa
 5210 1453 90150000 		.4byte	.LASF455
 5211 1457 14       		.byte	0x14
 5212 1458 CB02     		.2byte	0x2cb
 5213 145a 15060000 		.4byte	0x615
 5214 145e 08       		.byte	0x8
 5215 145f 0A       		.uleb128 0xa
 5216 1460 F43A0000 		.4byte	.LASF456
 5217 1464 14       		.byte	0x14
 5218 1465 CC02     		.2byte	0x2cc
 5219 1467 45100000 		.4byte	0x1045
 5220 146b 0C       		.byte	0xc
 5221 146c 0A       		.uleb128 0xa
 5222 146d 503B0000 		.4byte	.LASF457
 5223 1471 14       		.byte	0x14
 5224 1472 CD02     		.2byte	0x2cd
 5225 1474 45100000 		.4byte	0x1045
 5226 1478 0D       		.byte	0xd
 5227 1479 0A       		.uleb128 0xa
 5228 147a D8330000 		.4byte	.LASF458
 5229 147e 14       		.byte	0x14
 5230 147f CF02     		.2byte	0x2cf
 5231 1481 3D150000 		.4byte	0x153d
 5232 1485 10       		.byte	0x10
 5233 1486 0A       		.uleb128 0xa
 5234 1487 87190000 		.4byte	.LASF459
 5235 148b 14       		.byte	0x14
 5236 148c D002     		.2byte	0x2d0
 5237 148e 61050000 		.4byte	0x561
 5238 1492 14       		.byte	0x14
 5239 1493 0A       		.uleb128 0xa
 5240 1494 3B370000 		.4byte	.LASF460
 5241 1498 14       		.byte	0x14
 5242 1499 D102     		.2byte	0x2d1
 5243 149b 15060000 		.4byte	0x615
 5244 149f 18       		.byte	0x18
 5245 14a0 0A       		.uleb128 0xa
 5246 14a1 2E200000 		.4byte	.LASF461
 5247 14a5 14       		.byte	0x14
 5248 14a6 D202     		.2byte	0x2d2
 5249 14a8 15060000 		.4byte	0x615
 5250 14ac 1C       		.byte	0x1c
 5251 14ad 0A       		.uleb128 0xa
 5252 14ae A61B0000 		.4byte	.LASF462
 5253 14b2 14       		.byte	0x14
 5254 14b3 D402     		.2byte	0x2d4
 5255 14b5 15060000 		.4byte	0x615
 5256 14b9 20       		.byte	0x20
 5257 14ba 0A       		.uleb128 0xa
 5258 14bb AC140000 		.4byte	.LASF463
 5259 14bf 14       		.byte	0x14
 5260 14c0 D502     		.2byte	0x2d5
 5261 14c2 43150000 		.4byte	0x1543
 5262 14c6 24       		.byte	0x24
 5263 14c7 0A       		.uleb128 0xa
ARM GAS  C:\Users\ASUS\AppData\Local\Temp\ccYYtRfk.s 			page 141


 5264 14c8 243A0000 		.4byte	.LASF464
 5265 14cc 14       		.byte	0x14
 5266 14cd D702     		.2byte	0x2d7
 5267 14cf 3D150000 		.4byte	0x153d
 5268 14d3 28       		.byte	0x28
 5269 14d4 0A       		.uleb128 0xa
 5270 14d5 301E0000 		.4byte	.LASF465
 5271 14d9 14       		.byte	0x14
 5272 14da D802     		.2byte	0x2d8
 5273 14dc 61050000 		.4byte	0x561
 5274 14e0 2C       		.byte	0x2c
 5275 14e1 0A       		.uleb128 0xa
 5276 14e2 C10E0000 		.4byte	.LASF466
 5277 14e6 14       		.byte	0x14
 5278 14e7 D902     		.2byte	0x2d9
 5279 14e9 15060000 		.4byte	0x615
 5280 14ed 30       		.byte	0x30
 5281 14ee 0A       		.uleb128 0xa
 5282 14ef BB150000 		.4byte	.LASF467
 5283 14f3 14       		.byte	0x14
 5284 14f4 DA02     		.2byte	0x2da
 5285 14f6 15060000 		.4byte	0x615
 5286 14fa 34       		.byte	0x34
 5287 14fb 0A       		.uleb128 0xa
 5288 14fc 570F0000 		.4byte	.LASF468
 5289 1500 14       		.byte	0x14
 5290 1501 DC02     		.2byte	0x2dc
 5291 1503 3D150000 		.4byte	0x153d
 5292 1507 38       		.byte	0x38
 5293 1508 0A       		.uleb128 0xa
 5294 1509 D3260000 		.4byte	.LASF469
 5295 150d 14       		.byte	0x14
 5296 150e DD02     		.2byte	0x2dd
 5297 1510 61050000 		.4byte	0x561
 5298 1514 3C       		.byte	0x3c
 5299 1515 0A       		.uleb128 0xa
 5300 1516 D33C0000 		.4byte	.LASF470
 5301 151a 14       		.byte	0x14
 5302 151b DE02     		.2byte	0x2de
 5303 151d 15060000 		.4byte	0x615
 5304 1521 40       		.byte	0x40
 5305 1522 0A       		.uleb128 0xa
 5306 1523 F7190000 		.4byte	.LASF471
 5307 1527 14       		.byte	0x14
 5308 1528 E402     		.2byte	0x2e4
 5309 152a E0130000 		.4byte	0x13e0
 5310 152e 44       		.byte	0x44
 5311 152f 0A       		.uleb128 0xa
 5312 1530 E5330000 		.4byte	.LASF472
 5313 1534 14       		.byte	0x14
 5314 1535 EB02     		.2byte	0x2eb
 5315 1537 FD130000 		.4byte	0x13fd
 5316 153b 48       		.byte	0x48
 5317 153c 00       		.byte	0
 5318 153d 16       		.uleb128 0x16
 5319 153e 04       		.byte	0x4
 5320 153f 35050000 		.4byte	0x535
ARM GAS  C:\Users\ASUS\AppData\Local\Temp\ccYYtRfk.s 			page 142


 5321 1543 0F       		.uleb128 0xf
 5322 1544 45100000 		.4byte	0x1045
 5323 1548 07       		.uleb128 0x7
 5324 1549 63340000 		.4byte	.LASF473
 5325 154d 14       		.byte	0x14
 5326 154e EE02     		.2byte	0x2ee
 5327 1550 1E140000 		.4byte	0x141e
 5328 1554 07       		.uleb128 0x7
 5329 1555 65290000 		.4byte	.LASF474
 5330 1559 15       		.byte	0x15
 5331 155a D901     		.2byte	0x1d9
 5332 155c EC130000 		.4byte	0x13ec
 5333 1560 1D       		.uleb128 0x1d
 5334 1561 6A010000 		.4byte	.LASF475
 5335 1565 38       		.byte	0x38
 5336 1566 15       		.byte	0x15
 5337 1567 7502     		.2byte	0x275
 5338 1569 24160000 		.4byte	0x1624
 5339 156d 0A       		.uleb128 0xa
 5340 156e 00040000 		.4byte	.LASF476
 5341 1572 15       		.byte	0x15
 5342 1573 7802     		.2byte	0x278
 5343 1575 15060000 		.4byte	0x615
 5344 1579 00       		.byte	0
 5345 157a 0A       		.uleb128 0xa
 5346 157b B5330000 		.4byte	.LASF477
 5347 157f 15       		.byte	0x15
 5348 1580 7902     		.2byte	0x279
 5349 1582 15060000 		.4byte	0x615
 5350 1586 04       		.byte	0x4
 5351 1587 0A       		.uleb128 0xa
 5352 1588 573F0000 		.4byte	.LASF478
 5353 158c 15       		.byte	0x15
 5354 158d 7B02     		.2byte	0x27b
 5355 158f 43100000 		.4byte	0x1043
 5356 1593 08       		.byte	0x8
 5357 1594 0A       		.uleb128 0xa
 5358 1595 F8270000 		.4byte	.LASF479
 5359 1599 15       		.byte	0x15
 5360 159a 7C02     		.2byte	0x27c
 5361 159c 61050000 		.4byte	0x561
 5362 15a0 0C       		.byte	0xc
 5363 15a1 0A       		.uleb128 0xa
 5364 15a2 490F0000 		.4byte	.LASF480
 5365 15a6 15       		.byte	0x15
 5366 15a7 7D02     		.2byte	0x27d
 5367 15a9 15060000 		.4byte	0x615
 5368 15ad 10       		.byte	0x10
 5369 15ae 0A       		.uleb128 0xa
 5370 15af C53E0000 		.4byte	.LASF481
 5371 15b3 15       		.byte	0x15
 5372 15b4 7E02     		.2byte	0x27e
 5373 15b6 15060000 		.4byte	0x615
 5374 15ba 14       		.byte	0x14
 5375 15bb 0A       		.uleb128 0xa
 5376 15bc D4010000 		.4byte	.LASF482
 5377 15c0 15       		.byte	0x15
ARM GAS  C:\Users\ASUS\AppData\Local\Temp\ccYYtRfk.s 			page 143


 5378 15c1 8002     		.2byte	0x280
 5379 15c3 43100000 		.4byte	0x1043
 5380 15c7 18       		.byte	0x18
 5381 15c8 0A       		.uleb128 0xa
 5382 15c9 EA120000 		.4byte	.LASF483
 5383 15cd 15       		.byte	0x15
 5384 15ce 8102     		.2byte	0x281
 5385 15d0 61050000 		.4byte	0x561
 5386 15d4 1C       		.byte	0x1c
 5387 15d5 0A       		.uleb128 0xa
 5388 15d6 54220000 		.4byte	.LASF484
 5389 15da 15       		.byte	0x15
 5390 15db 8202     		.2byte	0x282
 5391 15dd 15060000 		.4byte	0x615
 5392 15e1 20       		.byte	0x20
 5393 15e2 0A       		.uleb128 0xa
 5394 15e3 DD2E0000 		.4byte	.LASF485
 5395 15e7 15       		.byte	0x15
 5396 15e8 8402     		.2byte	0x284
 5397 15ea 43100000 		.4byte	0x1043
 5398 15ee 24       		.byte	0x24
 5399 15ef 0A       		.uleb128 0xa
 5400 15f0 EE080000 		.4byte	.LASF486
 5401 15f4 15       		.byte	0x15
 5402 15f5 8502     		.2byte	0x285
 5403 15f7 61050000 		.4byte	0x561
 5404 15fb 28       		.byte	0x28
 5405 15fc 0A       		.uleb128 0xa
 5406 15fd 042A0000 		.4byte	.LASF487
 5407 1601 15       		.byte	0x15
 5408 1602 8602     		.2byte	0x286
 5409 1604 15060000 		.4byte	0x615
 5410 1608 2C       		.byte	0x2c
 5411 1609 0A       		.uleb128 0xa
 5412 160a F7190000 		.4byte	.LASF471
 5413 160e 15       		.byte	0x15
 5414 160f 8B02     		.2byte	0x28b
 5415 1611 54150000 		.4byte	0x1554
 5416 1615 30       		.byte	0x30
 5417 1616 0A       		.uleb128 0xa
 5418 1617 06350000 		.4byte	.LASF488
 5419 161b 15       		.byte	0x15
 5420 161c 8E02     		.2byte	0x28e
 5421 161e 61050000 		.4byte	0x561
 5422 1622 34       		.byte	0x34
 5423 1623 00       		.byte	0
 5424 1624 07       		.uleb128 0x7
 5425 1625 1D0D0000 		.4byte	.LASF489
 5426 1629 15       		.byte	0x15
 5427 162a 9102     		.2byte	0x291
 5428 162c 60150000 		.4byte	0x1560
 5429 1630 06       		.uleb128 0x6
 5430 1631 641B0000 		.4byte	.LASF490
 5431 1635 16       		.byte	0x16
 5432 1636 07       		.byte	0x7
 5433 1637 27050000 		.4byte	0x527
 5434 163b 06       		.uleb128 0x6
ARM GAS  C:\Users\ASUS\AppData\Local\Temp\ccYYtRfk.s 			page 144


 5435 163c 6C3B0000 		.4byte	.LASF491
 5436 1640 17       		.byte	0x17
 5437 1641 2C       		.byte	0x2c
 5438 1642 00050000 		.4byte	0x500
 5439 1646 06       		.uleb128 0x6
 5440 1647 902A0000 		.4byte	.LASF492
 5441 164b 17       		.byte	0x17
 5442 164c 72       		.byte	0x72
 5443 164d 00050000 		.4byte	0x500
 5444 1651 07       		.uleb128 0x7
 5445 1652 9A310000 		.4byte	.LASF493
 5446 1656 18       		.byte	0x18
 5447 1657 6501     		.2byte	0x165
 5448 1659 2E050000 		.4byte	0x52e
 5449 165d 22       		.uleb128 0x22
 5450 165e 04       		.byte	0x4
 5451 165f 17       		.byte	0x17
 5452 1660 A6       		.byte	0xa6
 5453 1661 7C160000 		.4byte	0x167c
 5454 1665 23       		.uleb128 0x23
 5455 1666 FB070000 		.4byte	.LASF494
 5456 166a 17       		.byte	0x17
 5457 166b A8       		.byte	0xa8
 5458 166c 51160000 		.4byte	0x1651
 5459 1670 23       		.uleb128 0x23
 5460 1671 CA2A0000 		.4byte	.LASF495
 5461 1675 17       		.byte	0x17
 5462 1676 A9       		.byte	0xa9
 5463 1677 7C160000 		.4byte	0x167c
 5464 167b 00       		.byte	0
 5465 167c 0D       		.uleb128 0xd
 5466 167d B3040000 		.4byte	0x4b3
 5467 1681 8C160000 		.4byte	0x168c
 5468 1685 0E       		.uleb128 0xe
 5469 1686 0E060000 		.4byte	0x60e
 5470 168a 03       		.byte	0x3
 5471 168b 00       		.byte	0
 5472 168c 15       		.uleb128 0x15
 5473 168d 08       		.byte	0x8
 5474 168e 17       		.byte	0x17
 5475 168f A3       		.byte	0xa3
 5476 1690 AD160000 		.4byte	0x16ad
 5477 1694 13       		.uleb128 0x13
 5478 1695 6D270000 		.4byte	.LASF496
 5479 1699 17       		.byte	0x17
 5480 169a A5       		.byte	0xa5
 5481 169b 27050000 		.4byte	0x527
 5482 169f 00       		.byte	0
 5483 16a0 13       		.uleb128 0x13
 5484 16a1 0D010000 		.4byte	.LASF497
 5485 16a5 17       		.byte	0x17
 5486 16a6 AA       		.byte	0xaa
 5487 16a7 5D160000 		.4byte	0x165d
 5488 16ab 04       		.byte	0x4
 5489 16ac 00       		.byte	0
 5490 16ad 06       		.uleb128 0x6
 5491 16ae E9300000 		.4byte	.LASF498
ARM GAS  C:\Users\ASUS\AppData\Local\Temp\ccYYtRfk.s 			page 145


 5492 16b2 17       		.byte	0x17
 5493 16b3 AB       		.byte	0xab
 5494 16b4 8C160000 		.4byte	0x168c
 5495 16b8 06       		.uleb128 0x6
 5496 16b9 52300000 		.4byte	.LASF499
 5497 16bd 17       		.byte	0x17
 5498 16be AF       		.byte	0xaf
 5499 16bf 30160000 		.4byte	0x1630
 5500 16c3 16       		.uleb128 0x16
 5501 16c4 04       		.byte	0x4
 5502 16c5 CB0F0000 		.4byte	0xfcb
 5503 16c9 06       		.uleb128 0x6
 5504 16ca E6390000 		.4byte	.LASF500
 5505 16ce 19       		.byte	0x19
 5506 16cf 16       		.byte	0x16
 5507 16d0 12050000 		.4byte	0x512
 5508 16d4 24       		.uleb128 0x24
 5509 16d5 E41C0000 		.4byte	.LASF501
 5510 16d9 18       		.byte	0x18
 5511 16da 19       		.byte	0x19
 5512 16db 2D       		.byte	0x2d
 5513 16dc 27170000 		.4byte	0x1727
 5514 16e0 13       		.uleb128 0x13
 5515 16e1 FC310000 		.4byte	.LASF502
 5516 16e5 19       		.byte	0x19
 5517 16e6 2F       		.byte	0x2f
 5518 16e7 27170000 		.4byte	0x1727
 5519 16eb 00       		.byte	0
 5520 16ec 25       		.uleb128 0x25
 5521 16ed 5F6B00   		.ascii	"_k\000"
 5522 16f0 19       		.byte	0x19
 5523 16f1 30       		.byte	0x30
 5524 16f2 27050000 		.4byte	0x527
 5525 16f6 04       		.byte	0x4
 5526 16f7 13       		.uleb128 0x13
 5527 16f8 6A1D0000 		.4byte	.LASF503
 5528 16fc 19       		.byte	0x19
 5529 16fd 30       		.byte	0x30
 5530 16fe 27050000 		.4byte	0x527
 5531 1702 08       		.byte	0x8
 5532 1703 13       		.uleb128 0x13
 5533 1704 9B220000 		.4byte	.LASF504
 5534 1708 19       		.byte	0x19
 5535 1709 30       		.byte	0x30
 5536 170a 27050000 		.4byte	0x527
 5537 170e 0C       		.byte	0xc
 5538 170f 13       		.uleb128 0x13
 5539 1710 BA170000 		.4byte	.LASF505
 5540 1714 19       		.byte	0x19
 5541 1715 30       		.byte	0x30
 5542 1716 27050000 		.4byte	0x527
 5543 171a 10       		.byte	0x10
 5544 171b 25       		.uleb128 0x25
 5545 171c 5F7800   		.ascii	"_x\000"
 5546 171f 19       		.byte	0x19
 5547 1720 31       		.byte	0x31
 5548 1721 2D170000 		.4byte	0x172d
ARM GAS  C:\Users\ASUS\AppData\Local\Temp\ccYYtRfk.s 			page 146


 5549 1725 14       		.byte	0x14
 5550 1726 00       		.byte	0
 5551 1727 16       		.uleb128 0x16
 5552 1728 04       		.byte	0x4
 5553 1729 D4160000 		.4byte	0x16d4
 5554 172d 0D       		.uleb128 0xd
 5555 172e C9160000 		.4byte	0x16c9
 5556 1732 3D170000 		.4byte	0x173d
 5557 1736 0E       		.uleb128 0xe
 5558 1737 0E060000 		.4byte	0x60e
 5559 173b 00       		.byte	0
 5560 173c 00       		.byte	0
 5561 173d 24       		.uleb128 0x24
 5562 173e 78030000 		.4byte	.LASF506
 5563 1742 24       		.byte	0x24
 5564 1743 19       		.byte	0x19
 5565 1744 35       		.byte	0x35
 5566 1745 B6170000 		.4byte	0x17b6
 5567 1749 13       		.uleb128 0x13
 5568 174a 9D030000 		.4byte	.LASF507
 5569 174e 19       		.byte	0x19
 5570 174f 37       		.byte	0x37
 5571 1750 27050000 		.4byte	0x527
 5572 1754 00       		.byte	0
 5573 1755 13       		.uleb128 0x13
 5574 1756 E73F0000 		.4byte	.LASF508
 5575 175a 19       		.byte	0x19
 5576 175b 38       		.byte	0x38
 5577 175c 27050000 		.4byte	0x527
 5578 1760 04       		.byte	0x4
 5579 1761 13       		.uleb128 0x13
 5580 1762 303C0000 		.4byte	.LASF509
 5581 1766 19       		.byte	0x19
 5582 1767 39       		.byte	0x39
 5583 1768 27050000 		.4byte	0x527
 5584 176c 08       		.byte	0x8
 5585 176d 13       		.uleb128 0x13
 5586 176e 08250000 		.4byte	.LASF510
 5587 1772 19       		.byte	0x19
 5588 1773 3A       		.byte	0x3a
 5589 1774 27050000 		.4byte	0x527
 5590 1778 0C       		.byte	0xc
 5591 1779 13       		.uleb128 0x13
 5592 177a F40B0000 		.4byte	.LASF511
 5593 177e 19       		.byte	0x19
 5594 177f 3B       		.byte	0x3b
 5595 1780 27050000 		.4byte	0x527
 5596 1784 10       		.byte	0x10
 5597 1785 13       		.uleb128 0x13
 5598 1786 AD360000 		.4byte	.LASF512
 5599 178a 19       		.byte	0x19
 5600 178b 3C       		.byte	0x3c
 5601 178c 27050000 		.4byte	0x527
 5602 1790 14       		.byte	0x14
 5603 1791 13       		.uleb128 0x13
 5604 1792 56280000 		.4byte	.LASF513
 5605 1796 19       		.byte	0x19
ARM GAS  C:\Users\ASUS\AppData\Local\Temp\ccYYtRfk.s 			page 147


 5606 1797 3D       		.byte	0x3d
 5607 1798 27050000 		.4byte	0x527
 5608 179c 18       		.byte	0x18
 5609 179d 13       		.uleb128 0x13
 5610 179e D5100000 		.4byte	.LASF514
 5611 17a2 19       		.byte	0x19
 5612 17a3 3E       		.byte	0x3e
 5613 17a4 27050000 		.4byte	0x527
 5614 17a8 1C       		.byte	0x1c
 5615 17a9 13       		.uleb128 0x13
 5616 17aa 313F0000 		.4byte	.LASF515
 5617 17ae 19       		.byte	0x19
 5618 17af 3F       		.byte	0x3f
 5619 17b0 27050000 		.4byte	0x527
 5620 17b4 20       		.byte	0x20
 5621 17b5 00       		.byte	0
 5622 17b6 26       		.uleb128 0x26
 5623 17b7 6B080000 		.4byte	.LASF516
 5624 17bb 0801     		.2byte	0x108
 5625 17bd 19       		.byte	0x19
 5626 17be 48       		.byte	0x48
 5627 17bf F6170000 		.4byte	0x17f6
 5628 17c3 13       		.uleb128 0x13
 5629 17c4 EE3E0000 		.4byte	.LASF517
 5630 17c8 19       		.byte	0x19
 5631 17c9 49       		.byte	0x49
 5632 17ca F6170000 		.4byte	0x17f6
 5633 17ce 00       		.byte	0
 5634 17cf 13       		.uleb128 0x13
 5635 17d0 4A2D0000 		.4byte	.LASF518
 5636 17d4 19       		.byte	0x19
 5637 17d5 4A       		.byte	0x4a
 5638 17d6 F6170000 		.4byte	0x17f6
 5639 17da 80       		.byte	0x80
 5640 17db 14       		.uleb128 0x14
 5641 17dc 230B0000 		.4byte	.LASF519
 5642 17e0 19       		.byte	0x19
 5643 17e1 4C       		.byte	0x4c
 5644 17e2 C9160000 		.4byte	0x16c9
 5645 17e6 0001     		.2byte	0x100
 5646 17e8 14       		.uleb128 0x14
 5647 17e9 D1140000 		.4byte	.LASF520
 5648 17ed 19       		.byte	0x19
 5649 17ee 4F       		.byte	0x4f
 5650 17ef C9160000 		.4byte	0x16c9
 5651 17f3 0401     		.2byte	0x104
 5652 17f5 00       		.byte	0
 5653 17f6 0D       		.uleb128 0xd
 5654 17f7 43100000 		.4byte	0x1043
 5655 17fb 06180000 		.4byte	0x1806
 5656 17ff 0E       		.uleb128 0xe
 5657 1800 0E060000 		.4byte	0x60e
 5658 1804 1F       		.byte	0x1f
 5659 1805 00       		.byte	0
 5660 1806 26       		.uleb128 0x26
 5661 1807 A7260000 		.4byte	.LASF521
 5662 180b 9001     		.2byte	0x190
ARM GAS  C:\Users\ASUS\AppData\Local\Temp\ccYYtRfk.s 			page 148


 5663 180d 19       		.byte	0x19
 5664 180e 5B       		.byte	0x5b
 5665 180f 44180000 		.4byte	0x1844
 5666 1813 13       		.uleb128 0x13
 5667 1814 FC310000 		.4byte	.LASF502
 5668 1818 19       		.byte	0x19
 5669 1819 5C       		.byte	0x5c
 5670 181a 44180000 		.4byte	0x1844
 5671 181e 00       		.byte	0
 5672 181f 13       		.uleb128 0x13
 5673 1820 49380000 		.4byte	.LASF522
 5674 1824 19       		.byte	0x19
 5675 1825 5D       		.byte	0x5d
 5676 1826 27050000 		.4byte	0x527
 5677 182a 04       		.byte	0x4
 5678 182b 13       		.uleb128 0x13
 5679 182c E2110000 		.4byte	.LASF523
 5680 1830 19       		.byte	0x19
 5681 1831 5F       		.byte	0x5f
 5682 1832 4A180000 		.4byte	0x184a
 5683 1836 08       		.byte	0x8
 5684 1837 13       		.uleb128 0x13
 5685 1838 6B080000 		.4byte	.LASF516
 5686 183c 19       		.byte	0x19
 5687 183d 60       		.byte	0x60
 5688 183e B6170000 		.4byte	0x17b6
 5689 1842 88       		.byte	0x88
 5690 1843 00       		.byte	0
 5691 1844 16       		.uleb128 0x16
 5692 1845 04       		.byte	0x4
 5693 1846 06180000 		.4byte	0x1806
 5694 184a 0D       		.uleb128 0xd
 5695 184b B80F0000 		.4byte	0xfb8
 5696 184f 5A180000 		.4byte	0x185a
 5697 1853 0E       		.uleb128 0xe
 5698 1854 0E060000 		.4byte	0x60e
 5699 1858 1F       		.byte	0x1f
 5700 1859 00       		.byte	0
 5701 185a 24       		.uleb128 0x24
 5702 185b 57140000 		.4byte	.LASF524
 5703 185f 08       		.byte	0x8
 5704 1860 19       		.byte	0x19
 5705 1861 73       		.byte	0x73
 5706 1862 7F180000 		.4byte	0x187f
 5707 1866 13       		.uleb128 0x13
 5708 1867 352F0000 		.4byte	.LASF525
 5709 186b 19       		.byte	0x19
 5710 186c 74       		.byte	0x74
 5711 186d 7F180000 		.4byte	0x187f
 5712 1871 00       		.byte	0
 5713 1872 13       		.uleb128 0x13
 5714 1873 E2090000 		.4byte	.LASF526
 5715 1877 19       		.byte	0x19
 5716 1878 75       		.byte	0x75
 5717 1879 27050000 		.4byte	0x527
 5718 187d 04       		.byte	0x4
 5719 187e 00       		.byte	0
ARM GAS  C:\Users\ASUS\AppData\Local\Temp\ccYYtRfk.s 			page 149


 5720 187f 16       		.uleb128 0x16
 5721 1880 04       		.byte	0x4
 5722 1881 B3040000 		.4byte	0x4b3
 5723 1885 24       		.uleb128 0x24
 5724 1886 8A1A0000 		.4byte	.LASF527
 5725 188a 68       		.byte	0x68
 5726 188b 19       		.byte	0x19
 5727 188c B3       		.byte	0xb3
 5728 188d AF190000 		.4byte	0x19af
 5729 1891 25       		.uleb128 0x25
 5730 1892 5F7000   		.ascii	"_p\000"
 5731 1895 19       		.byte	0x19
 5732 1896 B4       		.byte	0xb4
 5733 1897 7F180000 		.4byte	0x187f
 5734 189b 00       		.byte	0
 5735 189c 25       		.uleb128 0x25
 5736 189d 5F7200   		.ascii	"_r\000"
 5737 18a0 19       		.byte	0x19
 5738 18a1 B5       		.byte	0xb5
 5739 18a2 27050000 		.4byte	0x527
 5740 18a6 04       		.byte	0x4
 5741 18a7 25       		.uleb128 0x25
 5742 18a8 5F7700   		.ascii	"_w\000"
 5743 18ab 19       		.byte	0x19
 5744 18ac B6       		.byte	0xb6
 5745 18ad 27050000 		.4byte	0x527
 5746 18b1 08       		.byte	0x8
 5747 18b2 13       		.uleb128 0x13
 5748 18b3 25260000 		.4byte	.LASF528
 5749 18b7 19       		.byte	0x19
 5750 18b8 B7       		.byte	0xb7
 5751 18b9 1C010000 		.4byte	0x11c
 5752 18bd 0C       		.byte	0xc
 5753 18be 13       		.uleb128 0x13
 5754 18bf 51080000 		.4byte	.LASF529
 5755 18c3 19       		.byte	0x19
 5756 18c4 B8       		.byte	0xb8
 5757 18c5 1C010000 		.4byte	0x11c
 5758 18c9 0E       		.byte	0xe
 5759 18ca 25       		.uleb128 0x25
 5760 18cb 5F626600 		.ascii	"_bf\000"
 5761 18cf 19       		.byte	0x19
 5762 18d0 B9       		.byte	0xb9
 5763 18d1 5A180000 		.4byte	0x185a
 5764 18d5 10       		.byte	0x10
 5765 18d6 13       		.uleb128 0x13
 5766 18d7 3B380000 		.4byte	.LASF530
 5767 18db 19       		.byte	0x19
 5768 18dc BA       		.byte	0xba
 5769 18dd 27050000 		.4byte	0x527
 5770 18e1 18       		.byte	0x18
 5771 18e2 13       		.uleb128 0x13
 5772 18e3 89170000 		.4byte	.LASF531
 5773 18e7 19       		.byte	0x19
 5774 18e8 C1       		.byte	0xc1
 5775 18e9 43100000 		.4byte	0x1043
 5776 18ed 1C       		.byte	0x1c
ARM GAS  C:\Users\ASUS\AppData\Local\Temp\ccYYtRfk.s 			page 150


 5777 18ee 13       		.uleb128 0x13
 5778 18ef 64010000 		.4byte	.LASF532
 5779 18f3 19       		.byte	0x19
 5780 18f4 C3       		.byte	0xc3
 5781 18f5 051B0000 		.4byte	0x1b05
 5782 18f9 20       		.byte	0x20
 5783 18fa 13       		.uleb128 0x13
 5784 18fb E8040000 		.4byte	.LASF533
 5785 18ff 19       		.byte	0x19
 5786 1900 C5       		.byte	0xc5
 5787 1901 341B0000 		.4byte	0x1b34
 5788 1905 24       		.byte	0x24
 5789 1906 13       		.uleb128 0x13
 5790 1907 FE290000 		.4byte	.LASF534
 5791 190b 19       		.byte	0x19
 5792 190c C8       		.byte	0xc8
 5793 190d 581B0000 		.4byte	0x1b58
 5794 1911 28       		.byte	0x28
 5795 1912 13       		.uleb128 0x13
 5796 1913 35120000 		.4byte	.LASF535
 5797 1917 19       		.byte	0x19
 5798 1918 C9       		.byte	0xc9
 5799 1919 721B0000 		.4byte	0x1b72
 5800 191d 2C       		.byte	0x2c
 5801 191e 25       		.uleb128 0x25
 5802 191f 5F756200 		.ascii	"_ub\000"
 5803 1923 19       		.byte	0x19
 5804 1924 CC       		.byte	0xcc
 5805 1925 5A180000 		.4byte	0x185a
 5806 1929 30       		.byte	0x30
 5807 192a 25       		.uleb128 0x25
 5808 192b 5F757000 		.ascii	"_up\000"
 5809 192f 19       		.byte	0x19
 5810 1930 CD       		.byte	0xcd
 5811 1931 7F180000 		.4byte	0x187f
 5812 1935 38       		.byte	0x38
 5813 1936 25       		.uleb128 0x25
 5814 1937 5F757200 		.ascii	"_ur\000"
 5815 193b 19       		.byte	0x19
 5816 193c CE       		.byte	0xce
 5817 193d 27050000 		.4byte	0x527
 5818 1941 3C       		.byte	0x3c
 5819 1942 13       		.uleb128 0x13
 5820 1943 6C250000 		.4byte	.LASF536
 5821 1947 19       		.byte	0x19
 5822 1948 D1       		.byte	0xd1
 5823 1949 781B0000 		.4byte	0x1b78
 5824 194d 40       		.byte	0x40
 5825 194e 13       		.uleb128 0x13
 5826 194f 97030000 		.4byte	.LASF537
 5827 1953 19       		.byte	0x19
 5828 1954 D2       		.byte	0xd2
 5829 1955 881B0000 		.4byte	0x1b88
 5830 1959 43       		.byte	0x43
 5831 195a 25       		.uleb128 0x25
 5832 195b 5F6C6200 		.ascii	"_lb\000"
 5833 195f 19       		.byte	0x19
ARM GAS  C:\Users\ASUS\AppData\Local\Temp\ccYYtRfk.s 			page 151


 5834 1960 D5       		.byte	0xd5
 5835 1961 5A180000 		.4byte	0x185a
 5836 1965 44       		.byte	0x44
 5837 1966 13       		.uleb128 0x13
 5838 1967 802E0000 		.4byte	.LASF538
 5839 196b 19       		.byte	0x19
 5840 196c D8       		.byte	0xd8
 5841 196d 27050000 		.4byte	0x527
 5842 1971 4C       		.byte	0x4c
 5843 1972 13       		.uleb128 0x13
 5844 1973 84180000 		.4byte	.LASF539
 5845 1977 19       		.byte	0x19
 5846 1978 D9       		.byte	0xd9
 5847 1979 3B160000 		.4byte	0x163b
 5848 197d 50       		.byte	0x50
 5849 197e 13       		.uleb128 0x13
 5850 197f 17320000 		.4byte	.LASF540
 5851 1983 19       		.byte	0x19
 5852 1984 DC       		.byte	0xdc
 5853 1985 CD190000 		.4byte	0x19cd
 5854 1989 54       		.byte	0x54
 5855 198a 13       		.uleb128 0x13
 5856 198b AD040000 		.4byte	.LASF541
 5857 198f 19       		.byte	0x19
 5858 1990 E0       		.byte	0xe0
 5859 1991 B8160000 		.4byte	0x16b8
 5860 1995 58       		.byte	0x58
 5861 1996 13       		.uleb128 0x13
 5862 1997 DB250000 		.4byte	.LASF542
 5863 199b 19       		.byte	0x19
 5864 199c E2       		.byte	0xe2
 5865 199d AD160000 		.4byte	0x16ad
 5866 19a1 5C       		.byte	0x5c
 5867 19a2 13       		.uleb128 0x13
 5868 19a3 9D1A0000 		.4byte	.LASF543
 5869 19a7 19       		.byte	0x19
 5870 19a8 E3       		.byte	0xe3
 5871 19a9 27050000 		.4byte	0x527
 5872 19ad 64       		.byte	0x64
 5873 19ae 00       		.byte	0
 5874 19af 21       		.uleb128 0x21
 5875 19b0 27050000 		.4byte	0x527
 5876 19b4 CD190000 		.4byte	0x19cd
 5877 19b8 20       		.uleb128 0x20
 5878 19b9 CD190000 		.4byte	0x19cd
 5879 19bd 20       		.uleb128 0x20
 5880 19be 43100000 		.4byte	0x1043
 5881 19c2 20       		.uleb128 0x20
 5882 19c3 C3160000 		.4byte	0x16c3
 5883 19c7 20       		.uleb128 0x20
 5884 19c8 27050000 		.4byte	0x527
 5885 19cc 00       		.byte	0
 5886 19cd 16       		.uleb128 0x16
 5887 19ce 04       		.byte	0x4
 5888 19cf D3190000 		.4byte	0x19d3
 5889 19d3 27       		.uleb128 0x27
 5890 19d4 B2050000 		.4byte	.LASF544
ARM GAS  C:\Users\ASUS\AppData\Local\Temp\ccYYtRfk.s 			page 152


 5891 19d8 2804     		.2byte	0x428
 5892 19da 19       		.byte	0x19
 5893 19db 3802     		.2byte	0x238
 5894 19dd 051B0000 		.4byte	0x1b05
 5895 19e1 0A       		.uleb128 0xa
 5896 19e2 D11B0000 		.4byte	.LASF545
 5897 19e6 19       		.byte	0x19
 5898 19e7 3A02     		.2byte	0x23a
 5899 19e9 27050000 		.4byte	0x527
 5900 19ed 00       		.byte	0
 5901 19ee 0A       		.uleb128 0xa
 5902 19ef AC130000 		.4byte	.LASF546
 5903 19f3 19       		.byte	0x19
 5904 19f4 3F02     		.2byte	0x23f
 5905 19f6 DF1B0000 		.4byte	0x1bdf
 5906 19fa 04       		.byte	0x4
 5907 19fb 0A       		.uleb128 0xa
 5908 19fc 910E0000 		.4byte	.LASF547
 5909 1a00 19       		.byte	0x19
 5910 1a01 3F02     		.2byte	0x23f
 5911 1a03 DF1B0000 		.4byte	0x1bdf
 5912 1a07 08       		.byte	0x8
 5913 1a08 0A       		.uleb128 0xa
 5914 1a09 8E3E0000 		.4byte	.LASF548
 5915 1a0d 19       		.byte	0x19
 5916 1a0e 3F02     		.2byte	0x23f
 5917 1a10 DF1B0000 		.4byte	0x1bdf
 5918 1a14 0C       		.byte	0xc
 5919 1a15 0A       		.uleb128 0xa
 5920 1a16 44380000 		.4byte	.LASF549
 5921 1a1a 19       		.byte	0x19
 5922 1a1b 4102     		.2byte	0x241
 5923 1a1d 27050000 		.4byte	0x527
 5924 1a21 10       		.byte	0x10
 5925 1a22 0A       		.uleb128 0xa
 5926 1a23 D51E0000 		.4byte	.LASF550
 5927 1a27 19       		.byte	0x19
 5928 1a28 4202     		.2byte	0x242
 5929 1a2a C11D0000 		.4byte	0x1dc1
 5930 1a2e 14       		.byte	0x14
 5931 1a2f 0A       		.uleb128 0xa
 5932 1a30 BE0C0000 		.4byte	.LASF551
 5933 1a34 19       		.byte	0x19
 5934 1a35 4402     		.2byte	0x244
 5935 1a37 27050000 		.4byte	0x527
 5936 1a3b 30       		.byte	0x30
 5937 1a3c 0A       		.uleb128 0xa
 5938 1a3d 03220000 		.4byte	.LASF552
 5939 1a41 19       		.byte	0x19
 5940 1a42 4502     		.2byte	0x245
 5941 1a44 291B0000 		.4byte	0x1b29
 5942 1a48 34       		.byte	0x34
 5943 1a49 0A       		.uleb128 0xa
 5944 1a4a 921A0000 		.4byte	.LASF553
 5945 1a4e 19       		.byte	0x19
 5946 1a4f 4702     		.2byte	0x247
 5947 1a51 27050000 		.4byte	0x527
ARM GAS  C:\Users\ASUS\AppData\Local\Temp\ccYYtRfk.s 			page 153


 5948 1a55 38       		.byte	0x38
 5949 1a56 0A       		.uleb128 0xa
 5950 1a57 B5010000 		.4byte	.LASF554
 5951 1a5b 19       		.byte	0x19
 5952 1a5c 4902     		.2byte	0x249
 5953 1a5e DC1D0000 		.4byte	0x1ddc
 5954 1a62 3C       		.byte	0x3c
 5955 1a63 0A       		.uleb128 0xa
 5956 1a64 34080000 		.4byte	.LASF555
 5957 1a68 19       		.byte	0x19
 5958 1a69 4C02     		.2byte	0x24c
 5959 1a6b 27170000 		.4byte	0x1727
 5960 1a6f 40       		.byte	0x40
 5961 1a70 0A       		.uleb128 0xa
 5962 1a71 4B370000 		.4byte	.LASF556
 5963 1a75 19       		.byte	0x19
 5964 1a76 4D02     		.2byte	0x24d
 5965 1a78 27050000 		.4byte	0x527
 5966 1a7c 44       		.byte	0x44
 5967 1a7d 0A       		.uleb128 0xa
 5968 1a7e 181A0000 		.4byte	.LASF557
 5969 1a82 19       		.byte	0x19
 5970 1a83 4E02     		.2byte	0x24e
 5971 1a85 27170000 		.4byte	0x1727
 5972 1a89 48       		.byte	0x48
 5973 1a8a 0A       		.uleb128 0xa
 5974 1a8b 2E220000 		.4byte	.LASF558
 5975 1a8f 19       		.byte	0x19
 5976 1a90 4F02     		.2byte	0x24f
 5977 1a92 E21D0000 		.4byte	0x1de2
 5978 1a96 4C       		.byte	0x4c
 5979 1a97 0A       		.uleb128 0xa
 5980 1a98 25020000 		.4byte	.LASF559
 5981 1a9c 19       		.byte	0x19
 5982 1a9d 5202     		.2byte	0x252
 5983 1a9f 27050000 		.4byte	0x527
 5984 1aa3 50       		.byte	0x50
 5985 1aa4 0A       		.uleb128 0xa
 5986 1aa5 8C180000 		.4byte	.LASF560
 5987 1aa9 19       		.byte	0x19
 5988 1aaa 5302     		.2byte	0x253
 5989 1aac C3160000 		.4byte	0x16c3
 5990 1ab0 54       		.byte	0x54
 5991 1ab1 0A       		.uleb128 0xa
 5992 1ab2 472E0000 		.4byte	.LASF561
 5993 1ab6 19       		.byte	0x19
 5994 1ab7 7602     		.2byte	0x276
 5995 1ab9 9F1D0000 		.4byte	0x1d9f
 5996 1abd 58       		.byte	0x58
 5997 1abe 0B       		.uleb128 0xb
 5998 1abf A7260000 		.4byte	.LASF521
 5999 1ac3 19       		.byte	0x19
 6000 1ac4 7A02     		.2byte	0x27a
 6001 1ac6 44180000 		.4byte	0x1844
 6002 1aca 4801     		.2byte	0x148
 6003 1acc 0B       		.uleb128 0xb
 6004 1acd 1E1E0000 		.4byte	.LASF562
ARM GAS  C:\Users\ASUS\AppData\Local\Temp\ccYYtRfk.s 			page 154


 6005 1ad1 19       		.byte	0x19
 6006 1ad2 7B02     		.2byte	0x27b
 6007 1ad4 06180000 		.4byte	0x1806
 6008 1ad8 4C01     		.2byte	0x14c
 6009 1ada 0B       		.uleb128 0xb
 6010 1adb A6030000 		.4byte	.LASF563
 6011 1adf 19       		.byte	0x19
 6012 1ae0 7F02     		.2byte	0x27f
 6013 1ae2 F31D0000 		.4byte	0x1df3
 6014 1ae6 DC02     		.2byte	0x2dc
 6015 1ae8 0B       		.uleb128 0xb
 6016 1ae9 EF200000 		.4byte	.LASF564
 6017 1aed 19       		.byte	0x19
 6018 1aee 8402     		.2byte	0x284
 6019 1af0 A41B0000 		.4byte	0x1ba4
 6020 1af4 E002     		.2byte	0x2e0
 6021 1af6 0B       		.uleb128 0xb
 6022 1af7 39010000 		.4byte	.LASF565
 6023 1afb 19       		.byte	0x19
 6024 1afc 8502     		.2byte	0x285
 6025 1afe FF1D0000 		.4byte	0x1dff
 6026 1b02 EC02     		.2byte	0x2ec
 6027 1b04 00       		.byte	0
 6028 1b05 16       		.uleb128 0x16
 6029 1b06 04       		.byte	0x4
 6030 1b07 AF190000 		.4byte	0x19af
 6031 1b0b 21       		.uleb128 0x21
 6032 1b0c 27050000 		.4byte	0x527
 6033 1b10 291B0000 		.4byte	0x1b29
 6034 1b14 20       		.uleb128 0x20
 6035 1b15 CD190000 		.4byte	0x19cd
 6036 1b19 20       		.uleb128 0x20
 6037 1b1a 43100000 		.4byte	0x1043
 6038 1b1e 20       		.uleb128 0x20
 6039 1b1f 291B0000 		.4byte	0x1b29
 6040 1b23 20       		.uleb128 0x20
 6041 1b24 27050000 		.4byte	0x527
 6042 1b28 00       		.byte	0
 6043 1b29 16       		.uleb128 0x16
 6044 1b2a 04       		.byte	0x4
 6045 1b2b 2F1B0000 		.4byte	0x1b2f
 6046 1b2f 10       		.uleb128 0x10
 6047 1b30 CB0F0000 		.4byte	0xfcb
 6048 1b34 16       		.uleb128 0x16
 6049 1b35 04       		.byte	0x4
 6050 1b36 0B1B0000 		.4byte	0x1b0b
 6051 1b3a 21       		.uleb128 0x21
 6052 1b3b 46160000 		.4byte	0x1646
 6053 1b3f 581B0000 		.4byte	0x1b58
 6054 1b43 20       		.uleb128 0x20
 6055 1b44 CD190000 		.4byte	0x19cd
 6056 1b48 20       		.uleb128 0x20
 6057 1b49 43100000 		.4byte	0x1043
 6058 1b4d 20       		.uleb128 0x20
 6059 1b4e 46160000 		.4byte	0x1646
 6060 1b52 20       		.uleb128 0x20
 6061 1b53 27050000 		.4byte	0x527
ARM GAS  C:\Users\ASUS\AppData\Local\Temp\ccYYtRfk.s 			page 155


 6062 1b57 00       		.byte	0
 6063 1b58 16       		.uleb128 0x16
 6064 1b59 04       		.byte	0x4
 6065 1b5a 3A1B0000 		.4byte	0x1b3a
 6066 1b5e 21       		.uleb128 0x21
 6067 1b5f 27050000 		.4byte	0x527
 6068 1b63 721B0000 		.4byte	0x1b72
 6069 1b67 20       		.uleb128 0x20
 6070 1b68 CD190000 		.4byte	0x19cd
 6071 1b6c 20       		.uleb128 0x20
 6072 1b6d 43100000 		.4byte	0x1043
 6073 1b71 00       		.byte	0
 6074 1b72 16       		.uleb128 0x16
 6075 1b73 04       		.byte	0x4
 6076 1b74 5E1B0000 		.4byte	0x1b5e
 6077 1b78 0D       		.uleb128 0xd
 6078 1b79 B3040000 		.4byte	0x4b3
 6079 1b7d 881B0000 		.4byte	0x1b88
 6080 1b81 0E       		.uleb128 0xe
 6081 1b82 0E060000 		.4byte	0x60e
 6082 1b86 02       		.byte	0x2
 6083 1b87 00       		.byte	0
 6084 1b88 0D       		.uleb128 0xd
 6085 1b89 B3040000 		.4byte	0x4b3
 6086 1b8d 981B0000 		.4byte	0x1b98
 6087 1b91 0E       		.uleb128 0xe
 6088 1b92 0E060000 		.4byte	0x60e
 6089 1b96 00       		.byte	0
 6090 1b97 00       		.byte	0
 6091 1b98 07       		.uleb128 0x7
 6092 1b99 97300000 		.4byte	.LASF566
 6093 1b9d 19       		.byte	0x19
 6094 1b9e 1D01     		.2byte	0x11d
 6095 1ba0 85180000 		.4byte	0x1885
 6096 1ba4 1D       		.uleb128 0x1d
 6097 1ba5 78220000 		.4byte	.LASF567
 6098 1ba9 0C       		.byte	0xc
 6099 1baa 19       		.byte	0x19
 6100 1bab 2101     		.2byte	0x121
 6101 1bad D91B0000 		.4byte	0x1bd9
 6102 1bb1 0A       		.uleb128 0xa
 6103 1bb2 FC310000 		.4byte	.LASF502
 6104 1bb6 19       		.byte	0x19
 6105 1bb7 2301     		.2byte	0x123
 6106 1bb9 D91B0000 		.4byte	0x1bd9
 6107 1bbd 00       		.byte	0
 6108 1bbe 0A       		.uleb128 0xa
 6109 1bbf 87200000 		.4byte	.LASF568
 6110 1bc3 19       		.byte	0x19
 6111 1bc4 2401     		.2byte	0x124
 6112 1bc6 27050000 		.4byte	0x527
 6113 1bca 04       		.byte	0x4
 6114 1bcb 0A       		.uleb128 0xa
 6115 1bcc 72220000 		.4byte	.LASF569
 6116 1bd0 19       		.byte	0x19
 6117 1bd1 2501     		.2byte	0x125
 6118 1bd3 DF1B0000 		.4byte	0x1bdf
ARM GAS  C:\Users\ASUS\AppData\Local\Temp\ccYYtRfk.s 			page 156


 6119 1bd7 08       		.byte	0x8
 6120 1bd8 00       		.byte	0
 6121 1bd9 16       		.uleb128 0x16
 6122 1bda 04       		.byte	0x4
 6123 1bdb A41B0000 		.4byte	0x1ba4
 6124 1bdf 16       		.uleb128 0x16
 6125 1be0 04       		.byte	0x4
 6126 1be1 981B0000 		.4byte	0x1b98
 6127 1be5 1D       		.uleb128 0x1d
 6128 1be6 1D090000 		.4byte	.LASF570
 6129 1bea 0E       		.byte	0xe
 6130 1beb 19       		.byte	0x19
 6131 1bec 3D01     		.2byte	0x13d
 6132 1bee 1A1C0000 		.4byte	0x1c1a
 6133 1bf2 0A       		.uleb128 0xa
 6134 1bf3 D0290000 		.4byte	.LASF571
 6135 1bf7 19       		.byte	0x19
 6136 1bf8 3E01     		.2byte	0x13e
 6137 1bfa 1A1C0000 		.4byte	0x1c1a
 6138 1bfe 00       		.byte	0
 6139 1bff 0A       		.uleb128 0xa
 6140 1c00 9A050000 		.4byte	.LASF572
 6141 1c04 19       		.byte	0x19
 6142 1c05 3F01     		.2byte	0x13f
 6143 1c07 1A1C0000 		.4byte	0x1c1a
 6144 1c0b 06       		.byte	0x6
 6145 1c0c 0A       		.uleb128 0xa
 6146 1c0d BD3B0000 		.4byte	.LASF573
 6147 1c11 19       		.byte	0x19
 6148 1c12 4001     		.2byte	0x140
 6149 1c14 EE040000 		.4byte	0x4ee
 6150 1c18 0C       		.byte	0xc
 6151 1c19 00       		.byte	0
 6152 1c1a 0D       		.uleb128 0xd
 6153 1c1b EE040000 		.4byte	0x4ee
 6154 1c1f 2A1C0000 		.4byte	0x1c2a
 6155 1c23 0E       		.uleb128 0xe
 6156 1c24 0E060000 		.4byte	0x60e
 6157 1c28 02       		.byte	0x2
 6158 1c29 00       		.byte	0
 6159 1c2a 18       		.uleb128 0x18
 6160 1c2b D0       		.byte	0xd0
 6161 1c2c 19       		.byte	0x19
 6162 1c2d 5702     		.2byte	0x257
 6163 1c2f 2B1D0000 		.4byte	0x1d2b
 6164 1c33 0A       		.uleb128 0xa
 6165 1c34 480D0000 		.4byte	.LASF574
 6166 1c38 19       		.byte	0x19
 6167 1c39 5902     		.2byte	0x259
 6168 1c3b 2E050000 		.4byte	0x52e
 6169 1c3f 00       		.byte	0
 6170 1c40 0A       		.uleb128 0xa
 6171 1c41 A52F0000 		.4byte	.LASF575
 6172 1c45 19       		.byte	0x19
 6173 1c46 5A02     		.2byte	0x25a
 6174 1c48 C3160000 		.4byte	0x16c3
 6175 1c4c 04       		.byte	0x4
ARM GAS  C:\Users\ASUS\AppData\Local\Temp\ccYYtRfk.s 			page 157


 6176 1c4d 0A       		.uleb128 0xa
 6177 1c4e 18020000 		.4byte	.LASF576
 6178 1c52 19       		.byte	0x19
 6179 1c53 5B02     		.2byte	0x25b
 6180 1c55 2B1D0000 		.4byte	0x1d2b
 6181 1c59 08       		.byte	0x8
 6182 1c5a 0A       		.uleb128 0xa
 6183 1c5b 3E0B0000 		.4byte	.LASF577
 6184 1c5f 19       		.byte	0x19
 6185 1c60 5C02     		.2byte	0x25c
 6186 1c62 3D170000 		.4byte	0x173d
 6187 1c66 24       		.byte	0x24
 6188 1c67 0A       		.uleb128 0xa
 6189 1c68 45030000 		.4byte	.LASF578
 6190 1c6c 19       		.byte	0x19
 6191 1c6d 5D02     		.2byte	0x25d
 6192 1c6f 27050000 		.4byte	0x527
 6193 1c73 48       		.byte	0x48
 6194 1c74 0A       		.uleb128 0xa
 6195 1c75 9B110000 		.4byte	.LASF579
 6196 1c79 19       		.byte	0x19
 6197 1c7a 5E02     		.2byte	0x25e
 6198 1c7c 20050000 		.4byte	0x520
 6199 1c80 50       		.byte	0x50
 6200 1c81 0A       		.uleb128 0xa
 6201 1c82 55310000 		.4byte	.LASF580
 6202 1c86 19       		.byte	0x19
 6203 1c87 5F02     		.2byte	0x25f
 6204 1c89 E51B0000 		.4byte	0x1be5
 6205 1c8d 58       		.byte	0x58
 6206 1c8e 0A       		.uleb128 0xa
 6207 1c8f 0E350000 		.4byte	.LASF581
 6208 1c93 19       		.byte	0x19
 6209 1c94 6002     		.2byte	0x260
 6210 1c96 AD160000 		.4byte	0x16ad
 6211 1c9a 68       		.byte	0x68
 6212 1c9b 0A       		.uleb128 0xa
 6213 1c9c E81E0000 		.4byte	.LASF582
 6214 1ca0 19       		.byte	0x19
 6215 1ca1 6102     		.2byte	0x261
 6216 1ca3 AD160000 		.4byte	0x16ad
 6217 1ca7 70       		.byte	0x70
 6218 1ca8 0A       		.uleb128 0xa
 6219 1ca9 182D0000 		.4byte	.LASF583
 6220 1cad 19       		.byte	0x19
 6221 1cae 6202     		.2byte	0x262
 6222 1cb0 AD160000 		.4byte	0x16ad
 6223 1cb4 78       		.byte	0x78
 6224 1cb5 0A       		.uleb128 0xa
 6225 1cb6 B0030000 		.4byte	.LASF584
 6226 1cba 19       		.byte	0x19
 6227 1cbb 6302     		.2byte	0x263
 6228 1cbd 3B1D0000 		.4byte	0x1d3b
 6229 1cc1 80       		.byte	0x80
 6230 1cc2 0A       		.uleb128 0xa
 6231 1cc3 45000000 		.4byte	.LASF585
 6232 1cc7 19       		.byte	0x19
ARM GAS  C:\Users\ASUS\AppData\Local\Temp\ccYYtRfk.s 			page 158


 6233 1cc8 6402     		.2byte	0x264
 6234 1cca 4B1D0000 		.4byte	0x1d4b
 6235 1cce 88       		.byte	0x88
 6236 1ccf 0A       		.uleb128 0xa
 6237 1cd0 8D050000 		.4byte	.LASF586
 6238 1cd4 19       		.byte	0x19
 6239 1cd5 6502     		.2byte	0x265
 6240 1cd7 27050000 		.4byte	0x527
 6241 1cdb A0       		.byte	0xa0
 6242 1cdc 0A       		.uleb128 0xa
 6243 1cdd 25090000 		.4byte	.LASF587
 6244 1ce1 19       		.byte	0x19
 6245 1ce2 6602     		.2byte	0x266
 6246 1ce4 AD160000 		.4byte	0x16ad
 6247 1ce8 A4       		.byte	0xa4
 6248 1ce9 0A       		.uleb128 0xa
 6249 1cea 00300000 		.4byte	.LASF588
 6250 1cee 19       		.byte	0x19
 6251 1cef 6702     		.2byte	0x267
 6252 1cf1 AD160000 		.4byte	0x16ad
 6253 1cf5 AC       		.byte	0xac
 6254 1cf6 0A       		.uleb128 0xa
 6255 1cf7 0D1E0000 		.4byte	.LASF589
 6256 1cfb 19       		.byte	0x19
 6257 1cfc 6802     		.2byte	0x268
 6258 1cfe AD160000 		.4byte	0x16ad
 6259 1d02 B4       		.byte	0xb4
 6260 1d03 0A       		.uleb128 0xa
 6261 1d04 D6240000 		.4byte	.LASF590
 6262 1d08 19       		.byte	0x19
 6263 1d09 6902     		.2byte	0x269
 6264 1d0b AD160000 		.4byte	0x16ad
 6265 1d0f BC       		.byte	0xbc
 6266 1d10 0A       		.uleb128 0xa
 6267 1d11 07020000 		.4byte	.LASF591
 6268 1d15 19       		.byte	0x19
 6269 1d16 6A02     		.2byte	0x26a
 6270 1d18 AD160000 		.4byte	0x16ad
 6271 1d1c C4       		.byte	0xc4
 6272 1d1d 0A       		.uleb128 0xa
 6273 1d1e 10240000 		.4byte	.LASF592
 6274 1d22 19       		.byte	0x19
 6275 1d23 6B02     		.2byte	0x26b
 6276 1d25 27050000 		.4byte	0x527
 6277 1d29 CC       		.byte	0xcc
 6278 1d2a 00       		.byte	0
 6279 1d2b 0D       		.uleb128 0xd
 6280 1d2c CB0F0000 		.4byte	0xfcb
 6281 1d30 3B1D0000 		.4byte	0x1d3b
 6282 1d34 0E       		.uleb128 0xe
 6283 1d35 0E060000 		.4byte	0x60e
 6284 1d39 19       		.byte	0x19
 6285 1d3a 00       		.byte	0
 6286 1d3b 0D       		.uleb128 0xd
 6287 1d3c CB0F0000 		.4byte	0xfcb
 6288 1d40 4B1D0000 		.4byte	0x1d4b
 6289 1d44 0E       		.uleb128 0xe
ARM GAS  C:\Users\ASUS\AppData\Local\Temp\ccYYtRfk.s 			page 159


 6290 1d45 0E060000 		.4byte	0x60e
 6291 1d49 07       		.byte	0x7
 6292 1d4a 00       		.byte	0
 6293 1d4b 0D       		.uleb128 0xd
 6294 1d4c CB0F0000 		.4byte	0xfcb
 6295 1d50 5B1D0000 		.4byte	0x1d5b
 6296 1d54 0E       		.uleb128 0xe
 6297 1d55 0E060000 		.4byte	0x60e
 6298 1d59 17       		.byte	0x17
 6299 1d5a 00       		.byte	0
 6300 1d5b 18       		.uleb128 0x18
 6301 1d5c F0       		.byte	0xf0
 6302 1d5d 19       		.byte	0x19
 6303 1d5e 7002     		.2byte	0x270
 6304 1d60 7F1D0000 		.4byte	0x1d7f
 6305 1d64 0A       		.uleb128 0xa
 6306 1d65 F8380000 		.4byte	.LASF593
 6307 1d69 19       		.byte	0x19
 6308 1d6a 7302     		.2byte	0x273
 6309 1d6c 7F1D0000 		.4byte	0x1d7f
 6310 1d70 00       		.byte	0
 6311 1d71 0A       		.uleb128 0xa
 6312 1d72 2A210000 		.4byte	.LASF594
 6313 1d76 19       		.byte	0x19
 6314 1d77 7402     		.2byte	0x274
 6315 1d79 8F1D0000 		.4byte	0x1d8f
 6316 1d7d 78       		.byte	0x78
 6317 1d7e 00       		.byte	0
 6318 1d7f 0D       		.uleb128 0xd
 6319 1d80 7F180000 		.4byte	0x187f
 6320 1d84 8F1D0000 		.4byte	0x1d8f
 6321 1d88 0E       		.uleb128 0xe
 6322 1d89 0E060000 		.4byte	0x60e
 6323 1d8d 1D       		.byte	0x1d
 6324 1d8e 00       		.byte	0
 6325 1d8f 0D       		.uleb128 0xd
 6326 1d90 2E050000 		.4byte	0x52e
 6327 1d94 9F1D0000 		.4byte	0x1d9f
 6328 1d98 0E       		.uleb128 0xe
 6329 1d99 0E060000 		.4byte	0x60e
 6330 1d9d 1D       		.byte	0x1d
 6331 1d9e 00       		.byte	0
 6332 1d9f 28       		.uleb128 0x28
 6333 1da0 F0       		.byte	0xf0
 6334 1da1 19       		.byte	0x19
 6335 1da2 5502     		.2byte	0x255
 6336 1da4 C11D0000 		.4byte	0x1dc1
 6337 1da8 29       		.uleb128 0x29
 6338 1da9 B2050000 		.4byte	.LASF544
 6339 1dad 19       		.byte	0x19
 6340 1dae 6C02     		.2byte	0x26c
 6341 1db0 2A1C0000 		.4byte	0x1c2a
 6342 1db4 29       		.uleb128 0x29
 6343 1db5 70030000 		.4byte	.LASF595
 6344 1db9 19       		.byte	0x19
 6345 1dba 7502     		.2byte	0x275
 6346 1dbc 5B1D0000 		.4byte	0x1d5b
ARM GAS  C:\Users\ASUS\AppData\Local\Temp\ccYYtRfk.s 			page 160


 6347 1dc0 00       		.byte	0
 6348 1dc1 0D       		.uleb128 0xd
 6349 1dc2 CB0F0000 		.4byte	0xfcb
 6350 1dc6 D11D0000 		.4byte	0x1dd1
 6351 1dca 0E       		.uleb128 0xe
 6352 1dcb 0E060000 		.4byte	0x60e
 6353 1dcf 18       		.byte	0x18
 6354 1dd0 00       		.byte	0
 6355 1dd1 1F       		.uleb128 0x1f
 6356 1dd2 DC1D0000 		.4byte	0x1ddc
 6357 1dd6 20       		.uleb128 0x20
 6358 1dd7 CD190000 		.4byte	0x19cd
 6359 1ddb 00       		.byte	0
 6360 1ddc 16       		.uleb128 0x16
 6361 1ddd 04       		.byte	0x4
 6362 1dde D11D0000 		.4byte	0x1dd1
 6363 1de2 16       		.uleb128 0x16
 6364 1de3 04       		.byte	0x4
 6365 1de4 27170000 		.4byte	0x1727
 6366 1de8 1F       		.uleb128 0x1f
 6367 1de9 F31D0000 		.4byte	0x1df3
 6368 1ded 20       		.uleb128 0x20
 6369 1dee 27050000 		.4byte	0x527
 6370 1df2 00       		.byte	0
 6371 1df3 16       		.uleb128 0x16
 6372 1df4 04       		.byte	0x4
 6373 1df5 F91D0000 		.4byte	0x1df9
 6374 1df9 16       		.uleb128 0x16
 6375 1dfa 04       		.byte	0x4
 6376 1dfb E81D0000 		.4byte	0x1de8
 6377 1dff 0D       		.uleb128 0xd
 6378 1e00 981B0000 		.4byte	0x1b98
 6379 1e04 0F1E0000 		.4byte	0x1e0f
 6380 1e08 0E       		.uleb128 0xe
 6381 1e09 0E060000 		.4byte	0x60e
 6382 1e0d 02       		.byte	0x2
 6383 1e0e 00       		.byte	0
 6384 1e0f 19       		.uleb128 0x19
 6385 1e10 02       		.byte	0x2
 6386 1e11 EE040000 		.4byte	0x4ee
 6387 1e15 1A       		.byte	0x1a
 6388 1e16 4D01     		.2byte	0x14d
 6389 1e18 48210000 		.4byte	0x2148
 6390 1e1c 04       		.uleb128 0x4
 6391 1e1d 7A250000 		.4byte	.LASF596
 6392 1e21 00       		.byte	0
 6393 1e22 2A       		.uleb128 0x2a
 6394 1e23 912F0000 		.4byte	.LASF597
 6395 1e27 0010     		.2byte	0x1000
 6396 1e29 2A       		.uleb128 0x2a
 6397 1e2a 5C0C0000 		.4byte	.LASF598
 6398 1e2e 0110     		.2byte	0x1001
 6399 1e30 2A       		.uleb128 0x2a
 6400 1e31 F8080000 		.4byte	.LASF599
 6401 1e35 0210     		.2byte	0x1002
 6402 1e37 2A       		.uleb128 0x2a
 6403 1e38 B20D0000 		.4byte	.LASF600
ARM GAS  C:\Users\ASUS\AppData\Local\Temp\ccYYtRfk.s 			page 161


 6404 1e3c 0310     		.2byte	0x1003
 6405 1e3e 2A       		.uleb128 0x2a
 6406 1e3f 26000000 		.4byte	.LASF601
 6407 1e43 0410     		.2byte	0x1004
 6408 1e45 2A       		.uleb128 0x2a
 6409 1e46 7F3D0000 		.4byte	.LASF602
 6410 1e4a 0510     		.2byte	0x1005
 6411 1e4c 2A       		.uleb128 0x2a
 6412 1e4d 7D030000 		.4byte	.LASF603
 6413 1e51 0020     		.2byte	0x2000
 6414 1e53 2A       		.uleb128 0x2a
 6415 1e54 BA030000 		.4byte	.LASF604
 6416 1e58 0120     		.2byte	0x2001
 6417 1e5a 2A       		.uleb128 0x2a
 6418 1e5b 97340000 		.4byte	.LASF605
 6419 1e5f 0220     		.2byte	0x2002
 6420 1e61 2A       		.uleb128 0x2a
 6421 1e62 AA240000 		.4byte	.LASF606
 6422 1e66 0320     		.2byte	0x2003
 6423 1e68 2A       		.uleb128 0x2a
 6424 1e69 AF100000 		.4byte	.LASF607
 6425 1e6d 0420     		.2byte	0x2004
 6426 1e6f 2A       		.uleb128 0x2a
 6427 1e70 EF2C0000 		.4byte	.LASF608
 6428 1e74 0520     		.2byte	0x2005
 6429 1e76 2A       		.uleb128 0x2a
 6430 1e77 84290000 		.4byte	.LASF609
 6431 1e7b 0620     		.2byte	0x2006
 6432 1e7d 2A       		.uleb128 0x2a
 6433 1e7e F03F0000 		.4byte	.LASF610
 6434 1e82 0720     		.2byte	0x2007
 6435 1e84 2A       		.uleb128 0x2a
 6436 1e85 A1220000 		.4byte	.LASF611
 6437 1e89 0820     		.2byte	0x2008
 6438 1e8b 2A       		.uleb128 0x2a
 6439 1e8c 75390000 		.4byte	.LASF612
 6440 1e90 0920     		.2byte	0x2009
 6441 1e92 2A       		.uleb128 0x2a
 6442 1e93 0D2E0000 		.4byte	.LASF613
 6443 1e97 0A20     		.2byte	0x200a
 6444 1e99 2A       		.uleb128 0x2a
 6445 1e9a 353E0000 		.4byte	.LASF614
 6446 1e9e 0B20     		.2byte	0x200b
 6447 1ea0 2A       		.uleb128 0x2a
 6448 1ea1 0A1B0000 		.4byte	.LASF615
 6449 1ea5 0C20     		.2byte	0x200c
 6450 1ea7 2A       		.uleb128 0x2a
 6451 1ea8 DF2A0000 		.4byte	.LASF616
 6452 1eac 0D20     		.2byte	0x200d
 6453 1eae 2A       		.uleb128 0x2a
 6454 1eaf 37130000 		.4byte	.LASF617
 6455 1eb3 0E20     		.2byte	0x200e
 6456 1eb5 2A       		.uleb128 0x2a
 6457 1eb6 B43F0000 		.4byte	.LASF618
 6458 1eba 0F20     		.2byte	0x200f
 6459 1ebc 2A       		.uleb128 0x2a
 6460 1ebd D00C0000 		.4byte	.LASF619
ARM GAS  C:\Users\ASUS\AppData\Local\Temp\ccYYtRfk.s 			page 162


 6461 1ec1 1020     		.2byte	0x2010
 6462 1ec3 2A       		.uleb128 0x2a
 6463 1ec4 A52C0000 		.4byte	.LASF620
 6464 1ec8 1120     		.2byte	0x2011
 6465 1eca 2A       		.uleb128 0x2a
 6466 1ecb 8D1F0000 		.4byte	.LASF621
 6467 1ecf 1220     		.2byte	0x2012
 6468 1ed1 2A       		.uleb128 0x2a
 6469 1ed2 58120000 		.4byte	.LASF622
 6470 1ed6 1320     		.2byte	0x2013
 6471 1ed8 2A       		.uleb128 0x2a
 6472 1ed9 92160000 		.4byte	.LASF623
 6473 1edd 1420     		.2byte	0x2014
 6474 1edf 2A       		.uleb128 0x2a
 6475 1ee0 74120000 		.4byte	.LASF624
 6476 1ee4 1520     		.2byte	0x2015
 6477 1ee6 2A       		.uleb128 0x2a
 6478 1ee7 33210000 		.4byte	.LASF625
 6479 1eeb 1620     		.2byte	0x2016
 6480 1eed 2A       		.uleb128 0x2a
 6481 1eee 790B0000 		.4byte	.LASF626
 6482 1ef2 1720     		.2byte	0x2017
 6483 1ef4 2A       		.uleb128 0x2a
 6484 1ef5 04060000 		.4byte	.LASF627
 6485 1ef9 0030     		.2byte	0x3000
 6486 1efb 2A       		.uleb128 0x2a
 6487 1efc DA010000 		.4byte	.LASF628
 6488 1f00 0130     		.2byte	0x3001
 6489 1f02 2A       		.uleb128 0x2a
 6490 1f03 15010000 		.4byte	.LASF629
 6491 1f07 0230     		.2byte	0x3002
 6492 1f09 2A       		.uleb128 0x2a
 6493 1f0a 003A0000 		.4byte	.LASF630
 6494 1f0e 0330     		.2byte	0x3003
 6495 1f10 2A       		.uleb128 0x2a
 6496 1f11 48190000 		.4byte	.LASF631
 6497 1f15 0430     		.2byte	0x3004
 6498 1f17 2A       		.uleb128 0x2a
 6499 1f18 56350000 		.4byte	.LASF632
 6500 1f1c 0530     		.2byte	0x3005
 6501 1f1e 2A       		.uleb128 0x2a
 6502 1f1f F63E0000 		.4byte	.LASF633
 6503 1f23 0630     		.2byte	0x3006
 6504 1f25 2A       		.uleb128 0x2a
 6505 1f26 A4020000 		.4byte	.LASF634
 6506 1f2a 0730     		.2byte	0x3007
 6507 1f2c 2A       		.uleb128 0x2a
 6508 1f2d 61400000 		.4byte	.LASF635
 6509 1f31 0830     		.2byte	0x3008
 6510 1f33 2A       		.uleb128 0x2a
 6511 1f34 721D0000 		.4byte	.LASF636
 6512 1f38 0930     		.2byte	0x3009
 6513 1f3a 2A       		.uleb128 0x2a
 6514 1f3b 403A0000 		.4byte	.LASF637
 6515 1f3f 0A30     		.2byte	0x300a
 6516 1f41 2A       		.uleb128 0x2a
 6517 1f42 262D0000 		.4byte	.LASF638
ARM GAS  C:\Users\ASUS\AppData\Local\Temp\ccYYtRfk.s 			page 163


 6518 1f46 0B30     		.2byte	0x300b
 6519 1f48 2A       		.uleb128 0x2a
 6520 1f49 90120000 		.4byte	.LASF639
 6521 1f4d 0C30     		.2byte	0x300c
 6522 1f4f 2A       		.uleb128 0x2a
 6523 1f50 EC1C0000 		.4byte	.LASF640
 6524 1f54 1130     		.2byte	0x3011
 6525 1f56 2A       		.uleb128 0x2a
 6526 1f57 25350000 		.4byte	.LASF641
 6527 1f5b 1230     		.2byte	0x3012
 6528 1f5d 2A       		.uleb128 0x2a
 6529 1f5e E5260000 		.4byte	.LASF642
 6530 1f62 1330     		.2byte	0x3013
 6531 1f64 2A       		.uleb128 0x2a
 6532 1f65 1C370000 		.4byte	.LASF643
 6533 1f69 1430     		.2byte	0x3014
 6534 1f6b 2A       		.uleb128 0x2a
 6535 1f6c 36390000 		.4byte	.LASF644
 6536 1f70 1530     		.2byte	0x3015
 6537 1f72 2A       		.uleb128 0x2a
 6538 1f73 7D090000 		.4byte	.LASF645
 6539 1f77 1630     		.2byte	0x3016
 6540 1f79 2A       		.uleb128 0x2a
 6541 1f7a D6270000 		.4byte	.LASF646
 6542 1f7e 1730     		.2byte	0x3017
 6543 1f80 2A       		.uleb128 0x2a
 6544 1f81 39160000 		.4byte	.LASF647
 6545 1f85 1830     		.2byte	0x3018
 6546 1f87 2A       		.uleb128 0x2a
 6547 1f88 7D130000 		.4byte	.LASF648
 6548 1f8c 0040     		.2byte	0x4000
 6549 1f8e 2A       		.uleb128 0x2a
 6550 1f8f 3D360000 		.4byte	.LASF649
 6551 1f93 0140     		.2byte	0x4001
 6552 1f95 2A       		.uleb128 0x2a
 6553 1f96 4C2E0000 		.4byte	.LASF650
 6554 1f9a 0240     		.2byte	0x4002
 6555 1f9c 2A       		.uleb128 0x2a
 6556 1f9d 5B2C0000 		.4byte	.LASF651
 6557 1fa1 0340     		.2byte	0x4003
 6558 1fa3 2A       		.uleb128 0x2a
 6559 1fa4 60280000 		.4byte	.LASF652
 6560 1fa8 0440     		.2byte	0x4004
 6561 1faa 2A       		.uleb128 0x2a
 6562 1fab 19080000 		.4byte	.LASF653
 6563 1faf 0540     		.2byte	0x4005
 6564 1fb1 2A       		.uleb128 0x2a
 6565 1fb2 8C330000 		.4byte	.LASF654
 6566 1fb6 0640     		.2byte	0x4006
 6567 1fb8 2A       		.uleb128 0x2a
 6568 1fb9 DB360000 		.4byte	.LASF655
 6569 1fbd 0740     		.2byte	0x4007
 6570 1fbf 2A       		.uleb128 0x2a
 6571 1fc0 B03C0000 		.4byte	.LASF656
 6572 1fc4 0840     		.2byte	0x4008
 6573 1fc6 2A       		.uleb128 0x2a
 6574 1fc7 CE0B0000 		.4byte	.LASF657
ARM GAS  C:\Users\ASUS\AppData\Local\Temp\ccYYtRfk.s 			page 164


 6575 1fcb 0940     		.2byte	0x4009
 6576 1fcd 2A       		.uleb128 0x2a
 6577 1fce 082C0000 		.4byte	.LASF658
 6578 1fd2 0A40     		.2byte	0x400a
 6579 1fd4 2A       		.uleb128 0x2a
 6580 1fd5 601A0000 		.4byte	.LASF659
 6581 1fd9 0B40     		.2byte	0x400b
 6582 1fdb 2A       		.uleb128 0x2a
 6583 1fdc 5E2B0000 		.4byte	.LASF660
 6584 1fe0 0C40     		.2byte	0x400c
 6585 1fe2 2A       		.uleb128 0x2a
 6586 1fe3 B0080000 		.4byte	.LASF661
 6587 1fe7 0D40     		.2byte	0x400d
 6588 1fe9 2A       		.uleb128 0x2a
 6589 1fea 7F240000 		.4byte	.LASF662
 6590 1fee 0E40     		.2byte	0x400e
 6591 1ff0 2A       		.uleb128 0x2a
 6592 1ff1 0F160000 		.4byte	.LASF663
 6593 1ff5 0F40     		.2byte	0x400f
 6594 1ff7 2A       		.uleb128 0x2a
 6595 1ff8 CF130000 		.4byte	.LASF664
 6596 1ffc 1040     		.2byte	0x4010
 6597 1ffe 2A       		.uleb128 0x2a
 6598 1fff 750D0000 		.4byte	.LASF665
 6599 2003 1140     		.2byte	0x4011
 6600 2005 2A       		.uleb128 0x2a
 6601 2006 00310000 		.4byte	.LASF666
 6602 200a 1240     		.2byte	0x4012
 6603 200c 2A       		.uleb128 0x2a
 6604 200d 02100000 		.4byte	.LASF667
 6605 2011 1340     		.2byte	0x4013
 6606 2013 2A       		.uleb128 0x2a
 6607 2014 142F0000 		.4byte	.LASF668
 6608 2018 1440     		.2byte	0x4014
 6609 201a 2A       		.uleb128 0x2a
 6610 201b 682D0000 		.4byte	.LASF669
 6611 201f 1540     		.2byte	0x4015
 6612 2021 2A       		.uleb128 0x2a
 6613 2022 DD060000 		.4byte	.LASF670
 6614 2026 1640     		.2byte	0x4016
 6615 2028 2A       		.uleb128 0x2a
 6616 2029 C71A0000 		.4byte	.LASF671
 6617 202d 1740     		.2byte	0x4017
 6618 202f 2A       		.uleb128 0x2a
 6619 2030 F8220000 		.4byte	.LASF672
 6620 2034 1840     		.2byte	0x4018
 6621 2036 2A       		.uleb128 0x2a
 6622 2037 603E0000 		.4byte	.LASF673
 6623 203b 1940     		.2byte	0x4019
 6624 203d 2A       		.uleb128 0x2a
 6625 203e B73A0000 		.4byte	.LASF674
 6626 2042 1A40     		.2byte	0x401a
 6627 2044 2A       		.uleb128 0x2a
 6628 2045 F3170000 		.4byte	.LASF675
 6629 2049 0050     		.2byte	0x5000
 6630 204b 2A       		.uleb128 0x2a
 6631 204c 8D250000 		.4byte	.LASF676
ARM GAS  C:\Users\ASUS\AppData\Local\Temp\ccYYtRfk.s 			page 165


 6632 2050 0150     		.2byte	0x5001
 6633 2052 2A       		.uleb128 0x2a
 6634 2053 B21B0000 		.4byte	.LASF677
 6635 2057 0250     		.2byte	0x5002
 6636 2059 2A       		.uleb128 0x2a
 6637 205a 52090000 		.4byte	.LASF678
 6638 205e 0350     		.2byte	0x5003
 6639 2060 2A       		.uleb128 0x2a
 6640 2061 AC2D0000 		.4byte	.LASF679
 6641 2065 0450     		.2byte	0x5004
 6642 2067 2A       		.uleb128 0x2a
 6643 2068 70040000 		.4byte	.LASF680
 6644 206c 0550     		.2byte	0x5005
 6645 206e 2A       		.uleb128 0x2a
 6646 206f 2F1A0000 		.4byte	.LASF681
 6647 2073 0650     		.2byte	0x5006
 6648 2075 2A       		.uleb128 0x2a
 6649 2076 7B100000 		.4byte	.LASF682
 6650 207a 0750     		.2byte	0x5007
 6651 207c 2A       		.uleb128 0x2a
 6652 207d 3F1C0000 		.4byte	.LASF683
 6653 2081 0850     		.2byte	0x5008
 6654 2083 2A       		.uleb128 0x2a
 6655 2084 BD1C0000 		.4byte	.LASF684
 6656 2088 0950     		.2byte	0x5009
 6657 208a 2A       		.uleb128 0x2a
 6658 208b 23320000 		.4byte	.LASF685
 6659 208f 0A50     		.2byte	0x500a
 6660 2091 2A       		.uleb128 0x2a
 6661 2092 BF1F0000 		.4byte	.LASF686
 6662 2096 0B50     		.2byte	0x500b
 6663 2098 2A       		.uleb128 0x2a
 6664 2099 030A0000 		.4byte	.LASF687
 6665 209d 0C50     		.2byte	0x500c
 6666 209f 2A       		.uleb128 0x2a
 6667 20a0 FD140000 		.4byte	.LASF688
 6668 20a4 0D50     		.2byte	0x500d
 6669 20a6 2A       		.uleb128 0x2a
 6670 20a7 46290000 		.4byte	.LASF689
 6671 20ab 0E50     		.2byte	0x500e
 6672 20ad 2A       		.uleb128 0x2a
 6673 20ae 0E180000 		.4byte	.LASF690
 6674 20b2 0F50     		.2byte	0x500f
 6675 20b4 2A       		.uleb128 0x2a
 6676 20b5 A8290000 		.4byte	.LASF691
 6677 20b9 1050     		.2byte	0x5010
 6678 20bb 2A       		.uleb128 0x2a
 6679 20bc 91060000 		.4byte	.LASF692
 6680 20c0 1150     		.2byte	0x5011
 6681 20c2 2A       		.uleb128 0x2a
 6682 20c3 ED150000 		.4byte	.LASF693
 6683 20c7 1250     		.2byte	0x5012
 6684 20c9 2A       		.uleb128 0x2a
 6685 20ca 8E080000 		.4byte	.LASF694
 6686 20ce 1350     		.2byte	0x5013
 6687 20d0 2A       		.uleb128 0x2a
 6688 20d1 F60E0000 		.4byte	.LASF695
ARM GAS  C:\Users\ASUS\AppData\Local\Temp\ccYYtRfk.s 			page 166


 6689 20d5 1450     		.2byte	0x5014
 6690 20d7 2A       		.uleb128 0x2a
 6691 20d8 E8000000 		.4byte	.LASF696
 6692 20dc 1550     		.2byte	0x5015
 6693 20de 2A       		.uleb128 0x2a
 6694 20df AB110000 		.4byte	.LASF697
 6695 20e3 1650     		.2byte	0x5016
 6696 20e5 2A       		.uleb128 0x2a
 6697 20e6 DA320000 		.4byte	.LASF698
 6698 20ea 1750     		.2byte	0x5017
 6699 20ec 2A       		.uleb128 0x2a
 6700 20ed 82070000 		.4byte	.LASF699
 6701 20f1 1850     		.2byte	0x5018
 6702 20f3 2A       		.uleb128 0x2a
 6703 20f4 5B0A0000 		.4byte	.LASF700
 6704 20f8 0060     		.2byte	0x6000
 6705 20fa 2A       		.uleb128 0x2a
 6706 20fb B3310000 		.4byte	.LASF701
 6707 20ff 0160     		.2byte	0x6001
 6708 2101 2A       		.uleb128 0x2a
 6709 2102 7E1B0000 		.4byte	.LASF702
 6710 2106 0260     		.2byte	0x6002
 6711 2108 2A       		.uleb128 0x2a
 6712 2109 C6180000 		.4byte	.LASF703
 6713 210d 0360     		.2byte	0x6003
 6714 210f 2A       		.uleb128 0x2a
 6715 2110 C4070000 		.4byte	.LASF704
 6716 2114 0460     		.2byte	0x6004
 6717 2116 2A       		.uleb128 0x2a
 6718 2117 B6280000 		.4byte	.LASF705
 6719 211b 0560     		.2byte	0x6005
 6720 211d 2A       		.uleb128 0x2a
 6721 211e F41F0000 		.4byte	.LASF706
 6722 2122 0660     		.2byte	0x6006
 6723 2124 2A       		.uleb128 0x2a
 6724 2125 90210000 		.4byte	.LASF707
 6725 2129 0760     		.2byte	0x6007
 6726 212b 2A       		.uleb128 0x2a
 6727 212c D20E0000 		.4byte	.LASF708
 6728 2130 0860     		.2byte	0x6008
 6729 2132 2A       		.uleb128 0x2a
 6730 2133 4B180000 		.4byte	.LASF709
 6731 2137 0960     		.2byte	0x6009
 6732 2139 2A       		.uleb128 0x2a
 6733 213a B22F0000 		.4byte	.LASF710
 6734 213e 0A60     		.2byte	0x600a
 6735 2140 2A       		.uleb128 0x2a
 6736 2141 09040000 		.4byte	.LASF711
 6737 2145 FFFF     		.2byte	0xffff
 6738 2147 00       		.byte	0
 6739 2148 10       		.uleb128 0x10
 6740 2149 35050000 		.4byte	0x535
 6741 214d 18       		.uleb128 0x18
 6742 214e 02       		.byte	0x2
 6743 214f 1B       		.byte	0x1b
 6744 2150 6001     		.2byte	0x160
 6745 2152 71210000 		.4byte	0x2171
ARM GAS  C:\Users\ASUS\AppData\Local\Temp\ccYYtRfk.s 			page 167


 6746 2156 0A       		.uleb128 0xa
 6747 2157 E3070000 		.4byte	.LASF712
 6748 215b 1B       		.byte	0x1b
 6749 215c 6A01     		.2byte	0x16a
 6750 215e 35050000 		.4byte	0x535
 6751 2162 00       		.byte	0
 6752 2163 0A       		.uleb128 0xa
 6753 2164 07110000 		.4byte	.LASF713
 6754 2168 1B       		.byte	0x1b
 6755 2169 6E01     		.2byte	0x16e
 6756 216b 35050000 		.4byte	0x535
 6757 216f 01       		.byte	0x1
 6758 2170 00       		.byte	0
 6759 2171 07       		.uleb128 0x7
 6760 2172 5D330000 		.4byte	.LASF714
 6761 2176 1B       		.byte	0x1b
 6762 2177 7001     		.2byte	0x170
 6763 2179 4D210000 		.4byte	0x214d
 6764 217d 07       		.uleb128 0x7
 6765 217e 5E0E0000 		.4byte	.LASF715
 6766 2182 1C       		.byte	0x1c
 6767 2183 7F01     		.2byte	0x17f
 6768 2185 4B050000 		.4byte	0x54b
 6769 2189 18       		.uleb128 0x18
 6770 218a 08       		.byte	0x8
 6771 218b 1C       		.byte	0x1c
 6772 218c 9401     		.2byte	0x194
 6773 218e BA210000 		.4byte	0x21ba
 6774 2192 1E       		.uleb128 0x1e
 6775 2193 76616C00 		.ascii	"val\000"
 6776 2197 1C       		.byte	0x1c
 6777 2198 9701     		.2byte	0x197
 6778 219a 3D150000 		.4byte	0x153d
 6779 219e 00       		.byte	0
 6780 219f 1E       		.uleb128 0x1e
 6781 21a0 6C656E00 		.ascii	"len\000"
 6782 21a4 1C       		.byte	0x1c
 6783 21a5 9A01     		.2byte	0x19a
 6784 21a7 4B050000 		.4byte	0x54b
 6785 21ab 04       		.byte	0x4
 6786 21ac 0A       		.uleb128 0xa
 6787 21ad 543D0000 		.4byte	.LASF716
 6788 21b1 1C       		.byte	0x1c
 6789 21b2 A101     		.2byte	0x1a1
 6790 21b4 4B050000 		.4byte	0x54b
 6791 21b8 06       		.byte	0x6
 6792 21b9 00       		.byte	0
 6793 21ba 07       		.uleb128 0x7
 6794 21bb D30A0000 		.4byte	.LASF717
 6795 21bf 1C       		.byte	0x1c
 6796 21c0 A301     		.2byte	0x1a3
 6797 21c2 89210000 		.4byte	0x2189
 6798 21c6 18       		.uleb128 0x18
 6799 21c7 0C       		.byte	0xc
 6800 21c8 1C       		.byte	0x1c
 6801 21c9 A601     		.2byte	0x1a6
 6802 21cb EA210000 		.4byte	0x21ea
ARM GAS  C:\Users\ASUS\AppData\Local\Temp\ccYYtRfk.s 			page 168


 6803 21cf 0A       		.uleb128 0xa
 6804 21d0 1E0A0000 		.4byte	.LASF718
 6805 21d4 1C       		.byte	0x1c
 6806 21d5 A901     		.2byte	0x1a9
 6807 21d7 BA210000 		.4byte	0x21ba
 6808 21db 00       		.byte	0
 6809 21dc 0A       		.uleb128 0xa
 6810 21dd 42230000 		.4byte	.LASF719
 6811 21e1 1C       		.byte	0x1c
 6812 21e2 AC01     		.2byte	0x1ac
 6813 21e4 7D210000 		.4byte	0x217d
 6814 21e8 08       		.byte	0x8
 6815 21e9 00       		.byte	0
 6816 21ea 07       		.uleb128 0x7
 6817 21eb B3040000 		.4byte	.LASF720
 6818 21ef 1C       		.byte	0x1c
 6819 21f0 AE01     		.2byte	0x1ae
 6820 21f2 C6210000 		.4byte	0x21c6
 6821 21f6 18       		.uleb128 0x18
 6822 21f7 10       		.byte	0x10
 6823 21f8 1C       		.byte	0x1c
 6824 21f9 D201     		.2byte	0x1d2
 6825 21fb 1A220000 		.4byte	0x221a
 6826 21ff 0A       		.uleb128 0xa
 6827 2200 48350000 		.4byte	.LASF721
 6828 2204 1C       		.byte	0x1c
 6829 2205 D501     		.2byte	0x1d5
 6830 2207 EA210000 		.4byte	0x21ea
 6831 220b 00       		.byte	0
 6832 220c 0A       		.uleb128 0xa
 6833 220d BC300000 		.4byte	.LASF722
 6834 2211 1C       		.byte	0x1c
 6835 2212 D801     		.2byte	0x1d8
 6836 2214 71210000 		.4byte	0x2171
 6837 2218 0C       		.byte	0xc
 6838 2219 00       		.byte	0
 6839 221a 07       		.uleb128 0x7
 6840 221b B0210000 		.4byte	.LASF723
 6841 221f 1C       		.byte	0x1c
 6842 2220 DA01     		.2byte	0x1da
 6843 2222 F6210000 		.4byte	0x21f6
 6844 2226 02       		.uleb128 0x2
 6845 2227 01       		.byte	0x1
 6846 2228 B3040000 		.4byte	0x4b3
 6847 222c 1D       		.byte	0x1d
 6848 222d 69       		.byte	0x69
 6849 222e 45220000 		.4byte	0x2245
 6850 2232 04       		.uleb128 0x4
 6851 2233 DF1F0000 		.4byte	.LASF724
 6852 2237 00       		.byte	0
 6853 2238 04       		.uleb128 0x4
 6854 2239 1E400000 		.4byte	.LASF725
 6855 223d 01       		.byte	0x1
 6856 223e 04       		.uleb128 0x4
 6857 223f CD060000 		.4byte	.LASF726
 6858 2243 02       		.byte	0x2
 6859 2244 00       		.byte	0
ARM GAS  C:\Users\ASUS\AppData\Local\Temp\ccYYtRfk.s 			page 169


 6860 2245 06       		.uleb128 0x6
 6861 2246 613C0000 		.4byte	.LASF727
 6862 224a 1D       		.byte	0x1d
 6863 224b 70       		.byte	0x70
 6864 224c 26220000 		.4byte	0x2226
 6865 2250 02       		.uleb128 0x2
 6866 2251 01       		.byte	0x1
 6867 2252 B3040000 		.4byte	0x4b3
 6868 2256 1D       		.byte	0x1d
 6869 2257 7E       		.byte	0x7e
 6870 2258 75220000 		.4byte	0x2275
 6871 225c 04       		.uleb128 0x4
 6872 225d 0C260000 		.4byte	.LASF728
 6873 2261 00       		.byte	0
 6874 2262 04       		.uleb128 0x4
 6875 2263 3D0C0000 		.4byte	.LASF729
 6876 2267 01       		.byte	0x1
 6877 2268 04       		.uleb128 0x4
 6878 2269 F2020000 		.4byte	.LASF730
 6879 226d 02       		.byte	0x2
 6880 226e 04       		.uleb128 0x4
 6881 226f 4B2F0000 		.4byte	.LASF731
 6882 2273 03       		.byte	0x3
 6883 2274 00       		.byte	0
 6884 2275 06       		.uleb128 0x6
 6885 2276 003B0000 		.4byte	.LASF732
 6886 227a 1D       		.byte	0x1d
 6887 227b 83       		.byte	0x83
 6888 227c 50220000 		.4byte	0x2250
 6889 2280 02       		.uleb128 0x2
 6890 2281 01       		.byte	0x1
 6891 2282 B3040000 		.4byte	0x4b3
 6892 2286 1D       		.byte	0x1d
 6893 2287 87       		.byte	0x87
 6894 2288 BD220000 		.4byte	0x22bd
 6895 228c 04       		.uleb128 0x4
 6896 228d 19240000 		.4byte	.LASF733
 6897 2291 00       		.byte	0
 6898 2292 04       		.uleb128 0x4
 6899 2293 A8230000 		.4byte	.LASF734
 6900 2297 01       		.byte	0x1
 6901 2298 04       		.uleb128 0x4
 6902 2299 25340000 		.4byte	.LASF735
 6903 229d 02       		.byte	0x2
 6904 229e 04       		.uleb128 0x4
 6905 229f 401D0000 		.4byte	.LASF736
 6906 22a3 03       		.byte	0x3
 6907 22a4 04       		.uleb128 0x4
 6908 22a5 12250000 		.4byte	.LASF737
 6909 22a9 04       		.byte	0x4
 6910 22aa 04       		.uleb128 0x4
 6911 22ab 2A100000 		.4byte	.LASF738
 6912 22af 05       		.byte	0x5
 6913 22b0 04       		.uleb128 0x4
 6914 22b1 C7020000 		.4byte	.LASF739
 6915 22b5 06       		.byte	0x6
 6916 22b6 04       		.uleb128 0x4
ARM GAS  C:\Users\ASUS\AppData\Local\Temp\ccYYtRfk.s 			page 170


 6917 22b7 A0090000 		.4byte	.LASF740
 6918 22bb 07       		.byte	0x7
 6919 22bc 00       		.byte	0
 6920 22bd 06       		.uleb128 0x6
 6921 22be AA2E0000 		.4byte	.LASF741
 6922 22c2 1D       		.byte	0x1d
 6923 22c3 90       		.byte	0x90
 6924 22c4 80220000 		.4byte	0x2280
 6925 22c8 06       		.uleb128 0x6
 6926 22c9 CD3A0000 		.4byte	.LASF742
 6927 22cd 1E       		.byte	0x1e
 6928 22ce 74       		.byte	0x74
 6929 22cf 1A220000 		.4byte	0x221a
 6930 22d3 16       		.uleb128 0x16
 6931 22d4 04       		.byte	0x4
 6932 22d5 4B050000 		.4byte	0x54b
 6933 22d9 10       		.uleb128 0x10
 6934 22da 1D100000 		.4byte	0x101d
 6935 22de 2B       		.uleb128 0x2b
 6936 22df E70F0000 		.4byte	.LASF744
 6937 22e3 01       		.byte	0x1
 6938 22e4 B3040000 		.4byte	0x4b3
 6939 22e8 03       		.byte	0x3
 6940 22e9 21       		.byte	0x21
 6941 22ea 0D230000 		.4byte	0x230d
 6942 22ee 2C       		.uleb128 0x2c
 6943 22ef 4F464600 		.ascii	"OFF\000"
 6944 22f3 00       		.byte	0
 6945 22f4 04       		.uleb128 0x4
 6946 22f5 0D110000 		.4byte	.LASF745
 6947 22f9 01       		.byte	0x1
 6948 22fa 04       		.uleb128 0x4
 6949 22fb 25140000 		.4byte	.LASF746
 6950 22ff 02       		.byte	0x2
 6951 2300 04       		.uleb128 0x4
 6952 2301 FD0B0000 		.4byte	.LASF747
 6953 2305 03       		.byte	0x3
 6954 2306 04       		.uleb128 0x4
 6955 2307 EC070000 		.4byte	.LASF748
 6956 230b 04       		.byte	0x4
 6957 230c 00       		.byte	0
 6958 230d 24       		.uleb128 0x24
 6959 230e 66380000 		.4byte	.LASF749
 6960 2312 0C       		.byte	0xc
 6961 2313 03       		.byte	0x3
 6962 2314 23       		.byte	0x23
 6963 2315 3D230000 		.4byte	0x233d
 6964 2319 25       		.uleb128 0x25
 6965 231a 696400   		.ascii	"id\000"
 6966 231d 03       		.byte	0x3
 6967 231e 24       		.byte	0x24
 6968 231f 27050000 		.4byte	0x527
 6969 2323 00       		.byte	0
 6970 2324 25       		.uleb128 0x25
 6971 2325 76616C00 		.ascii	"val\000"
 6972 2329 03       		.byte	0x3
 6973 232a 25       		.byte	0x25
ARM GAS  C:\Users\ASUS\AppData\Local\Temp\ccYYtRfk.s 			page 171


 6974 232b 27050000 		.4byte	0x527
 6975 232f 04       		.byte	0x4
 6976 2330 13       		.uleb128 0x13
 6977 2331 303E0000 		.4byte	.LASF750
 6978 2335 03       		.byte	0x3
 6979 2336 26       		.byte	0x26
 6980 2337 27050000 		.4byte	0x527
 6981 233b 08       		.byte	0x8
 6982 233c 00       		.byte	0
 6983 233d 2D       		.uleb128 0x2d
 6984 233e 46534D00 		.ascii	"FSM\000"
 6985 2342 40       		.byte	0x40
 6986 2343 03       		.byte	0x3
 6987 2344 29       		.byte	0x29
 6988 2345 62230000 		.4byte	0x2362
 6989 2349 13       		.uleb128 0x13
 6990 234a EE390000 		.4byte	.LASF751
 6991 234e 03       		.byte	0x3
 6992 234f 2A       		.byte	0x2a
 6993 2350 62230000 		.4byte	0x2362
 6994 2354 00       		.byte	0
 6995 2355 13       		.uleb128 0x13
 6996 2356 231C0000 		.4byte	.LASF752
 6997 235a 03       		.byte	0x3
 6998 235b 2B       		.byte	0x2b
 6999 235c 72230000 		.4byte	0x2372
 7000 2360 3C       		.byte	0x3c
 7001 2361 00       		.byte	0
 7002 2362 0D       		.uleb128 0xd
 7003 2363 0D230000 		.4byte	0x230d
 7004 2367 72230000 		.4byte	0x2372
 7005 236b 0E       		.uleb128 0xe
 7006 236c 0E060000 		.4byte	0x60e
 7007 2370 04       		.byte	0x4
 7008 2371 00       		.byte	0
 7009 2372 16       		.uleb128 0x16
 7010 2373 04       		.byte	0x4
 7011 2374 0D230000 		.4byte	0x230d
 7012 2378 2E       		.uleb128 0x2e
 7013 2379 46534D00 		.ascii	"FSM\000"
 7014 237d 03       		.byte	0x3
 7015 237e 2C       		.byte	0x2c
 7016 237f 3D230000 		.4byte	0x233d
 7017 2383 06       		.uleb128 0x6
 7018 2384 C8290000 		.4byte	.LASF753
 7019 2388 1F       		.byte	0x1f
 7020 2389 0D       		.byte	0xd
 7021 238a 8E230000 		.4byte	0x238e
 7022 238e 16       		.uleb128 0x16
 7023 238f 04       		.byte	0x4
 7024 2390 94230000 		.4byte	0x2394
 7025 2394 24       		.uleb128 0x24
 7026 2395 B7000000 		.4byte	.LASF754
 7027 2399 0C       		.byte	0xc
 7028 239a 1F       		.byte	0x1f
 7029 239b 15       		.byte	0x15
 7030 239c C5230000 		.4byte	0x23c5
ARM GAS  C:\Users\ASUS\AppData\Local\Temp\ccYYtRfk.s 			page 172


 7031 23a0 13       		.uleb128 0x13
 7032 23a1 BE260000 		.4byte	.LASF755
 7033 23a5 1F       		.byte	0x1f
 7034 23a6 17       		.byte	0x17
 7035 23a7 F0230000 		.4byte	0x23f0
 7036 23ab 00       		.byte	0
 7037 23ac 13       		.uleb128 0x13
 7038 23ad ED310000 		.4byte	.LASF756
 7039 23b1 1F       		.byte	0x1f
 7040 23b2 18       		.byte	0x18
 7041 23b3 F0230000 		.4byte	0x23f0
 7042 23b7 04       		.byte	0x4
 7043 23b8 13       		.uleb128 0x13
 7044 23b9 562C0000 		.4byte	.LASF757
 7045 23bd 1F       		.byte	0x1f
 7046 23be 19       		.byte	0x19
 7047 23bf 27050000 		.4byte	0x527
 7048 23c3 08       		.byte	0x8
 7049 23c4 00       		.byte	0
 7050 23c5 24       		.uleb128 0x24
 7051 23c6 4C0A0000 		.4byte	.LASF758
 7052 23ca 08       		.byte	0x8
 7053 23cb 1F       		.byte	0x1f
 7054 23cc 0F       		.byte	0xf
 7055 23cd EA230000 		.4byte	0x23ea
 7056 23d1 13       		.uleb128 0x13
 7057 23d2 380C0000 		.4byte	.LASF759
 7058 23d6 1F       		.byte	0x1f
 7059 23d7 11       		.byte	0x11
 7060 23d8 27050000 		.4byte	0x527
 7061 23dc 00       		.byte	0
 7062 23dd 13       		.uleb128 0x13
 7063 23de 613F0000 		.4byte	.LASF760
 7064 23e2 1F       		.byte	0x1f
 7065 23e3 12       		.byte	0x12
 7066 23e4 EA230000 		.4byte	0x23ea
 7067 23e8 04       		.byte	0x4
 7068 23e9 00       		.byte	0
 7069 23ea 16       		.uleb128 0x16
 7070 23eb 04       		.byte	0x4
 7071 23ec C5230000 		.4byte	0x23c5
 7072 23f0 06       		.uleb128 0x6
 7073 23f1 A1230000 		.4byte	.LASF761
 7074 23f5 1F       		.byte	0x1f
 7075 23f6 13       		.byte	0x13
 7076 23f7 EA230000 		.4byte	0x23ea
 7077 23fb 2F       		.uleb128 0x2f
 7078 23fc FD230000 		.4byte	.LASF762
 7079 2400 05       		.byte	0x5
 7080 2401 5202     		.2byte	0x252
 7081 2403 88130000 		.4byte	0x1388
 7082 2407 03       		.byte	0x3
 7083 2408 19240000 		.4byte	0x2419
 7084 240c 30       		.uleb128 0x30
 7085 240d F1070000 		.4byte	.LASF764
 7086 2411 05       		.byte	0x5
 7087 2412 5202     		.2byte	0x252
ARM GAS  C:\Users\ASUS\AppData\Local\Temp\ccYYtRfk.s 			page 173


 7088 2414 61050000 		.4byte	0x561
 7089 2418 00       		.byte	0
 7090 2419 2F       		.uleb128 0x2f
 7091 241a 9F0D0000 		.4byte	.LASF763
 7092 241e 05       		.byte	0x5
 7093 241f 5F02     		.2byte	0x25f
 7094 2421 88130000 		.4byte	0x1388
 7095 2425 03       		.byte	0x3
 7096 2426 4F240000 		.4byte	0x244f
 7097 242a 30       		.uleb128 0x30
 7098 242b 550D0000 		.4byte	.LASF765
 7099 242f 05       		.byte	0x5
 7100 2430 5F02     		.2byte	0x25f
 7101 2432 D4130000 		.4byte	0x13d4
 7102 2436 30       		.uleb128 0x30
 7103 2437 D2340000 		.4byte	.LASF766
 7104 243b 05       		.byte	0x5
 7105 243c 5F02     		.2byte	0x25f
 7106 243e 3D150000 		.4byte	0x153d
 7107 2442 30       		.uleb128 0x30
 7108 2443 F1070000 		.4byte	.LASF764
 7109 2447 05       		.byte	0x5
 7110 2448 5F02     		.2byte	0x25f
 7111 244a 61050000 		.4byte	0x561
 7112 244e 00       		.byte	0
 7113 244f 2F       		.uleb128 0x2f
 7114 2450 76330000 		.4byte	.LASF767
 7115 2454 05       		.byte	0x5
 7116 2455 4502     		.2byte	0x245
 7117 2457 88130000 		.4byte	0x1388
 7118 245b 03       		.byte	0x3
 7119 245c 85240000 		.4byte	0x2485
 7120 2460 30       		.uleb128 0x30
 7121 2461 B31A0000 		.4byte	.LASF768
 7122 2465 05       		.byte	0x5
 7123 2466 4502     		.2byte	0x245
 7124 2468 61050000 		.4byte	0x561
 7125 246c 30       		.uleb128 0x30
 7126 246d E0220000 		.4byte	.LASF769
 7127 2471 05       		.byte	0x5
 7128 2472 4502     		.2byte	0x245
 7129 2474 AE130000 		.4byte	0x13ae
 7130 2478 30       		.uleb128 0x30
 7131 2479 F1070000 		.4byte	.LASF764
 7132 247d 05       		.byte	0x5
 7133 247e 4502     		.2byte	0x245
 7134 2480 61050000 		.4byte	0x561
 7135 2484 00       		.byte	0
 7136 2485 2F       		.uleb128 0x2f
 7137 2486 EA1B0000 		.4byte	.LASF770
 7138 248a 05       		.byte	0x5
 7139 248b 6C02     		.2byte	0x26c
 7140 248d 88130000 		.4byte	0x1388
 7141 2491 03       		.byte	0x3
 7142 2492 AF240000 		.4byte	0x24af
 7143 2496 30       		.uleb128 0x30
 7144 2497 D2340000 		.4byte	.LASF766
ARM GAS  C:\Users\ASUS\AppData\Local\Temp\ccYYtRfk.s 			page 174


 7145 249b 05       		.byte	0x5
 7146 249c 6C02     		.2byte	0x26c
 7147 249e 35050000 		.4byte	0x535
 7148 24a2 30       		.uleb128 0x30
 7149 24a3 F1070000 		.4byte	.LASF764
 7150 24a7 05       		.byte	0x5
 7151 24a8 6C02     		.2byte	0x26c
 7152 24aa 61050000 		.4byte	0x561
 7153 24ae 00       		.byte	0
 7154 24af 2F       		.uleb128 0x2f
 7155 24b0 55150000 		.4byte	.LASF771
 7156 24b4 05       		.byte	0x5
 7157 24b5 3802     		.2byte	0x238
 7158 24b7 88130000 		.4byte	0x1388
 7159 24bb 03       		.byte	0x3
 7160 24bc E5240000 		.4byte	0x24e5
 7161 24c0 30       		.uleb128 0x30
 7162 24c1 B31A0000 		.4byte	.LASF768
 7163 24c5 05       		.byte	0x5
 7164 24c6 3802     		.2byte	0x238
 7165 24c8 61050000 		.4byte	0x561
 7166 24cc 30       		.uleb128 0x30
 7167 24cd E0220000 		.4byte	.LASF769
 7168 24d1 05       		.byte	0x5
 7169 24d2 3802     		.2byte	0x238
 7170 24d4 AE130000 		.4byte	0x13ae
 7171 24d8 30       		.uleb128 0x30
 7172 24d9 F1070000 		.4byte	.LASF764
 7173 24dd 05       		.byte	0x5
 7174 24de 3802     		.2byte	0x238
 7175 24e0 61050000 		.4byte	0x561
 7176 24e4 00       		.byte	0
 7177 24e5 31       		.uleb128 0x31
 7178 24e6 E7220000 		.4byte	.LASF897
 7179 24ea 07       		.byte	0x7
 7180 24eb DD02     		.2byte	0x2dd
 7181 24ed 03       		.byte	0x3
 7182 24ee FF240000 		.4byte	0x24ff
 7183 24f2 30       		.uleb128 0x30
 7184 24f3 2C0B0000 		.4byte	.LASF772
 7185 24f7 07       		.byte	0x7
 7186 24f8 DD02     		.2byte	0x2dd
 7187 24fa 23010000 		.4byte	0x123
 7188 24fe 00       		.byte	0
 7189 24ff 32       		.uleb128 0x32
 7190 2500 FF380000 		.4byte	.LASF898
 7191 2504 09       		.byte	0x9
 7192 2505 81       		.byte	0x81
 7193 2506 03       		.byte	0x3
 7194 2507 33       		.uleb128 0x33
 7195 2508 1A190000 		.4byte	.LASF775
 7196 250c 01       		.byte	0x1
 7197 250d 11       		.byte	0x11
 7198 250e 00000000 		.4byte	.LFB467
 7199 2512 44000000 		.4byte	.LFE467-.LFB467
 7200 2516 01       		.uleb128 0x1
 7201 2517 9C       		.byte	0x9c
ARM GAS  C:\Users\ASUS\AppData\Local\Temp\ccYYtRfk.s 			page 175


 7202 2518 75250000 		.4byte	0x2575
 7203 251c 34       		.uleb128 0x34
 7204 251d 31230000 		.4byte	.LASF773
 7205 2521 01       		.byte	0x1
 7206 2522 11       		.byte	0x11
 7207 2523 61050000 		.4byte	0x561
 7208 2527 00000000 		.4byte	.LLST0
 7209 252b 34       		.uleb128 0x34
 7210 252c BF170000 		.4byte	.LASF774
 7211 2530 01       		.byte	0x1
 7212 2531 11       		.byte	0x11
 7213 2532 43100000 		.4byte	0x1043
 7214 2536 3A000000 		.4byte	.LLST1
 7215 253a 35       		.uleb128 0x35
 7216 253b 20000000 		.4byte	.LBB47
 7217 253f 14000000 		.4byte	.LBE47-.LBB47
 7218 2543 60250000 		.4byte	0x2560
 7219 2547 36       		.uleb128 0x36
 7220 2548 F7180000 		.4byte	.LASF779
 7221 254c 01       		.byte	0x1
 7222 254d 21       		.byte	0x21
 7223 254e 75250000 		.4byte	0x2575
 7224 2552 74000000 		.4byte	.LLST2
 7225 2556 37       		.uleb128 0x37
 7226 2557 34000000 		.4byte	.LVL6
 7227 255b D63E0000 		.4byte	0x3ed6
 7228 255f 00       		.byte	0
 7229 2560 38       		.uleb128 0x38
 7230 2561 1E000000 		.4byte	.LVL3
 7231 2565 E23E0000 		.4byte	0x3ee2
 7232 2569 39       		.uleb128 0x39
 7233 256a 01       		.uleb128 0x1
 7234 256b 50       		.byte	0x50
 7235 256c 01       		.uleb128 0x1
 7236 256d 30       		.byte	0x30
 7237 256e 39       		.uleb128 0x39
 7238 256f 01       		.uleb128 0x1
 7239 2570 51       		.byte	0x51
 7240 2571 01       		.uleb128 0x1
 7241 2572 30       		.byte	0x30
 7242 2573 00       		.byte	0
 7243 2574 00       		.byte	0
 7244 2575 16       		.uleb128 0x16
 7245 2576 04       		.byte	0x4
 7246 2577 C8220000 		.4byte	0x22c8
 7247 257b 3A       		.uleb128 0x3a
 7248 257c 3C2C0000 		.4byte	.LASF899
 7249 2580 01       		.byte	0x1
 7250 2581 2C       		.byte	0x2c
 7251 2582 00000000 		.4byte	.LFB468
 7252 2586 08000000 		.4byte	.LFE468-.LFB468
 7253 258a 01       		.uleb128 0x1
 7254 258b 9C       		.byte	0x9c
 7255 258c 9A250000 		.4byte	0x259a
 7256 2590 37       		.uleb128 0x37
 7257 2591 06000000 		.4byte	.LVL7
 7258 2595 EE3E0000 		.4byte	0x3eee
ARM GAS  C:\Users\ASUS\AppData\Local\Temp\ccYYtRfk.s 			page 176


 7259 2599 00       		.byte	0
 7260 259a 33       		.uleb128 0x33
 7261 259b 70260000 		.4byte	.LASF776
 7262 259f 02       		.byte	0x2
 7263 25a0 D6       		.byte	0xd6
 7264 25a1 00000000 		.4byte	.LFB486
 7265 25a5 0C000000 		.4byte	.LFE486-.LFB486
 7266 25a9 01       		.uleb128 0x1
 7267 25aa 9C       		.byte	0x9c
 7268 25ab C4250000 		.4byte	0x25c4
 7269 25af 38       		.uleb128 0x38
 7270 25b0 0A000000 		.4byte	.LVL8
 7271 25b4 FA3E0000 		.4byte	0x3efa
 7272 25b8 39       		.uleb128 0x39
 7273 25b9 01       		.uleb128 0x1
 7274 25ba 50       		.byte	0x50
 7275 25bb 01       		.uleb128 0x1
 7276 25bc 30       		.byte	0x30
 7277 25bd 39       		.uleb128 0x39
 7278 25be 01       		.uleb128 0x1
 7279 25bf 51       		.byte	0x51
 7280 25c0 01       		.uleb128 0x1
 7281 25c1 30       		.byte	0x30
 7282 25c2 00       		.byte	0
 7283 25c3 00       		.byte	0
 7284 25c4 33       		.uleb128 0x33
 7285 25c5 22200000 		.4byte	.LASF777
 7286 25c9 03       		.byte	0x3
 7287 25ca 3B       		.byte	0x3b
 7288 25cb 00000000 		.4byte	.LFB462
 7289 25cf 14000000 		.4byte	.LFE462-.LFB462
 7290 25d3 01       		.uleb128 0x1
 7291 25d4 9C       		.byte	0x9c
 7292 25d5 05260000 		.4byte	0x2605
 7293 25d9 3B       		.uleb128 0x3b
 7294 25da 27050000 		.4byte	.LASF778
 7295 25de 03       		.byte	0x3
 7296 25df 3B       		.byte	0x3b
 7297 25e0 72230000 		.4byte	0x2372
 7298 25e4 01       		.uleb128 0x1
 7299 25e5 50       		.byte	0x50
 7300 25e6 3C       		.uleb128 0x3c
 7301 25e7 D8280000 		.4byte	.LASF780
 7302 25eb 03       		.byte	0x3
 7303 25ec 3D       		.byte	0x3d
 7304 25ed 05260000 		.4byte	0x2605
 7305 25f1 03       		.uleb128 0x3
 7306 25f2 70       		.byte	0x70
 7307 25f3 08       		.sleb128 8
 7308 25f4 9F       		.byte	0x9f
 7309 25f5 3C       		.uleb128 0x3c
 7310 25f6 1E0A0000 		.4byte	.LASF718
 7311 25fa 03       		.byte	0x3
 7312 25fb 3E       		.byte	0x3e
 7313 25fc 05260000 		.4byte	0x2605
 7314 2600 03       		.uleb128 0x3
 7315 2601 70       		.byte	0x70
ARM GAS  C:\Users\ASUS\AppData\Local\Temp\ccYYtRfk.s 			page 177


 7316 2602 04       		.sleb128 4
 7317 2603 9F       		.byte	0x9f
 7318 2604 00       		.byte	0
 7319 2605 16       		.uleb128 0x16
 7320 2606 04       		.byte	0x4
 7321 2607 27050000 		.4byte	0x527
 7322 260b 33       		.uleb128 0x33
 7323 260c E0150000 		.4byte	.LASF781
 7324 2610 03       		.byte	0x3
 7325 2611 55       		.byte	0x55
 7326 2612 00000000 		.4byte	.LFB463
 7327 2616 22000000 		.4byte	.LFE463-.LFB463
 7328 261a 01       		.uleb128 0x1
 7329 261b 9C       		.byte	0x9c
 7330 261c 57260000 		.4byte	0x2657
 7331 2620 34       		.uleb128 0x34
 7332 2621 323B0000 		.4byte	.LASF782
 7333 2625 03       		.byte	0x3
 7334 2626 55       		.byte	0x55
 7335 2627 57260000 		.4byte	0x2657
 7336 262b 95000000 		.4byte	.LLST3
 7337 262f 3D       		.uleb128 0x3d
 7338 2630 696400   		.ascii	"id\000"
 7339 2633 03       		.byte	0x3
 7340 2634 55       		.byte	0x55
 7341 2635 27050000 		.4byte	0x527
 7342 2639 C1000000 		.4byte	.LLST4
 7343 263d 37       		.uleb128 0x37
 7344 263e 10000000 		.4byte	.LVL12
 7345 2642 C4250000 		.4byte	0x25c4
 7346 2646 38       		.uleb128 0x38
 7347 2647 1E000000 		.4byte	.LVL14
 7348 264b C4250000 		.4byte	0x25c4
 7349 264f 39       		.uleb128 0x39
 7350 2650 01       		.uleb128 0x1
 7351 2651 50       		.byte	0x50
 7352 2652 02       		.uleb128 0x2
 7353 2653 74       		.byte	0x74
 7354 2654 00       		.sleb128 0
 7355 2655 00       		.byte	0
 7356 2656 00       		.byte	0
 7357 2657 16       		.uleb128 0x16
 7358 2658 04       		.byte	0x4
 7359 2659 78230000 		.4byte	0x2378
 7360 265d 33       		.uleb128 0x33
 7361 265e 84260000 		.4byte	.LASF783
 7362 2662 03       		.byte	0x3
 7363 2663 5D       		.byte	0x5d
 7364 2664 00000000 		.4byte	.LFB464
 7365 2668 6C000000 		.4byte	.LFE464-.LFB464
 7366 266c 01       		.uleb128 0x1
 7367 266d 9C       		.byte	0x9c
 7368 266e 47270000 		.4byte	0x2747
 7369 2672 34       		.uleb128 0x34
 7370 2673 323B0000 		.4byte	.LASF782
 7371 2677 03       		.byte	0x3
 7372 2678 5D       		.byte	0x5d
ARM GAS  C:\Users\ASUS\AppData\Local\Temp\ccYYtRfk.s 			page 178


 7373 2679 57260000 		.4byte	0x2657
 7374 267d ED000000 		.4byte	.LLST5
 7375 2681 34       		.uleb128 0x34
 7376 2682 00000000 		.4byte	.LASF784
 7377 2686 03       		.byte	0x3
 7378 2687 5D       		.byte	0x5d
 7379 2688 27050000 		.4byte	0x527
 7380 268c 71010000 		.4byte	.LLST6
 7381 2690 34       		.uleb128 0x34
 7382 2691 801A0000 		.4byte	.LASF785
 7383 2695 03       		.byte	0x3
 7384 2696 5D       		.byte	0x5d
 7385 2697 27050000 		.4byte	0x527
 7386 269b 03020000 		.4byte	.LLST7
 7387 269f 34       		.uleb128 0x34
 7388 26a0 E8050000 		.4byte	.LASF786
 7389 26a4 03       		.byte	0x3
 7390 26a5 5D       		.byte	0x5d
 7391 26a6 27050000 		.4byte	0x527
 7392 26aa 2F020000 		.4byte	.LLST8
 7393 26ae 3E       		.uleb128 0x3e
 7394 26af 1E000000 		.4byte	.LVL20
 7395 26b3 0B260000 		.4byte	0x260b
 7396 26b7 C1260000 		.4byte	0x26c1
 7397 26bb 39       		.uleb128 0x39
 7398 26bc 01       		.uleb128 0x1
 7399 26bd 51       		.byte	0x51
 7400 26be 01       		.uleb128 0x1
 7401 26bf 31       		.byte	0x31
 7402 26c0 00       		.byte	0
 7403 26c1 3E       		.uleb128 0x3e
 7404 26c2 2A000000 		.4byte	.LVL23
 7405 26c6 0B260000 		.4byte	0x260b
 7406 26ca D4260000 		.4byte	0x26d4
 7407 26ce 39       		.uleb128 0x39
 7408 26cf 01       		.uleb128 0x1
 7409 26d0 51       		.byte	0x51
 7410 26d1 01       		.uleb128 0x1
 7411 26d2 32       		.byte	0x32
 7412 26d3 00       		.byte	0
 7413 26d4 3E       		.uleb128 0x3e
 7414 26d5 36000000 		.4byte	.LVL25
 7415 26d9 0B260000 		.4byte	0x260b
 7416 26dd ED260000 		.4byte	0x26ed
 7417 26e1 39       		.uleb128 0x39
 7418 26e2 01       		.uleb128 0x1
 7419 26e3 50       		.byte	0x50
 7420 26e4 02       		.uleb128 0x2
 7421 26e5 76       		.byte	0x76
 7422 26e6 00       		.sleb128 0
 7423 26e7 39       		.uleb128 0x39
 7424 26e8 01       		.uleb128 0x1
 7425 26e9 51       		.byte	0x51
 7426 26ea 01       		.uleb128 0x1
 7427 26eb 33       		.byte	0x33
 7428 26ec 00       		.byte	0
 7429 26ed 3E       		.uleb128 0x3e
ARM GAS  C:\Users\ASUS\AppData\Local\Temp\ccYYtRfk.s 			page 179


 7430 26ee 42000000 		.4byte	.LVL28
 7431 26f2 0B260000 		.4byte	0x260b
 7432 26f6 04270000 		.4byte	0x2704
 7433 26fa 39       		.uleb128 0x39
 7434 26fb 01       		.uleb128 0x1
 7435 26fc 51       		.byte	0x51
 7436 26fd 05       		.uleb128 0x5
 7437 26fe F3       		.byte	0xf3
 7438 26ff 01       		.uleb128 0x1
 7439 2700 51       		.byte	0x51
 7440 2701 23       		.byte	0x23
 7441 2702 01       		.uleb128 0x1
 7442 2703 00       		.byte	0
 7443 2704 3E       		.uleb128 0x3e
 7444 2705 4E000000 		.4byte	.LVL30
 7445 2709 0B260000 		.4byte	0x260b
 7446 270d 1D270000 		.4byte	0x271d
 7447 2711 39       		.uleb128 0x39
 7448 2712 01       		.uleb128 0x1
 7449 2713 50       		.byte	0x50
 7450 2714 02       		.uleb128 0x2
 7451 2715 76       		.byte	0x76
 7452 2716 00       		.sleb128 0
 7453 2717 39       		.uleb128 0x39
 7454 2718 01       		.uleb128 0x1
 7455 2719 51       		.byte	0x51
 7456 271a 01       		.uleb128 0x1
 7457 271b 33       		.byte	0x33
 7458 271c 00       		.byte	0
 7459 271d 3E       		.uleb128 0x3e
 7460 271e 5C000000 		.4byte	.LVL34
 7461 2722 0B260000 		.4byte	0x260b
 7462 2726 37270000 		.4byte	0x2737
 7463 272a 39       		.uleb128 0x39
 7464 272b 01       		.uleb128 0x1
 7465 272c 51       		.byte	0x51
 7466 272d 08       		.uleb128 0x8
 7467 272e F3       		.byte	0xf3
 7468 272f 01       		.uleb128 0x1
 7469 2730 51       		.byte	0x51
 7470 2731 74       		.byte	0x74
 7471 2732 00       		.sleb128 0
 7472 2733 21       		.byte	0x21
 7473 2734 23       		.byte	0x23
 7474 2735 02       		.uleb128 0x2
 7475 2736 00       		.byte	0
 7476 2737 38       		.uleb128 0x38
 7477 2738 64000000 		.4byte	.LVL37
 7478 273c 0B260000 		.4byte	0x260b
 7479 2740 39       		.uleb128 0x39
 7480 2741 01       		.uleb128 0x1
 7481 2742 51       		.byte	0x51
 7482 2743 01       		.uleb128 0x1
 7483 2744 32       		.byte	0x32
 7484 2745 00       		.byte	0
 7485 2746 00       		.byte	0
 7486 2747 33       		.uleb128 0x33
ARM GAS  C:\Users\ASUS\AppData\Local\Temp\ccYYtRfk.s 			page 180


 7487 2748 CC350000 		.4byte	.LASF787
 7488 274c 03       		.byte	0x3
 7489 274d 7B       		.byte	0x7b
 7490 274e 00000000 		.4byte	.LFB465
 7491 2752 4C000000 		.4byte	.LFE465-.LFB465
 7492 2756 01       		.uleb128 0x1
 7493 2757 9C       		.byte	0x9c
 7494 2758 E6270000 		.4byte	0x27e6
 7495 275c 3B       		.uleb128 0x3b
 7496 275d 323B0000 		.4byte	.LASF782
 7497 2761 03       		.byte	0x3
 7498 2762 7B       		.byte	0x7b
 7499 2763 78230000 		.4byte	0x2378
 7500 2767 02       		.uleb128 0x2
 7501 2768 91       		.byte	0x91
 7502 2769 70       		.sleb128 -16
 7503 276a 35       		.uleb128 0x35
 7504 276b 12000000 		.4byte	.LBB48
 7505 276f 28000000 		.4byte	.LBE48-.LBB48
 7506 2773 D2270000 		.4byte	0x27d2
 7507 2777 3F       		.uleb128 0x3f
 7508 2778 6900     		.ascii	"i\000"
 7509 277a 03       		.byte	0x3
 7510 277b 7E       		.byte	0x7e
 7511 277c 27050000 		.4byte	0x527
 7512 2780 A6020000 		.4byte	.LLST9
 7513 2784 38       		.uleb128 0x38
 7514 2785 34000000 		.4byte	.LVL42
 7515 2789 063F0000 		.4byte	0x3f06
 7516 278d 39       		.uleb128 0x39
 7517 278e 01       		.uleb128 0x1
 7518 278f 50       		.byte	0x50
 7519 2790 05       		.uleb128 0x5
 7520 2791 03       		.byte	0x3
 7521 2792 04000000 		.4byte	.LC4
 7522 2796 39       		.uleb128 0x39
 7523 2797 01       		.uleb128 0x1
 7524 2798 51       		.byte	0x51
 7525 2799 10       		.uleb128 0x10
 7526 279a 74       		.byte	0x74
 7527 279b 00       		.sleb128 0
 7528 279c 31       		.byte	0x31
 7529 279d 24       		.byte	0x24
 7530 279e 74       		.byte	0x74
 7531 279f 00       		.sleb128 0
 7532 27a0 22       		.byte	0x22
 7533 27a1 32       		.byte	0x32
 7534 27a2 24       		.byte	0x24
 7535 27a3 91       		.byte	0x91
 7536 27a4 70       		.sleb128 -16
 7537 27a5 22       		.byte	0x22
 7538 27a6 08       		.byte	0x8
 7539 27a7 20       		.byte	0x20
 7540 27a8 1C       		.byte	0x1c
 7541 27a9 06       		.byte	0x6
 7542 27aa 39       		.uleb128 0x39
 7543 27ab 01       		.uleb128 0x1
ARM GAS  C:\Users\ASUS\AppData\Local\Temp\ccYYtRfk.s 			page 181


 7544 27ac 52       		.byte	0x52
 7545 27ad 0F       		.uleb128 0xf
 7546 27ae 74       		.byte	0x74
 7547 27af 00       		.sleb128 0
 7548 27b0 31       		.byte	0x31
 7549 27b1 24       		.byte	0x24
 7550 27b2 74       		.byte	0x74
 7551 27b3 00       		.sleb128 0
 7552 27b4 22       		.byte	0x22
 7553 27b5 32       		.byte	0x32
 7554 27b6 24       		.byte	0x24
 7555 27b7 91       		.byte	0x91
 7556 27b8 70       		.sleb128 -16
 7557 27b9 22       		.byte	0x22
 7558 27ba 4C       		.byte	0x4c
 7559 27bb 1C       		.byte	0x1c
 7560 27bc 06       		.byte	0x6
 7561 27bd 39       		.uleb128 0x39
 7562 27be 01       		.uleb128 0x1
 7563 27bf 53       		.byte	0x53
 7564 27c0 0F       		.uleb128 0xf
 7565 27c1 74       		.byte	0x74
 7566 27c2 00       		.sleb128 0
 7567 27c3 31       		.byte	0x31
 7568 27c4 24       		.byte	0x24
 7569 27c5 74       		.byte	0x74
 7570 27c6 00       		.sleb128 0
 7571 27c7 22       		.byte	0x22
 7572 27c8 32       		.byte	0x32
 7573 27c9 24       		.byte	0x24
 7574 27ca 91       		.byte	0x91
 7575 27cb 70       		.sleb128 -16
 7576 27cc 22       		.byte	0x22
 7577 27cd 48       		.byte	0x48
 7578 27ce 1C       		.byte	0x1c
 7579 27cf 06       		.byte	0x6
 7580 27d0 00       		.byte	0
 7581 27d1 00       		.byte	0
 7582 27d2 38       		.uleb128 0x38
 7583 27d3 12000000 		.4byte	.LVL40
 7584 27d7 113F0000 		.4byte	0x3f11
 7585 27db 39       		.uleb128 0x39
 7586 27dc 01       		.uleb128 0x1
 7587 27dd 50       		.byte	0x50
 7588 27de 05       		.uleb128 0x5
 7589 27df 03       		.byte	0x3
 7590 27e0 00000000 		.4byte	.LC2
 7591 27e4 00       		.byte	0
 7592 27e5 00       		.byte	0
 7593 27e6 33       		.uleb128 0x33
 7594 27e7 A90C0000 		.4byte	.LASF788
 7595 27eb 03       		.byte	0x3
 7596 27ec 91       		.byte	0x91
 7597 27ed 00000000 		.4byte	.LFB466
 7598 27f1 24000000 		.4byte	.LFE466-.LFB466
 7599 27f5 01       		.uleb128 0x1
 7600 27f6 9C       		.byte	0x9c
ARM GAS  C:\Users\ASUS\AppData\Local\Temp\ccYYtRfk.s 			page 182


 7601 27f7 35280000 		.4byte	0x2835
 7602 27fb 34       		.uleb128 0x34
 7603 27fc 323B0000 		.4byte	.LASF782
 7604 2800 03       		.byte	0x3
 7605 2801 91       		.byte	0x91
 7606 2802 57260000 		.4byte	0x2657
 7607 2806 C5020000 		.4byte	.LLST10
 7608 280a 35       		.uleb128 0x35
 7609 280b 02000000 		.4byte	.LBB49
 7610 280f 1A000000 		.4byte	.LBE49-.LBB49
 7611 2813 25280000 		.4byte	0x2825
 7612 2817 3F       		.uleb128 0x3f
 7613 2818 6900     		.ascii	"i\000"
 7614 281a 03       		.byte	0x3
 7615 281b 93       		.byte	0x93
 7616 281c 27050000 		.4byte	0x527
 7617 2820 E6020000 		.4byte	.LLST11
 7618 2824 00       		.byte	0
 7619 2825 38       		.uleb128 0x38
 7620 2826 22000000 		.4byte	.LVL49
 7621 282a 0B260000 		.4byte	0x260b
 7622 282e 39       		.uleb128 0x39
 7623 282f 01       		.uleb128 0x1
 7624 2830 51       		.byte	0x51
 7625 2831 01       		.uleb128 0x1
 7626 2832 30       		.byte	0x30
 7627 2833 00       		.byte	0
 7628 2834 00       		.byte	0
 7629 2835 33       		.uleb128 0x33
 7630 2836 50330000 		.4byte	.LASF789
 7631 283a 01       		.byte	0x1
 7632 283b 30       		.byte	0x30
 7633 283c 00000000 		.4byte	.LFB469
 7634 2840 6C000000 		.4byte	.LFE469-.LFB469
 7635 2844 01       		.uleb128 0x1
 7636 2845 9C       		.byte	0x9c
 7637 2846 FE280000 		.4byte	0x28fe
 7638 284a 3F       		.uleb128 0x3f
 7639 284b 6900     		.ascii	"i\000"
 7640 284d 01       		.byte	0x1
 7641 284e 32       		.byte	0x32
 7642 284f 27050000 		.4byte	0x527
 7643 2853 05030000 		.4byte	.LLST12
 7644 2857 35       		.uleb128 0x35
 7645 2858 20000000 		.4byte	.LBB50
 7646 285c 30000000 		.4byte	.LBE50-.LBB50
 7647 2860 BD280000 		.4byte	0x28bd
 7648 2864 3C       		.uleb128 0x3c
 7649 2865 01080000 		.4byte	.LASF790
 7650 2869 01       		.byte	0x1
 7651 286a 41       		.byte	0x41
 7652 286b EA210000 		.4byte	0x21ea
 7653 286f 02       		.uleb128 0x2
 7654 2870 91       		.byte	0x91
 7655 2871 64       		.sleb128 -28
 7656 2872 3C       		.uleb128 0x3c
 7657 2873 75350000 		.4byte	.LASF791
ARM GAS  C:\Users\ASUS\AppData\Local\Temp\ccYYtRfk.s 			page 183


 7658 2877 01       		.byte	0x1
 7659 2878 42       		.byte	0x42
 7660 2879 BA210000 		.4byte	0x21ba
 7661 287d 02       		.uleb128 0x2
 7662 287e 91       		.byte	0x91
 7663 287f 5C       		.sleb128 -36
 7664 2880 3E       		.uleb128 0x3e
 7665 2881 28000000 		.4byte	.LVL56
 7666 2885 113F0000 		.4byte	0x3f11
 7667 2889 97280000 		.4byte	0x2897
 7668 288d 39       		.uleb128 0x39
 7669 288e 01       		.uleb128 0x1
 7670 288f 50       		.byte	0x50
 7671 2890 05       		.uleb128 0x5
 7672 2891 03       		.byte	0x3
 7673 2892 30000000 		.4byte	.LC9
 7674 2896 00       		.byte	0
 7675 2897 3E       		.uleb128 0x3e
 7676 2898 42000000 		.4byte	.LVL57
 7677 289c 203F0000 		.4byte	0x3f20
 7678 28a0 AB280000 		.4byte	0x28ab
 7679 28a4 39       		.uleb128 0x39
 7680 28a5 01       		.uleb128 0x1
 7681 28a6 50       		.byte	0x50
 7682 28a7 02       		.uleb128 0x2
 7683 28a8 91       		.byte	0x91
 7684 28a9 64       		.sleb128 -28
 7685 28aa 00       		.byte	0
 7686 28ab 38       		.uleb128 0x38
 7687 28ac 4C000000 		.4byte	.LVL58
 7688 28b0 2B3F0000 		.4byte	0x3f2b
 7689 28b4 39       		.uleb128 0x39
 7690 28b5 01       		.uleb128 0x1
 7691 28b6 50       		.byte	0x50
 7692 28b7 03       		.uleb128 0x3
 7693 28b8 0A       		.byte	0xa
 7694 28b9 E803     		.2byte	0x3e8
 7695 28bb 00       		.byte	0
 7696 28bc 00       		.byte	0
 7697 28bd 3E       		.uleb128 0x3e
 7698 28be 0A000000 		.4byte	.LVL51
 7699 28c2 373F0000 		.4byte	0x3f37
 7700 28c6 D4280000 		.4byte	0x28d4
 7701 28ca 39       		.uleb128 0x39
 7702 28cb 01       		.uleb128 0x1
 7703 28cc 50       		.byte	0x50
 7704 28cd 05       		.uleb128 0x5
 7705 28ce 03       		.byte	0x3
 7706 28cf 00000000 		.4byte	genericEventHandler
 7707 28d3 00       		.byte	0
 7708 28d4 37       		.uleb128 0x37
 7709 28d5 10000000 		.4byte	.LVL52
 7710 28d9 EE3E0000 		.4byte	0x3eee
 7711 28dd 3E       		.uleb128 0x3e
 7712 28de 1E000000 		.4byte	.LVL53
 7713 28e2 423F0000 		.4byte	0x3f42
 7714 28e6 F4280000 		.4byte	0x28f4
ARM GAS  C:\Users\ASUS\AppData\Local\Temp\ccYYtRfk.s 			page 184


 7715 28ea 39       		.uleb128 0x39
 7716 28eb 01       		.uleb128 0x1
 7717 28ec 50       		.byte	0x50
 7718 28ed 05       		.uleb128 0x5
 7719 28ee 03       		.byte	0x3
 7720 28ef 00000000 		.4byte	bleInterruptNotify
 7721 28f3 00       		.byte	0
 7722 28f4 37       		.uleb128 0x37
 7723 28f5 54000000 		.4byte	.LVL59
 7724 28f9 4E3F0000 		.4byte	0x3f4e
 7725 28fd 00       		.byte	0
 7726 28fe 40       		.uleb128 0x40
 7727 28ff DB000000 		.4byte	.LASF810
 7728 2903 04       		.byte	0x4
 7729 2904 49       		.byte	0x49
 7730 2905 4B050000 		.4byte	0x54b
 7731 2909 00000000 		.4byte	.LFB470
 7732 290d C8000000 		.4byte	.LFE470-.LFB470
 7733 2911 01       		.uleb128 0x1
 7734 2912 9C       		.byte	0x9c
 7735 2913 EB2B0000 		.4byte	0x2beb
 7736 2917 3D       		.uleb128 0x3d
 7737 2918 72656700 		.ascii	"reg\000"
 7738 291c 04       		.byte	0x4
 7739 291d 49       		.byte	0x49
 7740 291e 35050000 		.4byte	0x535
 7741 2922 24030000 		.4byte	.LLST13
 7742 2926 3C       		.uleb128 0x3c
 7743 2927 C4090000 		.4byte	.LASF792
 7744 292b 04       		.byte	0x4
 7745 292c 4B       		.byte	0x4b
 7746 292d EB2B0000 		.4byte	0x2beb
 7747 2931 02       		.uleb128 0x2
 7748 2932 91       		.byte	0x91
 7749 2933 64       		.sleb128 -28
 7750 2934 3C       		.uleb128 0x3c
 7751 2935 C9090000 		.4byte	.LASF793
 7752 2939 04       		.byte	0x4
 7753 293a 4C       		.byte	0x4c
 7754 293b EB2B0000 		.4byte	0x2beb
 7755 293f 02       		.uleb128 0x2
 7756 2940 91       		.byte	0x91
 7757 2941 60       		.sleb128 -32
 7758 2942 3C       		.uleb128 0x3c
 7759 2943 CE090000 		.4byte	.LASF794
 7760 2947 04       		.byte	0x4
 7761 2948 4D       		.byte	0x4d
 7762 2949 EB2B0000 		.4byte	0x2beb
 7763 294d 02       		.uleb128 0x2
 7764 294e 91       		.byte	0x91
 7765 294f 5C       		.sleb128 -36
 7766 2950 3C       		.uleb128 0x3c
 7767 2951 D3090000 		.4byte	.LASF795
 7768 2955 04       		.byte	0x4
 7769 2956 4E       		.byte	0x4e
 7770 2957 EB2B0000 		.4byte	0x2beb
 7771 295b 02       		.uleb128 0x2
ARM GAS  C:\Users\ASUS\AppData\Local\Temp\ccYYtRfk.s 			page 185


 7772 295c 91       		.byte	0x91
 7773 295d 58       		.sleb128 -40
 7774 295e 3C       		.uleb128 0x3c
 7775 295f D8090000 		.4byte	.LASF796
 7776 2963 04       		.byte	0x4
 7777 2964 4F       		.byte	0x4f
 7778 2965 EB2B0000 		.4byte	0x2beb
 7779 2969 02       		.uleb128 0x2
 7780 296a 91       		.byte	0x91
 7781 296b 54       		.sleb128 -44
 7782 296c 3C       		.uleb128 0x3c
 7783 296d DD090000 		.4byte	.LASF797
 7784 2971 04       		.byte	0x4
 7785 2972 50       		.byte	0x50
 7786 2973 EB2B0000 		.4byte	0x2beb
 7787 2977 02       		.uleb128 0x2
 7788 2978 91       		.byte	0x91
 7789 2979 50       		.sleb128 -48
 7790 297a 3C       		.uleb128 0x3c
 7791 297b 493C0000 		.4byte	.LASF798
 7792 297f 04       		.byte	0x4
 7793 2980 51       		.byte	0x51
 7794 2981 F4060000 		.4byte	0x6f4
 7795 2985 02       		.uleb128 0x2
 7796 2986 91       		.byte	0x91
 7797 2987 4C       		.sleb128 -52
 7798 2988 41       		.uleb128 0x41
 7799 2989 AF240000 		.4byte	0x24af
 7800 298d 1A000000 		.4byte	.LBB51
 7801 2991 12000000 		.4byte	.LBE51-.LBB51
 7802 2995 04       		.byte	0x4
 7803 2996 54       		.byte	0x54
 7804 2997 E4290000 		.4byte	0x29e4
 7805 299b 42       		.uleb128 0x42
 7806 299c D8240000 		.4byte	0x24d8
 7807 29a0 45030000 		.4byte	.LLST14
 7808 29a4 42       		.uleb128 0x42
 7809 29a5 CC240000 		.4byte	0x24cc
 7810 29a9 5A030000 		.4byte	.LLST15
 7811 29ad 42       		.uleb128 0x42
 7812 29ae C0240000 		.4byte	0x24c0
 7813 29b2 6E030000 		.4byte	.LLST16
 7814 29b6 38       		.uleb128 0x38
 7815 29b7 2C000000 		.4byte	.LVL64
 7816 29bb 593F0000 		.4byte	0x3f59
 7817 29bf 39       		.uleb128 0x39
 7818 29c0 01       		.uleb128 0x1
 7819 29c1 50       		.byte	0x50
 7820 29c2 02       		.uleb128 0x2
 7821 29c3 74       		.byte	0x74
 7822 29c4 00       		.sleb128 0
 7823 29c5 39       		.uleb128 0x39
 7824 29c6 01       		.uleb128 0x1
 7825 29c7 51       		.byte	0x51
 7826 29c8 02       		.uleb128 0x2
 7827 29c9 08       		.byte	0x8
 7828 29ca 74       		.byte	0x74
ARM GAS  C:\Users\ASUS\AppData\Local\Temp\ccYYtRfk.s 			page 186


 7829 29cb 39       		.uleb128 0x39
 7830 29cc 01       		.uleb128 0x1
 7831 29cd 52       		.byte	0x52
 7832 29ce 03       		.uleb128 0x3
 7833 29cf 91       		.byte	0x91
 7834 29d0 50       		.sleb128 -48
 7835 29d1 06       		.byte	0x6
 7836 29d2 39       		.uleb128 0x39
 7837 29d3 01       		.uleb128 0x1
 7838 29d4 53       		.byte	0x53
 7839 29d5 05       		.uleb128 0x5
 7840 29d6 91       		.byte	0x91
 7841 29d7 50       		.sleb128 -48
 7842 29d8 06       		.byte	0x6
 7843 29d9 23       		.byte	0x23
 7844 29da 64       		.uleb128 0x64
 7845 29db 39       		.uleb128 0x39
 7846 29dc 02       		.uleb128 0x2
 7847 29dd 7D       		.byte	0x7d
 7848 29de 00       		.sleb128 0
 7849 29df 02       		.uleb128 0x2
 7850 29e0 77       		.byte	0x77
 7851 29e1 00       		.sleb128 0
 7852 29e2 00       		.byte	0
 7853 29e3 00       		.byte	0
 7854 29e4 41       		.uleb128 0x41
 7855 29e5 85240000 		.4byte	0x2485
 7856 29e9 34000000 		.4byte	.LBB53
 7857 29ed 0C000000 		.4byte	.LBE53-.LBB53
 7858 29f1 04       		.byte	0x4
 7859 29f2 57       		.byte	0x57
 7860 29f3 2C2A0000 		.4byte	0x2a2c
 7861 29f7 42       		.uleb128 0x42
 7862 29f8 A2240000 		.4byte	0x24a2
 7863 29fc 83030000 		.4byte	.LLST17
 7864 2a00 42       		.uleb128 0x42
 7865 2a01 96240000 		.4byte	0x2496
 7866 2a05 98030000 		.4byte	.LLST18
 7867 2a09 38       		.uleb128 0x38
 7868 2a0a 40000000 		.4byte	.LVL66
 7869 2a0e 653F0000 		.4byte	0x3f65
 7870 2a12 39       		.uleb128 0x39
 7871 2a13 01       		.uleb128 0x1
 7872 2a14 50       		.byte	0x50
 7873 2a15 02       		.uleb128 0x2
 7874 2a16 74       		.byte	0x74
 7875 2a17 00       		.sleb128 0
 7876 2a18 39       		.uleb128 0x39
 7877 2a19 01       		.uleb128 0x1
 7878 2a1a 51       		.byte	0x51
 7879 2a1b 02       		.uleb128 0x2
 7880 2a1c 76       		.byte	0x76
 7881 2a1d 00       		.sleb128 0
 7882 2a1e 39       		.uleb128 0x39
 7883 2a1f 01       		.uleb128 0x1
 7884 2a20 52       		.byte	0x52
 7885 2a21 02       		.uleb128 0x2
ARM GAS  C:\Users\ASUS\AppData\Local\Temp\ccYYtRfk.s 			page 187


 7886 2a22 08       		.byte	0x8
 7887 2a23 64       		.byte	0x64
 7888 2a24 39       		.uleb128 0x39
 7889 2a25 01       		.uleb128 0x1
 7890 2a26 53       		.byte	0x53
 7891 2a27 02       		.uleb128 0x2
 7892 2a28 77       		.byte	0x77
 7893 2a29 00       		.sleb128 0
 7894 2a2a 00       		.byte	0
 7895 2a2b 00       		.byte	0
 7896 2a2c 41       		.uleb128 0x41
 7897 2a2d 4F240000 		.4byte	0x244f
 7898 2a31 48000000 		.4byte	.LBB55
 7899 2a35 0E000000 		.4byte	.LBE55-.LBB55
 7900 2a39 04       		.byte	0x4
 7901 2a3a 5A       		.byte	0x5a
 7902 2a3b 832A0000 		.4byte	0x2a83
 7903 2a3f 42       		.uleb128 0x42
 7904 2a40 78240000 		.4byte	0x2478
 7905 2a44 AB030000 		.4byte	.LLST19
 7906 2a48 42       		.uleb128 0x42
 7907 2a49 6C240000 		.4byte	0x246c
 7908 2a4d C0030000 		.4byte	.LLST20
 7909 2a51 42       		.uleb128 0x42
 7910 2a52 60240000 		.4byte	0x2460
 7911 2a56 D4030000 		.4byte	.LLST21
 7912 2a5a 38       		.uleb128 0x38
 7913 2a5b 56000000 		.4byte	.LVL68
 7914 2a5f 713F0000 		.4byte	0x3f71
 7915 2a63 39       		.uleb128 0x39
 7916 2a64 01       		.uleb128 0x1
 7917 2a65 50       		.byte	0x50
 7918 2a66 02       		.uleb128 0x2
 7919 2a67 74       		.byte	0x74
 7920 2a68 00       		.sleb128 0
 7921 2a69 39       		.uleb128 0x39
 7922 2a6a 01       		.uleb128 0x1
 7923 2a6b 51       		.byte	0x51
 7924 2a6c 02       		.uleb128 0x2
 7925 2a6d 08       		.byte	0x8
 7926 2a6e 74       		.byte	0x74
 7927 2a6f 39       		.uleb128 0x39
 7928 2a70 01       		.uleb128 0x1
 7929 2a71 52       		.byte	0x52
 7930 2a72 01       		.uleb128 0x1
 7931 2a73 31       		.byte	0x31
 7932 2a74 39       		.uleb128 0x39
 7933 2a75 01       		.uleb128 0x1
 7934 2a76 53       		.byte	0x53
 7935 2a77 02       		.uleb128 0x2
 7936 2a78 08       		.byte	0x8
 7937 2a79 64       		.byte	0x64
 7938 2a7a 39       		.uleb128 0x39
 7939 2a7b 02       		.uleb128 0x2
 7940 2a7c 7D       		.byte	0x7d
 7941 2a7d 00       		.sleb128 0
 7942 2a7e 02       		.uleb128 0x2
ARM GAS  C:\Users\ASUS\AppData\Local\Temp\ccYYtRfk.s 			page 188


 7943 2a7f 77       		.byte	0x77
 7944 2a80 00       		.sleb128 0
 7945 2a81 00       		.byte	0
 7946 2a82 00       		.byte	0
 7947 2a83 41       		.uleb128 0x41
 7948 2a84 19240000 		.4byte	0x2419
 7949 2a88 5E000000 		.4byte	.LBB57
 7950 2a8c 0E000000 		.4byte	.LBE57-.LBB57
 7951 2a90 04       		.byte	0x4
 7952 2a91 5D       		.byte	0x5d
 7953 2a92 DA2A0000 		.4byte	0x2ada
 7954 2a96 42       		.uleb128 0x42
 7955 2a97 42240000 		.4byte	0x2442
 7956 2a9b E9030000 		.4byte	.LLST22
 7957 2a9f 42       		.uleb128 0x42
 7958 2aa0 36240000 		.4byte	0x2436
 7959 2aa4 FE030000 		.4byte	.LLST23
 7960 2aa8 42       		.uleb128 0x42
 7961 2aa9 2A240000 		.4byte	0x242a
 7962 2aad 11040000 		.4byte	.LLST24
 7963 2ab1 38       		.uleb128 0x38
 7964 2ab2 6C000000 		.4byte	.LVL70
 7965 2ab6 7D3F0000 		.4byte	0x3f7d
 7966 2aba 39       		.uleb128 0x39
 7967 2abb 01       		.uleb128 0x1
 7968 2abc 50       		.byte	0x50
 7969 2abd 02       		.uleb128 0x2
 7970 2abe 74       		.byte	0x74
 7971 2abf 00       		.sleb128 0
 7972 2ac0 39       		.uleb128 0x39
 7973 2ac1 01       		.uleb128 0x1
 7974 2ac2 51       		.byte	0x51
 7975 2ac3 01       		.uleb128 0x1
 7976 2ac4 30       		.byte	0x30
 7977 2ac5 39       		.uleb128 0x39
 7978 2ac6 01       		.uleb128 0x1
 7979 2ac7 52       		.byte	0x52
 7980 2ac8 02       		.uleb128 0x2
 7981 2ac9 75       		.byte	0x75
 7982 2aca 00       		.sleb128 0
 7983 2acb 39       		.uleb128 0x39
 7984 2acc 01       		.uleb128 0x1
 7985 2acd 53       		.byte	0x53
 7986 2ace 02       		.uleb128 0x2
 7987 2acf 08       		.byte	0x8
 7988 2ad0 64       		.byte	0x64
 7989 2ad1 39       		.uleb128 0x39
 7990 2ad2 02       		.uleb128 0x2
 7991 2ad3 7D       		.byte	0x7d
 7992 2ad4 00       		.sleb128 0
 7993 2ad5 02       		.uleb128 0x2
 7994 2ad6 77       		.byte	0x77
 7995 2ad7 00       		.sleb128 0
 7996 2ad8 00       		.byte	0
 7997 2ad9 00       		.byte	0
 7998 2ada 41       		.uleb128 0x41
 7999 2adb 19240000 		.4byte	0x2419
ARM GAS  C:\Users\ASUS\AppData\Local\Temp\ccYYtRfk.s 			page 189


 8000 2adf 74000000 		.4byte	.LBB59
 8001 2ae3 10000000 		.4byte	.LBE59-.LBB59
 8002 2ae7 04       		.byte	0x4
 8003 2ae8 5F       		.byte	0x5f
 8004 2ae9 312B0000 		.4byte	0x2b31
 8005 2aed 42       		.uleb128 0x42
 8006 2aee 42240000 		.4byte	0x2442
 8007 2af2 25040000 		.4byte	.LLST25
 8008 2af6 42       		.uleb128 0x42
 8009 2af7 36240000 		.4byte	0x2436
 8010 2afb 3A040000 		.4byte	.LLST26
 8011 2aff 42       		.uleb128 0x42
 8012 2b00 2A240000 		.4byte	0x242a
 8013 2b04 4F040000 		.4byte	.LLST27
 8014 2b08 38       		.uleb128 0x38
 8015 2b09 84000000 		.4byte	.LVL72
 8016 2b0d 7D3F0000 		.4byte	0x3f7d
 8017 2b11 39       		.uleb128 0x39
 8018 2b12 01       		.uleb128 0x1
 8019 2b13 50       		.byte	0x50
 8020 2b14 02       		.uleb128 0x2
 8021 2b15 74       		.byte	0x74
 8022 2b16 00       		.sleb128 0
 8023 2b17 39       		.uleb128 0x39
 8024 2b18 01       		.uleb128 0x1
 8025 2b19 51       		.byte	0x51
 8026 2b1a 01       		.uleb128 0x1
 8027 2b1b 31       		.byte	0x31
 8028 2b1c 39       		.uleb128 0x39
 8029 2b1d 01       		.uleb128 0x1
 8030 2b1e 52       		.byte	0x52
 8031 2b1f 02       		.uleb128 0x2
 8032 2b20 91       		.byte	0x91
 8033 2b21 4D       		.sleb128 -51
 8034 2b22 39       		.uleb128 0x39
 8035 2b23 01       		.uleb128 0x1
 8036 2b24 53       		.byte	0x53
 8037 2b25 02       		.uleb128 0x2
 8038 2b26 08       		.byte	0x8
 8039 2b27 64       		.byte	0x64
 8040 2b28 39       		.uleb128 0x39
 8041 2b29 02       		.uleb128 0x2
 8042 2b2a 7D       		.byte	0x7d
 8043 2b2b 00       		.sleb128 0
 8044 2b2c 02       		.uleb128 0x2
 8045 2b2d 77       		.byte	0x77
 8046 2b2e 00       		.sleb128 0
 8047 2b2f 00       		.byte	0
 8048 2b30 00       		.byte	0
 8049 2b31 41       		.uleb128 0x41
 8050 2b32 FB230000 		.4byte	0x23fb
 8051 2b36 8C000000 		.4byte	.LBB61
 8052 2b3a 0A000000 		.4byte	.LBE61-.LBB61
 8053 2b3e 04       		.byte	0x4
 8054 2b3f 62       		.byte	0x62
 8055 2b40 6A2B0000 		.4byte	0x2b6a
 8056 2b44 42       		.uleb128 0x42
ARM GAS  C:\Users\ASUS\AppData\Local\Temp\ccYYtRfk.s 			page 190


 8057 2b45 0C240000 		.4byte	0x240c
 8058 2b49 63040000 		.4byte	.LLST28
 8059 2b4d 38       		.uleb128 0x38
 8060 2b4e 96000000 		.4byte	.LVL74
 8061 2b52 893F0000 		.4byte	0x3f89
 8062 2b56 39       		.uleb128 0x39
 8063 2b57 01       		.uleb128 0x1
 8064 2b58 50       		.byte	0x50
 8065 2b59 02       		.uleb128 0x2
 8066 2b5a 74       		.byte	0x74
 8067 2b5b 00       		.sleb128 0
 8068 2b5c 39       		.uleb128 0x39
 8069 2b5d 01       		.uleb128 0x1
 8070 2b5e 51       		.byte	0x51
 8071 2b5f 02       		.uleb128 0x2
 8072 2b60 08       		.byte	0x8
 8073 2b61 64       		.byte	0x64
 8074 2b62 39       		.uleb128 0x39
 8075 2b63 01       		.uleb128 0x1
 8076 2b64 52       		.byte	0x52
 8077 2b65 02       		.uleb128 0x2
 8078 2b66 77       		.byte	0x77
 8079 2b67 00       		.sleb128 0
 8080 2b68 00       		.byte	0
 8081 2b69 00       		.byte	0
 8082 2b6a 3E       		.uleb128 0x3e
 8083 2b6b 34000000 		.4byte	.LVL65
 8084 2b6f 2B3F0000 		.4byte	0x3f2b
 8085 2b73 7D2B0000 		.4byte	0x2b7d
 8086 2b77 39       		.uleb128 0x39
 8087 2b78 01       		.uleb128 0x1
 8088 2b79 50       		.byte	0x50
 8089 2b7a 01       		.uleb128 0x1
 8090 2b7b 31       		.byte	0x31
 8091 2b7c 00       		.byte	0
 8092 2b7d 3E       		.uleb128 0x3e
 8093 2b7e 48000000 		.4byte	.LVL67
 8094 2b82 2B3F0000 		.4byte	0x3f2b
 8095 2b86 902B0000 		.4byte	0x2b90
 8096 2b8a 39       		.uleb128 0x39
 8097 2b8b 01       		.uleb128 0x1
 8098 2b8c 50       		.byte	0x50
 8099 2b8d 01       		.uleb128 0x1
 8100 2b8e 31       		.byte	0x31
 8101 2b8f 00       		.byte	0
 8102 2b90 3E       		.uleb128 0x3e
 8103 2b91 5E000000 		.4byte	.LVL69
 8104 2b95 2B3F0000 		.4byte	0x3f2b
 8105 2b99 A32B0000 		.4byte	0x2ba3
 8106 2b9d 39       		.uleb128 0x39
 8107 2b9e 01       		.uleb128 0x1
 8108 2b9f 50       		.byte	0x50
 8109 2ba0 01       		.uleb128 0x1
 8110 2ba1 31       		.byte	0x31
 8111 2ba2 00       		.byte	0
 8112 2ba3 3E       		.uleb128 0x3e
 8113 2ba4 74000000 		.4byte	.LVL71
ARM GAS  C:\Users\ASUS\AppData\Local\Temp\ccYYtRfk.s 			page 191


 8114 2ba8 2B3F0000 		.4byte	0x3f2b
 8115 2bac B62B0000 		.4byte	0x2bb6
 8116 2bb0 39       		.uleb128 0x39
 8117 2bb1 01       		.uleb128 0x1
 8118 2bb2 50       		.byte	0x50
 8119 2bb3 01       		.uleb128 0x1
 8120 2bb4 31       		.byte	0x31
 8121 2bb5 00       		.byte	0
 8122 2bb6 3E       		.uleb128 0x3e
 8123 2bb7 8C000000 		.4byte	.LVL73
 8124 2bbb 2B3F0000 		.4byte	0x3f2b
 8125 2bbf C92B0000 		.4byte	0x2bc9
 8126 2bc3 39       		.uleb128 0x39
 8127 2bc4 01       		.uleb128 0x1
 8128 2bc5 50       		.byte	0x50
 8129 2bc6 01       		.uleb128 0x1
 8130 2bc7 31       		.byte	0x31
 8131 2bc8 00       		.byte	0
 8132 2bc9 38       		.uleb128 0x38
 8133 2bca B0000000 		.4byte	.LVL75
 8134 2bce 063F0000 		.4byte	0x3f06
 8135 2bd2 39       		.uleb128 0x39
 8136 2bd3 01       		.uleb128 0x1
 8137 2bd4 50       		.byte	0x50
 8138 2bd5 05       		.uleb128 0x5
 8139 2bd6 03       		.byte	0x3
 8140 2bd7 40000000 		.4byte	.LC13
 8141 2bdb 39       		.uleb128 0x39
 8142 2bdc 02       		.uleb128 0x2
 8143 2bdd 7D       		.byte	0x7d
 8144 2bde 04       		.sleb128 4
 8145 2bdf 02       		.uleb128 0x2
 8146 2be0 74       		.byte	0x74
 8147 2be1 00       		.sleb128 0
 8148 2be2 39       		.uleb128 0x39
 8149 2be3 02       		.uleb128 0x2
 8150 2be4 7D       		.byte	0x7d
 8151 2be5 08       		.sleb128 8
 8152 2be6 02       		.uleb128 0x2
 8153 2be7 76       		.byte	0x76
 8154 2be8 00       		.sleb128 0
 8155 2be9 00       		.byte	0
 8156 2bea 00       		.byte	0
 8157 2beb 0F       		.uleb128 0xf
 8158 2bec 88130000 		.4byte	0x1388
 8159 2bf0 33       		.uleb128 0x33
 8160 2bf1 C8270000 		.4byte	.LASF799
 8161 2bf5 04       		.byte	0x4
 8162 2bf6 7C       		.byte	0x7c
 8163 2bf7 00000000 		.4byte	.LFB471
 8164 2bfb 7C000000 		.4byte	.LFE471-.LFB471
 8165 2bff 01       		.uleb128 0x1
 8166 2c00 9C       		.byte	0x9c
 8167 2c01 BA2D0000 		.4byte	0x2dba
 8168 2c05 3D       		.uleb128 0x3d
 8169 2c06 72656700 		.ascii	"reg\000"
 8170 2c0a 04       		.byte	0x4
ARM GAS  C:\Users\ASUS\AppData\Local\Temp\ccYYtRfk.s 			page 192


 8171 2c0b 7C       		.byte	0x7c
 8172 2c0c 35050000 		.4byte	0x535
 8173 2c10 78040000 		.4byte	.LLST29
 8174 2c14 34       		.uleb128 0x34
 8175 2c15 1E0A0000 		.4byte	.LASF718
 8176 2c19 04       		.byte	0x4
 8177 2c1a 7C       		.byte	0x7c
 8178 2c1b 35050000 		.4byte	0x535
 8179 2c1f 99040000 		.4byte	.LLST30
 8180 2c23 3C       		.uleb128 0x3c
 8181 2c24 C4090000 		.4byte	.LASF792
 8182 2c28 04       		.byte	0x4
 8183 2c29 7E       		.byte	0x7e
 8184 2c2a EB2B0000 		.4byte	0x2beb
 8185 2c2e 02       		.uleb128 0x2
 8186 2c2f 91       		.byte	0x91
 8187 2c30 64       		.sleb128 -28
 8188 2c31 3C       		.uleb128 0x3c
 8189 2c32 C9090000 		.4byte	.LASF793
 8190 2c36 04       		.byte	0x4
 8191 2c37 7F       		.byte	0x7f
 8192 2c38 EB2B0000 		.4byte	0x2beb
 8193 2c3c 02       		.uleb128 0x2
 8194 2c3d 91       		.byte	0x91
 8195 2c3e 60       		.sleb128 -32
 8196 2c3f 3C       		.uleb128 0x3c
 8197 2c40 CE090000 		.4byte	.LASF794
 8198 2c44 04       		.byte	0x4
 8199 2c45 80       		.byte	0x80
 8200 2c46 EB2B0000 		.4byte	0x2beb
 8201 2c4a 02       		.uleb128 0x2
 8202 2c4b 91       		.byte	0x91
 8203 2c4c 5C       		.sleb128 -36
 8204 2c4d 3C       		.uleb128 0x3c
 8205 2c4e D3090000 		.4byte	.LASF795
 8206 2c52 04       		.byte	0x4
 8207 2c53 81       		.byte	0x81
 8208 2c54 EB2B0000 		.4byte	0x2beb
 8209 2c58 02       		.uleb128 0x2
 8210 2c59 91       		.byte	0x91
 8211 2c5a 58       		.sleb128 -40
 8212 2c5b 41       		.uleb128 0x41
 8213 2c5c AF240000 		.4byte	0x24af
 8214 2c60 12000000 		.4byte	.LBB63
 8215 2c64 12000000 		.4byte	.LBE63-.LBB63
 8216 2c68 04       		.byte	0x4
 8217 2c69 84       		.byte	0x84
 8218 2c6a B72C0000 		.4byte	0x2cb7
 8219 2c6e 42       		.uleb128 0x42
 8220 2c6f D8240000 		.4byte	0x24d8
 8221 2c73 BA040000 		.4byte	.LLST31
 8222 2c77 42       		.uleb128 0x42
 8223 2c78 CC240000 		.4byte	0x24cc
 8224 2c7c CF040000 		.4byte	.LLST32
 8225 2c80 42       		.uleb128 0x42
 8226 2c81 C0240000 		.4byte	0x24c0
 8227 2c85 E3040000 		.4byte	.LLST33
ARM GAS  C:\Users\ASUS\AppData\Local\Temp\ccYYtRfk.s 			page 193


 8228 2c89 38       		.uleb128 0x38
 8229 2c8a 24000000 		.4byte	.LVL80
 8230 2c8e 593F0000 		.4byte	0x3f59
 8231 2c92 39       		.uleb128 0x39
 8232 2c93 01       		.uleb128 0x1
 8233 2c94 50       		.byte	0x50
 8234 2c95 02       		.uleb128 0x2
 8235 2c96 74       		.byte	0x74
 8236 2c97 00       		.sleb128 0
 8237 2c98 39       		.uleb128 0x39
 8238 2c99 01       		.uleb128 0x1
 8239 2c9a 51       		.byte	0x51
 8240 2c9b 02       		.uleb128 0x2
 8241 2c9c 08       		.byte	0x8
 8242 2c9d 74       		.byte	0x74
 8243 2c9e 39       		.uleb128 0x39
 8244 2c9f 01       		.uleb128 0x1
 8245 2ca0 52       		.byte	0x52
 8246 2ca1 03       		.uleb128 0x3
 8247 2ca2 91       		.byte	0x91
 8248 2ca3 58       		.sleb128 -40
 8249 2ca4 06       		.byte	0x6
 8250 2ca5 39       		.uleb128 0x39
 8251 2ca6 01       		.uleb128 0x1
 8252 2ca7 53       		.byte	0x53
 8253 2ca8 05       		.uleb128 0x5
 8254 2ca9 91       		.byte	0x91
 8255 2caa 58       		.sleb128 -40
 8256 2cab 06       		.byte	0x6
 8257 2cac 23       		.byte	0x23
 8258 2cad 64       		.uleb128 0x64
 8259 2cae 39       		.uleb128 0x39
 8260 2caf 02       		.uleb128 0x2
 8261 2cb0 7D       		.byte	0x7d
 8262 2cb1 00       		.sleb128 0
 8263 2cb2 02       		.uleb128 0x2
 8264 2cb3 75       		.byte	0x75
 8265 2cb4 00       		.sleb128 0
 8266 2cb5 00       		.byte	0
 8267 2cb6 00       		.byte	0
 8268 2cb7 41       		.uleb128 0x41
 8269 2cb8 85240000 		.4byte	0x2485
 8270 2cbc 2C000000 		.4byte	.LBB65
 8271 2cc0 0C000000 		.4byte	.LBE65-.LBB65
 8272 2cc4 04       		.byte	0x4
 8273 2cc5 87       		.byte	0x87
 8274 2cc6 FF2C0000 		.4byte	0x2cff
 8275 2cca 42       		.uleb128 0x42
 8276 2ccb A2240000 		.4byte	0x24a2
 8277 2ccf F8040000 		.4byte	.LLST34
 8278 2cd3 42       		.uleb128 0x42
 8279 2cd4 96240000 		.4byte	0x2496
 8280 2cd8 0D050000 		.4byte	.LLST35
 8281 2cdc 38       		.uleb128 0x38
 8282 2cdd 38000000 		.4byte	.LVL82
 8283 2ce1 653F0000 		.4byte	0x3f65
 8284 2ce5 39       		.uleb128 0x39
ARM GAS  C:\Users\ASUS\AppData\Local\Temp\ccYYtRfk.s 			page 194


 8285 2ce6 01       		.uleb128 0x1
 8286 2ce7 50       		.byte	0x50
 8287 2ce8 02       		.uleb128 0x2
 8288 2ce9 74       		.byte	0x74
 8289 2cea 00       		.sleb128 0
 8290 2ceb 39       		.uleb128 0x39
 8291 2cec 01       		.uleb128 0x1
 8292 2ced 51       		.byte	0x51
 8293 2cee 02       		.uleb128 0x2
 8294 2cef 77       		.byte	0x77
 8295 2cf0 00       		.sleb128 0
 8296 2cf1 39       		.uleb128 0x39
 8297 2cf2 01       		.uleb128 0x1
 8298 2cf3 52       		.byte	0x52
 8299 2cf4 02       		.uleb128 0x2
 8300 2cf5 08       		.byte	0x8
 8301 2cf6 64       		.byte	0x64
 8302 2cf7 39       		.uleb128 0x39
 8303 2cf8 01       		.uleb128 0x1
 8304 2cf9 53       		.byte	0x53
 8305 2cfa 02       		.uleb128 0x2
 8306 2cfb 75       		.byte	0x75
 8307 2cfc 00       		.sleb128 0
 8308 2cfd 00       		.byte	0
 8309 2cfe 00       		.byte	0
 8310 2cff 41       		.uleb128 0x41
 8311 2d00 85240000 		.4byte	0x2485
 8312 2d04 3A000000 		.4byte	.LBB67
 8313 2d08 0C000000 		.4byte	.LBE67-.LBB67
 8314 2d0c 04       		.byte	0x4
 8315 2d0d 88       		.byte	0x88
 8316 2d0e 472D0000 		.4byte	0x2d47
 8317 2d12 42       		.uleb128 0x42
 8318 2d13 A2240000 		.4byte	0x24a2
 8319 2d17 20050000 		.4byte	.LLST36
 8320 2d1b 42       		.uleb128 0x42
 8321 2d1c 96240000 		.4byte	0x2496
 8322 2d20 35050000 		.4byte	.LLST37
 8323 2d24 38       		.uleb128 0x38
 8324 2d25 46000000 		.4byte	.LVL84
 8325 2d29 653F0000 		.4byte	0x3f65
 8326 2d2d 39       		.uleb128 0x39
 8327 2d2e 01       		.uleb128 0x1
 8328 2d2f 50       		.byte	0x50
 8329 2d30 02       		.uleb128 0x2
 8330 2d31 74       		.byte	0x74
 8331 2d32 00       		.sleb128 0
 8332 2d33 39       		.uleb128 0x39
 8333 2d34 01       		.uleb128 0x1
 8334 2d35 51       		.byte	0x51
 8335 2d36 02       		.uleb128 0x2
 8336 2d37 76       		.byte	0x76
 8337 2d38 00       		.sleb128 0
 8338 2d39 39       		.uleb128 0x39
 8339 2d3a 01       		.uleb128 0x1
 8340 2d3b 52       		.byte	0x52
 8341 2d3c 02       		.uleb128 0x2
ARM GAS  C:\Users\ASUS\AppData\Local\Temp\ccYYtRfk.s 			page 195


 8342 2d3d 08       		.byte	0x8
 8343 2d3e 64       		.byte	0x64
 8344 2d3f 39       		.uleb128 0x39
 8345 2d40 01       		.uleb128 0x1
 8346 2d41 53       		.byte	0x53
 8347 2d42 02       		.uleb128 0x2
 8348 2d43 75       		.byte	0x75
 8349 2d44 00       		.sleb128 0
 8350 2d45 00       		.byte	0
 8351 2d46 00       		.byte	0
 8352 2d47 41       		.uleb128 0x41
 8353 2d48 FB230000 		.4byte	0x23fb
 8354 2d4c 4E000000 		.4byte	.LBB69
 8355 2d50 0A000000 		.4byte	.LBE69-.LBB69
 8356 2d54 04       		.byte	0x4
 8357 2d55 8B       		.byte	0x8b
 8358 2d56 802D0000 		.4byte	0x2d80
 8359 2d5a 42       		.uleb128 0x42
 8360 2d5b 0C240000 		.4byte	0x240c
 8361 2d5f 48050000 		.4byte	.LLST38
 8362 2d63 38       		.uleb128 0x38
 8363 2d64 58000000 		.4byte	.LVL86
 8364 2d68 893F0000 		.4byte	0x3f89
 8365 2d6c 39       		.uleb128 0x39
 8366 2d6d 01       		.uleb128 0x1
 8367 2d6e 50       		.byte	0x50
 8368 2d6f 02       		.uleb128 0x2
 8369 2d70 74       		.byte	0x74
 8370 2d71 00       		.sleb128 0
 8371 2d72 39       		.uleb128 0x39
 8372 2d73 01       		.uleb128 0x1
 8373 2d74 51       		.byte	0x51
 8374 2d75 02       		.uleb128 0x2
 8375 2d76 08       		.byte	0x8
 8376 2d77 64       		.byte	0x64
 8377 2d78 39       		.uleb128 0x39
 8378 2d79 01       		.uleb128 0x1
 8379 2d7a 52       		.byte	0x52
 8380 2d7b 02       		.uleb128 0x2
 8381 2d7c 75       		.byte	0x75
 8382 2d7d 00       		.sleb128 0
 8383 2d7e 00       		.byte	0
 8384 2d7f 00       		.byte	0
 8385 2d80 3E       		.uleb128 0x3e
 8386 2d81 2C000000 		.4byte	.LVL81
 8387 2d85 2B3F0000 		.4byte	0x3f2b
 8388 2d89 932D0000 		.4byte	0x2d93
 8389 2d8d 39       		.uleb128 0x39
 8390 2d8e 01       		.uleb128 0x1
 8391 2d8f 50       		.byte	0x50
 8392 2d90 01       		.uleb128 0x1
 8393 2d91 31       		.byte	0x31
 8394 2d92 00       		.byte	0
 8395 2d93 3E       		.uleb128 0x3e
 8396 2d94 4E000000 		.4byte	.LVL85
 8397 2d98 2B3F0000 		.4byte	0x3f2b
 8398 2d9c A62D0000 		.4byte	0x2da6
ARM GAS  C:\Users\ASUS\AppData\Local\Temp\ccYYtRfk.s 			page 196


 8399 2da0 39       		.uleb128 0x39
 8400 2da1 01       		.uleb128 0x1
 8401 2da2 50       		.byte	0x50
 8402 2da3 01       		.uleb128 0x1
 8403 2da4 31       		.byte	0x31
 8404 2da5 00       		.byte	0
 8405 2da6 38       		.uleb128 0x38
 8406 2da7 6A000000 		.4byte	.LVL87
 8407 2dab 063F0000 		.4byte	0x3f06
 8408 2daf 39       		.uleb128 0x39
 8409 2db0 01       		.uleb128 0x1
 8410 2db1 50       		.byte	0x50
 8411 2db2 05       		.uleb128 0x5
 8412 2db3 03       		.byte	0x3
 8413 2db4 98000000 		.4byte	.LC16
 8414 2db8 00       		.byte	0
 8415 2db9 00       		.byte	0
 8416 2dba 33       		.uleb128 0x33
 8417 2dbb E4250000 		.4byte	.LASF800
 8418 2dbf 04       		.byte	0x4
 8419 2dc0 A0       		.byte	0xa0
 8420 2dc1 00000000 		.4byte	.LFB472
 8421 2dc5 42000000 		.4byte	.LFE472-.LFB472
 8422 2dc9 01       		.uleb128 0x1
 8423 2dca 9C       		.byte	0x9c
 8424 2dcb 9A2E0000 		.4byte	0x2e9a
 8425 2dcf 34       		.uleb128 0x34
 8426 2dd0 573E0000 		.4byte	.LASF801
 8427 2dd4 04       		.byte	0x4
 8428 2dd5 A0       		.byte	0xa0
 8429 2dd6 D3220000 		.4byte	0x22d3
 8430 2dda 5D050000 		.4byte	.LLST39
 8431 2dde 34       		.uleb128 0x34
 8432 2ddf 03260000 		.4byte	.LASF802
 8433 2de3 04       		.byte	0x4
 8434 2de4 A0       		.byte	0xa0
 8435 2de5 D3220000 		.4byte	0x22d3
 8436 2de9 89050000 		.4byte	.LLST40
 8437 2ded 34       		.uleb128 0x34
 8438 2dee EE0F0000 		.4byte	.LASF803
 8439 2df2 04       		.byte	0x4
 8440 2df3 A0       		.byte	0xa0
 8441 2df4 D3220000 		.4byte	0x22d3
 8442 2df8 B5050000 		.4byte	.LLST41
 8443 2dfc 34       		.uleb128 0x34
 8444 2dfd F4300000 		.4byte	.LASF804
 8445 2e01 04       		.byte	0x4
 8446 2e02 A1       		.byte	0xa1
 8447 2e03 D3220000 		.4byte	0x22d3
 8448 2e07 E1050000 		.4byte	.LLST42
 8449 2e0b 3E       		.uleb128 0x3e
 8450 2e0c 12000000 		.4byte	.LVL91
 8451 2e10 F02B0000 		.4byte	0x2bf0
 8452 2e14 242E0000 		.4byte	0x2e24
 8453 2e18 39       		.uleb128 0x39
 8454 2e19 01       		.uleb128 0x1
 8455 2e1a 50       		.byte	0x50
ARM GAS  C:\Users\ASUS\AppData\Local\Temp\ccYYtRfk.s 			page 197


 8456 2e1b 01       		.uleb128 0x1
 8457 2e1c 30       		.byte	0x30
 8458 2e1d 39       		.uleb128 0x39
 8459 2e1e 01       		.uleb128 0x1
 8460 2e1f 51       		.byte	0x51
 8461 2e20 02       		.uleb128 0x2
 8462 2e21 09       		.byte	0x9
 8463 2e22 83       		.byte	0x83
 8464 2e23 00       		.byte	0
 8465 2e24 3E       		.uleb128 0x3e
 8466 2e25 18000000 		.4byte	.LVL92
 8467 2e29 2B3F0000 		.4byte	0x3f2b
 8468 2e2d 382E0000 		.4byte	0x2e38
 8469 2e31 39       		.uleb128 0x39
 8470 2e32 01       		.uleb128 0x1
 8471 2e33 50       		.byte	0x50
 8472 2e34 02       		.uleb128 0x2
 8473 2e35 08       		.byte	0x8
 8474 2e36 40       		.byte	0x40
 8475 2e37 00       		.byte	0
 8476 2e38 3E       		.uleb128 0x3e
 8477 2e39 1E000000 		.4byte	.LVL93
 8478 2e3d FE280000 		.4byte	0x28fe
 8479 2e41 4B2E0000 		.4byte	0x2e4b
 8480 2e45 39       		.uleb128 0x39
 8481 2e46 01       		.uleb128 0x1
 8482 2e47 50       		.byte	0x50
 8483 2e48 01       		.uleb128 0x1
 8484 2e49 31       		.byte	0x31
 8485 2e4a 00       		.byte	0
 8486 2e4b 3E       		.uleb128 0x3e
 8487 2e4c 26000000 		.4byte	.LVL94
 8488 2e50 FE280000 		.4byte	0x28fe
 8489 2e54 5E2E0000 		.4byte	0x2e5e
 8490 2e58 39       		.uleb128 0x39
 8491 2e59 01       		.uleb128 0x1
 8492 2e5a 50       		.byte	0x50
 8493 2e5b 01       		.uleb128 0x1
 8494 2e5c 32       		.byte	0x32
 8495 2e5d 00       		.byte	0
 8496 2e5e 3E       		.uleb128 0x3e
 8497 2e5f 2E000000 		.4byte	.LVL95
 8498 2e63 FE280000 		.4byte	0x28fe
 8499 2e67 712E0000 		.4byte	0x2e71
 8500 2e6b 39       		.uleb128 0x39
 8501 2e6c 01       		.uleb128 0x1
 8502 2e6d 50       		.byte	0x50
 8503 2e6e 01       		.uleb128 0x1
 8504 2e6f 33       		.byte	0x33
 8505 2e70 00       		.byte	0
 8506 2e71 3E       		.uleb128 0x3e
 8507 2e72 36000000 		.4byte	.LVL96
 8508 2e76 FE280000 		.4byte	0x28fe
 8509 2e7a 842E0000 		.4byte	0x2e84
 8510 2e7e 39       		.uleb128 0x39
 8511 2e7f 01       		.uleb128 0x1
 8512 2e80 50       		.byte	0x50
ARM GAS  C:\Users\ASUS\AppData\Local\Temp\ccYYtRfk.s 			page 198


 8513 2e81 01       		.uleb128 0x1
 8514 2e82 34       		.byte	0x34
 8515 2e83 00       		.byte	0
 8516 2e84 38       		.uleb128 0x38
 8517 2e85 40000000 		.4byte	.LVL97
 8518 2e89 F02B0000 		.4byte	0x2bf0
 8519 2e8d 39       		.uleb128 0x39
 8520 2e8e 01       		.uleb128 0x1
 8521 2e8f 50       		.byte	0x50
 8522 2e90 01       		.uleb128 0x1
 8523 2e91 30       		.byte	0x30
 8524 2e92 39       		.uleb128 0x39
 8525 2e93 01       		.uleb128 0x1
 8526 2e94 51       		.byte	0x51
 8527 2e95 02       		.uleb128 0x2
 8528 2e96 08       		.byte	0x8
 8529 2e97 42       		.byte	0x42
 8530 2e98 00       		.byte	0
 8531 2e99 00       		.byte	0
 8532 2e9a 43       		.uleb128 0x43
 8533 2e9b BF250000 		.4byte	.LASF805
 8534 2e9f 04       		.byte	0x4
 8535 2ea0 C2       		.byte	0xc2
 8536 2ea1 00000000 		.4byte	.LFB473
 8537 2ea5 4C000000 		.4byte	.LFE473-.LFB473
 8538 2ea9 01       		.uleb128 0x1
 8539 2eaa 9C       		.byte	0x9c
 8540 2eab FC2E0000 		.4byte	0x2efc
 8541 2eaf 3D       		.uleb128 0x3d
 8542 2eb0 7800     		.ascii	"x\000"
 8543 2eb2 04       		.byte	0x4
 8544 2eb3 C2       		.byte	0xc2
 8545 2eb4 4B050000 		.4byte	0x54b
 8546 2eb8 0D060000 		.4byte	.LLST43
 8547 2ebc 3D       		.uleb128 0x3d
 8548 2ebd 7900     		.ascii	"y\000"
 8549 2ebf 04       		.byte	0x4
 8550 2ec0 C2       		.byte	0xc2
 8551 2ec1 4B050000 		.4byte	0x54b
 8552 2ec5 2E060000 		.4byte	.LLST44
 8553 2ec9 3D       		.uleb128 0x3d
 8554 2eca 7A00     		.ascii	"z\000"
 8555 2ecc 04       		.byte	0x4
 8556 2ecd C2       		.byte	0xc2
 8557 2ece 4B050000 		.4byte	0x54b
 8558 2ed2 4F060000 		.4byte	.LLST45
 8559 2ed6 38       		.uleb128 0x38
 8560 2ed7 32000000 		.4byte	.LVL107
 8561 2edb 063F0000 		.4byte	0x3f06
 8562 2edf 39       		.uleb128 0x39
 8563 2ee0 01       		.uleb128 0x1
 8564 2ee1 50       		.byte	0x50
 8565 2ee2 05       		.uleb128 0x5
 8566 2ee3 03       		.byte	0x3
 8567 2ee4 C8000000 		.4byte	.LC19
 8568 2ee8 39       		.uleb128 0x39
 8569 2ee9 01       		.uleb128 0x1
ARM GAS  C:\Users\ASUS\AppData\Local\Temp\ccYYtRfk.s 			page 199


 8570 2eea 51       		.byte	0x51
 8571 2eeb 02       		.uleb128 0x2
 8572 2eec 74       		.byte	0x74
 8573 2eed 00       		.sleb128 0
 8574 2eee 39       		.uleb128 0x39
 8575 2eef 01       		.uleb128 0x1
 8576 2ef0 52       		.byte	0x52
 8577 2ef1 02       		.uleb128 0x2
 8578 2ef2 75       		.byte	0x75
 8579 2ef3 00       		.sleb128 0
 8580 2ef4 39       		.uleb128 0x39
 8581 2ef5 01       		.uleb128 0x1
 8582 2ef6 53       		.byte	0x53
 8583 2ef7 02       		.uleb128 0x2
 8584 2ef8 76       		.byte	0x76
 8585 2ef9 00       		.sleb128 0
 8586 2efa 00       		.byte	0
 8587 2efb 00       		.byte	0
 8588 2efc 43       		.uleb128 0x43
 8589 2efd 5E140000 		.4byte	.LASF806
 8590 2f01 04       		.byte	0x4
 8591 2f02 DE       		.byte	0xde
 8592 2f03 00000000 		.4byte	.LFB474
 8593 2f07 B8000000 		.4byte	.LFE474-.LFB474
 8594 2f0b 01       		.uleb128 0x1
 8595 2f0c 9C       		.byte	0x9c
 8596 2f0d DB2F0000 		.4byte	0x2fdb
 8597 2f11 3D       		.uleb128 0x3d
 8598 2f12 7800     		.ascii	"x\000"
 8599 2f14 04       		.byte	0x4
 8600 2f15 DE       		.byte	0xde
 8601 2f16 4B050000 		.4byte	0x54b
 8602 2f1a 70060000 		.4byte	.LLST46
 8603 2f1e 3D       		.uleb128 0x3d
 8604 2f1f 7900     		.ascii	"y\000"
 8605 2f21 04       		.byte	0x4
 8606 2f22 DE       		.byte	0xde
 8607 2f23 4B050000 		.4byte	0x54b
 8608 2f27 91060000 		.4byte	.LLST47
 8609 2f2b 3D       		.uleb128 0x3d
 8610 2f2c 7A00     		.ascii	"z\000"
 8611 2f2e 04       		.byte	0x4
 8612 2f2f DE       		.byte	0xde
 8613 2f30 4B050000 		.4byte	0x54b
 8614 2f34 B2060000 		.4byte	.LLST48
 8615 2f38 3D       		.uleb128 0x3d
 8616 2f39 747100   		.ascii	"tq\000"
 8617 2f3c 04       		.byte	0x4
 8618 2f3d DE       		.byte	0xde
 8619 2f3e 83230000 		.4byte	0x2383
 8620 2f42 D3060000 		.4byte	.LLST49
 8621 2f46 44       		.uleb128 0x44
 8622 2f47 6C7100   		.ascii	"lq\000"
 8623 2f4a 04       		.byte	0x4
 8624 2f4b DE       		.byte	0xde
 8625 2f4c 83230000 		.4byte	0x2383
 8626 2f50 02       		.uleb128 0x2
ARM GAS  C:\Users\ASUS\AppData\Local\Temp\ccYYtRfk.s 			page 200


 8627 2f51 91       		.byte	0x91
 8628 2f52 00       		.sleb128 0
 8629 2f53 36       		.uleb128 0x36
 8630 2f54 58340000 		.4byte	.LASF807
 8631 2f58 04       		.byte	0x4
 8632 2f59 E0       		.byte	0xe0
 8633 2f5a 27050000 		.4byte	0x527
 8634 2f5e F2060000 		.4byte	.LLST50
 8635 2f62 36       		.uleb128 0x36
 8636 2f63 D8110000 		.4byte	.LASF808
 8637 2f67 04       		.byte	0x4
 8638 2f68 E1       		.byte	0xe1
 8639 2f69 27050000 		.4byte	0x527
 8640 2f6d 11070000 		.4byte	.LLST51
 8641 2f71 36       		.uleb128 0x36
 8642 2f72 94370000 		.4byte	.LASF809
 8643 2f76 04       		.byte	0x4
 8644 2f77 E2       		.byte	0xe2
 8645 2f78 27050000 		.4byte	0x527
 8646 2f7c 2F070000 		.4byte	.LLST52
 8647 2f80 3E       		.uleb128 0x3e
 8648 2f81 3E000000 		.4byte	.LVL120
 8649 2f85 953F0000 		.4byte	0x3f95
 8650 2f89 952F0000 		.4byte	0x2f95
 8651 2f8d 39       		.uleb128 0x39
 8652 2f8e 01       		.uleb128 0x1
 8653 2f8f 50       		.byte	0x50
 8654 2f90 03       		.uleb128 0x3
 8655 2f91 91       		.byte	0x91
 8656 2f92 00       		.sleb128 0
 8657 2f93 06       		.byte	0x6
 8658 2f94 00       		.byte	0
 8659 2f95 3E       		.uleb128 0x3e
 8660 2f96 48000000 		.4byte	.LVL121
 8661 2f9a 113F0000 		.4byte	0x3f11
 8662 2f9e AC2F0000 		.4byte	0x2fac
 8663 2fa2 39       		.uleb128 0x39
 8664 2fa3 01       		.uleb128 0x1
 8665 2fa4 50       		.byte	0x50
 8666 2fa5 05       		.uleb128 0x5
 8667 2fa6 03       		.byte	0x3
 8668 2fa7 24010000 		.4byte	.LC22
 8669 2fab 00       		.byte	0
 8670 2fac 3E       		.uleb128 0x3e
 8671 2fad 50000000 		.4byte	.LVL122
 8672 2fb1 953F0000 		.4byte	0x3f95
 8673 2fb5 C72F0000 		.4byte	0x2fc7
 8674 2fb9 39       		.uleb128 0x39
 8675 2fba 01       		.uleb128 0x1
 8676 2fbb 50       		.byte	0x50
 8677 2fbc 03       		.uleb128 0x3
 8678 2fbd 91       		.byte	0x91
 8679 2fbe 64       		.sleb128 -28
 8680 2fbf 06       		.byte	0x6
 8681 2fc0 39       		.uleb128 0x39
 8682 2fc1 01       		.uleb128 0x1
 8683 2fc2 51       		.byte	0x51
ARM GAS  C:\Users\ASUS\AppData\Local\Temp\ccYYtRfk.s 			page 201


 8684 2fc3 02       		.uleb128 0x2
 8685 2fc4 76       		.byte	0x76
 8686 2fc5 00       		.sleb128 0
 8687 2fc6 00       		.byte	0
 8688 2fc7 38       		.uleb128 0x38
 8689 2fc8 5A000000 		.4byte	.LVL123
 8690 2fcc 113F0000 		.4byte	0x3f11
 8691 2fd0 39       		.uleb128 0x39
 8692 2fd1 01       		.uleb128 0x1
 8693 2fd2 50       		.byte	0x50
 8694 2fd3 05       		.uleb128 0x5
 8695 2fd4 03       		.byte	0x3
 8696 2fd5 44010000 		.4byte	.LC24
 8697 2fd9 00       		.byte	0
 8698 2fda 00       		.byte	0
 8699 2fdb 40       		.uleb128 0x40
 8700 2fdc 180B0000 		.4byte	.LASF811
 8701 2fe0 06       		.byte	0x6
 8702 2fe1 30       		.byte	0x30
 8703 2fe2 4B050000 		.4byte	0x54b
 8704 2fe6 00000000 		.4byte	.LFB475
 8705 2fea C8000000 		.4byte	.LFE475-.LFB475
 8706 2fee 01       		.uleb128 0x1
 8707 2fef 9C       		.byte	0x9c
 8708 2ff0 C8320000 		.4byte	0x32c8
 8709 2ff4 3D       		.uleb128 0x3d
 8710 2ff5 72656700 		.ascii	"reg\000"
 8711 2ff9 06       		.byte	0x6
 8712 2ffa 30       		.byte	0x30
 8713 2ffb 35050000 		.4byte	0x535
 8714 2fff 42070000 		.4byte	.LLST53
 8715 3003 3C       		.uleb128 0x3c
 8716 3004 C4090000 		.4byte	.LASF792
 8717 3008 06       		.byte	0x6
 8718 3009 32       		.byte	0x32
 8719 300a EB2B0000 		.4byte	0x2beb
 8720 300e 02       		.uleb128 0x2
 8721 300f 91       		.byte	0x91
 8722 3010 64       		.sleb128 -28
 8723 3011 3C       		.uleb128 0x3c
 8724 3012 C9090000 		.4byte	.LASF793
 8725 3016 06       		.byte	0x6
 8726 3017 33       		.byte	0x33
 8727 3018 EB2B0000 		.4byte	0x2beb
 8728 301c 02       		.uleb128 0x2
 8729 301d 91       		.byte	0x91
 8730 301e 60       		.sleb128 -32
 8731 301f 3C       		.uleb128 0x3c
 8732 3020 CE090000 		.4byte	.LASF794
 8733 3024 06       		.byte	0x6
 8734 3025 34       		.byte	0x34
 8735 3026 EB2B0000 		.4byte	0x2beb
 8736 302a 02       		.uleb128 0x2
 8737 302b 91       		.byte	0x91
 8738 302c 5C       		.sleb128 -36
 8739 302d 3C       		.uleb128 0x3c
 8740 302e D3090000 		.4byte	.LASF795
ARM GAS  C:\Users\ASUS\AppData\Local\Temp\ccYYtRfk.s 			page 202


 8741 3032 06       		.byte	0x6
 8742 3033 35       		.byte	0x35
 8743 3034 EB2B0000 		.4byte	0x2beb
 8744 3038 02       		.uleb128 0x2
 8745 3039 91       		.byte	0x91
 8746 303a 58       		.sleb128 -40
 8747 303b 3C       		.uleb128 0x3c
 8748 303c D8090000 		.4byte	.LASF796
 8749 3040 06       		.byte	0x6
 8750 3041 36       		.byte	0x36
 8751 3042 EB2B0000 		.4byte	0x2beb
 8752 3046 02       		.uleb128 0x2
 8753 3047 91       		.byte	0x91
 8754 3048 54       		.sleb128 -44
 8755 3049 3C       		.uleb128 0x3c
 8756 304a DD090000 		.4byte	.LASF797
 8757 304e 06       		.byte	0x6
 8758 304f 37       		.byte	0x37
 8759 3050 EB2B0000 		.4byte	0x2beb
 8760 3054 02       		.uleb128 0x2
 8761 3055 91       		.byte	0x91
 8762 3056 50       		.sleb128 -48
 8763 3057 3C       		.uleb128 0x3c
 8764 3058 493C0000 		.4byte	.LASF798
 8765 305c 06       		.byte	0x6
 8766 305d 38       		.byte	0x38
 8767 305e F4060000 		.4byte	0x6f4
 8768 3062 02       		.uleb128 0x2
 8769 3063 91       		.byte	0x91
 8770 3064 4C       		.sleb128 -52
 8771 3065 41       		.uleb128 0x41
 8772 3066 AF240000 		.4byte	0x24af
 8773 306a 1A000000 		.4byte	.LBB71
 8774 306e 12000000 		.4byte	.LBE71-.LBB71
 8775 3072 06       		.byte	0x6
 8776 3073 3B       		.byte	0x3b
 8777 3074 C1300000 		.4byte	0x30c1
 8778 3078 42       		.uleb128 0x42
 8779 3079 D8240000 		.4byte	0x24d8
 8780 307d 63070000 		.4byte	.LLST54
 8781 3081 42       		.uleb128 0x42
 8782 3082 CC240000 		.4byte	0x24cc
 8783 3086 78070000 		.4byte	.LLST55
 8784 308a 42       		.uleb128 0x42
 8785 308b C0240000 		.4byte	0x24c0
 8786 308f 8C070000 		.4byte	.LLST56
 8787 3093 38       		.uleb128 0x38
 8788 3094 2C000000 		.4byte	.LVL133
 8789 3098 593F0000 		.4byte	0x3f59
 8790 309c 39       		.uleb128 0x39
 8791 309d 01       		.uleb128 0x1
 8792 309e 50       		.byte	0x50
 8793 309f 02       		.uleb128 0x2
 8794 30a0 74       		.byte	0x74
 8795 30a1 00       		.sleb128 0
 8796 30a2 39       		.uleb128 0x39
 8797 30a3 01       		.uleb128 0x1
ARM GAS  C:\Users\ASUS\AppData\Local\Temp\ccYYtRfk.s 			page 203


 8798 30a4 51       		.byte	0x51
 8799 30a5 02       		.uleb128 0x2
 8800 30a6 08       		.byte	0x8
 8801 30a7 68       		.byte	0x68
 8802 30a8 39       		.uleb128 0x39
 8803 30a9 01       		.uleb128 0x1
 8804 30aa 52       		.byte	0x52
 8805 30ab 03       		.uleb128 0x3
 8806 30ac 91       		.byte	0x91
 8807 30ad 50       		.sleb128 -48
 8808 30ae 06       		.byte	0x6
 8809 30af 39       		.uleb128 0x39
 8810 30b0 01       		.uleb128 0x1
 8811 30b1 53       		.byte	0x53
 8812 30b2 05       		.uleb128 0x5
 8813 30b3 91       		.byte	0x91
 8814 30b4 50       		.sleb128 -48
 8815 30b5 06       		.byte	0x6
 8816 30b6 23       		.byte	0x23
 8817 30b7 64       		.uleb128 0x64
 8818 30b8 39       		.uleb128 0x39
 8819 30b9 02       		.uleb128 0x2
 8820 30ba 7D       		.byte	0x7d
 8821 30bb 00       		.sleb128 0
 8822 30bc 02       		.uleb128 0x2
 8823 30bd 77       		.byte	0x77
 8824 30be 00       		.sleb128 0
 8825 30bf 00       		.byte	0
 8826 30c0 00       		.byte	0
 8827 30c1 41       		.uleb128 0x41
 8828 30c2 85240000 		.4byte	0x2485
 8829 30c6 34000000 		.4byte	.LBB73
 8830 30ca 0C000000 		.4byte	.LBE73-.LBB73
 8831 30ce 06       		.byte	0x6
 8832 30cf 3E       		.byte	0x3e
 8833 30d0 09310000 		.4byte	0x3109
 8834 30d4 42       		.uleb128 0x42
 8835 30d5 A2240000 		.4byte	0x24a2
 8836 30d9 A1070000 		.4byte	.LLST57
 8837 30dd 42       		.uleb128 0x42
 8838 30de 96240000 		.4byte	0x2496
 8839 30e2 B6070000 		.4byte	.LLST58
 8840 30e6 38       		.uleb128 0x38
 8841 30e7 40000000 		.4byte	.LVL135
 8842 30eb 653F0000 		.4byte	0x3f65
 8843 30ef 39       		.uleb128 0x39
 8844 30f0 01       		.uleb128 0x1
 8845 30f1 50       		.byte	0x50
 8846 30f2 02       		.uleb128 0x2
 8847 30f3 74       		.byte	0x74
 8848 30f4 00       		.sleb128 0
 8849 30f5 39       		.uleb128 0x39
 8850 30f6 01       		.uleb128 0x1
 8851 30f7 51       		.byte	0x51
 8852 30f8 02       		.uleb128 0x2
 8853 30f9 76       		.byte	0x76
 8854 30fa 00       		.sleb128 0
ARM GAS  C:\Users\ASUS\AppData\Local\Temp\ccYYtRfk.s 			page 204


 8855 30fb 39       		.uleb128 0x39
 8856 30fc 01       		.uleb128 0x1
 8857 30fd 52       		.byte	0x52
 8858 30fe 02       		.uleb128 0x2
 8859 30ff 08       		.byte	0x8
 8860 3100 64       		.byte	0x64
 8861 3101 39       		.uleb128 0x39
 8862 3102 01       		.uleb128 0x1
 8863 3103 53       		.byte	0x53
 8864 3104 02       		.uleb128 0x2
 8865 3105 77       		.byte	0x77
 8866 3106 00       		.sleb128 0
 8867 3107 00       		.byte	0
 8868 3108 00       		.byte	0
 8869 3109 41       		.uleb128 0x41
 8870 310a 4F240000 		.4byte	0x244f
 8871 310e 48000000 		.4byte	.LBB75
 8872 3112 0E000000 		.4byte	.LBE75-.LBB75
 8873 3116 06       		.byte	0x6
 8874 3117 41       		.byte	0x41
 8875 3118 60310000 		.4byte	0x3160
 8876 311c 42       		.uleb128 0x42
 8877 311d 78240000 		.4byte	0x2478
 8878 3121 C9070000 		.4byte	.LLST59
 8879 3125 42       		.uleb128 0x42
 8880 3126 6C240000 		.4byte	0x246c
 8881 312a DE070000 		.4byte	.LLST60
 8882 312e 42       		.uleb128 0x42
 8883 312f 60240000 		.4byte	0x2460
 8884 3133 F2070000 		.4byte	.LLST61
 8885 3137 38       		.uleb128 0x38
 8886 3138 56000000 		.4byte	.LVL137
 8887 313c 713F0000 		.4byte	0x3f71
 8888 3140 39       		.uleb128 0x39
 8889 3141 01       		.uleb128 0x1
 8890 3142 50       		.byte	0x50
 8891 3143 02       		.uleb128 0x2
 8892 3144 74       		.byte	0x74
 8893 3145 00       		.sleb128 0
 8894 3146 39       		.uleb128 0x39
 8895 3147 01       		.uleb128 0x1
 8896 3148 51       		.byte	0x51
 8897 3149 02       		.uleb128 0x2
 8898 314a 08       		.byte	0x8
 8899 314b 68       		.byte	0x68
 8900 314c 39       		.uleb128 0x39
 8901 314d 01       		.uleb128 0x1
 8902 314e 52       		.byte	0x52
 8903 314f 01       		.uleb128 0x1
 8904 3150 31       		.byte	0x31
 8905 3151 39       		.uleb128 0x39
 8906 3152 01       		.uleb128 0x1
 8907 3153 53       		.byte	0x53
 8908 3154 02       		.uleb128 0x2
 8909 3155 08       		.byte	0x8
 8910 3156 64       		.byte	0x64
 8911 3157 39       		.uleb128 0x39
ARM GAS  C:\Users\ASUS\AppData\Local\Temp\ccYYtRfk.s 			page 205


 8912 3158 02       		.uleb128 0x2
 8913 3159 7D       		.byte	0x7d
 8914 315a 00       		.sleb128 0
 8915 315b 02       		.uleb128 0x2
 8916 315c 77       		.byte	0x77
 8917 315d 00       		.sleb128 0
 8918 315e 00       		.byte	0
 8919 315f 00       		.byte	0
 8920 3160 41       		.uleb128 0x41
 8921 3161 19240000 		.4byte	0x2419
 8922 3165 5E000000 		.4byte	.LBB77
 8923 3169 10000000 		.4byte	.LBE77-.LBB77
 8924 316d 06       		.byte	0x6
 8925 316e 44       		.byte	0x44
 8926 316f B7310000 		.4byte	0x31b7
 8927 3173 42       		.uleb128 0x42
 8928 3174 42240000 		.4byte	0x2442
 8929 3178 07080000 		.4byte	.LLST62
 8930 317c 42       		.uleb128 0x42
 8931 317d 36240000 		.4byte	0x2436
 8932 3181 1C080000 		.4byte	.LLST63
 8933 3185 42       		.uleb128 0x42
 8934 3186 2A240000 		.4byte	0x242a
 8935 318a 31080000 		.4byte	.LLST64
 8936 318e 38       		.uleb128 0x38
 8937 318f 6E000000 		.4byte	.LVL139
 8938 3193 7D3F0000 		.4byte	0x3f7d
 8939 3197 39       		.uleb128 0x39
 8940 3198 01       		.uleb128 0x1
 8941 3199 50       		.byte	0x50
 8942 319a 02       		.uleb128 0x2
 8943 319b 74       		.byte	0x74
 8944 319c 00       		.sleb128 0
 8945 319d 39       		.uleb128 0x39
 8946 319e 01       		.uleb128 0x1
 8947 319f 51       		.byte	0x51
 8948 31a0 01       		.uleb128 0x1
 8949 31a1 30       		.byte	0x30
 8950 31a2 39       		.uleb128 0x39
 8951 31a3 01       		.uleb128 0x1
 8952 31a4 52       		.byte	0x52
 8953 31a5 02       		.uleb128 0x2
 8954 31a6 91       		.byte	0x91
 8955 31a7 4D       		.sleb128 -51
 8956 31a8 39       		.uleb128 0x39
 8957 31a9 01       		.uleb128 0x1
 8958 31aa 53       		.byte	0x53
 8959 31ab 02       		.uleb128 0x2
 8960 31ac 08       		.byte	0x8
 8961 31ad 64       		.byte	0x64
 8962 31ae 39       		.uleb128 0x39
 8963 31af 02       		.uleb128 0x2
 8964 31b0 7D       		.byte	0x7d
 8965 31b1 00       		.sleb128 0
 8966 31b2 02       		.uleb128 0x2
 8967 31b3 77       		.byte	0x77
 8968 31b4 00       		.sleb128 0
ARM GAS  C:\Users\ASUS\AppData\Local\Temp\ccYYtRfk.s 			page 206


 8969 31b5 00       		.byte	0
 8970 31b6 00       		.byte	0
 8971 31b7 41       		.uleb128 0x41
 8972 31b8 19240000 		.4byte	0x2419
 8973 31bc 76000000 		.4byte	.LBB79
 8974 31c0 0E000000 		.4byte	.LBE79-.LBB79
 8975 31c4 06       		.byte	0x6
 8976 31c5 46       		.byte	0x46
 8977 31c6 0E320000 		.4byte	0x320e
 8978 31ca 42       		.uleb128 0x42
 8979 31cb 42240000 		.4byte	0x2442
 8980 31cf 45080000 		.4byte	.LLST65
 8981 31d3 42       		.uleb128 0x42
 8982 31d4 36240000 		.4byte	0x2436
 8983 31d8 5A080000 		.4byte	.LLST66
 8984 31dc 42       		.uleb128 0x42
 8985 31dd 2A240000 		.4byte	0x242a
 8986 31e1 6D080000 		.4byte	.LLST67
 8987 31e5 38       		.uleb128 0x38
 8988 31e6 84000000 		.4byte	.LVL141
 8989 31ea 7D3F0000 		.4byte	0x3f7d
 8990 31ee 39       		.uleb128 0x39
 8991 31ef 01       		.uleb128 0x1
 8992 31f0 50       		.byte	0x50
 8993 31f1 02       		.uleb128 0x2
 8994 31f2 74       		.byte	0x74
 8995 31f3 00       		.sleb128 0
 8996 31f4 39       		.uleb128 0x39
 8997 31f5 01       		.uleb128 0x1
 8998 31f6 51       		.byte	0x51
 8999 31f7 01       		.uleb128 0x1
 9000 31f8 31       		.byte	0x31
 9001 31f9 39       		.uleb128 0x39
 9002 31fa 01       		.uleb128 0x1
 9003 31fb 52       		.byte	0x52
 9004 31fc 02       		.uleb128 0x2
 9005 31fd 75       		.byte	0x75
 9006 31fe 00       		.sleb128 0
 9007 31ff 39       		.uleb128 0x39
 9008 3200 01       		.uleb128 0x1
 9009 3201 53       		.byte	0x53
 9010 3202 02       		.uleb128 0x2
 9011 3203 08       		.byte	0x8
 9012 3204 64       		.byte	0x64
 9013 3205 39       		.uleb128 0x39
 9014 3206 02       		.uleb128 0x2
 9015 3207 7D       		.byte	0x7d
 9016 3208 00       		.sleb128 0
 9017 3209 02       		.uleb128 0x2
 9018 320a 77       		.byte	0x77
 9019 320b 00       		.sleb128 0
 9020 320c 00       		.byte	0
 9021 320d 00       		.byte	0
 9022 320e 41       		.uleb128 0x41
 9023 320f FB230000 		.4byte	0x23fb
 9024 3213 8C000000 		.4byte	.LBB81
 9025 3217 0A000000 		.4byte	.LBE81-.LBB81
ARM GAS  C:\Users\ASUS\AppData\Local\Temp\ccYYtRfk.s 			page 207


 9026 321b 06       		.byte	0x6
 9027 321c 49       		.byte	0x49
 9028 321d 47320000 		.4byte	0x3247
 9029 3221 42       		.uleb128 0x42
 9030 3222 0C240000 		.4byte	0x240c
 9031 3226 81080000 		.4byte	.LLST68
 9032 322a 38       		.uleb128 0x38
 9033 322b 96000000 		.4byte	.LVL143
 9034 322f 893F0000 		.4byte	0x3f89
 9035 3233 39       		.uleb128 0x39
 9036 3234 01       		.uleb128 0x1
 9037 3235 50       		.byte	0x50
 9038 3236 02       		.uleb128 0x2
 9039 3237 74       		.byte	0x74
 9040 3238 00       		.sleb128 0
 9041 3239 39       		.uleb128 0x39
 9042 323a 01       		.uleb128 0x1
 9043 323b 51       		.byte	0x51
 9044 323c 02       		.uleb128 0x2
 9045 323d 08       		.byte	0x8
 9046 323e 64       		.byte	0x64
 9047 323f 39       		.uleb128 0x39
 9048 3240 01       		.uleb128 0x1
 9049 3241 52       		.byte	0x52
 9050 3242 02       		.uleb128 0x2
 9051 3243 77       		.byte	0x77
 9052 3244 00       		.sleb128 0
 9053 3245 00       		.byte	0
 9054 3246 00       		.byte	0
 9055 3247 3E       		.uleb128 0x3e
 9056 3248 34000000 		.4byte	.LVL134
 9057 324c 2B3F0000 		.4byte	0x3f2b
 9058 3250 5A320000 		.4byte	0x325a
 9059 3254 39       		.uleb128 0x39
 9060 3255 01       		.uleb128 0x1
 9061 3256 50       		.byte	0x50
 9062 3257 01       		.uleb128 0x1
 9063 3258 31       		.byte	0x31
 9064 3259 00       		.byte	0
 9065 325a 3E       		.uleb128 0x3e
 9066 325b 48000000 		.4byte	.LVL136
 9067 325f 2B3F0000 		.4byte	0x3f2b
 9068 3263 6D320000 		.4byte	0x326d
 9069 3267 39       		.uleb128 0x39
 9070 3268 01       		.uleb128 0x1
 9071 3269 50       		.byte	0x50
 9072 326a 01       		.uleb128 0x1
 9073 326b 31       		.byte	0x31
 9074 326c 00       		.byte	0
 9075 326d 3E       		.uleb128 0x3e
 9076 326e 5E000000 		.4byte	.LVL138
 9077 3272 2B3F0000 		.4byte	0x3f2b
 9078 3276 80320000 		.4byte	0x3280
 9079 327a 39       		.uleb128 0x39
 9080 327b 01       		.uleb128 0x1
 9081 327c 50       		.byte	0x50
 9082 327d 01       		.uleb128 0x1
ARM GAS  C:\Users\ASUS\AppData\Local\Temp\ccYYtRfk.s 			page 208


 9083 327e 31       		.byte	0x31
 9084 327f 00       		.byte	0
 9085 3280 3E       		.uleb128 0x3e
 9086 3281 76000000 		.4byte	.LVL140
 9087 3285 2B3F0000 		.4byte	0x3f2b
 9088 3289 93320000 		.4byte	0x3293
 9089 328d 39       		.uleb128 0x39
 9090 328e 01       		.uleb128 0x1
 9091 328f 50       		.byte	0x50
 9092 3290 01       		.uleb128 0x1
 9093 3291 31       		.byte	0x31
 9094 3292 00       		.byte	0
 9095 3293 3E       		.uleb128 0x3e
 9096 3294 8C000000 		.4byte	.LVL142
 9097 3298 2B3F0000 		.4byte	0x3f2b
 9098 329c A6320000 		.4byte	0x32a6
 9099 32a0 39       		.uleb128 0x39
 9100 32a1 01       		.uleb128 0x1
 9101 32a2 50       		.byte	0x50
 9102 32a3 01       		.uleb128 0x1
 9103 32a4 31       		.byte	0x31
 9104 32a5 00       		.byte	0
 9105 32a6 38       		.uleb128 0x38
 9106 32a7 B0000000 		.4byte	.LVL144
 9107 32ab 063F0000 		.4byte	0x3f06
 9108 32af 39       		.uleb128 0x39
 9109 32b0 01       		.uleb128 0x1
 9110 32b1 50       		.byte	0x50
 9111 32b2 05       		.uleb128 0x5
 9112 32b3 03       		.byte	0x3
 9113 32b4 40000000 		.4byte	.LC13
 9114 32b8 39       		.uleb128 0x39
 9115 32b9 02       		.uleb128 0x2
 9116 32ba 7D       		.byte	0x7d
 9117 32bb 04       		.sleb128 4
 9118 32bc 02       		.uleb128 0x2
 9119 32bd 74       		.byte	0x74
 9120 32be 00       		.sleb128 0
 9121 32bf 39       		.uleb128 0x39
 9122 32c0 02       		.uleb128 0x2
 9123 32c1 7D       		.byte	0x7d
 9124 32c2 08       		.sleb128 8
 9125 32c3 02       		.uleb128 0x2
 9126 32c4 76       		.byte	0x76
 9127 32c5 00       		.sleb128 0
 9128 32c6 00       		.byte	0
 9129 32c7 00       		.byte	0
 9130 32c8 33       		.uleb128 0x33
 9131 32c9 4C340000 		.4byte	.LASF812
 9132 32cd 06       		.byte	0x6
 9133 32ce 56       		.byte	0x56
 9134 32cf 00000000 		.4byte	.LFB476
 9135 32d3 7C000000 		.4byte	.LFE476-.LFB476
 9136 32d7 01       		.uleb128 0x1
 9137 32d8 9C       		.byte	0x9c
 9138 32d9 92340000 		.4byte	0x3492
 9139 32dd 3D       		.uleb128 0x3d
ARM GAS  C:\Users\ASUS\AppData\Local\Temp\ccYYtRfk.s 			page 209


 9140 32de 72656700 		.ascii	"reg\000"
 9141 32e2 06       		.byte	0x6
 9142 32e3 56       		.byte	0x56
 9143 32e4 35050000 		.4byte	0x535
 9144 32e8 96080000 		.4byte	.LLST69
 9145 32ec 34       		.uleb128 0x34
 9146 32ed 1E0A0000 		.4byte	.LASF718
 9147 32f1 06       		.byte	0x6
 9148 32f2 56       		.byte	0x56
 9149 32f3 35050000 		.4byte	0x535
 9150 32f7 B7080000 		.4byte	.LLST70
 9151 32fb 3C       		.uleb128 0x3c
 9152 32fc C4090000 		.4byte	.LASF792
 9153 3300 06       		.byte	0x6
 9154 3301 58       		.byte	0x58
 9155 3302 EB2B0000 		.4byte	0x2beb
 9156 3306 02       		.uleb128 0x2
 9157 3307 91       		.byte	0x91
 9158 3308 64       		.sleb128 -28
 9159 3309 3C       		.uleb128 0x3c
 9160 330a C9090000 		.4byte	.LASF793
 9161 330e 06       		.byte	0x6
 9162 330f 59       		.byte	0x59
 9163 3310 EB2B0000 		.4byte	0x2beb
 9164 3314 02       		.uleb128 0x2
 9165 3315 91       		.byte	0x91
 9166 3316 60       		.sleb128 -32
 9167 3317 3C       		.uleb128 0x3c
 9168 3318 CE090000 		.4byte	.LASF794
 9169 331c 06       		.byte	0x6
 9170 331d 5A       		.byte	0x5a
 9171 331e EB2B0000 		.4byte	0x2beb
 9172 3322 02       		.uleb128 0x2
 9173 3323 91       		.byte	0x91
 9174 3324 5C       		.sleb128 -36
 9175 3325 3C       		.uleb128 0x3c
 9176 3326 D3090000 		.4byte	.LASF795
 9177 332a 06       		.byte	0x6
 9178 332b 5B       		.byte	0x5b
 9179 332c EB2B0000 		.4byte	0x2beb
 9180 3330 02       		.uleb128 0x2
 9181 3331 91       		.byte	0x91
 9182 3332 58       		.sleb128 -40
 9183 3333 41       		.uleb128 0x41
 9184 3334 AF240000 		.4byte	0x24af
 9185 3338 12000000 		.4byte	.LBB83
 9186 333c 12000000 		.4byte	.LBE83-.LBB83
 9187 3340 06       		.byte	0x6
 9188 3341 5E       		.byte	0x5e
 9189 3342 8F330000 		.4byte	0x338f
 9190 3346 42       		.uleb128 0x42
 9191 3347 D8240000 		.4byte	0x24d8
 9192 334b D8080000 		.4byte	.LLST71
 9193 334f 42       		.uleb128 0x42
 9194 3350 CC240000 		.4byte	0x24cc
 9195 3354 ED080000 		.4byte	.LLST72
 9196 3358 42       		.uleb128 0x42
ARM GAS  C:\Users\ASUS\AppData\Local\Temp\ccYYtRfk.s 			page 210


 9197 3359 C0240000 		.4byte	0x24c0
 9198 335d 01090000 		.4byte	.LLST73
 9199 3361 38       		.uleb128 0x38
 9200 3362 24000000 		.4byte	.LVL149
 9201 3366 593F0000 		.4byte	0x3f59
 9202 336a 39       		.uleb128 0x39
 9203 336b 01       		.uleb128 0x1
 9204 336c 50       		.byte	0x50
 9205 336d 02       		.uleb128 0x2
 9206 336e 74       		.byte	0x74
 9207 336f 00       		.sleb128 0
 9208 3370 39       		.uleb128 0x39
 9209 3371 01       		.uleb128 0x1
 9210 3372 51       		.byte	0x51
 9211 3373 02       		.uleb128 0x2
 9212 3374 08       		.byte	0x8
 9213 3375 68       		.byte	0x68
 9214 3376 39       		.uleb128 0x39
 9215 3377 01       		.uleb128 0x1
 9216 3378 52       		.byte	0x52
 9217 3379 03       		.uleb128 0x3
 9218 337a 91       		.byte	0x91
 9219 337b 58       		.sleb128 -40
 9220 337c 06       		.byte	0x6
 9221 337d 39       		.uleb128 0x39
 9222 337e 01       		.uleb128 0x1
 9223 337f 53       		.byte	0x53
 9224 3380 05       		.uleb128 0x5
 9225 3381 91       		.byte	0x91
 9226 3382 58       		.sleb128 -40
 9227 3383 06       		.byte	0x6
 9228 3384 23       		.byte	0x23
 9229 3385 64       		.uleb128 0x64
 9230 3386 39       		.uleb128 0x39
 9231 3387 02       		.uleb128 0x2
 9232 3388 7D       		.byte	0x7d
 9233 3389 00       		.sleb128 0
 9234 338a 02       		.uleb128 0x2
 9235 338b 75       		.byte	0x75
 9236 338c 00       		.sleb128 0
 9237 338d 00       		.byte	0
 9238 338e 00       		.byte	0
 9239 338f 41       		.uleb128 0x41
 9240 3390 85240000 		.4byte	0x2485
 9241 3394 2C000000 		.4byte	.LBB85
 9242 3398 0C000000 		.4byte	.LBE85-.LBB85
 9243 339c 06       		.byte	0x6
 9244 339d 61       		.byte	0x61
 9245 339e D7330000 		.4byte	0x33d7
 9246 33a2 42       		.uleb128 0x42
 9247 33a3 A2240000 		.4byte	0x24a2
 9248 33a7 16090000 		.4byte	.LLST74
 9249 33ab 42       		.uleb128 0x42
 9250 33ac 96240000 		.4byte	0x2496
 9251 33b0 2B090000 		.4byte	.LLST75
 9252 33b4 38       		.uleb128 0x38
 9253 33b5 38000000 		.4byte	.LVL151
ARM GAS  C:\Users\ASUS\AppData\Local\Temp\ccYYtRfk.s 			page 211


 9254 33b9 653F0000 		.4byte	0x3f65
 9255 33bd 39       		.uleb128 0x39
 9256 33be 01       		.uleb128 0x1
 9257 33bf 50       		.byte	0x50
 9258 33c0 02       		.uleb128 0x2
 9259 33c1 74       		.byte	0x74
 9260 33c2 00       		.sleb128 0
 9261 33c3 39       		.uleb128 0x39
 9262 33c4 01       		.uleb128 0x1
 9263 33c5 51       		.byte	0x51
 9264 33c6 02       		.uleb128 0x2
 9265 33c7 77       		.byte	0x77
 9266 33c8 00       		.sleb128 0
 9267 33c9 39       		.uleb128 0x39
 9268 33ca 01       		.uleb128 0x1
 9269 33cb 52       		.byte	0x52
 9270 33cc 02       		.uleb128 0x2
 9271 33cd 08       		.byte	0x8
 9272 33ce 64       		.byte	0x64
 9273 33cf 39       		.uleb128 0x39
 9274 33d0 01       		.uleb128 0x1
 9275 33d1 53       		.byte	0x53
 9276 33d2 02       		.uleb128 0x2
 9277 33d3 75       		.byte	0x75
 9278 33d4 00       		.sleb128 0
 9279 33d5 00       		.byte	0
 9280 33d6 00       		.byte	0
 9281 33d7 41       		.uleb128 0x41
 9282 33d8 85240000 		.4byte	0x2485
 9283 33dc 3A000000 		.4byte	.LBB87
 9284 33e0 0C000000 		.4byte	.LBE87-.LBB87
 9285 33e4 06       		.byte	0x6
 9286 33e5 62       		.byte	0x62
 9287 33e6 1F340000 		.4byte	0x341f
 9288 33ea 42       		.uleb128 0x42
 9289 33eb A2240000 		.4byte	0x24a2
 9290 33ef 3E090000 		.4byte	.LLST76
 9291 33f3 42       		.uleb128 0x42
 9292 33f4 96240000 		.4byte	0x2496
 9293 33f8 53090000 		.4byte	.LLST77
 9294 33fc 38       		.uleb128 0x38
 9295 33fd 46000000 		.4byte	.LVL153
 9296 3401 653F0000 		.4byte	0x3f65
 9297 3405 39       		.uleb128 0x39
 9298 3406 01       		.uleb128 0x1
 9299 3407 50       		.byte	0x50
 9300 3408 02       		.uleb128 0x2
 9301 3409 74       		.byte	0x74
 9302 340a 00       		.sleb128 0
 9303 340b 39       		.uleb128 0x39
 9304 340c 01       		.uleb128 0x1
 9305 340d 51       		.byte	0x51
 9306 340e 02       		.uleb128 0x2
 9307 340f 76       		.byte	0x76
 9308 3410 00       		.sleb128 0
 9309 3411 39       		.uleb128 0x39
 9310 3412 01       		.uleb128 0x1
ARM GAS  C:\Users\ASUS\AppData\Local\Temp\ccYYtRfk.s 			page 212


 9311 3413 52       		.byte	0x52
 9312 3414 02       		.uleb128 0x2
 9313 3415 08       		.byte	0x8
 9314 3416 64       		.byte	0x64
 9315 3417 39       		.uleb128 0x39
 9316 3418 01       		.uleb128 0x1
 9317 3419 53       		.byte	0x53
 9318 341a 02       		.uleb128 0x2
 9319 341b 75       		.byte	0x75
 9320 341c 00       		.sleb128 0
 9321 341d 00       		.byte	0
 9322 341e 00       		.byte	0
 9323 341f 41       		.uleb128 0x41
 9324 3420 FB230000 		.4byte	0x23fb
 9325 3424 4E000000 		.4byte	.LBB89
 9326 3428 0A000000 		.4byte	.LBE89-.LBB89
 9327 342c 06       		.byte	0x6
 9328 342d 65       		.byte	0x65
 9329 342e 58340000 		.4byte	0x3458
 9330 3432 42       		.uleb128 0x42
 9331 3433 0C240000 		.4byte	0x240c
 9332 3437 66090000 		.4byte	.LLST78
 9333 343b 38       		.uleb128 0x38
 9334 343c 58000000 		.4byte	.LVL155
 9335 3440 893F0000 		.4byte	0x3f89
 9336 3444 39       		.uleb128 0x39
 9337 3445 01       		.uleb128 0x1
 9338 3446 50       		.byte	0x50
 9339 3447 02       		.uleb128 0x2
 9340 3448 74       		.byte	0x74
 9341 3449 00       		.sleb128 0
 9342 344a 39       		.uleb128 0x39
 9343 344b 01       		.uleb128 0x1
 9344 344c 51       		.byte	0x51
 9345 344d 02       		.uleb128 0x2
 9346 344e 08       		.byte	0x8
 9347 344f 64       		.byte	0x64
 9348 3450 39       		.uleb128 0x39
 9349 3451 01       		.uleb128 0x1
 9350 3452 52       		.byte	0x52
 9351 3453 02       		.uleb128 0x2
 9352 3454 75       		.byte	0x75
 9353 3455 00       		.sleb128 0
 9354 3456 00       		.byte	0
 9355 3457 00       		.byte	0
 9356 3458 3E       		.uleb128 0x3e
 9357 3459 2C000000 		.4byte	.LVL150
 9358 345d 2B3F0000 		.4byte	0x3f2b
 9359 3461 6B340000 		.4byte	0x346b
 9360 3465 39       		.uleb128 0x39
 9361 3466 01       		.uleb128 0x1
 9362 3467 50       		.byte	0x50
 9363 3468 01       		.uleb128 0x1
 9364 3469 31       		.byte	0x31
 9365 346a 00       		.byte	0
 9366 346b 3E       		.uleb128 0x3e
 9367 346c 4E000000 		.4byte	.LVL154
ARM GAS  C:\Users\ASUS\AppData\Local\Temp\ccYYtRfk.s 			page 213


 9368 3470 2B3F0000 		.4byte	0x3f2b
 9369 3474 7E340000 		.4byte	0x347e
 9370 3478 39       		.uleb128 0x39
 9371 3479 01       		.uleb128 0x1
 9372 347a 50       		.byte	0x50
 9373 347b 01       		.uleb128 0x1
 9374 347c 31       		.byte	0x31
 9375 347d 00       		.byte	0
 9376 347e 38       		.uleb128 0x38
 9377 347f 6A000000 		.4byte	.LVL156
 9378 3483 063F0000 		.4byte	0x3f06
 9379 3487 39       		.uleb128 0x39
 9380 3488 01       		.uleb128 0x1
 9381 3489 50       		.byte	0x50
 9382 348a 05       		.uleb128 0x5
 9383 348b 03       		.byte	0x3
 9384 348c 98000000 		.4byte	.LC16
 9385 3490 00       		.byte	0
 9386 3491 00       		.byte	0
 9387 3492 33       		.uleb128 0x33
 9388 3493 4A310000 		.4byte	.LASF813
 9389 3497 06       		.byte	0x6
 9390 3498 6B       		.byte	0x6b
 9391 3499 00000000 		.4byte	.LFB477
 9392 349d 22000000 		.4byte	.LFE477-.LFB477
 9393 34a1 01       		.uleb128 0x1
 9394 34a2 9C       		.byte	0x9c
 9395 34a3 0D350000 		.4byte	0x350d
 9396 34a7 34       		.uleb128 0x34
 9397 34a8 09140000 		.4byte	.LASF814
 9398 34ac 06       		.byte	0x6
 9399 34ad 6B       		.byte	0x6b
 9400 34ae D3220000 		.4byte	0x22d3
 9401 34b2 7B090000 		.4byte	.LLST79
 9402 34b6 34       		.uleb128 0x34
 9403 34b7 0E140000 		.4byte	.LASF815
 9404 34bb 06       		.byte	0x6
 9405 34bc 6B       		.byte	0x6b
 9406 34bd D3220000 		.4byte	0x22d3
 9407 34c1 A7090000 		.4byte	.LLST80
 9408 34c5 34       		.uleb128 0x34
 9409 34c6 13140000 		.4byte	.LASF816
 9410 34ca 06       		.byte	0x6
 9411 34cb 6B       		.byte	0x6b
 9412 34cc D3220000 		.4byte	0x22d3
 9413 34d0 D3090000 		.4byte	.LLST81
 9414 34d4 3E       		.uleb128 0x3e
 9415 34d5 0E000000 		.4byte	.LVL159
 9416 34d9 DB2F0000 		.4byte	0x2fdb
 9417 34dd E8340000 		.4byte	0x34e8
 9418 34e1 39       		.uleb128 0x39
 9419 34e2 01       		.uleb128 0x1
 9420 34e3 50       		.byte	0x50
 9421 34e4 02       		.uleb128 0x2
 9422 34e5 08       		.byte	0x8
 9423 34e6 2D       		.byte	0x2d
 9424 34e7 00       		.byte	0
ARM GAS  C:\Users\ASUS\AppData\Local\Temp\ccYYtRfk.s 			page 214


 9425 34e8 3E       		.uleb128 0x3e
 9426 34e9 16000000 		.4byte	.LVL160
 9427 34ed DB2F0000 		.4byte	0x2fdb
 9428 34f1 FC340000 		.4byte	0x34fc
 9429 34f5 39       		.uleb128 0x39
 9430 34f6 01       		.uleb128 0x1
 9431 34f7 50       		.byte	0x50
 9432 34f8 02       		.uleb128 0x2
 9433 34f9 08       		.byte	0x8
 9434 34fa 2F       		.byte	0x2f
 9435 34fb 00       		.byte	0
 9436 34fc 38       		.uleb128 0x38
 9437 34fd 1E000000 		.4byte	.LVL161
 9438 3501 DB2F0000 		.4byte	0x2fdb
 9439 3505 39       		.uleb128 0x39
 9440 3506 01       		.uleb128 0x1
 9441 3507 50       		.byte	0x50
 9442 3508 02       		.uleb128 0x2
 9443 3509 08       		.byte	0x8
 9444 350a 31       		.byte	0x31
 9445 350b 00       		.byte	0
 9446 350c 00       		.byte	0
 9447 350d 33       		.uleb128 0x33
 9448 350e 5C130000 		.4byte	.LASF817
 9449 3512 06       		.byte	0x6
 9450 3513 73       		.byte	0x73
 9451 3514 00000000 		.4byte	.LFB478
 9452 3518 22000000 		.4byte	.LFE478-.LFB478
 9453 351c 01       		.uleb128 0x1
 9454 351d 9C       		.byte	0x9c
 9455 351e 88350000 		.4byte	0x3588
 9456 3522 34       		.uleb128 0x34
 9457 3523 E5180000 		.4byte	.LASF818
 9458 3527 06       		.byte	0x6
 9459 3528 73       		.byte	0x73
 9460 3529 D3220000 		.4byte	0x22d3
 9461 352d FF090000 		.4byte	.LLST82
 9462 3531 34       		.uleb128 0x34
 9463 3532 EB180000 		.4byte	.LASF819
 9464 3536 06       		.byte	0x6
 9465 3537 73       		.byte	0x73
 9466 3538 D3220000 		.4byte	0x22d3
 9467 353c 2B0A0000 		.4byte	.LLST83
 9468 3540 34       		.uleb128 0x34
 9469 3541 F1180000 		.4byte	.LASF820
 9470 3545 06       		.byte	0x6
 9471 3546 73       		.byte	0x73
 9472 3547 D3220000 		.4byte	0x22d3
 9473 354b 570A0000 		.4byte	.LLST84
 9474 354f 3E       		.uleb128 0x3e
 9475 3550 0E000000 		.4byte	.LVL167
 9476 3554 DB2F0000 		.4byte	0x2fdb
 9477 3558 63350000 		.4byte	0x3563
 9478 355c 39       		.uleb128 0x39
 9479 355d 01       		.uleb128 0x1
 9480 355e 50       		.byte	0x50
 9481 355f 02       		.uleb128 0x2
ARM GAS  C:\Users\ASUS\AppData\Local\Temp\ccYYtRfk.s 			page 215


 9482 3560 08       		.byte	0x8
 9483 3561 33       		.byte	0x33
 9484 3562 00       		.byte	0
 9485 3563 3E       		.uleb128 0x3e
 9486 3564 16000000 		.4byte	.LVL168
 9487 3568 DB2F0000 		.4byte	0x2fdb
 9488 356c 77350000 		.4byte	0x3577
 9489 3570 39       		.uleb128 0x39
 9490 3571 01       		.uleb128 0x1
 9491 3572 50       		.byte	0x50
 9492 3573 02       		.uleb128 0x2
 9493 3574 08       		.byte	0x8
 9494 3575 35       		.byte	0x35
 9495 3576 00       		.byte	0
 9496 3577 38       		.uleb128 0x38
 9497 3578 1E000000 		.4byte	.LVL169
 9498 357c DB2F0000 		.4byte	0x2fdb
 9499 3580 39       		.uleb128 0x39
 9500 3581 01       		.uleb128 0x1
 9501 3582 50       		.byte	0x50
 9502 3583 02       		.uleb128 0x2
 9503 3584 08       		.byte	0x8
 9504 3585 37       		.byte	0x37
 9505 3586 00       		.byte	0
 9506 3587 00       		.byte	0
 9507 3588 33       		.uleb128 0x33
 9508 3589 91170000 		.4byte	.LASF821
 9509 358d 06       		.byte	0x6
 9510 358e 7B       		.byte	0x7b
 9511 358f 00000000 		.4byte	.LFB479
 9512 3593 14000000 		.4byte	.LFE479-.LFB479
 9513 3597 01       		.uleb128 0x1
 9514 3598 9C       		.byte	0x9c
 9515 3599 D8350000 		.4byte	0x35d8
 9516 359d 3D       		.uleb128 0x3d
 9517 359e 7800     		.ascii	"x\000"
 9518 35a0 06       		.byte	0x6
 9519 35a1 7B       		.byte	0x7b
 9520 35a2 4B050000 		.4byte	0x54b
 9521 35a6 830A0000 		.4byte	.LLST85
 9522 35aa 3D       		.uleb128 0x3d
 9523 35ab 7900     		.ascii	"y\000"
 9524 35ad 06       		.byte	0x6
 9525 35ae 7B       		.byte	0x7b
 9526 35af 4B050000 		.4byte	0x54b
 9527 35b3 A40A0000 		.4byte	.LLST86
 9528 35b7 3D       		.uleb128 0x3d
 9529 35b8 7A00     		.ascii	"z\000"
 9530 35ba 06       		.byte	0x6
 9531 35bb 7B       		.byte	0x7b
 9532 35bc 4B050000 		.4byte	0x54b
 9533 35c0 C50A0000 		.4byte	.LLST87
 9534 35c4 38       		.uleb128 0x38
 9535 35c5 0E000000 		.4byte	.LVL177
 9536 35c9 063F0000 		.4byte	0x3f06
 9537 35cd 39       		.uleb128 0x39
 9538 35ce 01       		.uleb128 0x1
ARM GAS  C:\Users\ASUS\AppData\Local\Temp\ccYYtRfk.s 			page 216


 9539 35cf 50       		.byte	0x50
 9540 35d0 05       		.uleb128 0x5
 9541 35d1 03       		.byte	0x3
 9542 35d2 68010000 		.4byte	.LC31
 9543 35d6 00       		.byte	0
 9544 35d7 00       		.byte	0
 9545 35d8 33       		.uleb128 0x33
 9546 35d9 66260000 		.4byte	.LASF822
 9547 35dd 06       		.byte	0x6
 9548 35de 83       		.byte	0x83
 9549 35df 00000000 		.4byte	.LFB480
 9550 35e3 14000000 		.4byte	.LFE480-.LFB480
 9551 35e7 01       		.uleb128 0x1
 9552 35e8 9C       		.byte	0x9c
 9553 35e9 28360000 		.4byte	0x3628
 9554 35ed 3D       		.uleb128 0x3d
 9555 35ee 7800     		.ascii	"x\000"
 9556 35f0 06       		.byte	0x6
 9557 35f1 83       		.byte	0x83
 9558 35f2 4B050000 		.4byte	0x54b
 9559 35f6 E60A0000 		.4byte	.LLST88
 9560 35fa 3D       		.uleb128 0x3d
 9561 35fb 7900     		.ascii	"y\000"
 9562 35fd 06       		.byte	0x6
 9563 35fe 83       		.byte	0x83
 9564 35ff 4B050000 		.4byte	0x54b
 9565 3603 070B0000 		.4byte	.LLST89
 9566 3607 3D       		.uleb128 0x3d
 9567 3608 7A00     		.ascii	"z\000"
 9568 360a 06       		.byte	0x6
 9569 360b 83       		.byte	0x83
 9570 360c 4B050000 		.4byte	0x54b
 9571 3610 280B0000 		.4byte	.LLST90
 9572 3614 38       		.uleb128 0x38
 9573 3615 0E000000 		.4byte	.LVL182
 9574 3619 063F0000 		.4byte	0x3f06
 9575 361d 39       		.uleb128 0x39
 9576 361e 01       		.uleb128 0x1
 9577 361f 50       		.byte	0x50
 9578 3620 05       		.uleb128 0x5
 9579 3621 03       		.byte	0x3
 9580 3622 C0010000 		.4byte	.LC33
 9581 3626 00       		.byte	0
 9582 3627 00       		.byte	0
 9583 3628 33       		.uleb128 0x33
 9584 3629 9A170000 		.4byte	.LASF823
 9585 362d 06       		.byte	0x6
 9586 362e 8B       		.byte	0x8b
 9587 362f 00000000 		.4byte	.LFB481
 9588 3633 8C000000 		.4byte	.LFE481-.LFB481
 9589 3637 01       		.uleb128 0x1
 9590 3638 9C       		.byte	0x9c
 9591 3639 26370000 		.4byte	0x3726
 9592 363d 34       		.uleb128 0x34
 9593 363e 09140000 		.4byte	.LASF814
 9594 3642 06       		.byte	0x6
 9595 3643 8B       		.byte	0x8b
ARM GAS  C:\Users\ASUS\AppData\Local\Temp\ccYYtRfk.s 			page 217


 9596 3644 4B050000 		.4byte	0x54b
 9597 3648 490B0000 		.4byte	.LLST91
 9598 364c 34       		.uleb128 0x34
 9599 364d 0E140000 		.4byte	.LASF815
 9600 3651 06       		.byte	0x6
 9601 3652 8B       		.byte	0x8b
 9602 3653 4B050000 		.4byte	0x54b
 9603 3657 800B0000 		.4byte	.LLST92
 9604 365b 34       		.uleb128 0x34
 9605 365c 13140000 		.4byte	.LASF816
 9606 3660 06       		.byte	0x6
 9607 3661 8B       		.byte	0x8b
 9608 3662 4B050000 		.4byte	0x54b
 9609 3666 B70B0000 		.4byte	.LLST93
 9610 366a 3D       		.uleb128 0x3d
 9611 366b 617100   		.ascii	"aq\000"
 9612 366e 06       		.byte	0x6
 9613 366f 8B       		.byte	0x8b
 9614 3670 83230000 		.4byte	0x2383
 9615 3674 FA0B0000 		.4byte	.LLST94
 9616 3678 36       		.uleb128 0x36
 9617 3679 0F300000 		.4byte	.LASF824
 9618 367d 06       		.byte	0x6
 9619 367e 8D       		.byte	0x8d
 9620 367f 27050000 		.4byte	0x527
 9621 3683 260C0000 		.4byte	.LLST95
 9622 3687 36       		.uleb128 0x36
 9623 3688 2E050000 		.4byte	.LASF825
 9624 368c 06       		.byte	0x6
 9625 368d 8E       		.byte	0x8e
 9626 368e 27050000 		.4byte	0x527
 9627 3692 450C0000 		.4byte	.LLST96
 9628 3696 3E       		.uleb128 0x3e
 9629 3697 44000000 		.4byte	.LVL191
 9630 369b 953F0000 		.4byte	0x3f95
 9631 369f B0360000 		.4byte	0x36b0
 9632 36a3 39       		.uleb128 0x39
 9633 36a4 01       		.uleb128 0x1
 9634 36a5 50       		.byte	0x50
 9635 36a6 02       		.uleb128 0x2
 9636 36a7 74       		.byte	0x74
 9637 36a8 00       		.sleb128 0
 9638 36a9 39       		.uleb128 0x39
 9639 36aa 01       		.uleb128 0x1
 9640 36ab 51       		.byte	0x51
 9641 36ac 02       		.uleb128 0x2
 9642 36ad 7D       		.byte	0x7d
 9643 36ae 06       		.sleb128 6
 9644 36af 00       		.byte	0
 9645 36b0 3E       		.uleb128 0x3e
 9646 36b1 4E000000 		.4byte	.LVL192
 9647 36b5 113F0000 		.4byte	0x3f11
 9648 36b9 C7360000 		.4byte	0x36c7
 9649 36bd 39       		.uleb128 0x39
 9650 36be 01       		.uleb128 0x1
 9651 36bf 50       		.byte	0x50
 9652 36c0 05       		.uleb128 0x5
ARM GAS  C:\Users\ASUS\AppData\Local\Temp\ccYYtRfk.s 			page 218


 9653 36c1 03       		.byte	0x3
 9654 36c2 0C020000 		.4byte	.LC35
 9655 36c6 00       		.byte	0
 9656 36c7 3E       		.uleb128 0x3e
 9657 36c8 56000000 		.4byte	.LVL194
 9658 36cc 953F0000 		.4byte	0x3f95
 9659 36d0 E1360000 		.4byte	0x36e1
 9660 36d4 39       		.uleb128 0x39
 9661 36d5 01       		.uleb128 0x1
 9662 36d6 50       		.byte	0x50
 9663 36d7 02       		.uleb128 0x2
 9664 36d8 74       		.byte	0x74
 9665 36d9 00       		.sleb128 0
 9666 36da 39       		.uleb128 0x39
 9667 36db 01       		.uleb128 0x1
 9668 36dc 51       		.byte	0x51
 9669 36dd 02       		.uleb128 0x2
 9670 36de 91       		.byte	0x91
 9671 36df 6C       		.sleb128 -20
 9672 36e0 00       		.byte	0
 9673 36e1 3E       		.uleb128 0x3e
 9674 36e2 60000000 		.4byte	.LVL195
 9675 36e6 113F0000 		.4byte	0x3f11
 9676 36ea F8360000 		.4byte	0x36f8
 9677 36ee 39       		.uleb128 0x39
 9678 36ef 01       		.uleb128 0x1
 9679 36f0 50       		.byte	0x50
 9680 36f1 05       		.uleb128 0x5
 9681 36f2 03       		.byte	0x3
 9682 36f3 0C020000 		.4byte	.LC35
 9683 36f7 00       		.byte	0
 9684 36f8 3E       		.uleb128 0x3e
 9685 36f9 6A000000 		.4byte	.LVL197
 9686 36fd 953F0000 		.4byte	0x3f95
 9687 3701 12370000 		.4byte	0x3712
 9688 3705 39       		.uleb128 0x39
 9689 3706 01       		.uleb128 0x1
 9690 3707 50       		.byte	0x50
 9691 3708 02       		.uleb128 0x2
 9692 3709 74       		.byte	0x74
 9693 370a 00       		.sleb128 0
 9694 370b 39       		.uleb128 0x39
 9695 370c 01       		.uleb128 0x1
 9696 370d 51       		.byte	0x51
 9697 370e 02       		.uleb128 0x2
 9698 370f 7D       		.byte	0x7d
 9699 3710 02       		.sleb128 2
 9700 3711 00       		.byte	0
 9701 3712 38       		.uleb128 0x38
 9702 3713 74000000 		.4byte	.LVL198
 9703 3717 113F0000 		.4byte	0x3f11
 9704 371b 39       		.uleb128 0x39
 9705 371c 01       		.uleb128 0x1
 9706 371d 50       		.byte	0x50
 9707 371e 05       		.uleb128 0x5
 9708 371f 03       		.byte	0x3
 9709 3720 0C020000 		.4byte	.LC35
ARM GAS  C:\Users\ASUS\AppData\Local\Temp\ccYYtRfk.s 			page 219


 9710 3724 00       		.byte	0
 9711 3725 00       		.byte	0
 9712 3726 33       		.uleb128 0x33
 9713 3727 2C260000 		.4byte	.LASF826
 9714 372b 06       		.byte	0x6
 9715 372c 9F       		.byte	0x9f
 9716 372d 00000000 		.4byte	.LFB482
 9717 3731 9C000000 		.4byte	.LFE482-.LFB482
 9718 3735 01       		.uleb128 0x1
 9719 3736 9C       		.byte	0x9c
 9720 3737 06380000 		.4byte	0x3806
 9721 373b 34       		.uleb128 0x34
 9722 373c E5180000 		.4byte	.LASF818
 9723 3740 06       		.byte	0x6
 9724 3741 9F       		.byte	0x9f
 9725 3742 4B050000 		.4byte	0x54b
 9726 3746 580C0000 		.4byte	.LLST97
 9727 374a 34       		.uleb128 0x34
 9728 374b EB180000 		.4byte	.LASF819
 9729 374f 06       		.byte	0x6
 9730 3750 9F       		.byte	0x9f
 9731 3751 4B050000 		.4byte	0x54b
 9732 3755 A70C0000 		.4byte	.LLST98
 9733 3759 34       		.uleb128 0x34
 9734 375a F1180000 		.4byte	.LASF820
 9735 375e 06       		.byte	0x6
 9736 375f 9F       		.byte	0x9f
 9737 3760 4B050000 		.4byte	0x54b
 9738 3764 F60C0000 		.4byte	.LLST99
 9739 3768 3D       		.uleb128 0x3d
 9740 3769 677100   		.ascii	"gq\000"
 9741 376c 06       		.byte	0x6
 9742 376d 9F       		.byte	0x9f
 9743 376e 83230000 		.4byte	0x2383
 9744 3772 800D0000 		.4byte	.LLST100
 9745 3776 3E       		.uleb128 0x3e
 9746 3777 48000000 		.4byte	.LVL210
 9747 377b 953F0000 		.4byte	0x3f95
 9748 377f 90370000 		.4byte	0x3790
 9749 3783 39       		.uleb128 0x39
 9750 3784 01       		.uleb128 0x1
 9751 3785 50       		.byte	0x50
 9752 3786 02       		.uleb128 0x2
 9753 3787 74       		.byte	0x74
 9754 3788 00       		.sleb128 0
 9755 3789 39       		.uleb128 0x39
 9756 378a 01       		.uleb128 0x1
 9757 378b 51       		.byte	0x51
 9758 378c 02       		.uleb128 0x2
 9759 378d 7D       		.byte	0x7d
 9760 378e 06       		.sleb128 6
 9761 378f 00       		.byte	0
 9762 3790 3E       		.uleb128 0x3e
 9763 3791 52000000 		.4byte	.LVL211
 9764 3795 113F0000 		.4byte	0x3f11
 9765 3799 A7370000 		.4byte	0x37a7
 9766 379d 39       		.uleb128 0x39
ARM GAS  C:\Users\ASUS\AppData\Local\Temp\ccYYtRfk.s 			page 220


 9767 379e 01       		.uleb128 0x1
 9768 379f 50       		.byte	0x50
 9769 37a0 05       		.uleb128 0x5
 9770 37a1 03       		.byte	0x3
 9771 37a2 34020000 		.4byte	.LC39
 9772 37a6 00       		.byte	0
 9773 37a7 3E       		.uleb128 0x3e
 9774 37a8 5A000000 		.4byte	.LVL213
 9775 37ac 953F0000 		.4byte	0x3f95
 9776 37b0 C1370000 		.4byte	0x37c1
 9777 37b4 39       		.uleb128 0x39
 9778 37b5 01       		.uleb128 0x1
 9779 37b6 50       		.byte	0x50
 9780 37b7 02       		.uleb128 0x2
 9781 37b8 74       		.byte	0x74
 9782 37b9 00       		.sleb128 0
 9783 37ba 39       		.uleb128 0x39
 9784 37bb 01       		.uleb128 0x1
 9785 37bc 51       		.byte	0x51
 9786 37bd 02       		.uleb128 0x2
 9787 37be 91       		.byte	0x91
 9788 37bf 74       		.sleb128 -12
 9789 37c0 00       		.byte	0
 9790 37c1 3E       		.uleb128 0x3e
 9791 37c2 64000000 		.4byte	.LVL214
 9792 37c6 113F0000 		.4byte	0x3f11
 9793 37ca D8370000 		.4byte	0x37d8
 9794 37ce 39       		.uleb128 0x39
 9795 37cf 01       		.uleb128 0x1
 9796 37d0 50       		.byte	0x50
 9797 37d1 05       		.uleb128 0x5
 9798 37d2 03       		.byte	0x3
 9799 37d3 34020000 		.4byte	.LC39
 9800 37d7 00       		.byte	0
 9801 37d8 3E       		.uleb128 0x3e
 9802 37d9 6E000000 		.4byte	.LVL216
 9803 37dd 953F0000 		.4byte	0x3f95
 9804 37e1 F2370000 		.4byte	0x37f2
 9805 37e5 39       		.uleb128 0x39
 9806 37e6 01       		.uleb128 0x1
 9807 37e7 50       		.byte	0x50
 9808 37e8 02       		.uleb128 0x2
 9809 37e9 74       		.byte	0x74
 9810 37ea 00       		.sleb128 0
 9811 37eb 39       		.uleb128 0x39
 9812 37ec 01       		.uleb128 0x1
 9813 37ed 51       		.byte	0x51
 9814 37ee 02       		.uleb128 0x2
 9815 37ef 7D       		.byte	0x7d
 9816 37f0 02       		.sleb128 2
 9817 37f1 00       		.byte	0
 9818 37f2 38       		.uleb128 0x38
 9819 37f3 78000000 		.4byte	.LVL217
 9820 37f7 113F0000 		.4byte	0x3f11
 9821 37fb 39       		.uleb128 0x39
 9822 37fc 01       		.uleb128 0x1
 9823 37fd 50       		.byte	0x50
ARM GAS  C:\Users\ASUS\AppData\Local\Temp\ccYYtRfk.s 			page 221


 9824 37fe 05       		.uleb128 0x5
 9825 37ff 03       		.byte	0x3
 9826 3800 34020000 		.4byte	.LC39
 9827 3804 00       		.byte	0
 9828 3805 00       		.byte	0
 9829 3806 40       		.uleb128 0x40
 9830 3807 42310000 		.4byte	.LASF827
 9831 380b 02       		.byte	0x2
 9832 380c 8E       		.byte	0x8e
 9833 380d 84100000 		.4byte	0x1084
 9834 3811 00000000 		.4byte	.LFB484
 9835 3815 28000000 		.4byte	.LFE484-.LFB484
 9836 3819 01       		.uleb128 0x1
 9837 381a 9C       		.byte	0x9c
 9838 381b 56380000 		.4byte	0x3856
 9839 381f 36       		.uleb128 0x36
 9840 3820 D40F0000 		.4byte	.LASF828
 9841 3824 02       		.byte	0x2
 9842 3825 90       		.byte	0x90
 9843 3826 61050000 		.4byte	0x561
 9844 382a AC0D0000 		.4byte	.LLST101
 9845 382e 36       		.uleb128 0x36
 9846 382f 57080000 		.4byte	.LASF829
 9847 3833 02       		.byte	0x2
 9848 3834 91       		.byte	0x91
 9849 3835 84100000 		.4byte	0x1084
 9850 3839 CD0D0000 		.4byte	.LLST102
 9851 383d 37       		.uleb128 0x37
 9852 383e 0C000000 		.4byte	.LVL228
 9853 3842 A03F0000 		.4byte	0x3fa0
 9854 3846 38       		.uleb128 0x38
 9855 3847 16000000 		.4byte	.LVL232
 9856 384b 2B3F0000 		.4byte	0x3f2b
 9857 384f 39       		.uleb128 0x39
 9858 3850 01       		.uleb128 0x1
 9859 3851 50       		.byte	0x50
 9860 3852 01       		.uleb128 0x1
 9861 3853 35       		.byte	0x35
 9862 3854 00       		.byte	0
 9863 3855 00       		.byte	0
 9864 3856 40       		.uleb128 0x40
 9865 3857 57390000 		.4byte	.LASF830
 9866 385b 02       		.byte	0x2
 9867 385c B2       		.byte	0xb2
 9868 385d 84100000 		.4byte	0x1084
 9869 3861 00000000 		.4byte	.LFB485
 9870 3865 28000000 		.4byte	.LFE485-.LFB485
 9871 3869 01       		.uleb128 0x1
 9872 386a 9C       		.byte	0x9c
 9873 386b B9380000 		.4byte	0x38b9
 9874 386f 36       		.uleb128 0x36
 9875 3870 D40F0000 		.4byte	.LASF828
 9876 3874 02       		.byte	0x2
 9877 3875 B4       		.byte	0xb4
 9878 3876 61050000 		.4byte	0x561
 9879 387a F60D0000 		.4byte	.LLST103
 9880 387e 36       		.uleb128 0x36
ARM GAS  C:\Users\ASUS\AppData\Local\Temp\ccYYtRfk.s 			page 222


 9881 387f 57080000 		.4byte	.LASF829
 9882 3883 02       		.byte	0x2
 9883 3884 B5       		.byte	0xb5
 9884 3885 84100000 		.4byte	0x1084
 9885 3889 170E0000 		.4byte	.LLST104
 9886 388d 3E       		.uleb128 0x3e
 9887 388e 0E000000 		.4byte	.LVL237
 9888 3892 AC3F0000 		.4byte	0x3fac
 9889 3896 A9380000 		.4byte	0x38a9
 9890 389a 39       		.uleb128 0x39
 9891 389b 01       		.uleb128 0x1
 9892 389c 50       		.byte	0x50
 9893 389d 05       		.uleb128 0x5
 9894 389e 03       		.byte	0x3
 9895 389f 00000000 		.4byte	.LANCHOR1
 9896 38a3 39       		.uleb128 0x39
 9897 38a4 01       		.uleb128 0x1
 9898 38a5 51       		.byte	0x51
 9899 38a6 01       		.uleb128 0x1
 9900 38a7 31       		.byte	0x31
 9901 38a8 00       		.byte	0
 9902 38a9 38       		.uleb128 0x38
 9903 38aa 18000000 		.4byte	.LVL241
 9904 38ae 2B3F0000 		.4byte	0x3f2b
 9905 38b2 39       		.uleb128 0x39
 9906 38b3 01       		.uleb128 0x1
 9907 38b4 50       		.byte	0x50
 9908 38b5 01       		.uleb128 0x1
 9909 38b6 35       		.byte	0x35
 9910 38b7 00       		.byte	0
 9911 38b8 00       		.byte	0
 9912 38b9 33       		.uleb128 0x33
 9913 38ba 91310000 		.4byte	.LASF831
 9914 38be 02       		.byte	0x2
 9915 38bf 56       		.byte	0x56
 9916 38c0 00000000 		.4byte	.LFB483
 9917 38c4 5C000000 		.4byte	.LFE483-.LFB483
 9918 38c8 01       		.uleb128 0x1
 9919 38c9 9C       		.byte	0x9c
 9920 38ca 64390000 		.4byte	0x3964
 9921 38ce 41       		.uleb128 0x41
 9922 38cf E5240000 		.4byte	0x24e5
 9923 38d3 3A000000 		.4byte	.LBB91
 9924 38d7 10000000 		.4byte	.LBE91-.LBB91
 9925 38db 02       		.byte	0x2
 9926 38dc 7A       		.byte	0x7a
 9927 38dd EB380000 		.4byte	0x38eb
 9928 38e1 42       		.uleb128 0x42
 9929 38e2 F2240000 		.4byte	0x24f2
 9930 38e6 400E0000 		.4byte	.LLST105
 9931 38ea 00       		.byte	0
 9932 38eb 37       		.uleb128 0x37
 9933 38ec 06000000 		.4byte	.LVL244
 9934 38f0 06380000 		.4byte	0x3806
 9935 38f4 3E       		.uleb128 0x3e
 9936 38f5 12000000 		.4byte	.LVL245
 9937 38f9 B83F0000 		.4byte	0x3fb8
ARM GAS  C:\Users\ASUS\AppData\Local\Temp\ccYYtRfk.s 			page 223


 9938 38fd 11390000 		.4byte	0x3911
 9939 3901 39       		.uleb128 0x39
 9940 3902 01       		.uleb128 0x1
 9941 3903 50       		.byte	0x50
 9942 3904 05       		.uleb128 0x5
 9943 3905 03       		.byte	0x3
 9944 3906 58020000 		.4byte	.LC43
 9945 390a 39       		.uleb128 0x39
 9946 390b 01       		.uleb128 0x1
 9947 390c 51       		.byte	0x51
 9948 390d 02       		.uleb128 0x2
 9949 390e 08       		.byte	0x8
 9950 390f 5C       		.byte	0x5c
 9951 3910 00       		.byte	0
 9952 3911 37       		.uleb128 0x37
 9953 3912 18000000 		.4byte	.LVL246
 9954 3916 56380000 		.4byte	0x3856
 9955 391a 3E       		.uleb128 0x3e
 9956 391b 24000000 		.4byte	.LVL247
 9957 391f B83F0000 		.4byte	0x3fb8
 9958 3923 37390000 		.4byte	0x3937
 9959 3927 39       		.uleb128 0x39
 9960 3928 01       		.uleb128 0x1
 9961 3929 50       		.byte	0x50
 9962 392a 05       		.uleb128 0x5
 9963 392b 03       		.byte	0x3
 9964 392c 58020000 		.4byte	.LC43
 9965 3930 39       		.uleb128 0x39
 9966 3931 01       		.uleb128 0x1
 9967 3932 51       		.byte	0x51
 9968 3933 02       		.uleb128 0x2
 9969 3934 08       		.byte	0x8
 9970 3935 6F       		.byte	0x6f
 9971 3936 00       		.byte	0
 9972 3937 3E       		.uleb128 0x3e
 9973 3938 2C000000 		.4byte	.LVL248
 9974 393c C43F0000 		.4byte	0x3fc4
 9975 3940 4A390000 		.4byte	0x394a
 9976 3944 39       		.uleb128 0x39
 9977 3945 01       		.uleb128 0x1
 9978 3946 50       		.byte	0x50
 9979 3947 01       		.uleb128 0x1
 9980 3948 32       		.byte	0x32
 9981 3949 00       		.byte	0
 9982 394a 38       		.uleb128 0x38
 9983 394b 36000000 		.4byte	.LVL249
 9984 394f D03F0000 		.4byte	0x3fd0
 9985 3953 39       		.uleb128 0x39
 9986 3954 01       		.uleb128 0x1
 9987 3955 50       		.byte	0x50
 9988 3956 02       		.uleb128 0x2
 9989 3957 74       		.byte	0x74
 9990 3958 00       		.sleb128 0
 9991 3959 39       		.uleb128 0x39
 9992 395a 01       		.uleb128 0x1
 9993 395b 51       		.byte	0x51
 9994 395c 05       		.uleb128 0x5
ARM GAS  C:\Users\ASUS\AppData\Local\Temp\ccYYtRfk.s 			page 224


 9995 395d 03       		.byte	0x3
 9996 395e 00000000 		.4byte	RtcInterruptHandler
 9997 3962 00       		.byte	0
 9998 3963 00       		.byte	0
 9999 3964 45       		.uleb128 0x45
 10000 3965 FB040000 		.4byte	.LASF900
 10001 3969 02       		.byte	0x2
 10002 396a EB       		.byte	0xeb
 10003 396b 00000000 		.4byte	.LFB487
 10004 396f 0C000000 		.4byte	.LFE487-.LFB487
 10005 3973 01       		.uleb128 0x1
 10006 3974 9C       		.byte	0x9c
 10007 3975 46       		.uleb128 0x46
 10008 3976 75070000 		.4byte	.LASF832
 10009 397a 02       		.byte	0x2
 10010 397b 0201     		.2byte	0x102
 10011 397d 00000000 		.4byte	.LFB488
 10012 3981 30000000 		.4byte	.LFE488-.LFB488
 10013 3985 01       		.uleb128 0x1
 10014 3986 9C       		.byte	0x9c
 10015 3987 AF390000 		.4byte	0x39af
 10016 398b 37       		.uleb128 0x37
 10017 398c 18000000 		.4byte	.LVL254
 10018 3990 56380000 		.4byte	0x3856
 10019 3994 38       		.uleb128 0x38
 10020 3995 26000000 		.4byte	.LVL255
 10021 3999 B83F0000 		.4byte	0x3fb8
 10022 399d 39       		.uleb128 0x39
 10023 399e 01       		.uleb128 0x1
 10024 399f 50       		.byte	0x50
 10025 39a0 05       		.uleb128 0x5
 10026 39a1 03       		.byte	0x3
 10027 39a2 58020000 		.4byte	.LC43
 10028 39a6 39       		.uleb128 0x39
 10029 39a7 01       		.uleb128 0x1
 10030 39a8 51       		.byte	0x51
 10031 39a9 03       		.uleb128 0x3
 10032 39aa 0A       		.byte	0xa
 10033 39ab 2E01     		.2byte	0x12e
 10034 39ad 00       		.byte	0
 10035 39ae 00       		.byte	0
 10036 39af 47       		.uleb128 0x47
 10037 39b0 F1050000 		.4byte	.LASF833
 10038 39b4 08       		.byte	0x8
 10039 39b5 2E       		.byte	0x2e
 10040 39b6 27050000 		.4byte	0x527
 10041 39ba 00000000 		.4byte	.LFB489
 10042 39be D8000000 		.4byte	.LFE489-.LFB489
 10043 39c2 01       		.uleb128 0x1
 10044 39c3 9C       		.byte	0x9c
 10045 39c4 7C3A0000 		.4byte	0x3a7c
 10046 39c8 36       		.uleb128 0x36
 10047 39c9 513C0000 		.4byte	.LASF834
 10048 39cd 08       		.byte	0x8
 10049 39ce 30       		.byte	0x30
 10050 39cf 27050000 		.4byte	0x527
 10051 39d3 5F0E0000 		.4byte	.LLST106
ARM GAS  C:\Users\ASUS\AppData\Local\Temp\ccYYtRfk.s 			page 225


 10052 39d7 36       		.uleb128 0x36
 10053 39d8 7E220000 		.4byte	.LASF835
 10054 39dc 08       		.byte	0x8
 10055 39dd 31       		.byte	0x31
 10056 39de 27050000 		.4byte	0x527
 10057 39e2 940E0000 		.4byte	.LLST107
 10058 39e6 36       		.uleb128 0x36
 10059 39e7 20230000 		.4byte	.LASF836
 10060 39eb 08       		.byte	0x8
 10061 39ec 32       		.byte	0x32
 10062 39ed 27050000 		.4byte	0x527
 10063 39f1 C90E0000 		.4byte	.LLST108
 10064 39f5 48       		.uleb128 0x48
 10065 39f6 746D7000 		.ascii	"tmp\000"
 10066 39fa 08       		.byte	0x8
 10067 39fb 33       		.byte	0x33
 10068 39fc 27050000 		.4byte	0x527
 10069 3a00 02       		.uleb128 0x2
 10070 3a01 91       		.byte	0x91
 10071 3a02 64       		.sleb128 -28
 10072 3a03 36       		.uleb128 0x36
 10073 3a04 F1250000 		.4byte	.LASF837
 10074 3a08 08       		.byte	0x8
 10075 3a09 42       		.byte	0x42
 10076 3a0a D20F0000 		.4byte	0xfd2
 10077 3a0e E70E0000 		.4byte	.LLST109
 10078 3a12 36       		.uleb128 0x36
 10079 3a13 6A100000 		.4byte	.LASF838
 10080 3a17 08       		.byte	0x8
 10081 3a18 46       		.byte	0x46
 10082 3a19 D20F0000 		.4byte	0xfd2
 10083 3a1d 050F0000 		.4byte	.LLST110
 10084 3a21 49       		.uleb128 0x49
 10085 3a22 00000000 		.4byte	.Ldebug_ranges0+0
 10086 3a26 723A0000 		.4byte	0x3a72
 10087 3a2a 3F       		.uleb128 0x3f
 10088 3a2b 6900     		.ascii	"i\000"
 10089 3a2d 08       		.byte	0x8
 10090 3a2e 35       		.byte	0x35
 10091 3a2f 27050000 		.4byte	0x527
 10092 3a33 230F0000 		.4byte	.LLST111
 10093 3a37 3E       		.uleb128 0x3e
 10094 3a38 28000000 		.4byte	.LVL261
 10095 3a3c DC3F0000 		.4byte	0x3fdc
 10096 3a40 4B3A0000 		.4byte	0x3a4b
 10097 3a44 39       		.uleb128 0x39
 10098 3a45 01       		.uleb128 0x1
 10099 3a46 51       		.byte	0x51
 10100 3a47 02       		.uleb128 0x2
 10101 3a48 91       		.byte	0x91
 10102 3a49 64       		.sleb128 -28
 10103 3a4a 00       		.byte	0
 10104 3a4b 37       		.uleb128 0x37
 10105 3a4c 36000000 		.4byte	.LVL263
 10106 3a50 953F0000 		.4byte	0x3f95
 10107 3a54 3E       		.uleb128 0x3e
 10108 3a55 3E000000 		.4byte	.LVL264
ARM GAS  C:\Users\ASUS\AppData\Local\Temp\ccYYtRfk.s 			page 226


 10109 3a59 DC3F0000 		.4byte	0x3fdc
 10110 3a5d 683A0000 		.4byte	0x3a68
 10111 3a61 39       		.uleb128 0x39
 10112 3a62 01       		.uleb128 0x1
 10113 3a63 51       		.byte	0x51
 10114 3a64 02       		.uleb128 0x2
 10115 3a65 91       		.byte	0x91
 10116 3a66 64       		.sleb128 -28
 10117 3a67 00       		.byte	0
 10118 3a68 37       		.uleb128 0x37
 10119 3a69 4C000000 		.4byte	.LVL266
 10120 3a6d 953F0000 		.4byte	0x3f95
 10121 3a71 00       		.byte	0
 10122 3a72 37       		.uleb128 0x37
 10123 3a73 10000000 		.4byte	.LVL257
 10124 3a77 E73F0000 		.4byte	0x3fe7
 10125 3a7b 00       		.byte	0
 10126 3a7c 4A       		.uleb128 0x4a
 10127 3a7d 040B0000 		.4byte	.LASF901
 10128 3a81 08       		.byte	0x8
 10129 3a82 4D       		.byte	0x4d
 10130 3a83 27050000 		.4byte	0x527
 10131 3a87 00000000 		.4byte	.LFB490
 10132 3a8b 00010000 		.4byte	.LFE490-.LFB490
 10133 3a8f 01       		.uleb128 0x1
 10134 3a90 9C       		.byte	0x9c
 10135 3a91 543C0000 		.4byte	0x3c54
 10136 3a95 4B       		.uleb128 0x4b
 10137 3a96 9B3F0000 		.4byte	.LASF840
 10138 3a9a 08       		.byte	0x8
 10139 3a9b 61       		.byte	0x61
 10140 3a9c 05260000 		.4byte	0x2605
 10141 3aa0 36       		.uleb128 0x36
 10142 3aa1 F42F0000 		.4byte	.LASF839
 10143 3aa5 08       		.byte	0x8
 10144 3aa6 62       		.byte	0x62
 10145 3aa7 27050000 		.4byte	0x527
 10146 3aab 420F0000 		.4byte	.LLST112
 10147 3aaf 4B       		.uleb128 0x4b
 10148 3ab0 A8310000 		.4byte	.LASF841
 10149 3ab4 08       		.byte	0x8
 10150 3ab5 63       		.byte	0x63
 10151 3ab6 27050000 		.4byte	0x527
 10152 3aba 4C       		.uleb128 0x4c
 10153 3abb FF240000 		.4byte	0x24ff
 10154 3abf 04000000 		.4byte	.LBB95
 10155 3ac3 02000000 		.4byte	.LBE95-.LBB95
 10156 3ac7 08       		.byte	0x8
 10157 3ac8 4F       		.byte	0x4f
 10158 3ac9 35       		.uleb128 0x35
 10159 3aca B2000000 		.4byte	.LBB97
 10160 3ace 1A000000 		.4byte	.LBE97-.LBB97
 10161 3ad2 203B0000 		.4byte	0x3b20
 10162 3ad6 48       		.uleb128 0x48
 10163 3ad7 746D7000 		.ascii	"tmp\000"
 10164 3adb 08       		.byte	0x8
 10165 3adc 7E       		.byte	0x7e
ARM GAS  C:\Users\ASUS\AppData\Local\Temp\ccYYtRfk.s 			page 227


 10166 3add 27050000 		.4byte	0x527
 10167 3ae1 02       		.uleb128 0x2
 10168 3ae2 91       		.byte	0x91
 10169 3ae3 64       		.sleb128 -28
 10170 3ae4 3E       		.uleb128 0x3e
 10171 3ae5 BC000000 		.4byte	.LVL314
 10172 3ae9 DC3F0000 		.4byte	0x3fdc
 10173 3aed F83A0000 		.4byte	0x3af8
 10174 3af1 39       		.uleb128 0x39
 10175 3af2 01       		.uleb128 0x1
 10176 3af3 51       		.byte	0x51
 10177 3af4 02       		.uleb128 0x2
 10178 3af5 91       		.byte	0x91
 10179 3af6 64       		.sleb128 -28
 10180 3af7 00       		.byte	0
 10181 3af8 3E       		.uleb128 0x3e
 10182 3af9 C6000000 		.4byte	.LVL315
 10183 3afd DC3F0000 		.4byte	0x3fdc
 10184 3b01 0C3B0000 		.4byte	0x3b0c
 10185 3b05 39       		.uleb128 0x39
 10186 3b06 01       		.uleb128 0x1
 10187 3b07 51       		.byte	0x51
 10188 3b08 02       		.uleb128 0x2
 10189 3b09 91       		.byte	0x91
 10190 3b0a 64       		.sleb128 -28
 10191 3b0b 00       		.byte	0
 10192 3b0c 38       		.uleb128 0x38
 10193 3b0d CC000000 		.4byte	.LVL316
 10194 3b11 063F0000 		.4byte	0x3f06
 10195 3b15 39       		.uleb128 0x39
 10196 3b16 01       		.uleb128 0x1
 10197 3b17 50       		.byte	0x50
 10198 3b18 05       		.uleb128 0x5
 10199 3b19 03       		.byte	0x3
 10200 3b1a B8020000 		.4byte	.LC61
 10201 3b1e 00       		.byte	0
 10202 3b1f 00       		.byte	0
 10203 3b20 3E       		.uleb128 0x3e
 10204 3b21 0C000000 		.4byte	.LVL293
 10205 3b25 F23F0000 		.4byte	0x3ff2
 10206 3b29 373B0000 		.4byte	0x3b37
 10207 3b2d 39       		.uleb128 0x39
 10208 3b2e 01       		.uleb128 0x1
 10209 3b2f 50       		.byte	0x50
 10210 3b30 05       		.uleb128 0x5
 10211 3b31 0C       		.byte	0xc
 10212 3b32 00000810 		.4byte	0x10080000
 10213 3b36 00       		.byte	0
 10214 3b37 37       		.uleb128 0x37
 10215 3b38 10000000 		.4byte	.LVL294
 10216 3b3c FE3F0000 		.4byte	0x3ffe
 10217 3b40 3E       		.uleb128 0x3e
 10218 3b41 20000000 		.4byte	.LVL295
 10219 3b45 09400000 		.4byte	0x4009
 10220 3b49 5D3B0000 		.4byte	0x3b5d
 10221 3b4d 39       		.uleb128 0x39
 10222 3b4e 01       		.uleb128 0x1
ARM GAS  C:\Users\ASUS\AppData\Local\Temp\ccYYtRfk.s 			page 228


 10223 3b4f 51       		.byte	0x51
 10224 3b50 01       		.uleb128 0x1
 10225 3b51 30       		.byte	0x30
 10226 3b52 39       		.uleb128 0x39
 10227 3b53 01       		.uleb128 0x1
 10228 3b54 52       		.byte	0x52
 10229 3b55 01       		.uleb128 0x1
 10230 3b56 32       		.byte	0x32
 10231 3b57 39       		.uleb128 0x39
 10232 3b58 01       		.uleb128 0x1
 10233 3b59 53       		.byte	0x53
 10234 3b5a 01       		.uleb128 0x1
 10235 3b5b 30       		.byte	0x30
 10236 3b5c 00       		.byte	0
 10237 3b5d 37       		.uleb128 0x37
 10238 3b5e 24000000 		.4byte	.LVL296
 10239 3b62 14400000 		.4byte	0x4014
 10240 3b66 3E       		.uleb128 0x3e
 10241 3b67 2A000000 		.4byte	.LVL297
 10242 3b6b 2B3F0000 		.4byte	0x3f2b
 10243 3b6f 7B3B0000 		.4byte	0x3b7b
 10244 3b73 39       		.uleb128 0x39
 10245 3b74 01       		.uleb128 0x1
 10246 3b75 50       		.byte	0x50
 10247 3b76 03       		.uleb128 0x3
 10248 3b77 0A       		.byte	0xa
 10249 3b78 8813     		.2byte	0x1388
 10250 3b7a 00       		.byte	0
 10251 3b7b 37       		.uleb128 0x37
 10252 3b7c 2E000000 		.4byte	.LVL298
 10253 3b80 B9380000 		.4byte	0x38b9
 10254 3b84 37       		.uleb128 0x37
 10255 3b85 32000000 		.4byte	.LVL299
 10256 3b89 1F400000 		.4byte	0x401f
 10257 3b8d 37       		.uleb128 0x37
 10258 3b8e 3A000000 		.4byte	.LVL300
 10259 3b92 1F400000 		.4byte	0x401f
 10260 3b96 37       		.uleb128 0x37
 10261 3b97 40000000 		.4byte	.LVL301
 10262 3b9b 1F400000 		.4byte	0x401f
 10263 3b9f 37       		.uleb128 0x37
 10264 3ba0 46000000 		.4byte	.LVL302
 10265 3ba4 1F400000 		.4byte	0x401f
 10266 3ba8 3E       		.uleb128 0x3e
 10267 3ba9 5A000000 		.4byte	.LVL304
 10268 3bad BA2D0000 		.4byte	0x2dba
 10269 3bb1 D13B0000 		.4byte	0x3bd1
 10270 3bb5 39       		.uleb128 0x39
 10271 3bb6 01       		.uleb128 0x1
 10272 3bb7 50       		.byte	0x50
 10273 3bb8 02       		.uleb128 0x2
 10274 3bb9 75       		.byte	0x75
 10275 3bba 00       		.sleb128 0
 10276 3bbb 39       		.uleb128 0x39
 10277 3bbc 01       		.uleb128 0x1
 10278 3bbd 51       		.byte	0x51
 10279 3bbe 02       		.uleb128 0x2
ARM GAS  C:\Users\ASUS\AppData\Local\Temp\ccYYtRfk.s 			page 229


 10280 3bbf 76       		.byte	0x76
 10281 3bc0 00       		.sleb128 0
 10282 3bc1 39       		.uleb128 0x39
 10283 3bc2 01       		.uleb128 0x1
 10284 3bc3 52       		.byte	0x52
 10285 3bc4 02       		.uleb128 0x2
 10286 3bc5 77       		.byte	0x77
 10287 3bc6 00       		.sleb128 0
 10288 3bc7 39       		.uleb128 0x39
 10289 3bc8 01       		.uleb128 0x1
 10290 3bc9 53       		.byte	0x53
 10291 3bca 05       		.uleb128 0x5
 10292 3bcb 03       		.byte	0x3
 10293 3bcc 00000000 		.4byte	temperature
 10294 3bd0 00       		.byte	0
 10295 3bd1 37       		.uleb128 0x37
 10296 3bd2 64000000 		.4byte	.LVL305
 10297 3bd6 9A2E0000 		.4byte	0x2e9a
 10298 3bda 3E       		.uleb128 0x3e
 10299 3bdb 76000000 		.4byte	.LVL306
 10300 3bdf FC2E0000 		.4byte	0x2efc
 10301 3be3 EF3B0000 		.4byte	0x3bef
 10302 3be7 39       		.uleb128 0x39
 10303 3be8 02       		.uleb128 0x2
 10304 3be9 7D       		.byte	0x7d
 10305 3bea 00       		.sleb128 0
 10306 3beb 02       		.uleb128 0x2
 10307 3bec 75       		.byte	0x75
 10308 3bed 00       		.sleb128 0
 10309 3bee 00       		.byte	0
 10310 3bef 3E       		.uleb128 0x3e
 10311 3bf0 84000000 		.4byte	.LVL307
 10312 3bf4 063F0000 		.4byte	0x3f06
 10313 3bf8 063C0000 		.4byte	0x3c06
 10314 3bfc 39       		.uleb128 0x39
 10315 3bfd 01       		.uleb128 0x1
 10316 3bfe 50       		.byte	0x50
 10317 3bff 05       		.uleb128 0x5
 10318 3c00 03       		.byte	0x3
 10319 3c01 64020000 		.4byte	.LC57
 10320 3c05 00       		.byte	0
 10321 3c06 3E       		.uleb128 0x3e
 10322 3c07 8C000000 		.4byte	.LVL308
 10323 3c0b 2B3F0000 		.4byte	0x3f2b
 10324 3c0f 1B3C0000 		.4byte	0x3c1b
 10325 3c13 39       		.uleb128 0x39
 10326 3c14 01       		.uleb128 0x1
 10327 3c15 50       		.byte	0x50
 10328 3c16 03       		.uleb128 0x3
 10329 3c17 0A       		.byte	0xa
 10330 3c18 E803     		.2byte	0x3e8
 10331 3c1a 00       		.byte	0
 10332 3c1b 37       		.uleb128 0x37
 10333 3c1c 9C000000 		.4byte	.LVL309
 10334 3c20 75390000 		.4byte	0x3975
 10335 3c24 37       		.uleb128 0x37
 10336 3c25 A0000000 		.4byte	.LVL310
ARM GAS  C:\Users\ASUS\AppData\Local\Temp\ccYYtRfk.s 			page 230


 10337 3c29 AF390000 		.4byte	0x39af
 10338 3c2d 3E       		.uleb128 0x3e
 10339 3c2e A8000000 		.4byte	.LVL313
 10340 3c32 063F0000 		.4byte	0x3f06
 10341 3c36 443C0000 		.4byte	0x3c44
 10342 3c3a 39       		.uleb128 0x39
 10343 3c3b 01       		.uleb128 0x1
 10344 3c3c 50       		.byte	0x50
 10345 3c3d 05       		.uleb128 0x5
 10346 3c3e 03       		.byte	0x3
 10347 3c3f A4020000 		.4byte	.LC59
 10348 3c43 00       		.byte	0
 10349 3c44 38       		.uleb128 0x38
 10350 3c45 D2000000 		.4byte	.LVL317
 10351 3c49 2A400000 		.4byte	0x402a
 10352 3c4d 39       		.uleb128 0x39
 10353 3c4e 01       		.uleb128 0x1
 10354 3c4f 50       		.byte	0x50
 10355 3c50 01       		.uleb128 0x1
 10356 3c51 30       		.byte	0x30
 10357 3c52 00       		.byte	0
 10358 3c53 00       		.byte	0
 10359 3c54 0D       		.uleb128 0xd
 10360 3c55 E00F0000 		.4byte	0xfe0
 10361 3c59 643C0000 		.4byte	0x3c64
 10362 3c5d 0E       		.uleb128 0xe
 10363 3c5e 0E060000 		.4byte	0x60e
 10364 3c62 00       		.byte	0
 10365 3c63 00       		.byte	0
 10366 3c64 3C       		.uleb128 0x3c
 10367 3c65 380C0000 		.4byte	.LASF759
 10368 3c69 01       		.byte	0x1
 10369 3c6a 0F       		.byte	0xf
 10370 3c6b 543C0000 		.4byte	0x3c54
 10371 3c6f 05       		.uleb128 0x5
 10372 3c70 03       		.byte	0x3
 10373 3c71 00000000 		.4byte	data
 10374 3c75 3C       		.uleb128 0x3c
 10375 3c76 F4400000 		.4byte	.LASF842
 10376 3c7a 02       		.byte	0x2
 10377 3c7b 23       		.byte	0x23
 10378 3c7c 61050000 		.4byte	0x561
 10379 3c80 05       		.uleb128 0x5
 10380 3c81 03       		.byte	0x3
 10381 3c82 1C000000 		.4byte	alarmFlag
 10382 3c86 4D       		.uleb128 0x4d
 10383 3c87 46330000 		.4byte	.LASF843
 10384 3c8b 0F       		.byte	0xf
 10385 3c8c A7       		.byte	0xa7
 10386 3c8d 913C0000 		.4byte	0x3c91
 10387 3c91 16       		.uleb128 0x16
 10388 3c92 04       		.byte	0x4
 10389 3c93 973C0000 		.4byte	0x3c97
 10390 3c97 10       		.uleb128 0x10
 10391 3c98 AD0F0000 		.4byte	0xfad
 10392 3c9c 0D       		.uleb128 0xd
 10393 3c9d 48210000 		.4byte	0x2148
ARM GAS  C:\Users\ASUS\AppData\Local\Temp\ccYYtRfk.s 			page 231


 10394 3ca1 AC3C0000 		.4byte	0x3cac
 10395 3ca5 0E       		.uleb128 0xe
 10396 3ca6 0E060000 		.4byte	0x60e
 10397 3caa 0B       		.byte	0xb
 10398 3cab 00       		.byte	0
 10399 3cac 4E       		.uleb128 0x4e
 10400 3cad A13A0000 		.4byte	.LASF844
 10401 3cb1 13       		.byte	0x13
 10402 3cb2 0303     		.2byte	0x303
 10403 3cb4 B83C0000 		.4byte	0x3cb8
 10404 3cb8 10       		.uleb128 0x10
 10405 3cb9 9C3C0000 		.4byte	0x3c9c
 10406 3cbd 4E       		.uleb128 0x4e
 10407 3cbe 71090000 		.4byte	.LASF845
 10408 3cc2 19       		.byte	0x19
 10409 3cc3 FD02     		.2byte	0x2fd
 10410 3cc5 CD190000 		.4byte	0x19cd
 10411 3cc9 4E       		.uleb128 0x4e
 10412 3cca 3E260000 		.4byte	.LASF846
 10413 3cce 1D       		.byte	0x1d
 10414 3ccf 1B02     		.2byte	0x21b
 10415 3cd1 45220000 		.4byte	0x2245
 10416 3cd5 4E       		.uleb128 0x4e
 10417 3cd6 CD380000 		.4byte	.LASF847
 10418 3cda 1D       		.byte	0x1d
 10419 3cdb 2202     		.2byte	0x222
 10420 3cdd 75220000 		.4byte	0x2275
 10421 3ce1 0D       		.uleb128 0xd
 10422 3ce2 71210000 		.4byte	0x2171
 10423 3ce6 F13C0000 		.4byte	0x3cf1
 10424 3cea 0E       		.uleb128 0xe
 10425 3ceb 0E060000 		.4byte	0x60e
 10426 3cef 00       		.byte	0
 10427 3cf0 00       		.byte	0
 10428 3cf1 4E       		.uleb128 0x4e
 10429 3cf2 F5100000 		.4byte	.LASF848
 10430 3cf6 1D       		.byte	0x1d
 10431 3cf7 2C02     		.2byte	0x22c
 10432 3cf9 E13C0000 		.4byte	0x3ce1
 10433 3cfd 0D       		.uleb128 0xd
 10434 3cfe BD220000 		.4byte	0x22bd
 10435 3d02 0D3D0000 		.4byte	0x3d0d
 10436 3d06 0E       		.uleb128 0xe
 10437 3d07 0E060000 		.4byte	0x60e
 10438 3d0b 00       		.byte	0
 10439 3d0c 00       		.byte	0
 10440 3d0d 4E       		.uleb128 0x4e
 10441 3d0e 55370000 		.4byte	.LASF849
 10442 3d12 1D       		.byte	0x1d
 10443 3d13 2D02     		.2byte	0x22d
 10444 3d15 FD3C0000 		.4byte	0x3cfd
 10445 3d19 4E       		.uleb128 0x4e
 10446 3d1a 130C0000 		.4byte	.LASF850
 10447 3d1e 1D       		.byte	0x1d
 10448 3d1f 5202     		.2byte	0x252
 10449 3d21 35050000 		.4byte	0x535
 10450 3d25 4D       		.uleb128 0x4d
ARM GAS  C:\Users\ASUS\AppData\Local\Temp\ccYYtRfk.s 			page 232


 10451 3d26 7D3F0000 		.4byte	.LASF851
 10452 3d2a 20       		.byte	0x20
 10453 3d2b 19       		.byte	0x19
 10454 3d2c D9220000 		.4byte	0x22d9
 10455 3d30 4D       		.uleb128 0x4d
 10456 3d31 943A0000 		.4byte	.LASF852
 10457 3d35 21       		.byte	0x21
 10458 3d36 87       		.byte	0x87
 10459 3d37 24160000 		.4byte	0x1624
 10460 3d3b 4D       		.uleb128 0x4d
 10461 3d3c C4360000 		.4byte	.LASF853
 10462 3d40 05       		.byte	0x5
 10463 3d41 7F       		.byte	0x7f
 10464 3d42 48150000 		.4byte	0x1548
 10465 3d46 4D       		.uleb128 0x4d
 10466 3d47 AC1C0000 		.4byte	.LASF854
 10467 3d4b 22       		.byte	0x22
 10468 3d4c 7C       		.byte	0x7c
 10469 3d4d 45100000 		.4byte	0x1045
 10470 3d51 4D       		.uleb128 0x4d
 10471 3d52 18040000 		.4byte	.LASF855
 10472 3d56 22       		.byte	0x22
 10473 3d57 7D       		.byte	0x7d
 10474 3d58 5C3D0000 		.4byte	0x3d5c
 10475 3d5c 10       		.uleb128 0x10
 10476 3d5d 20130000 		.4byte	0x1320
 10477 3d61 4D       		.uleb128 0x4d
 10478 3d62 1E390000 		.4byte	.LASF856
 10479 3d66 22       		.byte	0x22
 10480 3d67 7E       		.byte	0x7e
 10481 3d68 6C3D0000 		.4byte	0x3d6c
 10482 3d6c 10       		.uleb128 0x10
 10483 3d6d C9110000 		.4byte	0x11c9
 10484 3d71 4F       		.uleb128 0x4f
 10485 3d72 F4300000 		.4byte	.LASF804
 10486 3d76 08       		.byte	0x8
 10487 3d77 23       		.byte	0x23
 10488 3d78 4B050000 		.4byte	0x54b
 10489 3d7c 05       		.uleb128 0x5
 10490 3d7d 03       		.byte	0x3
 10491 3d7e 00000000 		.4byte	temperature
 10492 3d82 4F       		.uleb128 0x4f
 10493 3d83 E8050000 		.4byte	.LASF786
 10494 3d87 08       		.byte	0x8
 10495 3d88 26       		.byte	0x26
 10496 3d89 27050000 		.4byte	0x527
 10497 3d8d 05       		.uleb128 0x5
 10498 3d8e 03       		.byte	0x3
 10499 3d8f 00000000 		.4byte	tempFlag
 10500 3d93 4F       		.uleb128 0x4f
 10501 3d94 801A0000 		.4byte	.LASF785
 10502 3d98 08       		.byte	0x8
 10503 3d99 28       		.byte	0x28
 10504 3d9a 27050000 		.4byte	0x527
 10505 3d9e 05       		.uleb128 0x5
 10506 3d9f 03       		.byte	0x3
 10507 3da0 00000000 		.4byte	lightFlag
ARM GAS  C:\Users\ASUS\AppData\Local\Temp\ccYYtRfk.s 			page 233


 10508 3da4 4F       		.uleb128 0x4f
 10509 3da5 00000000 		.4byte	.LASF784
 10510 3da9 08       		.byte	0x8
 10511 3daa 27       		.byte	0x27
 10512 3dab 27050000 		.4byte	0x527
 10513 3daf 05       		.uleb128 0x5
 10514 3db0 03       		.byte	0x3
 10515 3db1 00000000 		.4byte	accInactive
 10516 3db5 4F       		.uleb128 0x4f
 10517 3db6 DF3F0000 		.4byte	.LASF857
 10518 3dba 06       		.byte	0x6
 10519 3dbb 2C       		.byte	0x2c
 10520 3dbc 27050000 		.4byte	0x527
 10521 3dc0 05       		.uleb128 0x5
 10522 3dc1 03       		.byte	0x3
 10523 3dc2 00000000 		.4byte	prev_gX
 10524 3dc6 4F       		.uleb128 0x4f
 10525 3dc7 C60B0000 		.4byte	.LASF858
 10526 3dcb 06       		.byte	0x6
 10527 3dcc 2D       		.byte	0x2d
 10528 3dcd 27050000 		.4byte	0x527
 10529 3dd1 05       		.uleb128 0x5
 10530 3dd2 03       		.byte	0x3
 10531 3dd3 00000000 		.4byte	prev_gY
 10532 3dd7 4F       		.uleb128 0x4f
 10533 3dd8 EC0B0000 		.4byte	.LASF859
 10534 3ddc 06       		.byte	0x6
 10535 3ddd 2E       		.byte	0x2e
 10536 3dde 27050000 		.4byte	0x527
 10537 3de2 05       		.uleb128 0x5
 10538 3de3 03       		.byte	0x3
 10539 3de4 00000000 		.4byte	prev_gZ
 10540 3de8 4F       		.uleb128 0x4f
 10541 3de9 8D280000 		.4byte	.LASF860
 10542 3ded 02       		.byte	0x2
 10543 3dee 2C       		.byte	0x2c
 10544 3def 8C120000 		.4byte	0x128c
 10545 3df3 05       		.uleb128 0x5
 10546 3df4 03       		.byte	0x3
 10547 3df5 00000000 		.4byte	alarmConfig
 10548 3df9 4F       		.uleb128 0x4f
 10549 3dfa 573E0000 		.4byte	.LASF801
 10550 3dfe 08       		.byte	0x8
 10551 3dff 23       		.byte	0x23
 10552 3e00 4B050000 		.4byte	0x54b
 10553 3e04 05       		.uleb128 0x5
 10554 3e05 03       		.byte	0x3
 10555 3e06 00000000 		.4byte	xChannel
 10556 3e0a 4F       		.uleb128 0x4f
 10557 3e0b 03260000 		.4byte	.LASF802
 10558 3e0f 08       		.byte	0x8
 10559 3e10 23       		.byte	0x23
 10560 3e11 4B050000 		.4byte	0x54b
 10561 3e15 05       		.uleb128 0x5
 10562 3e16 03       		.byte	0x3
 10563 3e17 00000000 		.4byte	yChannel
 10564 3e1b 4F       		.uleb128 0x4f
ARM GAS  C:\Users\ASUS\AppData\Local\Temp\ccYYtRfk.s 			page 234


 10565 3e1c EE0F0000 		.4byte	.LASF803
 10566 3e20 08       		.byte	0x8
 10567 3e21 23       		.byte	0x23
 10568 3e22 4B050000 		.4byte	0x54b
 10569 3e26 05       		.uleb128 0x5
 10570 3e27 03       		.byte	0x3
 10571 3e28 00000000 		.4byte	zChannel
 10572 3e2c 4F       		.uleb128 0x4f
 10573 3e2d 09140000 		.4byte	.LASF814
 10574 3e31 08       		.byte	0x8
 10575 3e32 24       		.byte	0x24
 10576 3e33 4B050000 		.4byte	0x54b
 10577 3e37 05       		.uleb128 0x5
 10578 3e38 03       		.byte	0x3
 10579 3e39 00000000 		.4byte	accX
 10580 3e3d 4F       		.uleb128 0x4f
 10581 3e3e 0E140000 		.4byte	.LASF815
 10582 3e42 08       		.byte	0x8
 10583 3e43 24       		.byte	0x24
 10584 3e44 4B050000 		.4byte	0x54b
 10585 3e48 05       		.uleb128 0x5
 10586 3e49 03       		.byte	0x3
 10587 3e4a 00000000 		.4byte	accY
 10588 3e4e 4F       		.uleb128 0x4f
 10589 3e4f 13140000 		.4byte	.LASF816
 10590 3e53 08       		.byte	0x8
 10591 3e54 24       		.byte	0x24
 10592 3e55 4B050000 		.4byte	0x54b
 10593 3e59 05       		.uleb128 0x5
 10594 3e5a 03       		.byte	0x3
 10595 3e5b 00000000 		.4byte	accZ
 10596 3e5f 4F       		.uleb128 0x4f
 10597 3e60 E5180000 		.4byte	.LASF818
 10598 3e64 08       		.byte	0x8
 10599 3e65 25       		.byte	0x25
 10600 3e66 4B050000 		.4byte	0x54b
 10601 3e6a 05       		.uleb128 0x5
 10602 3e6b 03       		.byte	0x3
 10603 3e6c 00000000 		.4byte	gyroX
 10604 3e70 4F       		.uleb128 0x4f
 10605 3e71 EB180000 		.4byte	.LASF819
 10606 3e75 08       		.byte	0x8
 10607 3e76 25       		.byte	0x25
 10608 3e77 4B050000 		.4byte	0x54b
 10609 3e7b 05       		.uleb128 0x5
 10610 3e7c 03       		.byte	0x3
 10611 3e7d 00000000 		.4byte	gyroY
 10612 3e81 4F       		.uleb128 0x4f
 10613 3e82 F1180000 		.4byte	.LASF820
 10614 3e86 08       		.byte	0x8
 10615 3e87 25       		.byte	0x25
 10616 3e88 4B050000 		.4byte	0x54b
 10617 3e8c 05       		.uleb128 0x5
 10618 3e8d 03       		.byte	0x3
 10619 3e8e 00000000 		.4byte	gyroZ
 10620 3e92 4F       		.uleb128 0x4f
 10621 3e93 FA340000 		.4byte	.LASF861
ARM GAS  C:\Users\ASUS\AppData\Local\Temp\ccYYtRfk.s 			page 235


 10622 3e97 08       		.byte	0x8
 10623 3e98 29       		.byte	0x29
 10624 3e99 83230000 		.4byte	0x2383
 10625 3e9d 05       		.uleb128 0x5
 10626 3e9e 03       		.byte	0x3
 10627 3e9f 00000000 		.4byte	light_queue
 10628 3ea3 4F       		.uleb128 0x4f
 10629 3ea4 46250000 		.4byte	.LASF862
 10630 3ea8 08       		.byte	0x8
 10631 3ea9 2A       		.byte	0x2a
 10632 3eaa 83230000 		.4byte	0x2383
 10633 3eae 05       		.uleb128 0x5
 10634 3eaf 03       		.byte	0x3
 10635 3eb0 00000000 		.4byte	temp_queue
 10636 3eb4 4F       		.uleb128 0x4f
 10637 3eb5 3C250000 		.4byte	.LASF863
 10638 3eb9 08       		.byte	0x8
 10639 3eba 2B       		.byte	0x2b
 10640 3ebb 83230000 		.4byte	0x2383
 10641 3ebf 05       		.uleb128 0x5
 10642 3ec0 03       		.byte	0x3
 10643 3ec1 00000000 		.4byte	acc_queue
 10644 3ec5 4F       		.uleb128 0x4f
 10645 3ec6 83080000 		.4byte	.LASF864
 10646 3eca 08       		.byte	0x8
 10647 3ecb 2C       		.byte	0x2c
 10648 3ecc 83230000 		.4byte	0x2383
 10649 3ed0 05       		.uleb128 0x5
 10650 3ed1 03       		.byte	0x3
 10651 3ed2 00000000 		.4byte	gyro_queue
 10652 3ed6 50       		.uleb128 0x50
 10653 3ed7 82010000 		.4byte	.LASF865
 10654 3edb 82010000 		.4byte	.LASF865
 10655 3edf 1E       		.byte	0x1e
 10656 3ee0 5F01     		.2byte	0x15f
 10657 3ee2 50       		.uleb128 0x50
 10658 3ee3 3D200000 		.4byte	.LASF866
 10659 3ee7 3D200000 		.4byte	.LASF866
 10660 3eeb 1D       		.byte	0x1d
 10661 3eec F901     		.2byte	0x1f9
 10662 3eee 50       		.uleb128 0x50
 10663 3eef F81D0000 		.4byte	.LASF867
 10664 3ef3 F81D0000 		.4byte	.LASF867
 10665 3ef7 1A       		.byte	0x1a
 10666 3ef8 F207     		.2byte	0x7f2
 10667 3efa 50       		.uleb128 0x50
 10668 3efb 09190000 		.4byte	.LASF868
 10669 3eff 09190000 		.4byte	.LASF868
 10670 3f03 13       		.byte	0x13
 10671 3f04 2202     		.2byte	0x222
 10672 3f06 51       		.uleb128 0x51
 10673 3f07 E7110000 		.4byte	.LASF869
 10674 3f0b E7110000 		.4byte	.LASF869
 10675 3f0f 23       		.byte	0x23
 10676 3f10 BB       		.byte	0xbb
 10677 3f11 52       		.uleb128 0x52
 10678 3f12 EF040000 		.4byte	.LASF902
ARM GAS  C:\Users\ASUS\AppData\Local\Temp\ccYYtRfk.s 			page 236


 10679 3f16 562A0000 		.4byte	.LASF903
 10680 3f1a 28       		.byte	0x28
 10681 3f1b 00       		.byte	0
 10682 3f1c EF040000 		.4byte	.LASF902
 10683 3f20 51       		.uleb128 0x51
 10684 3f21 C23B0000 		.4byte	.LASF870
 10685 3f25 C23B0000 		.4byte	.LASF870
 10686 3f29 24       		.byte	0x24
 10687 3f2a D5       		.byte	0xd5
 10688 3f2b 50       		.uleb128 0x50
 10689 3f2c FE400000 		.4byte	.LASF871
 10690 3f30 FE400000 		.4byte	.LASF871
 10691 3f34 10       		.byte	0x10
 10692 3f35 8903     		.2byte	0x389
 10693 3f37 51       		.uleb128 0x51
 10694 3f38 B83E0000 		.4byte	.LASF872
 10695 3f3c B83E0000 		.4byte	.LASF872
 10696 3f40 25       		.byte	0x25
 10697 3f41 24       		.byte	0x24
 10698 3f42 50       		.uleb128 0x50
 10699 3f43 E83B0000 		.4byte	.LASF873
 10700 3f47 E83B0000 		.4byte	.LASF873
 10701 3f4b 26       		.byte	0x26
 10702 3f4c 7702     		.2byte	0x277
 10703 3f4e 51       		.uleb128 0x51
 10704 3f4f 4E380000 		.4byte	.LASF874
 10705 3f53 4E380000 		.4byte	.LASF874
 10706 3f57 25       		.byte	0x25
 10707 3f58 25       		.byte	0x25
 10708 3f59 50       		.uleb128 0x50
 10709 3f5a 76310000 		.4byte	.LASF875
 10710 3f5e 76310000 		.4byte	.LASF875
 10711 3f62 14       		.byte	0x14
 10712 3f63 5303     		.2byte	0x353
 10713 3f65 50       		.uleb128 0x50
 10714 3f66 4B260000 		.4byte	.LASF876
 10715 3f6a 4B260000 		.4byte	.LASF876
 10716 3f6e 14       		.byte	0x14
 10717 3f6f 5A03     		.2byte	0x35a
 10718 3f71 50       		.uleb128 0x50
 10719 3f72 172B0000 		.4byte	.LASF877
 10720 3f76 172B0000 		.4byte	.LASF877
 10721 3f7a 14       		.byte	0x14
 10722 3f7b 5503     		.2byte	0x355
 10723 3f7d 50       		.uleb128 0x50
 10724 3f7e 3C1F0000 		.4byte	.LASF878
 10725 3f82 3C1F0000 		.4byte	.LASF878
 10726 3f86 14       		.byte	0x14
 10727 3f87 5803     		.2byte	0x358
 10728 3f89 50       		.uleb128 0x50
 10729 3f8a D9230000 		.4byte	.LASF879
 10730 3f8e D9230000 		.4byte	.LASF879
 10731 3f92 14       		.byte	0x14
 10732 3f93 5703     		.2byte	0x357
 10733 3f95 51       		.uleb128 0x51
 10734 3f96 1C210000 		.4byte	.LASF880
 10735 3f9a 1C210000 		.4byte	.LASF880
ARM GAS  C:\Users\ASUS\AppData\Local\Temp\ccYYtRfk.s 			page 237


 10736 3f9e 1F       		.byte	0x1f
 10737 3f9f 3B       		.byte	0x3b
 10738 3fa0 50       		.uleb128 0x50
 10739 3fa1 EB190000 		.4byte	.LASF881
 10740 3fa5 EB190000 		.4byte	.LASF881
 10741 3fa9 13       		.byte	0x13
 10742 3faa 0202     		.2byte	0x202
 10743 3fac 50       		.uleb128 0x50
 10744 3fad ED2B0000 		.4byte	.LASF882
 10745 3fb1 ED2B0000 		.4byte	.LASF882
 10746 3fb5 13       		.byte	0x13
 10747 3fb6 0F02     		.2byte	0x20f
 10748 3fb8 50       		.uleb128 0x50
 10749 3fb9 EF3C0000 		.4byte	.LASF883
 10750 3fbd EF3C0000 		.4byte	.LASF883
 10751 3fc1 10       		.byte	0x10
 10752 3fc2 9203     		.2byte	0x392
 10753 3fc4 50       		.uleb128 0x50
 10754 3fc5 001A0000 		.4byte	.LASF884
 10755 3fc9 001A0000 		.4byte	.LASF884
 10756 3fcd 13       		.byte	0x13
 10757 3fce 2C02     		.2byte	0x22c
 10758 3fd0 50       		.uleb128 0x50
 10759 3fd1 173E0000 		.4byte	.LASF885
 10760 3fd5 173E0000 		.4byte	.LASF885
 10761 3fd9 11       		.byte	0x11
 10762 3fda 6601     		.2byte	0x166
 10763 3fdc 51       		.uleb128 0x51
 10764 3fdd B43D0000 		.4byte	.LASF886
 10765 3fe1 B43D0000 		.4byte	.LASF886
 10766 3fe5 1F       		.byte	0x1f
 10767 3fe6 48       		.byte	0x48
 10768 3fe7 51       		.uleb128 0x51
 10769 3fe8 5E080000 		.4byte	.LASF887
 10770 3fec 5E080000 		.4byte	.LASF887
 10771 3ff0 1F       		.byte	0x1f
 10772 3ff1 7F       		.byte	0x7f
 10773 3ff2 50       		.uleb128 0x50
 10774 3ff3 5C3B0000 		.4byte	.LASF888
 10775 3ff7 5C3B0000 		.4byte	.LASF888
 10776 3ffb 27       		.byte	0x27
 10777 3ffc 1802     		.2byte	0x218
 10778 3ffe 51       		.uleb128 0x51
 10779 3fff F70F0000 		.4byte	.LASF889
 10780 4003 F70F0000 		.4byte	.LASF889
 10781 4007 21       		.byte	0x21
 10782 4008 31       		.byte	0x31
 10783 4009 51       		.uleb128 0x51
 10784 400a CE240000 		.4byte	.LASF890
 10785 400e CE240000 		.4byte	.LASF890
 10786 4012 23       		.byte	0x23
 10787 4013 B6       		.byte	0xb6
 10788 4014 51       		.uleb128 0x51
 10789 4015 510A0000 		.4byte	.LASF891
 10790 4019 510A0000 		.4byte	.LASF891
 10791 401d 05       		.byte	0x5
 10792 401e 2E       		.byte	0x2e
ARM GAS  C:\Users\ASUS\AppData\Local\Temp\ccYYtRfk.s 			page 238


 10793 401f 51       		.uleb128 0x51
 10794 4020 B7360000 		.4byte	.LASF892
 10795 4024 B7360000 		.4byte	.LASF892
 10796 4028 1F       		.byte	0x1f
 10797 4029 24       		.byte	0x24
 10798 402a 50       		.uleb128 0x50
 10799 402b 20380000 		.4byte	.LASF893
 10800 402f 20380000 		.4byte	.LASF893
 10801 4033 12       		.byte	0x12
 10802 4034 4806     		.2byte	0x648
 10803 4036 00       		.byte	0
 10804              		.section	.debug_abbrev,"",%progbits
 10805              	.Ldebug_abbrev0:
 10806 0000 01       		.uleb128 0x1
 10807 0001 11       		.uleb128 0x11
 10808 0002 01       		.byte	0x1
 10809 0003 25       		.uleb128 0x25
 10810 0004 0E       		.uleb128 0xe
 10811 0005 13       		.uleb128 0x13
 10812 0006 0B       		.uleb128 0xb
 10813 0007 03       		.uleb128 0x3
 10814 0008 0E       		.uleb128 0xe
 10815 0009 1B       		.uleb128 0x1b
 10816 000a 0E       		.uleb128 0xe
 10817 000b 55       		.uleb128 0x55
 10818 000c 17       		.uleb128 0x17
 10819 000d 11       		.uleb128 0x11
 10820 000e 01       		.uleb128 0x1
 10821 000f 10       		.uleb128 0x10
 10822 0010 17       		.uleb128 0x17
 10823 0011 00       		.byte	0
 10824 0012 00       		.byte	0
 10825 0013 02       		.uleb128 0x2
 10826 0014 04       		.uleb128 0x4
 10827 0015 01       		.byte	0x1
 10828 0016 0B       		.uleb128 0xb
 10829 0017 0B       		.uleb128 0xb
 10830 0018 49       		.uleb128 0x49
 10831 0019 13       		.uleb128 0x13
 10832 001a 3A       		.uleb128 0x3a
 10833 001b 0B       		.uleb128 0xb
 10834 001c 3B       		.uleb128 0x3b
 10835 001d 0B       		.uleb128 0xb
 10836 001e 01       		.uleb128 0x1
 10837 001f 13       		.uleb128 0x13
 10838 0020 00       		.byte	0
 10839 0021 00       		.byte	0
 10840 0022 03       		.uleb128 0x3
 10841 0023 28       		.uleb128 0x28
 10842 0024 00       		.byte	0
 10843 0025 03       		.uleb128 0x3
 10844 0026 0E       		.uleb128 0xe
 10845 0027 1C       		.uleb128 0x1c
 10846 0028 0D       		.uleb128 0xd
 10847 0029 00       		.byte	0
 10848 002a 00       		.byte	0
 10849 002b 04       		.uleb128 0x4
ARM GAS  C:\Users\ASUS\AppData\Local\Temp\ccYYtRfk.s 			page 239


 10850 002c 28       		.uleb128 0x28
 10851 002d 00       		.byte	0
 10852 002e 03       		.uleb128 0x3
 10853 002f 0E       		.uleb128 0xe
 10854 0030 1C       		.uleb128 0x1c
 10855 0031 0B       		.uleb128 0xb
 10856 0032 00       		.byte	0
 10857 0033 00       		.byte	0
 10858 0034 05       		.uleb128 0x5
 10859 0035 24       		.uleb128 0x24
 10860 0036 00       		.byte	0
 10861 0037 0B       		.uleb128 0xb
 10862 0038 0B       		.uleb128 0xb
 10863 0039 3E       		.uleb128 0x3e
 10864 003a 0B       		.uleb128 0xb
 10865 003b 03       		.uleb128 0x3
 10866 003c 0E       		.uleb128 0xe
 10867 003d 00       		.byte	0
 10868 003e 00       		.byte	0
 10869 003f 06       		.uleb128 0x6
 10870 0040 16       		.uleb128 0x16
 10871 0041 00       		.byte	0
 10872 0042 03       		.uleb128 0x3
 10873 0043 0E       		.uleb128 0xe
 10874 0044 3A       		.uleb128 0x3a
 10875 0045 0B       		.uleb128 0xb
 10876 0046 3B       		.uleb128 0x3b
 10877 0047 0B       		.uleb128 0xb
 10878 0048 49       		.uleb128 0x49
 10879 0049 13       		.uleb128 0x13
 10880 004a 00       		.byte	0
 10881 004b 00       		.byte	0
 10882 004c 07       		.uleb128 0x7
 10883 004d 16       		.uleb128 0x16
 10884 004e 00       		.byte	0
 10885 004f 03       		.uleb128 0x3
 10886 0050 0E       		.uleb128 0xe
 10887 0051 3A       		.uleb128 0x3a
 10888 0052 0B       		.uleb128 0xb
 10889 0053 3B       		.uleb128 0x3b
 10890 0054 05       		.uleb128 0x5
 10891 0055 49       		.uleb128 0x49
 10892 0056 13       		.uleb128 0x13
 10893 0057 00       		.byte	0
 10894 0058 00       		.byte	0
 10895 0059 08       		.uleb128 0x8
 10896 005a 24       		.uleb128 0x24
 10897 005b 00       		.byte	0
 10898 005c 0B       		.uleb128 0xb
 10899 005d 0B       		.uleb128 0xb
 10900 005e 3E       		.uleb128 0x3e
 10901 005f 0B       		.uleb128 0xb
 10902 0060 03       		.uleb128 0x3
 10903 0061 08       		.uleb128 0x8
 10904 0062 00       		.byte	0
 10905 0063 00       		.byte	0
 10906 0064 09       		.uleb128 0x9
ARM GAS  C:\Users\ASUS\AppData\Local\Temp\ccYYtRfk.s 			page 240


 10907 0065 13       		.uleb128 0x13
 10908 0066 01       		.byte	0x1
 10909 0067 0B       		.uleb128 0xb
 10910 0068 05       		.uleb128 0x5
 10911 0069 3A       		.uleb128 0x3a
 10912 006a 0B       		.uleb128 0xb
 10913 006b 3B       		.uleb128 0x3b
 10914 006c 05       		.uleb128 0x5
 10915 006d 01       		.uleb128 0x1
 10916 006e 13       		.uleb128 0x13
 10917 006f 00       		.byte	0
 10918 0070 00       		.byte	0
 10919 0071 0A       		.uleb128 0xa
 10920 0072 0D       		.uleb128 0xd
 10921 0073 00       		.byte	0
 10922 0074 03       		.uleb128 0x3
 10923 0075 0E       		.uleb128 0xe
 10924 0076 3A       		.uleb128 0x3a
 10925 0077 0B       		.uleb128 0xb
 10926 0078 3B       		.uleb128 0x3b
 10927 0079 05       		.uleb128 0x5
 10928 007a 49       		.uleb128 0x49
 10929 007b 13       		.uleb128 0x13
 10930 007c 38       		.uleb128 0x38
 10931 007d 0B       		.uleb128 0xb
 10932 007e 00       		.byte	0
 10933 007f 00       		.byte	0
 10934 0080 0B       		.uleb128 0xb
 10935 0081 0D       		.uleb128 0xd
 10936 0082 00       		.byte	0
 10937 0083 03       		.uleb128 0x3
 10938 0084 0E       		.uleb128 0xe
 10939 0085 3A       		.uleb128 0x3a
 10940 0086 0B       		.uleb128 0xb
 10941 0087 3B       		.uleb128 0x3b
 10942 0088 05       		.uleb128 0x5
 10943 0089 49       		.uleb128 0x49
 10944 008a 13       		.uleb128 0x13
 10945 008b 38       		.uleb128 0x38
 10946 008c 05       		.uleb128 0x5
 10947 008d 00       		.byte	0
 10948 008e 00       		.byte	0
 10949 008f 0C       		.uleb128 0xc
 10950 0090 0D       		.uleb128 0xd
 10951 0091 00       		.byte	0
 10952 0092 03       		.uleb128 0x3
 10953 0093 08       		.uleb128 0x8
 10954 0094 3A       		.uleb128 0x3a
 10955 0095 0B       		.uleb128 0xb
 10956 0096 3B       		.uleb128 0x3b
 10957 0097 05       		.uleb128 0x5
 10958 0098 49       		.uleb128 0x49
 10959 0099 13       		.uleb128 0x13
 10960 009a 38       		.uleb128 0x38
 10961 009b 05       		.uleb128 0x5
 10962 009c 00       		.byte	0
 10963 009d 00       		.byte	0
ARM GAS  C:\Users\ASUS\AppData\Local\Temp\ccYYtRfk.s 			page 241


 10964 009e 0D       		.uleb128 0xd
 10965 009f 01       		.uleb128 0x1
 10966 00a0 01       		.byte	0x1
 10967 00a1 49       		.uleb128 0x49
 10968 00a2 13       		.uleb128 0x13
 10969 00a3 01       		.uleb128 0x1
 10970 00a4 13       		.uleb128 0x13
 10971 00a5 00       		.byte	0
 10972 00a6 00       		.byte	0
 10973 00a7 0E       		.uleb128 0xe
 10974 00a8 21       		.uleb128 0x21
 10975 00a9 00       		.byte	0
 10976 00aa 49       		.uleb128 0x49
 10977 00ab 13       		.uleb128 0x13
 10978 00ac 2F       		.uleb128 0x2f
 10979 00ad 0B       		.uleb128 0xb
 10980 00ae 00       		.byte	0
 10981 00af 00       		.byte	0
 10982 00b0 0F       		.uleb128 0xf
 10983 00b1 35       		.uleb128 0x35
 10984 00b2 00       		.byte	0
 10985 00b3 49       		.uleb128 0x49
 10986 00b4 13       		.uleb128 0x13
 10987 00b5 00       		.byte	0
 10988 00b6 00       		.byte	0
 10989 00b7 10       		.uleb128 0x10
 10990 00b8 26       		.uleb128 0x26
 10991 00b9 00       		.byte	0
 10992 00ba 49       		.uleb128 0x49
 10993 00bb 13       		.uleb128 0x13
 10994 00bc 00       		.byte	0
 10995 00bd 00       		.byte	0
 10996 00be 11       		.uleb128 0x11
 10997 00bf 21       		.uleb128 0x21
 10998 00c0 00       		.byte	0
 10999 00c1 49       		.uleb128 0x49
 11000 00c2 13       		.uleb128 0x13
 11001 00c3 2F       		.uleb128 0x2f
 11002 00c4 05       		.uleb128 0x5
 11003 00c5 00       		.byte	0
 11004 00c6 00       		.byte	0
 11005 00c7 12       		.uleb128 0x12
 11006 00c8 13       		.uleb128 0x13
 11007 00c9 01       		.byte	0x1
 11008 00ca 0B       		.uleb128 0xb
 11009 00cb 05       		.uleb128 0x5
 11010 00cc 3A       		.uleb128 0x3a
 11011 00cd 0B       		.uleb128 0xb
 11012 00ce 3B       		.uleb128 0x3b
 11013 00cf 0B       		.uleb128 0xb
 11014 00d0 01       		.uleb128 0x1
 11015 00d1 13       		.uleb128 0x13
 11016 00d2 00       		.byte	0
 11017 00d3 00       		.byte	0
 11018 00d4 13       		.uleb128 0x13
 11019 00d5 0D       		.uleb128 0xd
 11020 00d6 00       		.byte	0
ARM GAS  C:\Users\ASUS\AppData\Local\Temp\ccYYtRfk.s 			page 242


 11021 00d7 03       		.uleb128 0x3
 11022 00d8 0E       		.uleb128 0xe
 11023 00d9 3A       		.uleb128 0x3a
 11024 00da 0B       		.uleb128 0xb
 11025 00db 3B       		.uleb128 0x3b
 11026 00dc 0B       		.uleb128 0xb
 11027 00dd 49       		.uleb128 0x49
 11028 00de 13       		.uleb128 0x13
 11029 00df 38       		.uleb128 0x38
 11030 00e0 0B       		.uleb128 0xb
 11031 00e1 00       		.byte	0
 11032 00e2 00       		.byte	0
 11033 00e3 14       		.uleb128 0x14
 11034 00e4 0D       		.uleb128 0xd
 11035 00e5 00       		.byte	0
 11036 00e6 03       		.uleb128 0x3
 11037 00e7 0E       		.uleb128 0xe
 11038 00e8 3A       		.uleb128 0x3a
 11039 00e9 0B       		.uleb128 0xb
 11040 00ea 3B       		.uleb128 0x3b
 11041 00eb 0B       		.uleb128 0xb
 11042 00ec 49       		.uleb128 0x49
 11043 00ed 13       		.uleb128 0x13
 11044 00ee 38       		.uleb128 0x38
 11045 00ef 05       		.uleb128 0x5
 11046 00f0 00       		.byte	0
 11047 00f1 00       		.byte	0
 11048 00f2 15       		.uleb128 0x15
 11049 00f3 13       		.uleb128 0x13
 11050 00f4 01       		.byte	0x1
 11051 00f5 0B       		.uleb128 0xb
 11052 00f6 0B       		.uleb128 0xb
 11053 00f7 3A       		.uleb128 0x3a
 11054 00f8 0B       		.uleb128 0xb
 11055 00f9 3B       		.uleb128 0x3b
 11056 00fa 0B       		.uleb128 0xb
 11057 00fb 01       		.uleb128 0x1
 11058 00fc 13       		.uleb128 0x13
 11059 00fd 00       		.byte	0
 11060 00fe 00       		.byte	0
 11061 00ff 16       		.uleb128 0x16
 11062 0100 0F       		.uleb128 0xf
 11063 0101 00       		.byte	0
 11064 0102 0B       		.uleb128 0xb
 11065 0103 0B       		.uleb128 0xb
 11066 0104 49       		.uleb128 0x49
 11067 0105 13       		.uleb128 0x13
 11068 0106 00       		.byte	0
 11069 0107 00       		.byte	0
 11070 0108 17       		.uleb128 0x17
 11071 0109 15       		.uleb128 0x15
 11072 010a 00       		.byte	0
 11073 010b 27       		.uleb128 0x27
 11074 010c 19       		.uleb128 0x19
 11075 010d 00       		.byte	0
 11076 010e 00       		.byte	0
 11077 010f 18       		.uleb128 0x18
ARM GAS  C:\Users\ASUS\AppData\Local\Temp\ccYYtRfk.s 			page 243


 11078 0110 13       		.uleb128 0x13
 11079 0111 01       		.byte	0x1
 11080 0112 0B       		.uleb128 0xb
 11081 0113 0B       		.uleb128 0xb
 11082 0114 3A       		.uleb128 0x3a
 11083 0115 0B       		.uleb128 0xb
 11084 0116 3B       		.uleb128 0x3b
 11085 0117 05       		.uleb128 0x5
 11086 0118 01       		.uleb128 0x1
 11087 0119 13       		.uleb128 0x13
 11088 011a 00       		.byte	0
 11089 011b 00       		.byte	0
 11090 011c 19       		.uleb128 0x19
 11091 011d 04       		.uleb128 0x4
 11092 011e 01       		.byte	0x1
 11093 011f 0B       		.uleb128 0xb
 11094 0120 0B       		.uleb128 0xb
 11095 0121 49       		.uleb128 0x49
 11096 0122 13       		.uleb128 0x13
 11097 0123 3A       		.uleb128 0x3a
 11098 0124 0B       		.uleb128 0xb
 11099 0125 3B       		.uleb128 0x3b
 11100 0126 05       		.uleb128 0x5
 11101 0127 01       		.uleb128 0x1
 11102 0128 13       		.uleb128 0x13
 11103 0129 00       		.byte	0
 11104 012a 00       		.byte	0
 11105 012b 1A       		.uleb128 0x1a
 11106 012c 0F       		.uleb128 0xf
 11107 012d 00       		.byte	0
 11108 012e 0B       		.uleb128 0xb
 11109 012f 0B       		.uleb128 0xb
 11110 0130 00       		.byte	0
 11111 0131 00       		.byte	0
 11112 0132 1B       		.uleb128 0x1b
 11113 0133 28       		.uleb128 0x28
 11114 0134 00       		.byte	0
 11115 0135 03       		.uleb128 0x3
 11116 0136 0E       		.uleb128 0xe
 11117 0137 1C       		.uleb128 0x1c
 11118 0138 06       		.uleb128 0x6
 11119 0139 00       		.byte	0
 11120 013a 00       		.byte	0
 11121 013b 1C       		.uleb128 0x1c
 11122 013c 04       		.uleb128 0x4
 11123 013d 01       		.byte	0x1
 11124 013e 03       		.uleb128 0x3
 11125 013f 0E       		.uleb128 0xe
 11126 0140 0B       		.uleb128 0xb
 11127 0141 0B       		.uleb128 0xb
 11128 0142 49       		.uleb128 0x49
 11129 0143 13       		.uleb128 0x13
 11130 0144 3A       		.uleb128 0x3a
 11131 0145 0B       		.uleb128 0xb
 11132 0146 3B       		.uleb128 0x3b
 11133 0147 05       		.uleb128 0x5
 11134 0148 01       		.uleb128 0x1
ARM GAS  C:\Users\ASUS\AppData\Local\Temp\ccYYtRfk.s 			page 244


 11135 0149 13       		.uleb128 0x13
 11136 014a 00       		.byte	0
 11137 014b 00       		.byte	0
 11138 014c 1D       		.uleb128 0x1d
 11139 014d 13       		.uleb128 0x13
 11140 014e 01       		.byte	0x1
 11141 014f 03       		.uleb128 0x3
 11142 0150 0E       		.uleb128 0xe
 11143 0151 0B       		.uleb128 0xb
 11144 0152 0B       		.uleb128 0xb
 11145 0153 3A       		.uleb128 0x3a
 11146 0154 0B       		.uleb128 0xb
 11147 0155 3B       		.uleb128 0x3b
 11148 0156 05       		.uleb128 0x5
 11149 0157 01       		.uleb128 0x1
 11150 0158 13       		.uleb128 0x13
 11151 0159 00       		.byte	0
 11152 015a 00       		.byte	0
 11153 015b 1E       		.uleb128 0x1e
 11154 015c 0D       		.uleb128 0xd
 11155 015d 00       		.byte	0
 11156 015e 03       		.uleb128 0x3
 11157 015f 08       		.uleb128 0x8
 11158 0160 3A       		.uleb128 0x3a
 11159 0161 0B       		.uleb128 0xb
 11160 0162 3B       		.uleb128 0x3b
 11161 0163 05       		.uleb128 0x5
 11162 0164 49       		.uleb128 0x49
 11163 0165 13       		.uleb128 0x13
 11164 0166 38       		.uleb128 0x38
 11165 0167 0B       		.uleb128 0xb
 11166 0168 00       		.byte	0
 11167 0169 00       		.byte	0
 11168 016a 1F       		.uleb128 0x1f
 11169 016b 15       		.uleb128 0x15
 11170 016c 01       		.byte	0x1
 11171 016d 27       		.uleb128 0x27
 11172 016e 19       		.uleb128 0x19
 11173 016f 01       		.uleb128 0x1
 11174 0170 13       		.uleb128 0x13
 11175 0171 00       		.byte	0
 11176 0172 00       		.byte	0
 11177 0173 20       		.uleb128 0x20
 11178 0174 05       		.uleb128 0x5
 11179 0175 00       		.byte	0
 11180 0176 49       		.uleb128 0x49
 11181 0177 13       		.uleb128 0x13
 11182 0178 00       		.byte	0
 11183 0179 00       		.byte	0
 11184 017a 21       		.uleb128 0x21
 11185 017b 15       		.uleb128 0x15
 11186 017c 01       		.byte	0x1
 11187 017d 27       		.uleb128 0x27
 11188 017e 19       		.uleb128 0x19
 11189 017f 49       		.uleb128 0x49
 11190 0180 13       		.uleb128 0x13
 11191 0181 01       		.uleb128 0x1
ARM GAS  C:\Users\ASUS\AppData\Local\Temp\ccYYtRfk.s 			page 245


 11192 0182 13       		.uleb128 0x13
 11193 0183 00       		.byte	0
 11194 0184 00       		.byte	0
 11195 0185 22       		.uleb128 0x22
 11196 0186 17       		.uleb128 0x17
 11197 0187 01       		.byte	0x1
 11198 0188 0B       		.uleb128 0xb
 11199 0189 0B       		.uleb128 0xb
 11200 018a 3A       		.uleb128 0x3a
 11201 018b 0B       		.uleb128 0xb
 11202 018c 3B       		.uleb128 0x3b
 11203 018d 0B       		.uleb128 0xb
 11204 018e 01       		.uleb128 0x1
 11205 018f 13       		.uleb128 0x13
 11206 0190 00       		.byte	0
 11207 0191 00       		.byte	0
 11208 0192 23       		.uleb128 0x23
 11209 0193 0D       		.uleb128 0xd
 11210 0194 00       		.byte	0
 11211 0195 03       		.uleb128 0x3
 11212 0196 0E       		.uleb128 0xe
 11213 0197 3A       		.uleb128 0x3a
 11214 0198 0B       		.uleb128 0xb
 11215 0199 3B       		.uleb128 0x3b
 11216 019a 0B       		.uleb128 0xb
 11217 019b 49       		.uleb128 0x49
 11218 019c 13       		.uleb128 0x13
 11219 019d 00       		.byte	0
 11220 019e 00       		.byte	0
 11221 019f 24       		.uleb128 0x24
 11222 01a0 13       		.uleb128 0x13
 11223 01a1 01       		.byte	0x1
 11224 01a2 03       		.uleb128 0x3
 11225 01a3 0E       		.uleb128 0xe
 11226 01a4 0B       		.uleb128 0xb
 11227 01a5 0B       		.uleb128 0xb
 11228 01a6 3A       		.uleb128 0x3a
 11229 01a7 0B       		.uleb128 0xb
 11230 01a8 3B       		.uleb128 0x3b
 11231 01a9 0B       		.uleb128 0xb
 11232 01aa 01       		.uleb128 0x1
 11233 01ab 13       		.uleb128 0x13
 11234 01ac 00       		.byte	0
 11235 01ad 00       		.byte	0
 11236 01ae 25       		.uleb128 0x25
 11237 01af 0D       		.uleb128 0xd
 11238 01b0 00       		.byte	0
 11239 01b1 03       		.uleb128 0x3
 11240 01b2 08       		.uleb128 0x8
 11241 01b3 3A       		.uleb128 0x3a
 11242 01b4 0B       		.uleb128 0xb
 11243 01b5 3B       		.uleb128 0x3b
 11244 01b6 0B       		.uleb128 0xb
 11245 01b7 49       		.uleb128 0x49
 11246 01b8 13       		.uleb128 0x13
 11247 01b9 38       		.uleb128 0x38
 11248 01ba 0B       		.uleb128 0xb
ARM GAS  C:\Users\ASUS\AppData\Local\Temp\ccYYtRfk.s 			page 246


 11249 01bb 00       		.byte	0
 11250 01bc 00       		.byte	0
 11251 01bd 26       		.uleb128 0x26
 11252 01be 13       		.uleb128 0x13
 11253 01bf 01       		.byte	0x1
 11254 01c0 03       		.uleb128 0x3
 11255 01c1 0E       		.uleb128 0xe
 11256 01c2 0B       		.uleb128 0xb
 11257 01c3 05       		.uleb128 0x5
 11258 01c4 3A       		.uleb128 0x3a
 11259 01c5 0B       		.uleb128 0xb
 11260 01c6 3B       		.uleb128 0x3b
 11261 01c7 0B       		.uleb128 0xb
 11262 01c8 01       		.uleb128 0x1
 11263 01c9 13       		.uleb128 0x13
 11264 01ca 00       		.byte	0
 11265 01cb 00       		.byte	0
 11266 01cc 27       		.uleb128 0x27
 11267 01cd 13       		.uleb128 0x13
 11268 01ce 01       		.byte	0x1
 11269 01cf 03       		.uleb128 0x3
 11270 01d0 0E       		.uleb128 0xe
 11271 01d1 0B       		.uleb128 0xb
 11272 01d2 05       		.uleb128 0x5
 11273 01d3 3A       		.uleb128 0x3a
 11274 01d4 0B       		.uleb128 0xb
 11275 01d5 3B       		.uleb128 0x3b
 11276 01d6 05       		.uleb128 0x5
 11277 01d7 01       		.uleb128 0x1
 11278 01d8 13       		.uleb128 0x13
 11279 01d9 00       		.byte	0
 11280 01da 00       		.byte	0
 11281 01db 28       		.uleb128 0x28
 11282 01dc 17       		.uleb128 0x17
 11283 01dd 01       		.byte	0x1
 11284 01de 0B       		.uleb128 0xb
 11285 01df 0B       		.uleb128 0xb
 11286 01e0 3A       		.uleb128 0x3a
 11287 01e1 0B       		.uleb128 0xb
 11288 01e2 3B       		.uleb128 0x3b
 11289 01e3 05       		.uleb128 0x5
 11290 01e4 01       		.uleb128 0x1
 11291 01e5 13       		.uleb128 0x13
 11292 01e6 00       		.byte	0
 11293 01e7 00       		.byte	0
 11294 01e8 29       		.uleb128 0x29
 11295 01e9 0D       		.uleb128 0xd
 11296 01ea 00       		.byte	0
 11297 01eb 03       		.uleb128 0x3
 11298 01ec 0E       		.uleb128 0xe
 11299 01ed 3A       		.uleb128 0x3a
 11300 01ee 0B       		.uleb128 0xb
 11301 01ef 3B       		.uleb128 0x3b
 11302 01f0 05       		.uleb128 0x5
 11303 01f1 49       		.uleb128 0x49
 11304 01f2 13       		.uleb128 0x13
 11305 01f3 00       		.byte	0
ARM GAS  C:\Users\ASUS\AppData\Local\Temp\ccYYtRfk.s 			page 247


 11306 01f4 00       		.byte	0
 11307 01f5 2A       		.uleb128 0x2a
 11308 01f6 28       		.uleb128 0x28
 11309 01f7 00       		.byte	0
 11310 01f8 03       		.uleb128 0x3
 11311 01f9 0E       		.uleb128 0xe
 11312 01fa 1C       		.uleb128 0x1c
 11313 01fb 05       		.uleb128 0x5
 11314 01fc 00       		.byte	0
 11315 01fd 00       		.byte	0
 11316 01fe 2B       		.uleb128 0x2b
 11317 01ff 04       		.uleb128 0x4
 11318 0200 01       		.byte	0x1
 11319 0201 03       		.uleb128 0x3
 11320 0202 0E       		.uleb128 0xe
 11321 0203 0B       		.uleb128 0xb
 11322 0204 0B       		.uleb128 0xb
 11323 0205 49       		.uleb128 0x49
 11324 0206 13       		.uleb128 0x13
 11325 0207 3A       		.uleb128 0x3a
 11326 0208 0B       		.uleb128 0xb
 11327 0209 3B       		.uleb128 0x3b
 11328 020a 0B       		.uleb128 0xb
 11329 020b 01       		.uleb128 0x1
 11330 020c 13       		.uleb128 0x13
 11331 020d 00       		.byte	0
 11332 020e 00       		.byte	0
 11333 020f 2C       		.uleb128 0x2c
 11334 0210 28       		.uleb128 0x28
 11335 0211 00       		.byte	0
 11336 0212 03       		.uleb128 0x3
 11337 0213 08       		.uleb128 0x8
 11338 0214 1C       		.uleb128 0x1c
 11339 0215 0B       		.uleb128 0xb
 11340 0216 00       		.byte	0
 11341 0217 00       		.byte	0
 11342 0218 2D       		.uleb128 0x2d
 11343 0219 13       		.uleb128 0x13
 11344 021a 01       		.byte	0x1
 11345 021b 03       		.uleb128 0x3
 11346 021c 08       		.uleb128 0x8
 11347 021d 0B       		.uleb128 0xb
 11348 021e 0B       		.uleb128 0xb
 11349 021f 3A       		.uleb128 0x3a
 11350 0220 0B       		.uleb128 0xb
 11351 0221 3B       		.uleb128 0x3b
 11352 0222 0B       		.uleb128 0xb
 11353 0223 01       		.uleb128 0x1
 11354 0224 13       		.uleb128 0x13
 11355 0225 00       		.byte	0
 11356 0226 00       		.byte	0
 11357 0227 2E       		.uleb128 0x2e
 11358 0228 16       		.uleb128 0x16
 11359 0229 00       		.byte	0
 11360 022a 03       		.uleb128 0x3
 11361 022b 08       		.uleb128 0x8
 11362 022c 3A       		.uleb128 0x3a
ARM GAS  C:\Users\ASUS\AppData\Local\Temp\ccYYtRfk.s 			page 248


 11363 022d 0B       		.uleb128 0xb
 11364 022e 3B       		.uleb128 0x3b
 11365 022f 0B       		.uleb128 0xb
 11366 0230 49       		.uleb128 0x49
 11367 0231 13       		.uleb128 0x13
 11368 0232 00       		.byte	0
 11369 0233 00       		.byte	0
 11370 0234 2F       		.uleb128 0x2f
 11371 0235 2E       		.uleb128 0x2e
 11372 0236 01       		.byte	0x1
 11373 0237 03       		.uleb128 0x3
 11374 0238 0E       		.uleb128 0xe
 11375 0239 3A       		.uleb128 0x3a
 11376 023a 0B       		.uleb128 0xb
 11377 023b 3B       		.uleb128 0x3b
 11378 023c 05       		.uleb128 0x5
 11379 023d 27       		.uleb128 0x27
 11380 023e 19       		.uleb128 0x19
 11381 023f 49       		.uleb128 0x49
 11382 0240 13       		.uleb128 0x13
 11383 0241 20       		.uleb128 0x20
 11384 0242 0B       		.uleb128 0xb
 11385 0243 01       		.uleb128 0x1
 11386 0244 13       		.uleb128 0x13
 11387 0245 00       		.byte	0
 11388 0246 00       		.byte	0
 11389 0247 30       		.uleb128 0x30
 11390 0248 05       		.uleb128 0x5
 11391 0249 00       		.byte	0
 11392 024a 03       		.uleb128 0x3
 11393 024b 0E       		.uleb128 0xe
 11394 024c 3A       		.uleb128 0x3a
 11395 024d 0B       		.uleb128 0xb
 11396 024e 3B       		.uleb128 0x3b
 11397 024f 05       		.uleb128 0x5
 11398 0250 49       		.uleb128 0x49
 11399 0251 13       		.uleb128 0x13
 11400 0252 00       		.byte	0
 11401 0253 00       		.byte	0
 11402 0254 31       		.uleb128 0x31
 11403 0255 2E       		.uleb128 0x2e
 11404 0256 01       		.byte	0x1
 11405 0257 03       		.uleb128 0x3
 11406 0258 0E       		.uleb128 0xe
 11407 0259 3A       		.uleb128 0x3a
 11408 025a 0B       		.uleb128 0xb
 11409 025b 3B       		.uleb128 0x3b
 11410 025c 05       		.uleb128 0x5
 11411 025d 27       		.uleb128 0x27
 11412 025e 19       		.uleb128 0x19
 11413 025f 20       		.uleb128 0x20
 11414 0260 0B       		.uleb128 0xb
 11415 0261 01       		.uleb128 0x1
 11416 0262 13       		.uleb128 0x13
 11417 0263 00       		.byte	0
 11418 0264 00       		.byte	0
 11419 0265 32       		.uleb128 0x32
ARM GAS  C:\Users\ASUS\AppData\Local\Temp\ccYYtRfk.s 			page 249


 11420 0266 2E       		.uleb128 0x2e
 11421 0267 00       		.byte	0
 11422 0268 03       		.uleb128 0x3
 11423 0269 0E       		.uleb128 0xe
 11424 026a 3A       		.uleb128 0x3a
 11425 026b 0B       		.uleb128 0xb
 11426 026c 3B       		.uleb128 0x3b
 11427 026d 0B       		.uleb128 0xb
 11428 026e 27       		.uleb128 0x27
 11429 026f 19       		.uleb128 0x19
 11430 0270 20       		.uleb128 0x20
 11431 0271 0B       		.uleb128 0xb
 11432 0272 00       		.byte	0
 11433 0273 00       		.byte	0
 11434 0274 33       		.uleb128 0x33
 11435 0275 2E       		.uleb128 0x2e
 11436 0276 01       		.byte	0x1
 11437 0277 3F       		.uleb128 0x3f
 11438 0278 19       		.uleb128 0x19
 11439 0279 03       		.uleb128 0x3
 11440 027a 0E       		.uleb128 0xe
 11441 027b 3A       		.uleb128 0x3a
 11442 027c 0B       		.uleb128 0xb
 11443 027d 3B       		.uleb128 0x3b
 11444 027e 0B       		.uleb128 0xb
 11445 027f 27       		.uleb128 0x27
 11446 0280 19       		.uleb128 0x19
 11447 0281 11       		.uleb128 0x11
 11448 0282 01       		.uleb128 0x1
 11449 0283 12       		.uleb128 0x12
 11450 0284 06       		.uleb128 0x6
 11451 0285 40       		.uleb128 0x40
 11452 0286 18       		.uleb128 0x18
 11453 0287 9742     		.uleb128 0x2117
 11454 0289 19       		.uleb128 0x19
 11455 028a 01       		.uleb128 0x1
 11456 028b 13       		.uleb128 0x13
 11457 028c 00       		.byte	0
 11458 028d 00       		.byte	0
 11459 028e 34       		.uleb128 0x34
 11460 028f 05       		.uleb128 0x5
 11461 0290 00       		.byte	0
 11462 0291 03       		.uleb128 0x3
 11463 0292 0E       		.uleb128 0xe
 11464 0293 3A       		.uleb128 0x3a
 11465 0294 0B       		.uleb128 0xb
 11466 0295 3B       		.uleb128 0x3b
 11467 0296 0B       		.uleb128 0xb
 11468 0297 49       		.uleb128 0x49
 11469 0298 13       		.uleb128 0x13
 11470 0299 02       		.uleb128 0x2
 11471 029a 17       		.uleb128 0x17
 11472 029b 00       		.byte	0
 11473 029c 00       		.byte	0
 11474 029d 35       		.uleb128 0x35
 11475 029e 0B       		.uleb128 0xb
 11476 029f 01       		.byte	0x1
ARM GAS  C:\Users\ASUS\AppData\Local\Temp\ccYYtRfk.s 			page 250


 11477 02a0 11       		.uleb128 0x11
 11478 02a1 01       		.uleb128 0x1
 11479 02a2 12       		.uleb128 0x12
 11480 02a3 06       		.uleb128 0x6
 11481 02a4 01       		.uleb128 0x1
 11482 02a5 13       		.uleb128 0x13
 11483 02a6 00       		.byte	0
 11484 02a7 00       		.byte	0
 11485 02a8 36       		.uleb128 0x36
 11486 02a9 34       		.uleb128 0x34
 11487 02aa 00       		.byte	0
 11488 02ab 03       		.uleb128 0x3
 11489 02ac 0E       		.uleb128 0xe
 11490 02ad 3A       		.uleb128 0x3a
 11491 02ae 0B       		.uleb128 0xb
 11492 02af 3B       		.uleb128 0x3b
 11493 02b0 0B       		.uleb128 0xb
 11494 02b1 49       		.uleb128 0x49
 11495 02b2 13       		.uleb128 0x13
 11496 02b3 02       		.uleb128 0x2
 11497 02b4 17       		.uleb128 0x17
 11498 02b5 00       		.byte	0
 11499 02b6 00       		.byte	0
 11500 02b7 37       		.uleb128 0x37
 11501 02b8 898201   		.uleb128 0x4109
 11502 02bb 00       		.byte	0
 11503 02bc 11       		.uleb128 0x11
 11504 02bd 01       		.uleb128 0x1
 11505 02be 31       		.uleb128 0x31
 11506 02bf 13       		.uleb128 0x13
 11507 02c0 00       		.byte	0
 11508 02c1 00       		.byte	0
 11509 02c2 38       		.uleb128 0x38
 11510 02c3 898201   		.uleb128 0x4109
 11511 02c6 01       		.byte	0x1
 11512 02c7 11       		.uleb128 0x11
 11513 02c8 01       		.uleb128 0x1
 11514 02c9 31       		.uleb128 0x31
 11515 02ca 13       		.uleb128 0x13
 11516 02cb 00       		.byte	0
 11517 02cc 00       		.byte	0
 11518 02cd 39       		.uleb128 0x39
 11519 02ce 8A8201   		.uleb128 0x410a
 11520 02d1 00       		.byte	0
 11521 02d2 02       		.uleb128 0x2
 11522 02d3 18       		.uleb128 0x18
 11523 02d4 9142     		.uleb128 0x2111
 11524 02d6 18       		.uleb128 0x18
 11525 02d7 00       		.byte	0
 11526 02d8 00       		.byte	0
 11527 02d9 3A       		.uleb128 0x3a
 11528 02da 2E       		.uleb128 0x2e
 11529 02db 01       		.byte	0x1
 11530 02dc 3F       		.uleb128 0x3f
 11531 02dd 19       		.uleb128 0x19
 11532 02de 03       		.uleb128 0x3
 11533 02df 0E       		.uleb128 0xe
ARM GAS  C:\Users\ASUS\AppData\Local\Temp\ccYYtRfk.s 			page 251


 11534 02e0 3A       		.uleb128 0x3a
 11535 02e1 0B       		.uleb128 0xb
 11536 02e2 3B       		.uleb128 0x3b
 11537 02e3 0B       		.uleb128 0xb
 11538 02e4 11       		.uleb128 0x11
 11539 02e5 01       		.uleb128 0x1
 11540 02e6 12       		.uleb128 0x12
 11541 02e7 06       		.uleb128 0x6
 11542 02e8 40       		.uleb128 0x40
 11543 02e9 18       		.uleb128 0x18
 11544 02ea 9742     		.uleb128 0x2117
 11545 02ec 19       		.uleb128 0x19
 11546 02ed 01       		.uleb128 0x1
 11547 02ee 13       		.uleb128 0x13
 11548 02ef 00       		.byte	0
 11549 02f0 00       		.byte	0
 11550 02f1 3B       		.uleb128 0x3b
 11551 02f2 05       		.uleb128 0x5
 11552 02f3 00       		.byte	0
 11553 02f4 03       		.uleb128 0x3
 11554 02f5 0E       		.uleb128 0xe
 11555 02f6 3A       		.uleb128 0x3a
 11556 02f7 0B       		.uleb128 0xb
 11557 02f8 3B       		.uleb128 0x3b
 11558 02f9 0B       		.uleb128 0xb
 11559 02fa 49       		.uleb128 0x49
 11560 02fb 13       		.uleb128 0x13
 11561 02fc 02       		.uleb128 0x2
 11562 02fd 18       		.uleb128 0x18
 11563 02fe 00       		.byte	0
 11564 02ff 00       		.byte	0
 11565 0300 3C       		.uleb128 0x3c
 11566 0301 34       		.uleb128 0x34
 11567 0302 00       		.byte	0
 11568 0303 03       		.uleb128 0x3
 11569 0304 0E       		.uleb128 0xe
 11570 0305 3A       		.uleb128 0x3a
 11571 0306 0B       		.uleb128 0xb
 11572 0307 3B       		.uleb128 0x3b
 11573 0308 0B       		.uleb128 0xb
 11574 0309 49       		.uleb128 0x49
 11575 030a 13       		.uleb128 0x13
 11576 030b 02       		.uleb128 0x2
 11577 030c 18       		.uleb128 0x18
 11578 030d 00       		.byte	0
 11579 030e 00       		.byte	0
 11580 030f 3D       		.uleb128 0x3d
 11581 0310 05       		.uleb128 0x5
 11582 0311 00       		.byte	0
 11583 0312 03       		.uleb128 0x3
 11584 0313 08       		.uleb128 0x8
 11585 0314 3A       		.uleb128 0x3a
 11586 0315 0B       		.uleb128 0xb
 11587 0316 3B       		.uleb128 0x3b
 11588 0317 0B       		.uleb128 0xb
 11589 0318 49       		.uleb128 0x49
 11590 0319 13       		.uleb128 0x13
ARM GAS  C:\Users\ASUS\AppData\Local\Temp\ccYYtRfk.s 			page 252


 11591 031a 02       		.uleb128 0x2
 11592 031b 17       		.uleb128 0x17
 11593 031c 00       		.byte	0
 11594 031d 00       		.byte	0
 11595 031e 3E       		.uleb128 0x3e
 11596 031f 898201   		.uleb128 0x4109
 11597 0322 01       		.byte	0x1
 11598 0323 11       		.uleb128 0x11
 11599 0324 01       		.uleb128 0x1
 11600 0325 31       		.uleb128 0x31
 11601 0326 13       		.uleb128 0x13
 11602 0327 01       		.uleb128 0x1
 11603 0328 13       		.uleb128 0x13
 11604 0329 00       		.byte	0
 11605 032a 00       		.byte	0
 11606 032b 3F       		.uleb128 0x3f
 11607 032c 34       		.uleb128 0x34
 11608 032d 00       		.byte	0
 11609 032e 03       		.uleb128 0x3
 11610 032f 08       		.uleb128 0x8
 11611 0330 3A       		.uleb128 0x3a
 11612 0331 0B       		.uleb128 0xb
 11613 0332 3B       		.uleb128 0x3b
 11614 0333 0B       		.uleb128 0xb
 11615 0334 49       		.uleb128 0x49
 11616 0335 13       		.uleb128 0x13
 11617 0336 02       		.uleb128 0x2
 11618 0337 17       		.uleb128 0x17
 11619 0338 00       		.byte	0
 11620 0339 00       		.byte	0
 11621 033a 40       		.uleb128 0x40
 11622 033b 2E       		.uleb128 0x2e
 11623 033c 01       		.byte	0x1
 11624 033d 3F       		.uleb128 0x3f
 11625 033e 19       		.uleb128 0x19
 11626 033f 03       		.uleb128 0x3
 11627 0340 0E       		.uleb128 0xe
 11628 0341 3A       		.uleb128 0x3a
 11629 0342 0B       		.uleb128 0xb
 11630 0343 3B       		.uleb128 0x3b
 11631 0344 0B       		.uleb128 0xb
 11632 0345 27       		.uleb128 0x27
 11633 0346 19       		.uleb128 0x19
 11634 0347 49       		.uleb128 0x49
 11635 0348 13       		.uleb128 0x13
 11636 0349 11       		.uleb128 0x11
 11637 034a 01       		.uleb128 0x1
 11638 034b 12       		.uleb128 0x12
 11639 034c 06       		.uleb128 0x6
 11640 034d 40       		.uleb128 0x40
 11641 034e 18       		.uleb128 0x18
 11642 034f 9742     		.uleb128 0x2117
 11643 0351 19       		.uleb128 0x19
 11644 0352 01       		.uleb128 0x1
 11645 0353 13       		.uleb128 0x13
 11646 0354 00       		.byte	0
 11647 0355 00       		.byte	0
ARM GAS  C:\Users\ASUS\AppData\Local\Temp\ccYYtRfk.s 			page 253


 11648 0356 41       		.uleb128 0x41
 11649 0357 1D       		.uleb128 0x1d
 11650 0358 01       		.byte	0x1
 11651 0359 31       		.uleb128 0x31
 11652 035a 13       		.uleb128 0x13
 11653 035b 11       		.uleb128 0x11
 11654 035c 01       		.uleb128 0x1
 11655 035d 12       		.uleb128 0x12
 11656 035e 06       		.uleb128 0x6
 11657 035f 58       		.uleb128 0x58
 11658 0360 0B       		.uleb128 0xb
 11659 0361 59       		.uleb128 0x59
 11660 0362 0B       		.uleb128 0xb
 11661 0363 01       		.uleb128 0x1
 11662 0364 13       		.uleb128 0x13
 11663 0365 00       		.byte	0
 11664 0366 00       		.byte	0
 11665 0367 42       		.uleb128 0x42
 11666 0368 05       		.uleb128 0x5
 11667 0369 00       		.byte	0
 11668 036a 31       		.uleb128 0x31
 11669 036b 13       		.uleb128 0x13
 11670 036c 02       		.uleb128 0x2
 11671 036d 17       		.uleb128 0x17
 11672 036e 00       		.byte	0
 11673 036f 00       		.byte	0
 11674 0370 43       		.uleb128 0x43
 11675 0371 2E       		.uleb128 0x2e
 11676 0372 01       		.byte	0x1
 11677 0373 3F       		.uleb128 0x3f
 11678 0374 19       		.uleb128 0x19
 11679 0375 03       		.uleb128 0x3
 11680 0376 0E       		.uleb128 0xe
 11681 0377 3A       		.uleb128 0x3a
 11682 0378 0B       		.uleb128 0xb
 11683 0379 3B       		.uleb128 0x3b
 11684 037a 0B       		.uleb128 0xb
 11685 037b 27       		.uleb128 0x27
 11686 037c 19       		.uleb128 0x19
 11687 037d 11       		.uleb128 0x11
 11688 037e 01       		.uleb128 0x1
 11689 037f 12       		.uleb128 0x12
 11690 0380 06       		.uleb128 0x6
 11691 0381 40       		.uleb128 0x40
 11692 0382 18       		.uleb128 0x18
 11693 0383 9642     		.uleb128 0x2116
 11694 0385 19       		.uleb128 0x19
 11695 0386 01       		.uleb128 0x1
 11696 0387 13       		.uleb128 0x13
 11697 0388 00       		.byte	0
 11698 0389 00       		.byte	0
 11699 038a 44       		.uleb128 0x44
 11700 038b 05       		.uleb128 0x5
 11701 038c 00       		.byte	0
 11702 038d 03       		.uleb128 0x3
 11703 038e 08       		.uleb128 0x8
 11704 038f 3A       		.uleb128 0x3a
ARM GAS  C:\Users\ASUS\AppData\Local\Temp\ccYYtRfk.s 			page 254


 11705 0390 0B       		.uleb128 0xb
 11706 0391 3B       		.uleb128 0x3b
 11707 0392 0B       		.uleb128 0xb
 11708 0393 49       		.uleb128 0x49
 11709 0394 13       		.uleb128 0x13
 11710 0395 02       		.uleb128 0x2
 11711 0396 18       		.uleb128 0x18
 11712 0397 00       		.byte	0
 11713 0398 00       		.byte	0
 11714 0399 45       		.uleb128 0x45
 11715 039a 2E       		.uleb128 0x2e
 11716 039b 00       		.byte	0
 11717 039c 3F       		.uleb128 0x3f
 11718 039d 19       		.uleb128 0x19
 11719 039e 03       		.uleb128 0x3
 11720 039f 0E       		.uleb128 0xe
 11721 03a0 3A       		.uleb128 0x3a
 11722 03a1 0B       		.uleb128 0xb
 11723 03a2 3B       		.uleb128 0x3b
 11724 03a3 0B       		.uleb128 0xb
 11725 03a4 27       		.uleb128 0x27
 11726 03a5 19       		.uleb128 0x19
 11727 03a6 11       		.uleb128 0x11
 11728 03a7 01       		.uleb128 0x1
 11729 03a8 12       		.uleb128 0x12
 11730 03a9 06       		.uleb128 0x6
 11731 03aa 40       		.uleb128 0x40
 11732 03ab 18       		.uleb128 0x18
 11733 03ac 9742     		.uleb128 0x2117
 11734 03ae 19       		.uleb128 0x19
 11735 03af 00       		.byte	0
 11736 03b0 00       		.byte	0
 11737 03b1 46       		.uleb128 0x46
 11738 03b2 2E       		.uleb128 0x2e
 11739 03b3 01       		.byte	0x1
 11740 03b4 3F       		.uleb128 0x3f
 11741 03b5 19       		.uleb128 0x19
 11742 03b6 03       		.uleb128 0x3
 11743 03b7 0E       		.uleb128 0xe
 11744 03b8 3A       		.uleb128 0x3a
 11745 03b9 0B       		.uleb128 0xb
 11746 03ba 3B       		.uleb128 0x3b
 11747 03bb 05       		.uleb128 0x5
 11748 03bc 27       		.uleb128 0x27
 11749 03bd 19       		.uleb128 0x19
 11750 03be 11       		.uleb128 0x11
 11751 03bf 01       		.uleb128 0x1
 11752 03c0 12       		.uleb128 0x12
 11753 03c1 06       		.uleb128 0x6
 11754 03c2 40       		.uleb128 0x40
 11755 03c3 18       		.uleb128 0x18
 11756 03c4 9642     		.uleb128 0x2116
 11757 03c6 19       		.uleb128 0x19
 11758 03c7 01       		.uleb128 0x1
 11759 03c8 13       		.uleb128 0x13
 11760 03c9 00       		.byte	0
 11761 03ca 00       		.byte	0
ARM GAS  C:\Users\ASUS\AppData\Local\Temp\ccYYtRfk.s 			page 255


 11762 03cb 47       		.uleb128 0x47
 11763 03cc 2E       		.uleb128 0x2e
 11764 03cd 01       		.byte	0x1
 11765 03ce 3F       		.uleb128 0x3f
 11766 03cf 19       		.uleb128 0x19
 11767 03d0 03       		.uleb128 0x3
 11768 03d1 0E       		.uleb128 0xe
 11769 03d2 3A       		.uleb128 0x3a
 11770 03d3 0B       		.uleb128 0xb
 11771 03d4 3B       		.uleb128 0x3b
 11772 03d5 0B       		.uleb128 0xb
 11773 03d6 27       		.uleb128 0x27
 11774 03d7 19       		.uleb128 0x19
 11775 03d8 49       		.uleb128 0x49
 11776 03d9 13       		.uleb128 0x13
 11777 03da 11       		.uleb128 0x11
 11778 03db 01       		.uleb128 0x1
 11779 03dc 12       		.uleb128 0x12
 11780 03dd 06       		.uleb128 0x6
 11781 03de 40       		.uleb128 0x40
 11782 03df 18       		.uleb128 0x18
 11783 03e0 9642     		.uleb128 0x2116
 11784 03e2 19       		.uleb128 0x19
 11785 03e3 01       		.uleb128 0x1
 11786 03e4 13       		.uleb128 0x13
 11787 03e5 00       		.byte	0
 11788 03e6 00       		.byte	0
 11789 03e7 48       		.uleb128 0x48
 11790 03e8 34       		.uleb128 0x34
 11791 03e9 00       		.byte	0
 11792 03ea 03       		.uleb128 0x3
 11793 03eb 08       		.uleb128 0x8
 11794 03ec 3A       		.uleb128 0x3a
 11795 03ed 0B       		.uleb128 0xb
 11796 03ee 3B       		.uleb128 0x3b
 11797 03ef 0B       		.uleb128 0xb
 11798 03f0 49       		.uleb128 0x49
 11799 03f1 13       		.uleb128 0x13
 11800 03f2 02       		.uleb128 0x2
 11801 03f3 18       		.uleb128 0x18
 11802 03f4 00       		.byte	0
 11803 03f5 00       		.byte	0
 11804 03f6 49       		.uleb128 0x49
 11805 03f7 0B       		.uleb128 0xb
 11806 03f8 01       		.byte	0x1
 11807 03f9 55       		.uleb128 0x55
 11808 03fa 17       		.uleb128 0x17
 11809 03fb 01       		.uleb128 0x1
 11810 03fc 13       		.uleb128 0x13
 11811 03fd 00       		.byte	0
 11812 03fe 00       		.byte	0
 11813 03ff 4A       		.uleb128 0x4a
 11814 0400 2E       		.uleb128 0x2e
 11815 0401 01       		.byte	0x1
 11816 0402 3F       		.uleb128 0x3f
 11817 0403 19       		.uleb128 0x19
 11818 0404 03       		.uleb128 0x3
ARM GAS  C:\Users\ASUS\AppData\Local\Temp\ccYYtRfk.s 			page 256


 11819 0405 0E       		.uleb128 0xe
 11820 0406 3A       		.uleb128 0x3a
 11821 0407 0B       		.uleb128 0xb
 11822 0408 3B       		.uleb128 0x3b
 11823 0409 0B       		.uleb128 0xb
 11824 040a 27       		.uleb128 0x27
 11825 040b 19       		.uleb128 0x19
 11826 040c 49       		.uleb128 0x49
 11827 040d 13       		.uleb128 0x13
 11828 040e 8701     		.uleb128 0x87
 11829 0410 19       		.uleb128 0x19
 11830 0411 11       		.uleb128 0x11
 11831 0412 01       		.uleb128 0x1
 11832 0413 12       		.uleb128 0x12
 11833 0414 06       		.uleb128 0x6
 11834 0415 40       		.uleb128 0x40
 11835 0416 18       		.uleb128 0x18
 11836 0417 9742     		.uleb128 0x2117
 11837 0419 19       		.uleb128 0x19
 11838 041a 01       		.uleb128 0x1
 11839 041b 13       		.uleb128 0x13
 11840 041c 00       		.byte	0
 11841 041d 00       		.byte	0
 11842 041e 4B       		.uleb128 0x4b
 11843 041f 34       		.uleb128 0x34
 11844 0420 00       		.byte	0
 11845 0421 03       		.uleb128 0x3
 11846 0422 0E       		.uleb128 0xe
 11847 0423 3A       		.uleb128 0x3a
 11848 0424 0B       		.uleb128 0xb
 11849 0425 3B       		.uleb128 0x3b
 11850 0426 0B       		.uleb128 0xb
 11851 0427 49       		.uleb128 0x49
 11852 0428 13       		.uleb128 0x13
 11853 0429 00       		.byte	0
 11854 042a 00       		.byte	0
 11855 042b 4C       		.uleb128 0x4c
 11856 042c 1D       		.uleb128 0x1d
 11857 042d 00       		.byte	0
 11858 042e 31       		.uleb128 0x31
 11859 042f 13       		.uleb128 0x13
 11860 0430 11       		.uleb128 0x11
 11861 0431 01       		.uleb128 0x1
 11862 0432 12       		.uleb128 0x12
 11863 0433 06       		.uleb128 0x6
 11864 0434 58       		.uleb128 0x58
 11865 0435 0B       		.uleb128 0xb
 11866 0436 59       		.uleb128 0x59
 11867 0437 0B       		.uleb128 0xb
 11868 0438 00       		.byte	0
 11869 0439 00       		.byte	0
 11870 043a 4D       		.uleb128 0x4d
 11871 043b 34       		.uleb128 0x34
 11872 043c 00       		.byte	0
 11873 043d 03       		.uleb128 0x3
 11874 043e 0E       		.uleb128 0xe
 11875 043f 3A       		.uleb128 0x3a
ARM GAS  C:\Users\ASUS\AppData\Local\Temp\ccYYtRfk.s 			page 257


 11876 0440 0B       		.uleb128 0xb
 11877 0441 3B       		.uleb128 0x3b
 11878 0442 0B       		.uleb128 0xb
 11879 0443 49       		.uleb128 0x49
 11880 0444 13       		.uleb128 0x13
 11881 0445 3F       		.uleb128 0x3f
 11882 0446 19       		.uleb128 0x19
 11883 0447 3C       		.uleb128 0x3c
 11884 0448 19       		.uleb128 0x19
 11885 0449 00       		.byte	0
 11886 044a 00       		.byte	0
 11887 044b 4E       		.uleb128 0x4e
 11888 044c 34       		.uleb128 0x34
 11889 044d 00       		.byte	0
 11890 044e 03       		.uleb128 0x3
 11891 044f 0E       		.uleb128 0xe
 11892 0450 3A       		.uleb128 0x3a
 11893 0451 0B       		.uleb128 0xb
 11894 0452 3B       		.uleb128 0x3b
 11895 0453 05       		.uleb128 0x5
 11896 0454 49       		.uleb128 0x49
 11897 0455 13       		.uleb128 0x13
 11898 0456 3F       		.uleb128 0x3f
 11899 0457 19       		.uleb128 0x19
 11900 0458 3C       		.uleb128 0x3c
 11901 0459 19       		.uleb128 0x19
 11902 045a 00       		.byte	0
 11903 045b 00       		.byte	0
 11904 045c 4F       		.uleb128 0x4f
 11905 045d 34       		.uleb128 0x34
 11906 045e 00       		.byte	0
 11907 045f 03       		.uleb128 0x3
 11908 0460 0E       		.uleb128 0xe
 11909 0461 3A       		.uleb128 0x3a
 11910 0462 0B       		.uleb128 0xb
 11911 0463 3B       		.uleb128 0x3b
 11912 0464 0B       		.uleb128 0xb
 11913 0465 49       		.uleb128 0x49
 11914 0466 13       		.uleb128 0x13
 11915 0467 3F       		.uleb128 0x3f
 11916 0468 19       		.uleb128 0x19
 11917 0469 02       		.uleb128 0x2
 11918 046a 18       		.uleb128 0x18
 11919 046b 00       		.byte	0
 11920 046c 00       		.byte	0
 11921 046d 50       		.uleb128 0x50
 11922 046e 2E       		.uleb128 0x2e
 11923 046f 00       		.byte	0
 11924 0470 3F       		.uleb128 0x3f
 11925 0471 19       		.uleb128 0x19
 11926 0472 3C       		.uleb128 0x3c
 11927 0473 19       		.uleb128 0x19
 11928 0474 6E       		.uleb128 0x6e
 11929 0475 0E       		.uleb128 0xe
 11930 0476 03       		.uleb128 0x3
 11931 0477 0E       		.uleb128 0xe
 11932 0478 3A       		.uleb128 0x3a
ARM GAS  C:\Users\ASUS\AppData\Local\Temp\ccYYtRfk.s 			page 258


 11933 0479 0B       		.uleb128 0xb
 11934 047a 3B       		.uleb128 0x3b
 11935 047b 05       		.uleb128 0x5
 11936 047c 00       		.byte	0
 11937 047d 00       		.byte	0
 11938 047e 51       		.uleb128 0x51
 11939 047f 2E       		.uleb128 0x2e
 11940 0480 00       		.byte	0
 11941 0481 3F       		.uleb128 0x3f
 11942 0482 19       		.uleb128 0x19
 11943 0483 3C       		.uleb128 0x3c
 11944 0484 19       		.uleb128 0x19
 11945 0485 6E       		.uleb128 0x6e
 11946 0486 0E       		.uleb128 0xe
 11947 0487 03       		.uleb128 0x3
 11948 0488 0E       		.uleb128 0xe
 11949 0489 3A       		.uleb128 0x3a
 11950 048a 0B       		.uleb128 0xb
 11951 048b 3B       		.uleb128 0x3b
 11952 048c 0B       		.uleb128 0xb
 11953 048d 00       		.byte	0
 11954 048e 00       		.byte	0
 11955 048f 52       		.uleb128 0x52
 11956 0490 2E       		.uleb128 0x2e
 11957 0491 00       		.byte	0
 11958 0492 3F       		.uleb128 0x3f
 11959 0493 19       		.uleb128 0x19
 11960 0494 3C       		.uleb128 0x3c
 11961 0495 19       		.uleb128 0x19
 11962 0496 6E       		.uleb128 0x6e
 11963 0497 0E       		.uleb128 0xe
 11964 0498 03       		.uleb128 0x3
 11965 0499 0E       		.uleb128 0xe
 11966 049a 3A       		.uleb128 0x3a
 11967 049b 0B       		.uleb128 0xb
 11968 049c 3B       		.uleb128 0x3b
 11969 049d 0B       		.uleb128 0xb
 11970 049e 6E       		.uleb128 0x6e
 11971 049f 0E       		.uleb128 0xe
 11972 04a0 00       		.byte	0
 11973 04a1 00       		.byte	0
 11974 04a2 00       		.byte	0
 11975              		.section	.debug_loc,"",%progbits
 11976              	.Ldebug_loc0:
 11977              	.LLST0:
 11978 0000 00000000 		.4byte	.LVL0
 11979 0004 1A000000 		.4byte	.LVL2
 11980 0008 0100     		.2byte	0x1
 11981 000a 50       		.byte	0x50
 11982 000b 1A000000 		.4byte	.LVL2
 11983 000f 20000000 		.4byte	.LVL4
 11984 0013 0400     		.2byte	0x4
 11985 0015 F3       		.byte	0xf3
 11986 0016 01       		.uleb128 0x1
 11987 0017 50       		.byte	0x50
 11988 0018 9F       		.byte	0x9f
 11989 0019 20000000 		.4byte	.LVL4
ARM GAS  C:\Users\ASUS\AppData\Local\Temp\ccYYtRfk.s 			page 259


 11990 001d 30000000 		.4byte	.LVL5
 11991 0021 0100     		.2byte	0x1
 11992 0023 50       		.byte	0x50
 11993 0024 30000000 		.4byte	.LVL5
 11994 0028 44000000 		.4byte	.LFE467
 11995 002c 0400     		.2byte	0x4
 11996 002e F3       		.byte	0xf3
 11997 002f 01       		.uleb128 0x1
 11998 0030 50       		.byte	0x50
 11999 0031 9F       		.byte	0x9f
 12000 0032 00000000 		.4byte	0
 12001 0036 00000000 		.4byte	0
 12002              	.LLST1:
 12003 003a 00000000 		.4byte	.LVL0
 12004 003e 18000000 		.4byte	.LVL1
 12005 0042 0100     		.2byte	0x1
 12006 0044 51       		.byte	0x51
 12007 0045 18000000 		.4byte	.LVL1
 12008 0049 20000000 		.4byte	.LVL4
 12009 004d 0400     		.2byte	0x4
 12010 004f F3       		.byte	0xf3
 12011 0050 01       		.uleb128 0x1
 12012 0051 51       		.byte	0x51
 12013 0052 9F       		.byte	0x9f
 12014 0053 20000000 		.4byte	.LVL4
 12015 0057 33000000 		.4byte	.LVL6-1
 12016 005b 0100     		.2byte	0x1
 12017 005d 51       		.byte	0x51
 12018 005e 33000000 		.4byte	.LVL6-1
 12019 0062 44000000 		.4byte	.LFE467
 12020 0066 0400     		.2byte	0x4
 12021 0068 F3       		.byte	0xf3
 12022 0069 01       		.uleb128 0x1
 12023 006a 51       		.byte	0x51
 12024 006b 9F       		.byte	0x9f
 12025 006c 00000000 		.4byte	0
 12026 0070 00000000 		.4byte	0
 12027              	.LLST2:
 12028 0074 20000000 		.4byte	.LVL4
 12029 0078 33000000 		.4byte	.LVL6-1
 12030 007c 0100     		.2byte	0x1
 12031 007e 51       		.byte	0x51
 12032 007f 33000000 		.4byte	.LVL6-1
 12033 0083 34000000 		.4byte	.LVL6
 12034 0087 0400     		.2byte	0x4
 12035 0089 F3       		.byte	0xf3
 12036 008a 01       		.uleb128 0x1
 12037 008b 51       		.byte	0x51
 12038 008c 9F       		.byte	0x9f
 12039 008d 00000000 		.4byte	0
 12040 0091 00000000 		.4byte	0
 12041              	.LLST3:
 12042 0095 00000000 		.4byte	.LVL10
 12043 0099 08000000 		.4byte	.LVL11
 12044 009d 0100     		.2byte	0x1
 12045 009f 50       		.byte	0x50
 12046 00a0 08000000 		.4byte	.LVL11
ARM GAS  C:\Users\ASUS\AppData\Local\Temp\ccYYtRfk.s 			page 260


 12047 00a4 20000000 		.4byte	.LVL15
 12048 00a8 0100     		.2byte	0x1
 12049 00aa 55       		.byte	0x55
 12050 00ab 20000000 		.4byte	.LVL15
 12051 00af 22000000 		.4byte	.LFE463
 12052 00b3 0400     		.2byte	0x4
 12053 00b5 F3       		.byte	0xf3
 12054 00b6 01       		.uleb128 0x1
 12055 00b7 50       		.byte	0x50
 12056 00b8 9F       		.byte	0x9f
 12057 00b9 00000000 		.4byte	0
 12058 00bd 00000000 		.4byte	0
 12059              	.LLST4:
 12060 00c1 00000000 		.4byte	.LVL10
 12061 00c5 0F000000 		.4byte	.LVL12-1
 12062 00c9 0100     		.2byte	0x1
 12063 00cb 51       		.byte	0x51
 12064 00cc 0F000000 		.4byte	.LVL12-1
 12065 00d0 16000000 		.4byte	.LVL13
 12066 00d4 0100     		.2byte	0x1
 12067 00d6 54       		.byte	0x54
 12068 00d7 16000000 		.4byte	.LVL13
 12069 00db 22000000 		.4byte	.LFE463
 12070 00df 0400     		.2byte	0x4
 12071 00e1 F3       		.byte	0xf3
 12072 00e2 01       		.uleb128 0x1
 12073 00e3 51       		.byte	0x51
 12074 00e4 9F       		.byte	0x9f
 12075 00e5 00000000 		.4byte	0
 12076 00e9 00000000 		.4byte	0
 12077              	.LLST5:
 12078 00ed 00000000 		.4byte	.LVL16
 12079 00f1 1D000000 		.4byte	.LVL20-1
 12080 00f5 0100     		.2byte	0x1
 12081 00f7 50       		.byte	0x50
 12082 00f8 1D000000 		.4byte	.LVL20-1
 12083 00fc 20000000 		.4byte	.LVL21
 12084 0100 0100     		.2byte	0x1
 12085 0102 56       		.byte	0x56
 12086 0103 20000000 		.4byte	.LVL21
 12087 0107 29000000 		.4byte	.LVL23-1
 12088 010b 0100     		.2byte	0x1
 12089 010d 50       		.byte	0x50
 12090 010e 29000000 		.4byte	.LVL23-1
 12091 0112 38000000 		.4byte	.LVL26
 12092 0116 0100     		.2byte	0x1
 12093 0118 56       		.byte	0x56
 12094 0119 38000000 		.4byte	.LVL26
 12095 011d 41000000 		.4byte	.LVL28-1
 12096 0121 0100     		.2byte	0x1
 12097 0123 50       		.byte	0x50
 12098 0124 41000000 		.4byte	.LVL28-1
 12099 0128 50000000 		.4byte	.LVL31
 12100 012c 0100     		.2byte	0x1
 12101 012e 56       		.byte	0x56
 12102 012f 50000000 		.4byte	.LVL31
 12103 0133 5B000000 		.4byte	.LVL34-1
ARM GAS  C:\Users\ASUS\AppData\Local\Temp\ccYYtRfk.s 			page 261


 12104 0137 0100     		.2byte	0x1
 12105 0139 50       		.byte	0x50
 12106 013a 5B000000 		.4byte	.LVL34-1
 12107 013e 5E000000 		.4byte	.LVL35
 12108 0142 0100     		.2byte	0x1
 12109 0144 56       		.byte	0x56
 12110 0145 5E000000 		.4byte	.LVL35
 12111 0149 63000000 		.4byte	.LVL37-1
 12112 014d 0100     		.2byte	0x1
 12113 014f 50       		.byte	0x50
 12114 0150 63000000 		.4byte	.LVL37-1
 12115 0154 64000000 		.4byte	.LVL39
 12116 0158 0100     		.2byte	0x1
 12117 015a 56       		.byte	0x56
 12118 015b 64000000 		.4byte	.LVL39
 12119 015f 6C000000 		.4byte	.LFE464
 12120 0163 0400     		.2byte	0x4
 12121 0165 F3       		.byte	0xf3
 12122 0166 01       		.uleb128 0x1
 12123 0167 50       		.byte	0x50
 12124 0168 9F       		.byte	0x9f
 12125 0169 00000000 		.4byte	0
 12126 016d 00000000 		.4byte	0
 12127              	.LLST6:
 12128 0171 00000000 		.4byte	.LVL16
 12129 0175 1A000000 		.4byte	.LVL19
 12130 0179 0100     		.2byte	0x1
 12131 017b 51       		.byte	0x51
 12132 017c 1A000000 		.4byte	.LVL19
 12133 0180 20000000 		.4byte	.LVL21
 12134 0184 0400     		.2byte	0x4
 12135 0186 F3       		.byte	0xf3
 12136 0187 01       		.uleb128 0x1
 12137 0188 51       		.byte	0x51
 12138 0189 9F       		.byte	0x9f
 12139 018a 20000000 		.4byte	.LVL21
 12140 018e 26000000 		.4byte	.LVL22
 12141 0192 0100     		.2byte	0x1
 12142 0194 51       		.byte	0x51
 12143 0195 26000000 		.4byte	.LVL22
 12144 0199 38000000 		.4byte	.LVL26
 12145 019d 0400     		.2byte	0x4
 12146 019f F3       		.byte	0xf3
 12147 01a0 01       		.uleb128 0x1
 12148 01a1 51       		.byte	0x51
 12149 01a2 9F       		.byte	0x9f
 12150 01a3 38000000 		.4byte	.LVL26
 12151 01a7 3E000000 		.4byte	.LVL27
 12152 01ab 0100     		.2byte	0x1
 12153 01ad 51       		.byte	0x51
 12154 01ae 3E000000 		.4byte	.LVL27
 12155 01b2 41000000 		.4byte	.LVL28-1
 12156 01b6 0300     		.2byte	0x3
 12157 01b8 71       		.byte	0x71
 12158 01b9 7F       		.sleb128 -1
 12159 01ba 9F       		.byte	0x9f
 12160 01bb 41000000 		.4byte	.LVL28-1
ARM GAS  C:\Users\ASUS\AppData\Local\Temp\ccYYtRfk.s 			page 262


 12161 01bf 50000000 		.4byte	.LVL31
 12162 01c3 0400     		.2byte	0x4
 12163 01c5 F3       		.byte	0xf3
 12164 01c6 01       		.uleb128 0x1
 12165 01c7 51       		.byte	0x51
 12166 01c8 9F       		.byte	0x9f
 12167 01c9 50000000 		.4byte	.LVL31
 12168 01cd 54000000 		.4byte	.LVL33
 12169 01d1 0100     		.2byte	0x1
 12170 01d3 51       		.byte	0x51
 12171 01d4 54000000 		.4byte	.LVL33
 12172 01d8 5E000000 		.4byte	.LVL35
 12173 01dc 0400     		.2byte	0x4
 12174 01de F3       		.byte	0xf3
 12175 01df 01       		.uleb128 0x1
 12176 01e0 51       		.byte	0x51
 12177 01e1 9F       		.byte	0x9f
 12178 01e2 5E000000 		.4byte	.LVL35
 12179 01e6 60000000 		.4byte	.LVL36
 12180 01ea 0100     		.2byte	0x1
 12181 01ec 51       		.byte	0x51
 12182 01ed 60000000 		.4byte	.LVL36
 12183 01f1 6C000000 		.4byte	.LFE464
 12184 01f5 0400     		.2byte	0x4
 12185 01f7 F3       		.byte	0xf3
 12186 01f8 01       		.uleb128 0x1
 12187 01f9 51       		.byte	0x51
 12188 01fa 9F       		.byte	0x9f
 12189 01fb 00000000 		.4byte	0
 12190 01ff 00000000 		.4byte	0
 12191              	.LLST7:
 12192 0203 00000000 		.4byte	.LVL16
 12193 0207 14000000 		.4byte	.LVL18
 12194 020b 0100     		.2byte	0x1
 12195 020d 52       		.byte	0x52
 12196 020e 14000000 		.4byte	.LVL18
 12197 0212 64000000 		.4byte	.LVL38
 12198 0216 0100     		.2byte	0x1
 12199 0218 55       		.byte	0x55
 12200 0219 64000000 		.4byte	.LVL38
 12201 021d 6C000000 		.4byte	.LFE464
 12202 0221 0400     		.2byte	0x4
 12203 0223 F3       		.byte	0xf3
 12204 0224 01       		.uleb128 0x1
 12205 0225 52       		.byte	0x52
 12206 0226 9F       		.byte	0x9f
 12207 0227 00000000 		.4byte	0
 12208 022b 00000000 		.4byte	0
 12209              	.LLST8:
 12210 022f 00000000 		.4byte	.LVL16
 12211 0233 0A000000 		.4byte	.LVL17
 12212 0237 0100     		.2byte	0x1
 12213 0239 53       		.byte	0x53
 12214 023a 0A000000 		.4byte	.LVL17
 12215 023e 2C000000 		.4byte	.LVL24
 12216 0242 0100     		.2byte	0x1
 12217 0244 54       		.byte	0x54
ARM GAS  C:\Users\ASUS\AppData\Local\Temp\ccYYtRfk.s 			page 263


 12218 0245 2C000000 		.4byte	.LVL24
 12219 0249 38000000 		.4byte	.LVL26
 12220 024d 0400     		.2byte	0x4
 12221 024f F3       		.byte	0xf3
 12222 0250 01       		.uleb128 0x1
 12223 0251 53       		.byte	0x53
 12224 0252 9F       		.byte	0x9f
 12225 0253 38000000 		.4byte	.LVL26
 12226 0257 44000000 		.4byte	.LVL29
 12227 025b 0100     		.2byte	0x1
 12228 025d 54       		.byte	0x54
 12229 025e 44000000 		.4byte	.LVL29
 12230 0262 50000000 		.4byte	.LVL31
 12231 0266 0400     		.2byte	0x4
 12232 0268 F3       		.byte	0xf3
 12233 0269 01       		.uleb128 0x1
 12234 026a 53       		.byte	0x53
 12235 026b 9F       		.byte	0x9f
 12236 026c 50000000 		.4byte	.LVL31
 12237 0270 52000000 		.4byte	.LVL32
 12238 0274 0100     		.2byte	0x1
 12239 0276 54       		.byte	0x54
 12240 0277 52000000 		.4byte	.LVL32
 12241 027b 5E000000 		.4byte	.LVL35
 12242 027f 0400     		.2byte	0x4
 12243 0281 F3       		.byte	0xf3
 12244 0282 01       		.uleb128 0x1
 12245 0283 53       		.byte	0x53
 12246 0284 9F       		.byte	0x9f
 12247 0285 5E000000 		.4byte	.LVL35
 12248 0289 64000000 		.4byte	.LVL37
 12249 028d 0100     		.2byte	0x1
 12250 028f 54       		.byte	0x54
 12251 0290 64000000 		.4byte	.LVL37
 12252 0294 6C000000 		.4byte	.LFE464
 12253 0298 0400     		.2byte	0x4
 12254 029a F3       		.byte	0xf3
 12255 029b 01       		.uleb128 0x1
 12256 029c 53       		.byte	0x53
 12257 029d 9F       		.byte	0x9f
 12258 029e 00000000 		.4byte	0
 12259 02a2 00000000 		.4byte	0
 12260              	.LLST9:
 12261 02a6 12000000 		.4byte	.LVL40
 12262 02aa 16000000 		.4byte	.LVL41
 12263 02ae 0200     		.2byte	0x2
 12264 02b0 30       		.byte	0x30
 12265 02b1 9F       		.byte	0x9f
 12266 02b2 16000000 		.4byte	.LVL41
 12267 02b6 3A000000 		.4byte	.LVL44
 12268 02ba 0100     		.2byte	0x1
 12269 02bc 54       		.byte	0x54
 12270 02bd 00000000 		.4byte	0
 12271 02c1 00000000 		.4byte	0
 12272              	.LLST10:
 12273 02c5 00000000 		.4byte	.LVL45
 12274 02c9 21000000 		.4byte	.LVL49-1
ARM GAS  C:\Users\ASUS\AppData\Local\Temp\ccYYtRfk.s 			page 264


 12275 02cd 0100     		.2byte	0x1
 12276 02cf 50       		.byte	0x50
 12277 02d0 21000000 		.4byte	.LVL49-1
 12278 02d4 24000000 		.4byte	.LFE466
 12279 02d8 0400     		.2byte	0x4
 12280 02da F3       		.byte	0xf3
 12281 02db 01       		.uleb128 0x1
 12282 02dc 50       		.byte	0x50
 12283 02dd 9F       		.byte	0x9f
 12284 02de 00000000 		.4byte	0
 12285 02e2 00000000 		.4byte	0
 12286              	.LLST11:
 12287 02e6 02000000 		.4byte	.LVL46
 12288 02ea 06000000 		.4byte	.LVL47
 12289 02ee 0200     		.2byte	0x2
 12290 02f0 30       		.byte	0x30
 12291 02f1 9F       		.byte	0x9f
 12292 02f2 06000000 		.4byte	.LVL47
 12293 02f6 21000000 		.4byte	.LVL49-1
 12294 02fa 0100     		.2byte	0x1
 12295 02fc 53       		.byte	0x53
 12296 02fd 00000000 		.4byte	0
 12297 0301 00000000 		.4byte	0
 12298              	.LLST12:
 12299 0305 04000000 		.4byte	.LVL50
 12300 0309 20000000 		.4byte	.LVL54
 12301 030d 0200     		.2byte	0x2
 12302 030f 30       		.byte	0x30
 12303 0310 9F       		.byte	0x9f
 12304 0311 20000000 		.4byte	.LVL54
 12305 0315 56000000 		.4byte	.LVL60
 12306 0319 0100     		.2byte	0x1
 12307 031b 54       		.byte	0x54
 12308 031c 00000000 		.4byte	0
 12309 0320 00000000 		.4byte	0
 12310              	.LLST13:
 12311 0324 00000000 		.4byte	.LVL61
 12312 0328 28000000 		.4byte	.LVL63
 12313 032c 0100     		.2byte	0x1
 12314 032e 50       		.byte	0x50
 12315 032f 28000000 		.4byte	.LVL63
 12316 0333 C8000000 		.4byte	.LFE470
 12317 0337 0400     		.2byte	0x4
 12318 0339 F3       		.byte	0xf3
 12319 033a 01       		.uleb128 0x1
 12320 033b 50       		.byte	0x50
 12321 033c 9F       		.byte	0x9f
 12322 033d 00000000 		.4byte	0
 12323 0341 00000000 		.4byte	0
 12324              	.LLST14:
 12325 0345 1A000000 		.4byte	.LVL62
 12326 0349 2C000000 		.4byte	.LVL64
 12327 034d 0300     		.2byte	0x3
 12328 034f 08       		.byte	0x8
 12329 0350 64       		.byte	0x64
 12330 0351 9F       		.byte	0x9f
 12331 0352 00000000 		.4byte	0
ARM GAS  C:\Users\ASUS\AppData\Local\Temp\ccYYtRfk.s 			page 265


 12332 0356 00000000 		.4byte	0
 12333              	.LLST15:
 12334 035a 1A000000 		.4byte	.LVL62
 12335 035e 2C000000 		.4byte	.LVL64
 12336 0362 0200     		.2byte	0x2
 12337 0364 30       		.byte	0x30
 12338 0365 9F       		.byte	0x9f
 12339 0366 00000000 		.4byte	0
 12340 036a 00000000 		.4byte	0
 12341              	.LLST16:
 12342 036e 1A000000 		.4byte	.LVL62
 12343 0372 2C000000 		.4byte	.LVL64
 12344 0376 0300     		.2byte	0x3
 12345 0378 08       		.byte	0x8
 12346 0379 74       		.byte	0x74
 12347 037a 9F       		.byte	0x9f
 12348 037b 00000000 		.4byte	0
 12349 037f 00000000 		.4byte	0
 12350              	.LLST17:
 12351 0383 34000000 		.4byte	.LVL65
 12352 0387 40000000 		.4byte	.LVL66
 12353 038b 0300     		.2byte	0x3
 12354 038d 08       		.byte	0x8
 12355 038e 64       		.byte	0x64
 12356 038f 9F       		.byte	0x9f
 12357 0390 00000000 		.4byte	0
 12358 0394 00000000 		.4byte	0
 12359              	.LLST18:
 12360 0398 34000000 		.4byte	.LVL65
 12361 039c 40000000 		.4byte	.LVL66
 12362 03a0 0100     		.2byte	0x1
 12363 03a2 56       		.byte	0x56
 12364 03a3 00000000 		.4byte	0
 12365 03a7 00000000 		.4byte	0
 12366              	.LLST19:
 12367 03ab 48000000 		.4byte	.LVL67
 12368 03af 56000000 		.4byte	.LVL68
 12369 03b3 0300     		.2byte	0x3
 12370 03b5 08       		.byte	0x8
 12371 03b6 64       		.byte	0x64
 12372 03b7 9F       		.byte	0x9f
 12373 03b8 00000000 		.4byte	0
 12374 03bc 00000000 		.4byte	0
 12375              	.LLST20:
 12376 03c0 48000000 		.4byte	.LVL67
 12377 03c4 56000000 		.4byte	.LVL68
 12378 03c8 0200     		.2byte	0x2
 12379 03ca 31       		.byte	0x31
 12380 03cb 9F       		.byte	0x9f
 12381 03cc 00000000 		.4byte	0
 12382 03d0 00000000 		.4byte	0
 12383              	.LLST21:
 12384 03d4 48000000 		.4byte	.LVL67
 12385 03d8 56000000 		.4byte	.LVL68
 12386 03dc 0300     		.2byte	0x3
 12387 03de 08       		.byte	0x8
 12388 03df 74       		.byte	0x74
ARM GAS  C:\Users\ASUS\AppData\Local\Temp\ccYYtRfk.s 			page 266


 12389 03e0 9F       		.byte	0x9f
 12390 03e1 00000000 		.4byte	0
 12391 03e5 00000000 		.4byte	0
 12392              	.LLST22:
 12393 03e9 5E000000 		.4byte	.LVL69
 12394 03ed 6C000000 		.4byte	.LVL70
 12395 03f1 0300     		.2byte	0x3
 12396 03f3 08       		.byte	0x8
 12397 03f4 64       		.byte	0x64
 12398 03f5 9F       		.byte	0x9f
 12399 03f6 00000000 		.4byte	0
 12400 03fa 00000000 		.4byte	0
 12401              	.LLST23:
 12402 03fe 5E000000 		.4byte	.LVL69
 12403 0402 6C000000 		.4byte	.LVL70
 12404 0406 0100     		.2byte	0x1
 12405 0408 55       		.byte	0x55
 12406 0409 00000000 		.4byte	0
 12407 040d 00000000 		.4byte	0
 12408              	.LLST24:
 12409 0411 5E000000 		.4byte	.LVL69
 12410 0415 6C000000 		.4byte	.LVL70
 12411 0419 0200     		.2byte	0x2
 12412 041b 30       		.byte	0x30
 12413 041c 9F       		.byte	0x9f
 12414 041d 00000000 		.4byte	0
 12415 0421 00000000 		.4byte	0
 12416              	.LLST25:
 12417 0425 74000000 		.4byte	.LVL71
 12418 0429 84000000 		.4byte	.LVL72
 12419 042d 0300     		.2byte	0x3
 12420 042f 08       		.byte	0x8
 12421 0430 64       		.byte	0x64
 12422 0431 9F       		.byte	0x9f
 12423 0432 00000000 		.4byte	0
 12424 0436 00000000 		.4byte	0
 12425              	.LLST26:
 12426 043a 74000000 		.4byte	.LVL71
 12427 043e 84000000 		.4byte	.LVL72
 12428 0442 0300     		.2byte	0x3
 12429 0444 91       		.byte	0x91
 12430 0445 4D       		.sleb128 -51
 12431 0446 9F       		.byte	0x9f
 12432 0447 00000000 		.4byte	0
 12433 044b 00000000 		.4byte	0
 12434              	.LLST27:
 12435 044f 74000000 		.4byte	.LVL71
 12436 0453 84000000 		.4byte	.LVL72
 12437 0457 0200     		.2byte	0x2
 12438 0459 31       		.byte	0x31
 12439 045a 9F       		.byte	0x9f
 12440 045b 00000000 		.4byte	0
 12441 045f 00000000 		.4byte	0
 12442              	.LLST28:
 12443 0463 8C000000 		.4byte	.LVL73
 12444 0467 96000000 		.4byte	.LVL74
 12445 046b 0300     		.2byte	0x3
ARM GAS  C:\Users\ASUS\AppData\Local\Temp\ccYYtRfk.s 			page 267


 12446 046d 08       		.byte	0x8
 12447 046e 64       		.byte	0x64
 12448 046f 9F       		.byte	0x9f
 12449 0470 00000000 		.4byte	0
 12450 0474 00000000 		.4byte	0
 12451              	.LLST29:
 12452 0478 00000000 		.4byte	.LVL76
 12453 047c 20000000 		.4byte	.LVL79
 12454 0480 0100     		.2byte	0x1
 12455 0482 50       		.byte	0x50
 12456 0483 20000000 		.4byte	.LVL79
 12457 0487 7C000000 		.4byte	.LFE471
 12458 048b 0400     		.2byte	0x4
 12459 048d F3       		.byte	0xf3
 12460 048e 01       		.uleb128 0x1
 12461 048f 50       		.byte	0x50
 12462 0490 9F       		.byte	0x9f
 12463 0491 00000000 		.4byte	0
 12464 0495 00000000 		.4byte	0
 12465              	.LLST30:
 12466 0499 00000000 		.4byte	.LVL76
 12467 049d 1E000000 		.4byte	.LVL78
 12468 04a1 0100     		.2byte	0x1
 12469 04a3 51       		.byte	0x51
 12470 04a4 1E000000 		.4byte	.LVL78
 12471 04a8 7C000000 		.4byte	.LFE471
 12472 04ac 0400     		.2byte	0x4
 12473 04ae F3       		.byte	0xf3
 12474 04af 01       		.uleb128 0x1
 12475 04b0 51       		.byte	0x51
 12476 04b1 9F       		.byte	0x9f
 12477 04b2 00000000 		.4byte	0
 12478 04b6 00000000 		.4byte	0
 12479              	.LLST31:
 12480 04ba 12000000 		.4byte	.LVL77
 12481 04be 24000000 		.4byte	.LVL80
 12482 04c2 0300     		.2byte	0x3
 12483 04c4 08       		.byte	0x8
 12484 04c5 64       		.byte	0x64
 12485 04c6 9F       		.byte	0x9f
 12486 04c7 00000000 		.4byte	0
 12487 04cb 00000000 		.4byte	0
 12488              	.LLST32:
 12489 04cf 12000000 		.4byte	.LVL77
 12490 04d3 24000000 		.4byte	.LVL80
 12491 04d7 0200     		.2byte	0x2
 12492 04d9 30       		.byte	0x30
 12493 04da 9F       		.byte	0x9f
 12494 04db 00000000 		.4byte	0
 12495 04df 00000000 		.4byte	0
 12496              	.LLST33:
 12497 04e3 12000000 		.4byte	.LVL77
 12498 04e7 24000000 		.4byte	.LVL80
 12499 04eb 0300     		.2byte	0x3
 12500 04ed 08       		.byte	0x8
 12501 04ee 74       		.byte	0x74
 12502 04ef 9F       		.byte	0x9f
ARM GAS  C:\Users\ASUS\AppData\Local\Temp\ccYYtRfk.s 			page 268


 12503 04f0 00000000 		.4byte	0
 12504 04f4 00000000 		.4byte	0
 12505              	.LLST34:
 12506 04f8 2C000000 		.4byte	.LVL81
 12507 04fc 38000000 		.4byte	.LVL82
 12508 0500 0300     		.2byte	0x3
 12509 0502 08       		.byte	0x8
 12510 0503 64       		.byte	0x64
 12511 0504 9F       		.byte	0x9f
 12512 0505 00000000 		.4byte	0
 12513 0509 00000000 		.4byte	0
 12514              	.LLST35:
 12515 050d 2C000000 		.4byte	.LVL81
 12516 0511 38000000 		.4byte	.LVL82
 12517 0515 0100     		.2byte	0x1
 12518 0517 57       		.byte	0x57
 12519 0518 00000000 		.4byte	0
 12520 051c 00000000 		.4byte	0
 12521              	.LLST36:
 12522 0520 3A000000 		.4byte	.LVL83
 12523 0524 46000000 		.4byte	.LVL84
 12524 0528 0300     		.2byte	0x3
 12525 052a 08       		.byte	0x8
 12526 052b 64       		.byte	0x64
 12527 052c 9F       		.byte	0x9f
 12528 052d 00000000 		.4byte	0
 12529 0531 00000000 		.4byte	0
 12530              	.LLST37:
 12531 0535 3A000000 		.4byte	.LVL83
 12532 0539 46000000 		.4byte	.LVL84
 12533 053d 0100     		.2byte	0x1
 12534 053f 56       		.byte	0x56
 12535 0540 00000000 		.4byte	0
 12536 0544 00000000 		.4byte	0
 12537              	.LLST38:
 12538 0548 4E000000 		.4byte	.LVL85
 12539 054c 58000000 		.4byte	.LVL86
 12540 0550 0300     		.2byte	0x3
 12541 0552 08       		.byte	0x8
 12542 0553 64       		.byte	0x64
 12543 0554 9F       		.byte	0x9f
 12544 0555 00000000 		.4byte	0
 12545 0559 00000000 		.4byte	0
 12546              	.LLST39:
 12547 055d 00000000 		.4byte	.LVL88
 12548 0561 0E000000 		.4byte	.LVL90
 12549 0565 0100     		.2byte	0x1
 12550 0567 50       		.byte	0x50
 12551 0568 0E000000 		.4byte	.LVL90
 12552 056c 40000000 		.4byte	.LVL100
 12553 0570 0100     		.2byte	0x1
 12554 0572 56       		.byte	0x56
 12555 0573 40000000 		.4byte	.LVL100
 12556 0577 42000000 		.4byte	.LFE472
 12557 057b 0400     		.2byte	0x4
 12558 057d F3       		.byte	0xf3
 12559 057e 01       		.uleb128 0x1
ARM GAS  C:\Users\ASUS\AppData\Local\Temp\ccYYtRfk.s 			page 269


 12560 057f 50       		.byte	0x50
 12561 0580 9F       		.byte	0x9f
 12562 0581 00000000 		.4byte	0
 12563 0585 00000000 		.4byte	0
 12564              	.LLST40:
 12565 0589 00000000 		.4byte	.LVL88
 12566 058d 0C000000 		.4byte	.LVL89
 12567 0591 0100     		.2byte	0x1
 12568 0593 51       		.byte	0x51
 12569 0594 0C000000 		.4byte	.LVL89
 12570 0598 40000000 		.4byte	.LVL99
 12571 059c 0100     		.2byte	0x1
 12572 059e 55       		.byte	0x55
 12573 059f 40000000 		.4byte	.LVL99
 12574 05a3 42000000 		.4byte	.LFE472
 12575 05a7 0400     		.2byte	0x4
 12576 05a9 F3       		.byte	0xf3
 12577 05aa 01       		.uleb128 0x1
 12578 05ab 51       		.byte	0x51
 12579 05ac 9F       		.byte	0x9f
 12580 05ad 00000000 		.4byte	0
 12581 05b1 00000000 		.4byte	0
 12582              	.LLST41:
 12583 05b5 00000000 		.4byte	.LVL88
 12584 05b9 11000000 		.4byte	.LVL91-1
 12585 05bd 0100     		.2byte	0x1
 12586 05bf 52       		.byte	0x52
 12587 05c0 11000000 		.4byte	.LVL91-1
 12588 05c4 40000000 		.4byte	.LVL98
 12589 05c8 0100     		.2byte	0x1
 12590 05ca 54       		.byte	0x54
 12591 05cb 40000000 		.4byte	.LVL98
 12592 05cf 42000000 		.4byte	.LFE472
 12593 05d3 0400     		.2byte	0x4
 12594 05d5 F3       		.byte	0xf3
 12595 05d6 01       		.uleb128 0x1
 12596 05d7 52       		.byte	0x52
 12597 05d8 9F       		.byte	0x9f
 12598 05d9 00000000 		.4byte	0
 12599 05dd 00000000 		.4byte	0
 12600              	.LLST42:
 12601 05e1 00000000 		.4byte	.LVL88
 12602 05e5 11000000 		.4byte	.LVL91-1
 12603 05e9 0100     		.2byte	0x1
 12604 05eb 53       		.byte	0x53
 12605 05ec 11000000 		.4byte	.LVL91-1
 12606 05f0 40000000 		.4byte	.LVL101
 12607 05f4 0100     		.2byte	0x1
 12608 05f6 57       		.byte	0x57
 12609 05f7 40000000 		.4byte	.LVL101
 12610 05fb 42000000 		.4byte	.LFE472
 12611 05ff 0400     		.2byte	0x4
 12612 0601 F3       		.byte	0xf3
 12613 0602 01       		.uleb128 0x1
 12614 0603 53       		.byte	0x53
 12615 0604 9F       		.byte	0x9f
 12616 0605 00000000 		.4byte	0
ARM GAS  C:\Users\ASUS\AppData\Local\Temp\ccYYtRfk.s 			page 270


 12617 0609 00000000 		.4byte	0
 12618              	.LLST43:
 12619 060d 00000000 		.4byte	.LVL102
 12620 0611 0E000000 		.4byte	.LVL103
 12621 0615 0100     		.2byte	0x1
 12622 0617 50       		.byte	0x50
 12623 0618 0E000000 		.4byte	.LVL103
 12624 061c 4C000000 		.4byte	.LFE473
 12625 0620 0400     		.2byte	0x4
 12626 0622 F3       		.byte	0xf3
 12627 0623 01       		.uleb128 0x1
 12628 0624 50       		.byte	0x50
 12629 0625 9F       		.byte	0x9f
 12630 0626 00000000 		.4byte	0
 12631 062a 00000000 		.4byte	0
 12632              	.LLST44:
 12633 062e 00000000 		.4byte	.LVL102
 12634 0632 11000000 		.4byte	.LVL104-1
 12635 0636 0100     		.2byte	0x1
 12636 0638 51       		.byte	0x51
 12637 0639 11000000 		.4byte	.LVL104-1
 12638 063d 4C000000 		.4byte	.LFE473
 12639 0641 0400     		.2byte	0x4
 12640 0643 F3       		.byte	0xf3
 12641 0644 01       		.uleb128 0x1
 12642 0645 51       		.byte	0x51
 12643 0646 9F       		.byte	0x9f
 12644 0647 00000000 		.4byte	0
 12645 064b 00000000 		.4byte	0
 12646              	.LLST45:
 12647 064f 00000000 		.4byte	.LVL102
 12648 0653 11000000 		.4byte	.LVL104-1
 12649 0657 0100     		.2byte	0x1
 12650 0659 52       		.byte	0x52
 12651 065a 11000000 		.4byte	.LVL104-1
 12652 065e 4C000000 		.4byte	.LFE473
 12653 0662 0400     		.2byte	0x4
 12654 0664 F3       		.byte	0xf3
 12655 0665 01       		.uleb128 0x1
 12656 0666 52       		.byte	0x52
 12657 0667 9F       		.byte	0x9f
 12658 0668 00000000 		.4byte	0
 12659 066c 00000000 		.4byte	0
 12660              	.LLST46:
 12661 0670 00000000 		.4byte	.LVL108
 12662 0674 10000000 		.4byte	.LVL111
 12663 0678 0100     		.2byte	0x1
 12664 067a 50       		.byte	0x50
 12665 067b 10000000 		.4byte	.LVL111
 12666 067f B8000000 		.4byte	.LFE474
 12667 0683 0400     		.2byte	0x4
 12668 0685 F3       		.byte	0xf3
 12669 0686 01       		.uleb128 0x1
 12670 0687 50       		.byte	0x50
 12671 0688 9F       		.byte	0x9f
 12672 0689 00000000 		.4byte	0
 12673 068d 00000000 		.4byte	0
ARM GAS  C:\Users\ASUS\AppData\Local\Temp\ccYYtRfk.s 			page 271


 12674              	.LLST47:
 12675 0691 00000000 		.4byte	.LVL108
 12676 0695 13000000 		.4byte	.LVL112-1
 12677 0699 0100     		.2byte	0x1
 12678 069b 51       		.byte	0x51
 12679 069c 13000000 		.4byte	.LVL112-1
 12680 06a0 B8000000 		.4byte	.LFE474
 12681 06a4 0400     		.2byte	0x4
 12682 06a6 F3       		.byte	0xf3
 12683 06a7 01       		.uleb128 0x1
 12684 06a8 51       		.byte	0x51
 12685 06a9 9F       		.byte	0x9f
 12686 06aa 00000000 		.4byte	0
 12687 06ae 00000000 		.4byte	0
 12688              	.LLST48:
 12689 06b2 00000000 		.4byte	.LVL108
 12690 06b6 13000000 		.4byte	.LVL112-1
 12691 06ba 0100     		.2byte	0x1
 12692 06bc 52       		.byte	0x52
 12693 06bd 13000000 		.4byte	.LVL112-1
 12694 06c1 B8000000 		.4byte	.LFE474
 12695 06c5 0400     		.2byte	0x4
 12696 06c7 F3       		.byte	0xf3
 12697 06c8 01       		.uleb128 0x1
 12698 06c9 52       		.byte	0x52
 12699 06ca 9F       		.byte	0x9f
 12700 06cb 00000000 		.4byte	0
 12701 06cf 00000000 		.4byte	0
 12702              	.LLST49:
 12703 06d3 00000000 		.4byte	.LVL108
 12704 06d7 0E000000 		.4byte	.LVL110
 12705 06db 0100     		.2byte	0x1
 12706 06dd 53       		.byte	0x53
 12707 06de 0E000000 		.4byte	.LVL110
 12708 06e2 B8000000 		.4byte	.LFE474
 12709 06e6 0200     		.2byte	0x2
 12710 06e8 91       		.byte	0x91
 12711 06e9 64       		.sleb128 -28
 12712 06ea 00000000 		.4byte	0
 12713 06ee 00000000 		.4byte	0
 12714              	.LLST50:
 12715 06f2 0C000000 		.4byte	.LVL109
 12716 06f6 38000000 		.4byte	.LVL118
 12717 06fa 0200     		.2byte	0x2
 12718 06fc 30       		.byte	0x30
 12719 06fd 9F       		.byte	0x9f
 12720 06fe 38000000 		.4byte	.LVL118
 12721 0702 80000000 		.4byte	.LVL127
 12722 0706 0100     		.2byte	0x1
 12723 0708 54       		.byte	0x54
 12724 0709 00000000 		.4byte	0
 12725 070d 00000000 		.4byte	0
 12726              	.LLST51:
 12727 0711 2A000000 		.4byte	.LVL116
 12728 0715 3A000000 		.4byte	.LVL119
 12729 0719 0100     		.2byte	0x1
 12730 071b 50       		.byte	0x50
ARM GAS  C:\Users\ASUS\AppData\Local\Temp\ccYYtRfk.s 			page 272


 12731 071c 3A000000 		.4byte	.LVL119
 12732 0720 94000000 		.4byte	.LVL129
 12733 0724 0100     		.2byte	0x1
 12734 0726 56       		.byte	0x56
 12735 0727 00000000 		.4byte	0
 12736 072b 00000000 		.4byte	0
 12737              	.LLST52:
 12738 072f 2E000000 		.4byte	.LVL117
 12739 0733 3D000000 		.4byte	.LVL120-1
 12740 0737 0100     		.2byte	0x1
 12741 0739 51       		.byte	0x51
 12742 073a 00000000 		.4byte	0
 12743 073e 00000000 		.4byte	0
 12744              	.LLST53:
 12745 0742 00000000 		.4byte	.LVL130
 12746 0746 28000000 		.4byte	.LVL132
 12747 074a 0100     		.2byte	0x1
 12748 074c 50       		.byte	0x50
 12749 074d 28000000 		.4byte	.LVL132
 12750 0751 C8000000 		.4byte	.LFE475
 12751 0755 0400     		.2byte	0x4
 12752 0757 F3       		.byte	0xf3
 12753 0758 01       		.uleb128 0x1
 12754 0759 50       		.byte	0x50
 12755 075a 9F       		.byte	0x9f
 12756 075b 00000000 		.4byte	0
 12757 075f 00000000 		.4byte	0
 12758              	.LLST54:
 12759 0763 1A000000 		.4byte	.LVL131
 12760 0767 2C000000 		.4byte	.LVL133
 12761 076b 0300     		.2byte	0x3
 12762 076d 08       		.byte	0x8
 12763 076e 64       		.byte	0x64
 12764 076f 9F       		.byte	0x9f
 12765 0770 00000000 		.4byte	0
 12766 0774 00000000 		.4byte	0
 12767              	.LLST55:
 12768 0778 1A000000 		.4byte	.LVL131
 12769 077c 2C000000 		.4byte	.LVL133
 12770 0780 0200     		.2byte	0x2
 12771 0782 30       		.byte	0x30
 12772 0783 9F       		.byte	0x9f
 12773 0784 00000000 		.4byte	0
 12774 0788 00000000 		.4byte	0
 12775              	.LLST56:
 12776 078c 1A000000 		.4byte	.LVL131
 12777 0790 2C000000 		.4byte	.LVL133
 12778 0794 0300     		.2byte	0x3
 12779 0796 08       		.byte	0x8
 12780 0797 68       		.byte	0x68
 12781 0798 9F       		.byte	0x9f
 12782 0799 00000000 		.4byte	0
 12783 079d 00000000 		.4byte	0
 12784              	.LLST57:
 12785 07a1 34000000 		.4byte	.LVL134
 12786 07a5 40000000 		.4byte	.LVL135
 12787 07a9 0300     		.2byte	0x3
ARM GAS  C:\Users\ASUS\AppData\Local\Temp\ccYYtRfk.s 			page 273


 12788 07ab 08       		.byte	0x8
 12789 07ac 64       		.byte	0x64
 12790 07ad 9F       		.byte	0x9f
 12791 07ae 00000000 		.4byte	0
 12792 07b2 00000000 		.4byte	0
 12793              	.LLST58:
 12794 07b6 34000000 		.4byte	.LVL134
 12795 07ba 40000000 		.4byte	.LVL135
 12796 07be 0100     		.2byte	0x1
 12797 07c0 56       		.byte	0x56
 12798 07c1 00000000 		.4byte	0
 12799 07c5 00000000 		.4byte	0
 12800              	.LLST59:
 12801 07c9 48000000 		.4byte	.LVL136
 12802 07cd 56000000 		.4byte	.LVL137
 12803 07d1 0300     		.2byte	0x3
 12804 07d3 08       		.byte	0x8
 12805 07d4 64       		.byte	0x64
 12806 07d5 9F       		.byte	0x9f
 12807 07d6 00000000 		.4byte	0
 12808 07da 00000000 		.4byte	0
 12809              	.LLST60:
 12810 07de 48000000 		.4byte	.LVL136
 12811 07e2 56000000 		.4byte	.LVL137
 12812 07e6 0200     		.2byte	0x2
 12813 07e8 31       		.byte	0x31
 12814 07e9 9F       		.byte	0x9f
 12815 07ea 00000000 		.4byte	0
 12816 07ee 00000000 		.4byte	0
 12817              	.LLST61:
 12818 07f2 48000000 		.4byte	.LVL136
 12819 07f6 56000000 		.4byte	.LVL137
 12820 07fa 0300     		.2byte	0x3
 12821 07fc 08       		.byte	0x8
 12822 07fd 68       		.byte	0x68
 12823 07fe 9F       		.byte	0x9f
 12824 07ff 00000000 		.4byte	0
 12825 0803 00000000 		.4byte	0
 12826              	.LLST62:
 12827 0807 5E000000 		.4byte	.LVL138
 12828 080b 6E000000 		.4byte	.LVL139
 12829 080f 0300     		.2byte	0x3
 12830 0811 08       		.byte	0x8
 12831 0812 64       		.byte	0x64
 12832 0813 9F       		.byte	0x9f
 12833 0814 00000000 		.4byte	0
 12834 0818 00000000 		.4byte	0
 12835              	.LLST63:
 12836 081c 5E000000 		.4byte	.LVL138
 12837 0820 6E000000 		.4byte	.LVL139
 12838 0824 0300     		.2byte	0x3
 12839 0826 91       		.byte	0x91
 12840 0827 4D       		.sleb128 -51
 12841 0828 9F       		.byte	0x9f
 12842 0829 00000000 		.4byte	0
 12843 082d 00000000 		.4byte	0
 12844              	.LLST64:
ARM GAS  C:\Users\ASUS\AppData\Local\Temp\ccYYtRfk.s 			page 274


 12845 0831 5E000000 		.4byte	.LVL138
 12846 0835 6E000000 		.4byte	.LVL139
 12847 0839 0200     		.2byte	0x2
 12848 083b 30       		.byte	0x30
 12849 083c 9F       		.byte	0x9f
 12850 083d 00000000 		.4byte	0
 12851 0841 00000000 		.4byte	0
 12852              	.LLST65:
 12853 0845 76000000 		.4byte	.LVL140
 12854 0849 84000000 		.4byte	.LVL141
 12855 084d 0300     		.2byte	0x3
 12856 084f 08       		.byte	0x8
 12857 0850 64       		.byte	0x64
 12858 0851 9F       		.byte	0x9f
 12859 0852 00000000 		.4byte	0
 12860 0856 00000000 		.4byte	0
 12861              	.LLST66:
 12862 085a 76000000 		.4byte	.LVL140
 12863 085e 84000000 		.4byte	.LVL141
 12864 0862 0100     		.2byte	0x1
 12865 0864 55       		.byte	0x55
 12866 0865 00000000 		.4byte	0
 12867 0869 00000000 		.4byte	0
 12868              	.LLST67:
 12869 086d 76000000 		.4byte	.LVL140
 12870 0871 84000000 		.4byte	.LVL141
 12871 0875 0200     		.2byte	0x2
 12872 0877 31       		.byte	0x31
 12873 0878 9F       		.byte	0x9f
 12874 0879 00000000 		.4byte	0
 12875 087d 00000000 		.4byte	0
 12876              	.LLST68:
 12877 0881 8C000000 		.4byte	.LVL142
 12878 0885 96000000 		.4byte	.LVL143
 12879 0889 0300     		.2byte	0x3
 12880 088b 08       		.byte	0x8
 12881 088c 64       		.byte	0x64
 12882 088d 9F       		.byte	0x9f
 12883 088e 00000000 		.4byte	0
 12884 0892 00000000 		.4byte	0
 12885              	.LLST69:
 12886 0896 00000000 		.4byte	.LVL145
 12887 089a 20000000 		.4byte	.LVL148
 12888 089e 0100     		.2byte	0x1
 12889 08a0 50       		.byte	0x50
 12890 08a1 20000000 		.4byte	.LVL148
 12891 08a5 7C000000 		.4byte	.LFE476
 12892 08a9 0400     		.2byte	0x4
 12893 08ab F3       		.byte	0xf3
 12894 08ac 01       		.uleb128 0x1
 12895 08ad 50       		.byte	0x50
 12896 08ae 9F       		.byte	0x9f
 12897 08af 00000000 		.4byte	0
 12898 08b3 00000000 		.4byte	0
 12899              	.LLST70:
 12900 08b7 00000000 		.4byte	.LVL145
 12901 08bb 1E000000 		.4byte	.LVL147
ARM GAS  C:\Users\ASUS\AppData\Local\Temp\ccYYtRfk.s 			page 275


 12902 08bf 0100     		.2byte	0x1
 12903 08c1 51       		.byte	0x51
 12904 08c2 1E000000 		.4byte	.LVL147
 12905 08c6 7C000000 		.4byte	.LFE476
 12906 08ca 0400     		.2byte	0x4
 12907 08cc F3       		.byte	0xf3
 12908 08cd 01       		.uleb128 0x1
 12909 08ce 51       		.byte	0x51
 12910 08cf 9F       		.byte	0x9f
 12911 08d0 00000000 		.4byte	0
 12912 08d4 00000000 		.4byte	0
 12913              	.LLST71:
 12914 08d8 12000000 		.4byte	.LVL146
 12915 08dc 24000000 		.4byte	.LVL149
 12916 08e0 0300     		.2byte	0x3
 12917 08e2 08       		.byte	0x8
 12918 08e3 64       		.byte	0x64
 12919 08e4 9F       		.byte	0x9f
 12920 08e5 00000000 		.4byte	0
 12921 08e9 00000000 		.4byte	0
 12922              	.LLST72:
 12923 08ed 12000000 		.4byte	.LVL146
 12924 08f1 24000000 		.4byte	.LVL149
 12925 08f5 0200     		.2byte	0x2
 12926 08f7 30       		.byte	0x30
 12927 08f8 9F       		.byte	0x9f
 12928 08f9 00000000 		.4byte	0
 12929 08fd 00000000 		.4byte	0
 12930              	.LLST73:
 12931 0901 12000000 		.4byte	.LVL146
 12932 0905 24000000 		.4byte	.LVL149
 12933 0909 0300     		.2byte	0x3
 12934 090b 08       		.byte	0x8
 12935 090c 68       		.byte	0x68
 12936 090d 9F       		.byte	0x9f
 12937 090e 00000000 		.4byte	0
 12938 0912 00000000 		.4byte	0
 12939              	.LLST74:
 12940 0916 2C000000 		.4byte	.LVL150
 12941 091a 38000000 		.4byte	.LVL151
 12942 091e 0300     		.2byte	0x3
 12943 0920 08       		.byte	0x8
 12944 0921 64       		.byte	0x64
 12945 0922 9F       		.byte	0x9f
 12946 0923 00000000 		.4byte	0
 12947 0927 00000000 		.4byte	0
 12948              	.LLST75:
 12949 092b 2C000000 		.4byte	.LVL150
 12950 092f 38000000 		.4byte	.LVL151
 12951 0933 0100     		.2byte	0x1
 12952 0935 57       		.byte	0x57
 12953 0936 00000000 		.4byte	0
 12954 093a 00000000 		.4byte	0
 12955              	.LLST76:
 12956 093e 3A000000 		.4byte	.LVL152
 12957 0942 46000000 		.4byte	.LVL153
 12958 0946 0300     		.2byte	0x3
ARM GAS  C:\Users\ASUS\AppData\Local\Temp\ccYYtRfk.s 			page 276


 12959 0948 08       		.byte	0x8
 12960 0949 64       		.byte	0x64
 12961 094a 9F       		.byte	0x9f
 12962 094b 00000000 		.4byte	0
 12963 094f 00000000 		.4byte	0
 12964              	.LLST77:
 12965 0953 3A000000 		.4byte	.LVL152
 12966 0957 46000000 		.4byte	.LVL153
 12967 095b 0100     		.2byte	0x1
 12968 095d 56       		.byte	0x56
 12969 095e 00000000 		.4byte	0
 12970 0962 00000000 		.4byte	0
 12971              	.LLST78:
 12972 0966 4E000000 		.4byte	.LVL154
 12973 096a 58000000 		.4byte	.LVL155
 12974 096e 0300     		.2byte	0x3
 12975 0970 08       		.byte	0x8
 12976 0971 64       		.byte	0x64
 12977 0972 9F       		.byte	0x9f
 12978 0973 00000000 		.4byte	0
 12979 0977 00000000 		.4byte	0
 12980              	.LLST79:
 12981 097b 00000000 		.4byte	.LVL157
 12982 097f 0A000000 		.4byte	.LVL158
 12983 0983 0100     		.2byte	0x1
 12984 0985 50       		.byte	0x50
 12985 0986 0A000000 		.4byte	.LVL158
 12986 098a 20000000 		.4byte	.LVL164
 12987 098e 0100     		.2byte	0x1
 12988 0990 56       		.byte	0x56
 12989 0991 20000000 		.4byte	.LVL164
 12990 0995 22000000 		.4byte	.LFE477
 12991 0999 0400     		.2byte	0x4
 12992 099b F3       		.byte	0xf3
 12993 099c 01       		.uleb128 0x1
 12994 099d 50       		.byte	0x50
 12995 099e 9F       		.byte	0x9f
 12996 099f 00000000 		.4byte	0
 12997 09a3 00000000 		.4byte	0
 12998              	.LLST80:
 12999 09a7 00000000 		.4byte	.LVL157
 13000 09ab 0D000000 		.4byte	.LVL159-1
 13001 09af 0100     		.2byte	0x1
 13002 09b1 51       		.byte	0x51
 13003 09b2 0D000000 		.4byte	.LVL159-1
 13004 09b6 20000000 		.4byte	.LVL163
 13005 09ba 0100     		.2byte	0x1
 13006 09bc 55       		.byte	0x55
 13007 09bd 20000000 		.4byte	.LVL163
 13008 09c1 22000000 		.4byte	.LFE477
 13009 09c5 0400     		.2byte	0x4
 13010 09c7 F3       		.byte	0xf3
 13011 09c8 01       		.uleb128 0x1
 13012 09c9 51       		.byte	0x51
 13013 09ca 9F       		.byte	0x9f
 13014 09cb 00000000 		.4byte	0
 13015 09cf 00000000 		.4byte	0
ARM GAS  C:\Users\ASUS\AppData\Local\Temp\ccYYtRfk.s 			page 277


 13016              	.LLST81:
 13017 09d3 00000000 		.4byte	.LVL157
 13018 09d7 0D000000 		.4byte	.LVL159-1
 13019 09db 0100     		.2byte	0x1
 13020 09dd 52       		.byte	0x52
 13021 09de 0D000000 		.4byte	.LVL159-1
 13022 09e2 20000000 		.4byte	.LVL162
 13023 09e6 0100     		.2byte	0x1
 13024 09e8 54       		.byte	0x54
 13025 09e9 20000000 		.4byte	.LVL162
 13026 09ed 22000000 		.4byte	.LFE477
 13027 09f1 0400     		.2byte	0x4
 13028 09f3 F3       		.byte	0xf3
 13029 09f4 01       		.uleb128 0x1
 13030 09f5 52       		.byte	0x52
 13031 09f6 9F       		.byte	0x9f
 13032 09f7 00000000 		.4byte	0
 13033 09fb 00000000 		.4byte	0
 13034              	.LLST82:
 13035 09ff 00000000 		.4byte	.LVL165
 13036 0a03 0A000000 		.4byte	.LVL166
 13037 0a07 0100     		.2byte	0x1
 13038 0a09 50       		.byte	0x50
 13039 0a0a 0A000000 		.4byte	.LVL166
 13040 0a0e 20000000 		.4byte	.LVL172
 13041 0a12 0100     		.2byte	0x1
 13042 0a14 56       		.byte	0x56
 13043 0a15 20000000 		.4byte	.LVL172
 13044 0a19 22000000 		.4byte	.LFE478
 13045 0a1d 0400     		.2byte	0x4
 13046 0a1f F3       		.byte	0xf3
 13047 0a20 01       		.uleb128 0x1
 13048 0a21 50       		.byte	0x50
 13049 0a22 9F       		.byte	0x9f
 13050 0a23 00000000 		.4byte	0
 13051 0a27 00000000 		.4byte	0
 13052              	.LLST83:
 13053 0a2b 00000000 		.4byte	.LVL165
 13054 0a2f 0D000000 		.4byte	.LVL167-1
 13055 0a33 0100     		.2byte	0x1
 13056 0a35 51       		.byte	0x51
 13057 0a36 0D000000 		.4byte	.LVL167-1
 13058 0a3a 20000000 		.4byte	.LVL171
 13059 0a3e 0100     		.2byte	0x1
 13060 0a40 55       		.byte	0x55
 13061 0a41 20000000 		.4byte	.LVL171
 13062 0a45 22000000 		.4byte	.LFE478
 13063 0a49 0400     		.2byte	0x4
 13064 0a4b F3       		.byte	0xf3
 13065 0a4c 01       		.uleb128 0x1
 13066 0a4d 51       		.byte	0x51
 13067 0a4e 9F       		.byte	0x9f
 13068 0a4f 00000000 		.4byte	0
 13069 0a53 00000000 		.4byte	0
 13070              	.LLST84:
 13071 0a57 00000000 		.4byte	.LVL165
 13072 0a5b 0D000000 		.4byte	.LVL167-1
ARM GAS  C:\Users\ASUS\AppData\Local\Temp\ccYYtRfk.s 			page 278


 13073 0a5f 0100     		.2byte	0x1
 13074 0a61 52       		.byte	0x52
 13075 0a62 0D000000 		.4byte	.LVL167-1
 13076 0a66 20000000 		.4byte	.LVL170
 13077 0a6a 0100     		.2byte	0x1
 13078 0a6c 54       		.byte	0x54
 13079 0a6d 20000000 		.4byte	.LVL170
 13080 0a71 22000000 		.4byte	.LFE478
 13081 0a75 0400     		.2byte	0x4
 13082 0a77 F3       		.byte	0xf3
 13083 0a78 01       		.uleb128 0x1
 13084 0a79 52       		.byte	0x52
 13085 0a7a 9F       		.byte	0x9f
 13086 0a7b 00000000 		.4byte	0
 13087 0a7f 00000000 		.4byte	0
 13088              	.LLST85:
 13089 0a83 00000000 		.4byte	.LVL173
 13090 0a87 0A000000 		.4byte	.LVL176
 13091 0a8b 0100     		.2byte	0x1
 13092 0a8d 50       		.byte	0x50
 13093 0a8e 0A000000 		.4byte	.LVL176
 13094 0a92 14000000 		.4byte	.LFE479
 13095 0a96 0400     		.2byte	0x4
 13096 0a98 F3       		.byte	0xf3
 13097 0a99 01       		.uleb128 0x1
 13098 0a9a 50       		.byte	0x50
 13099 0a9b 9F       		.byte	0x9f
 13100 0a9c 00000000 		.4byte	0
 13101 0aa0 00000000 		.4byte	0
 13102              	.LLST86:
 13103 0aa4 00000000 		.4byte	.LVL173
 13104 0aa8 08000000 		.4byte	.LVL175
 13105 0aac 0100     		.2byte	0x1
 13106 0aae 51       		.byte	0x51
 13107 0aaf 08000000 		.4byte	.LVL175
 13108 0ab3 14000000 		.4byte	.LFE479
 13109 0ab7 0400     		.2byte	0x4
 13110 0ab9 F3       		.byte	0xf3
 13111 0aba 01       		.uleb128 0x1
 13112 0abb 51       		.byte	0x51
 13113 0abc 9F       		.byte	0x9f
 13114 0abd 00000000 		.4byte	0
 13115 0ac1 00000000 		.4byte	0
 13116              	.LLST87:
 13117 0ac5 00000000 		.4byte	.LVL173
 13118 0ac9 06000000 		.4byte	.LVL174
 13119 0acd 0100     		.2byte	0x1
 13120 0acf 52       		.byte	0x52
 13121 0ad0 06000000 		.4byte	.LVL174
 13122 0ad4 14000000 		.4byte	.LFE479
 13123 0ad8 0400     		.2byte	0x4
 13124 0ada F3       		.byte	0xf3
 13125 0adb 01       		.uleb128 0x1
 13126 0adc 52       		.byte	0x52
 13127 0add 9F       		.byte	0x9f
 13128 0ade 00000000 		.4byte	0
 13129 0ae2 00000000 		.4byte	0
ARM GAS  C:\Users\ASUS\AppData\Local\Temp\ccYYtRfk.s 			page 279


 13130              	.LLST88:
 13131 0ae6 00000000 		.4byte	.LVL178
 13132 0aea 0A000000 		.4byte	.LVL181
 13133 0aee 0100     		.2byte	0x1
 13134 0af0 50       		.byte	0x50
 13135 0af1 0A000000 		.4byte	.LVL181
 13136 0af5 14000000 		.4byte	.LFE480
 13137 0af9 0400     		.2byte	0x4
 13138 0afb F3       		.byte	0xf3
 13139 0afc 01       		.uleb128 0x1
 13140 0afd 50       		.byte	0x50
 13141 0afe 9F       		.byte	0x9f
 13142 0aff 00000000 		.4byte	0
 13143 0b03 00000000 		.4byte	0
 13144              	.LLST89:
 13145 0b07 00000000 		.4byte	.LVL178
 13146 0b0b 08000000 		.4byte	.LVL180
 13147 0b0f 0100     		.2byte	0x1
 13148 0b11 51       		.byte	0x51
 13149 0b12 08000000 		.4byte	.LVL180
 13150 0b16 14000000 		.4byte	.LFE480
 13151 0b1a 0400     		.2byte	0x4
 13152 0b1c F3       		.byte	0xf3
 13153 0b1d 01       		.uleb128 0x1
 13154 0b1e 51       		.byte	0x51
 13155 0b1f 9F       		.byte	0x9f
 13156 0b20 00000000 		.4byte	0
 13157 0b24 00000000 		.4byte	0
 13158              	.LLST90:
 13159 0b28 00000000 		.4byte	.LVL178
 13160 0b2c 06000000 		.4byte	.LVL179
 13161 0b30 0100     		.2byte	0x1
 13162 0b32 52       		.byte	0x52
 13163 0b33 06000000 		.4byte	.LVL179
 13164 0b37 14000000 		.4byte	.LFE480
 13165 0b3b 0400     		.2byte	0x4
 13166 0b3d F3       		.byte	0xf3
 13167 0b3e 01       		.uleb128 0x1
 13168 0b3f 52       		.byte	0x52
 13169 0b40 9F       		.byte	0x9f
 13170 0b41 00000000 		.4byte	0
 13171 0b45 00000000 		.4byte	0
 13172              	.LLST91:
 13173 0b49 00000000 		.4byte	.LVL183
 13174 0b4d 40000000 		.4byte	.LVL190
 13175 0b51 0100     		.2byte	0x1
 13176 0b53 50       		.byte	0x50
 13177 0b54 40000000 		.4byte	.LVL190
 13178 0b58 43000000 		.4byte	.LVL191-1
 13179 0b5c 0200     		.2byte	0x2
 13180 0b5e 71       		.byte	0x71
 13181 0b5f 00       		.sleb128 0
 13182 0b60 43000000 		.4byte	.LVL191-1
 13183 0b64 82000000 		.4byte	.LVL199
 13184 0b68 0200     		.2byte	0x2
 13185 0b6a 7D       		.byte	0x7d
 13186 0b6b 06       		.sleb128 6
ARM GAS  C:\Users\ASUS\AppData\Local\Temp\ccYYtRfk.s 			page 280


 13187 0b6c 82000000 		.4byte	.LVL199
 13188 0b70 8C000000 		.4byte	.LFE481
 13189 0b74 0200     		.2byte	0x2
 13190 0b76 91       		.byte	0x91
 13191 0b77 6E       		.sleb128 -18
 13192 0b78 00000000 		.4byte	0
 13193 0b7c 00000000 		.4byte	0
 13194              	.LLST92:
 13195 0b80 00000000 		.4byte	.LVL183
 13196 0b84 3E000000 		.4byte	.LVL189
 13197 0b88 0100     		.2byte	0x1
 13198 0b8a 51       		.byte	0x51
 13199 0b8b 3E000000 		.4byte	.LVL189
 13200 0b8f 50000000 		.4byte	.LVL193
 13201 0b93 0200     		.2byte	0x2
 13202 0b95 91       		.byte	0x91
 13203 0b96 6C       		.sleb128 -20
 13204 0b97 50000000 		.4byte	.LVL193
 13205 0b9b 55000000 		.4byte	.LVL194-1
 13206 0b9f 0200     		.2byte	0x2
 13207 0ba1 71       		.byte	0x71
 13208 0ba2 00       		.sleb128 0
 13209 0ba3 55000000 		.4byte	.LVL194-1
 13210 0ba7 8C000000 		.4byte	.LFE481
 13211 0bab 0200     		.2byte	0x2
 13212 0bad 91       		.byte	0x91
 13213 0bae 6C       		.sleb128 -20
 13214 0baf 00000000 		.4byte	0
 13215 0bb3 00000000 		.4byte	0
 13216              	.LLST93:
 13217 0bb7 00000000 		.4byte	.LVL183
 13218 0bbb 43000000 		.4byte	.LVL191-1
 13219 0bbf 0100     		.2byte	0x1
 13220 0bc1 52       		.byte	0x52
 13221 0bc2 43000000 		.4byte	.LVL191-1
 13222 0bc6 64000000 		.4byte	.LVL196
 13223 0bca 0200     		.2byte	0x2
 13224 0bcc 7D       		.byte	0x7d
 13225 0bcd 02       		.sleb128 2
 13226 0bce 64000000 		.4byte	.LVL196
 13227 0bd2 69000000 		.4byte	.LVL197-1
 13228 0bd6 0200     		.2byte	0x2
 13229 0bd8 71       		.byte	0x71
 13230 0bd9 00       		.sleb128 0
 13231 0bda 69000000 		.4byte	.LVL197-1
 13232 0bde 82000000 		.4byte	.LVL199
 13233 0be2 0200     		.2byte	0x2
 13234 0be4 7D       		.byte	0x7d
 13235 0be5 02       		.sleb128 2
 13236 0be6 82000000 		.4byte	.LVL199
 13237 0bea 8C000000 		.4byte	.LFE481
 13238 0bee 0200     		.2byte	0x2
 13239 0bf0 91       		.byte	0x91
 13240 0bf1 6A       		.sleb128 -22
 13241 0bf2 00000000 		.4byte	0
 13242 0bf6 00000000 		.4byte	0
 13243              	.LLST94:
ARM GAS  C:\Users\ASUS\AppData\Local\Temp\ccYYtRfk.s 			page 281


 13244 0bfa 00000000 		.4byte	.LVL183
 13245 0bfe 08000000 		.4byte	.LVL184
 13246 0c02 0100     		.2byte	0x1
 13247 0c04 53       		.byte	0x53
 13248 0c05 08000000 		.4byte	.LVL184
 13249 0c09 82000000 		.4byte	.LVL200
 13250 0c0d 0100     		.2byte	0x1
 13251 0c0f 54       		.byte	0x54
 13252 0c10 82000000 		.4byte	.LVL200
 13253 0c14 8C000000 		.4byte	.LFE481
 13254 0c18 0400     		.2byte	0x4
 13255 0c1a F3       		.byte	0xf3
 13256 0c1b 01       		.uleb128 0x1
 13257 0c1c 53       		.byte	0x53
 13258 0c1d 9F       		.byte	0x9f
 13259 0c1e 00000000 		.4byte	0
 13260 0c22 00000000 		.4byte	0
 13261              	.LLST95:
 13262 0c26 12000000 		.4byte	.LVL185
 13263 0c2a 3A000000 		.4byte	.LVL187
 13264 0c2e 0200     		.2byte	0x2
 13265 0c30 30       		.byte	0x30
 13266 0c31 9F       		.byte	0x9f
 13267 0c32 3A000000 		.4byte	.LVL187
 13268 0c36 82000000 		.4byte	.LVL201
 13269 0c3a 0100     		.2byte	0x1
 13270 0c3c 55       		.byte	0x55
 13271 0c3d 00000000 		.4byte	0
 13272 0c41 00000000 		.4byte	0
 13273              	.LLST96:
 13274 0c45 30000000 		.4byte	.LVL186
 13275 0c49 3C000000 		.4byte	.LVL188
 13276 0c4d 0100     		.2byte	0x1
 13277 0c4f 53       		.byte	0x53
 13278 0c50 00000000 		.4byte	0
 13279 0c54 00000000 		.4byte	0
 13280              	.LLST97:
 13281 0c58 00000000 		.4byte	.LVL202
 13282 0c5c 44000000 		.4byte	.LVL209
 13283 0c60 0100     		.2byte	0x1
 13284 0c62 50       		.byte	0x50
 13285 0c63 44000000 		.4byte	.LVL209
 13286 0c67 47000000 		.4byte	.LVL210-1
 13287 0c6b 0200     		.2byte	0x2
 13288 0c6d 71       		.byte	0x71
 13289 0c6e 00       		.sleb128 0
 13290 0c6f 47000000 		.4byte	.LVL210-1
 13291 0c73 7E000000 		.4byte	.LVL218
 13292 0c77 0200     		.2byte	0x2
 13293 0c79 7D       		.byte	0x7d
 13294 0c7a 06       		.sleb128 6
 13295 0c7b 7E000000 		.4byte	.LVL218
 13296 0c7f 80000000 		.4byte	.LVL219
 13297 0c83 0200     		.2byte	0x2
 13298 0c85 72       		.byte	0x72
 13299 0c86 00       		.sleb128 0
 13300 0c87 80000000 		.4byte	.LVL219
ARM GAS  C:\Users\ASUS\AppData\Local\Temp\ccYYtRfk.s 			page 282


 13301 0c8b 92000000 		.4byte	.LVL224
 13302 0c8f 0200     		.2byte	0x2
 13303 0c91 7D       		.byte	0x7d
 13304 0c92 06       		.sleb128 6
 13305 0c93 92000000 		.4byte	.LVL224
 13306 0c97 9C000000 		.4byte	.LFE482
 13307 0c9b 0200     		.2byte	0x2
 13308 0c9d 91       		.byte	0x91
 13309 0c9e 76       		.sleb128 -10
 13310 0c9f 00000000 		.4byte	0
 13311 0ca3 00000000 		.4byte	0
 13312              	.LLST98:
 13313 0ca7 00000000 		.4byte	.LVL202
 13314 0cab 42000000 		.4byte	.LVL208
 13315 0caf 0100     		.2byte	0x1
 13316 0cb1 51       		.byte	0x51
 13317 0cb2 42000000 		.4byte	.LVL208
 13318 0cb6 54000000 		.4byte	.LVL212
 13319 0cba 0200     		.2byte	0x2
 13320 0cbc 91       		.byte	0x91
 13321 0cbd 74       		.sleb128 -12
 13322 0cbe 54000000 		.4byte	.LVL212
 13323 0cc2 59000000 		.4byte	.LVL213-1
 13324 0cc6 0200     		.2byte	0x2
 13325 0cc8 71       		.byte	0x71
 13326 0cc9 00       		.sleb128 0
 13327 0cca 59000000 		.4byte	.LVL213-1
 13328 0cce 84000000 		.4byte	.LVL220
 13329 0cd2 0200     		.2byte	0x2
 13330 0cd4 91       		.byte	0x91
 13331 0cd5 74       		.sleb128 -12
 13332 0cd6 84000000 		.4byte	.LVL220
 13333 0cda 86000000 		.4byte	.LVL221
 13334 0cde 0200     		.2byte	0x2
 13335 0ce0 72       		.byte	0x72
 13336 0ce1 00       		.sleb128 0
 13337 0ce2 86000000 		.4byte	.LVL221
 13338 0ce6 9C000000 		.4byte	.LFE482
 13339 0cea 0200     		.2byte	0x2
 13340 0cec 91       		.byte	0x91
 13341 0ced 74       		.sleb128 -12
 13342 0cee 00000000 		.4byte	0
 13343 0cf2 00000000 		.4byte	0
 13344              	.LLST99:
 13345 0cf6 00000000 		.4byte	.LVL202
 13346 0cfa 2E000000 		.4byte	.LVL204
 13347 0cfe 0100     		.2byte	0x1
 13348 0d00 52       		.byte	0x52
 13349 0d01 2E000000 		.4byte	.LVL204
 13350 0d05 38000000 		.4byte	.LVL205
 13351 0d09 0200     		.2byte	0x2
 13352 0d0b 7D       		.byte	0x7d
 13353 0d0c 02       		.sleb128 2
 13354 0d0d 38000000 		.4byte	.LVL205
 13355 0d11 3A000000 		.4byte	.LVL206
 13356 0d15 0200     		.2byte	0x2
 13357 0d17 72       		.byte	0x72
ARM GAS  C:\Users\ASUS\AppData\Local\Temp\ccYYtRfk.s 			page 283


 13358 0d18 00       		.sleb128 0
 13359 0d19 3A000000 		.4byte	.LVL206
 13360 0d1d 3E000000 		.4byte	.LVL207
 13361 0d21 0200     		.2byte	0x2
 13362 0d23 7D       		.byte	0x7d
 13363 0d24 02       		.sleb128 2
 13364 0d25 3E000000 		.4byte	.LVL207
 13365 0d29 47000000 		.4byte	.LVL210-1
 13366 0d2d 0100     		.2byte	0x1
 13367 0d2f 52       		.byte	0x52
 13368 0d30 47000000 		.4byte	.LVL210-1
 13369 0d34 68000000 		.4byte	.LVL215
 13370 0d38 0200     		.2byte	0x2
 13371 0d3a 7D       		.byte	0x7d
 13372 0d3b 02       		.sleb128 2
 13373 0d3c 68000000 		.4byte	.LVL215
 13374 0d40 6D000000 		.4byte	.LVL216-1
 13375 0d44 0200     		.2byte	0x2
 13376 0d46 71       		.byte	0x71
 13377 0d47 00       		.sleb128 0
 13378 0d48 6D000000 		.4byte	.LVL216-1
 13379 0d4c 8C000000 		.4byte	.LVL222
 13380 0d50 0200     		.2byte	0x2
 13381 0d52 7D       		.byte	0x7d
 13382 0d53 02       		.sleb128 2
 13383 0d54 8C000000 		.4byte	.LVL222
 13384 0d58 8E000000 		.4byte	.LVL223
 13385 0d5c 0200     		.2byte	0x2
 13386 0d5e 72       		.byte	0x72
 13387 0d5f 00       		.sleb128 0
 13388 0d60 8E000000 		.4byte	.LVL223
 13389 0d64 92000000 		.4byte	.LVL224
 13390 0d68 0200     		.2byte	0x2
 13391 0d6a 7D       		.byte	0x7d
 13392 0d6b 02       		.sleb128 2
 13393 0d6c 92000000 		.4byte	.LVL224
 13394 0d70 9C000000 		.4byte	.LFE482
 13395 0d74 0200     		.2byte	0x2
 13396 0d76 91       		.byte	0x91
 13397 0d77 72       		.sleb128 -14
 13398 0d78 00000000 		.4byte	0
 13399 0d7c 00000000 		.4byte	0
 13400              	.LLST100:
 13401 0d80 00000000 		.4byte	.LVL202
 13402 0d84 08000000 		.4byte	.LVL203
 13403 0d88 0100     		.2byte	0x1
 13404 0d8a 53       		.byte	0x53
 13405 0d8b 08000000 		.4byte	.LVL203
 13406 0d8f 92000000 		.4byte	.LVL225
 13407 0d93 0100     		.2byte	0x1
 13408 0d95 54       		.byte	0x54
 13409 0d96 92000000 		.4byte	.LVL225
 13410 0d9a 9C000000 		.4byte	.LFE482
 13411 0d9e 0400     		.2byte	0x4
 13412 0da0 F3       		.byte	0xf3
 13413 0da1 01       		.uleb128 0x1
 13414 0da2 53       		.byte	0x53
ARM GAS  C:\Users\ASUS\AppData\Local\Temp\ccYYtRfk.s 			page 284


 13415 0da3 9F       		.byte	0x9f
 13416 0da4 00000000 		.4byte	0
 13417 0da8 00000000 		.4byte	0
 13418              	.LLST101:
 13419 0dac 02000000 		.4byte	.LVL226
 13420 0db0 06000000 		.4byte	.LVL227
 13421 0db4 0400     		.2byte	0x4
 13422 0db6 0A       		.byte	0xa
 13423 0db7 F401     		.2byte	0x1f4
 13424 0db9 9F       		.byte	0x9f
 13425 0dba 06000000 		.4byte	.LVL227
 13426 0dbe 20000000 		.4byte	.LVL233
 13427 0dc2 0100     		.2byte	0x1
 13428 0dc4 54       		.byte	0x54
 13429 0dc5 00000000 		.4byte	0
 13430 0dc9 00000000 		.4byte	0
 13431              	.LLST102:
 13432 0dcd 0E000000 		.4byte	.LVL229
 13433 0dd1 12000000 		.4byte	.LVL231
 13434 0dd5 0100     		.2byte	0x1
 13435 0dd7 50       		.byte	0x50
 13436 0dd8 12000000 		.4byte	.LVL231
 13437 0ddc 20000000 		.4byte	.LVL234
 13438 0de0 0100     		.2byte	0x1
 13439 0de2 55       		.byte	0x55
 13440 0de3 20000000 		.4byte	.LVL234
 13441 0de7 28000000 		.4byte	.LFE484
 13442 0deb 0100     		.2byte	0x1
 13443 0ded 50       		.byte	0x50
 13444 0dee 00000000 		.4byte	0
 13445 0df2 00000000 		.4byte	0
 13446              	.LLST103:
 13447 0df6 02000000 		.4byte	.LVL235
 13448 0dfa 06000000 		.4byte	.LVL236
 13449 0dfe 0400     		.2byte	0x4
 13450 0e00 0A       		.byte	0xa
 13451 0e01 F401     		.2byte	0x1f4
 13452 0e03 9F       		.byte	0x9f
 13453 0e04 06000000 		.4byte	.LVL236
 13454 0e08 22000000 		.4byte	.LVL242
 13455 0e0c 0100     		.2byte	0x1
 13456 0e0e 54       		.byte	0x54
 13457 0e0f 00000000 		.4byte	0
 13458 0e13 00000000 		.4byte	0
 13459              	.LLST104:
 13460 0e17 10000000 		.4byte	.LVL238
 13461 0e1b 14000000 		.4byte	.LVL240
 13462 0e1f 0100     		.2byte	0x1
 13463 0e21 50       		.byte	0x50
 13464 0e22 14000000 		.4byte	.LVL240
 13465 0e26 22000000 		.4byte	.LVL243
 13466 0e2a 0100     		.2byte	0x1
 13467 0e2c 55       		.byte	0x55
 13468 0e2d 22000000 		.4byte	.LVL243
 13469 0e31 28000000 		.4byte	.LFE485
 13470 0e35 0100     		.2byte	0x1
 13471 0e37 50       		.byte	0x50
ARM GAS  C:\Users\ASUS\AppData\Local\Temp\ccYYtRfk.s 			page 285


 13472 0e38 00000000 		.4byte	0
 13473 0e3c 00000000 		.4byte	0
 13474              	.LLST105:
 13475 0e40 3A000000 		.4byte	.LVL250
 13476 0e44 42000000 		.4byte	.LVL251
 13477 0e48 0100     		.2byte	0x1
 13478 0e4a 52       		.byte	0x52
 13479 0e4b 42000000 		.4byte	.LVL251
 13480 0e4f 4A000000 		.4byte	.LVL252
 13481 0e53 0200     		.2byte	0x2
 13482 0e55 74       		.byte	0x74
 13483 0e56 00       		.sleb128 0
 13484 0e57 00000000 		.4byte	0
 13485 0e5b 00000000 		.4byte	0
 13486              	.LLST106:
 13487 0e5f 08000000 		.4byte	.LVL256
 13488 0e63 1E000000 		.4byte	.LVL260
 13489 0e67 0200     		.2byte	0x2
 13490 0e69 30       		.byte	0x30
 13491 0e6a 9F       		.byte	0x9f
 13492 0e6b 1E000000 		.4byte	.LVL260
 13493 0e6f 5C000000 		.4byte	.LVL269
 13494 0e73 0100     		.2byte	0x1
 13495 0e75 57       		.byte	0x57
 13496 0e76 5C000000 		.4byte	.LVL269
 13497 0e7a 60000000 		.4byte	.LVL270
 13498 0e7e 0100     		.2byte	0x1
 13499 0e80 50       		.byte	0x50
 13500 0e81 60000000 		.4byte	.LVL270
 13501 0e85 7A000000 		.4byte	.LVL277
 13502 0e89 0100     		.2byte	0x1
 13503 0e8b 55       		.byte	0x55
 13504 0e8c 00000000 		.4byte	0
 13505 0e90 00000000 		.4byte	0
 13506              	.LLST107:
 13507 0e94 08000000 		.4byte	.LVL256
 13508 0e98 1E000000 		.4byte	.LVL260
 13509 0e9c 0200     		.2byte	0x2
 13510 0e9e 30       		.byte	0x30
 13511 0e9f 9F       		.byte	0x9f
 13512 0ea0 1E000000 		.4byte	.LVL260
 13513 0ea4 66000000 		.4byte	.LVL272
 13514 0ea8 0100     		.2byte	0x1
 13515 0eaa 56       		.byte	0x56
 13516 0eab 66000000 		.4byte	.LVL272
 13517 0eaf 68000000 		.4byte	.LVL273
 13518 0eb3 0100     		.2byte	0x1
 13519 0eb5 50       		.byte	0x50
 13520 0eb6 68000000 		.4byte	.LVL273
 13521 0eba 9A000000 		.4byte	.LVL283
 13522 0ebe 0100     		.2byte	0x1
 13523 0ec0 54       		.byte	0x54
 13524 0ec1 00000000 		.4byte	0
 13525 0ec5 00000000 		.4byte	0
 13526              	.LLST108:
 13527 0ec9 12000000 		.4byte	.LVL258
 13528 0ecd 1E000000 		.4byte	.LVL260
ARM GAS  C:\Users\ASUS\AppData\Local\Temp\ccYYtRfk.s 			page 286


 13529 0ed1 0100     		.2byte	0x1
 13530 0ed3 50       		.byte	0x50
 13531 0ed4 1E000000 		.4byte	.LVL260
 13532 0ed8 C0000000 		.4byte	.LVL292
 13533 0edc 0100     		.2byte	0x1
 13534 0ede 58       		.byte	0x58
 13535 0edf 00000000 		.4byte	0
 13536 0ee3 00000000 		.4byte	0
 13537              	.LLST109:
 13538 0ee7 7A000000 		.4byte	.LVL277
 13539 0eeb 7F000000 		.4byte	.LVL278-1
 13540 0eef 0100     		.2byte	0x1
 13541 0ef1 50       		.byte	0x50
 13542 0ef2 7F000000 		.4byte	.LVL278-1
 13543 0ef6 C0000000 		.4byte	.LVL291
 13544 0efa 0100     		.2byte	0x1
 13545 0efc 55       		.byte	0x55
 13546 0efd 00000000 		.4byte	0
 13547 0f01 00000000 		.4byte	0
 13548              	.LLST110:
 13549 0f05 9A000000 		.4byte	.LVL283
 13550 0f09 9F000000 		.4byte	.LVL284-1
 13551 0f0d 0100     		.2byte	0x1
 13552 0f0f 50       		.byte	0x50
 13553 0f10 9F000000 		.4byte	.LVL284-1
 13554 0f14 C0000000 		.4byte	.LVL290
 13555 0f18 0100     		.2byte	0x1
 13556 0f1a 54       		.byte	0x54
 13557 0f1b 00000000 		.4byte	0
 13558 0f1f 00000000 		.4byte	0
 13559              	.LLST111:
 13560 0f23 16000000 		.4byte	.LVL259
 13561 0f27 1E000000 		.4byte	.LVL260
 13562 0f2b 0200     		.2byte	0x2
 13563 0f2d 30       		.byte	0x30
 13564 0f2e 9F       		.byte	0x9f
 13565 0f2f 1E000000 		.4byte	.LVL260
 13566 0f33 5C000000 		.4byte	.LVL269
 13567 0f37 0100     		.2byte	0x1
 13568 0f39 55       		.byte	0x55
 13569 0f3a 00000000 		.4byte	0
 13570 0f3e 00000000 		.4byte	0
 13571              	.LLST112:
 13572 0f42 A2000000 		.4byte	.LVL311
 13573 0f46 A4000000 		.4byte	.LVL312
 13574 0f4a 0100     		.2byte	0x1
 13575 0f4c 50       		.byte	0x50
 13576 0f4d A4000000 		.4byte	.LVL312
 13577 0f51 A7000000 		.4byte	.LVL313-1
 13578 0f55 0100     		.2byte	0x1
 13579 0f57 51       		.byte	0x51
 13580 0f58 00000000 		.4byte	0
 13581 0f5c 00000000 		.4byte	0
 13582              		.section	.debug_aranges,"",%progbits
 13583 0000 FC000000 		.4byte	0xfc
 13584 0004 0200     		.2byte	0x2
 13585 0006 00000000 		.4byte	.Ldebug_info0
ARM GAS  C:\Users\ASUS\AppData\Local\Temp\ccYYtRfk.s 			page 287


 13586 000a 04       		.byte	0x4
 13587 000b 00       		.byte	0
 13588 000c 0000     		.2byte	0
 13589 000e 0000     		.2byte	0
 13590 0010 00000000 		.4byte	.LFB467
 13591 0014 44000000 		.4byte	.LFE467-.LFB467
 13592 0018 00000000 		.4byte	.LFB468
 13593 001c 08000000 		.4byte	.LFE468-.LFB468
 13594 0020 00000000 		.4byte	.LFB486
 13595 0024 0C000000 		.4byte	.LFE486-.LFB486
 13596 0028 00000000 		.4byte	.LFB462
 13597 002c 14000000 		.4byte	.LFE462-.LFB462
 13598 0030 00000000 		.4byte	.LFB463
 13599 0034 22000000 		.4byte	.LFE463-.LFB463
 13600 0038 00000000 		.4byte	.LFB464
 13601 003c 6C000000 		.4byte	.LFE464-.LFB464
 13602 0040 00000000 		.4byte	.LFB465
 13603 0044 4C000000 		.4byte	.LFE465-.LFB465
 13604 0048 00000000 		.4byte	.LFB466
 13605 004c 24000000 		.4byte	.LFE466-.LFB466
 13606 0050 00000000 		.4byte	.LFB469
 13607 0054 6C000000 		.4byte	.LFE469-.LFB469
 13608 0058 00000000 		.4byte	.LFB470
 13609 005c C8000000 		.4byte	.LFE470-.LFB470
 13610 0060 00000000 		.4byte	.LFB471
 13611 0064 7C000000 		.4byte	.LFE471-.LFB471
 13612 0068 00000000 		.4byte	.LFB472
 13613 006c 42000000 		.4byte	.LFE472-.LFB472
 13614 0070 00000000 		.4byte	.LFB473
 13615 0074 4C000000 		.4byte	.LFE473-.LFB473
 13616 0078 00000000 		.4byte	.LFB474
 13617 007c B8000000 		.4byte	.LFE474-.LFB474
 13618 0080 00000000 		.4byte	.LFB475
 13619 0084 C8000000 		.4byte	.LFE475-.LFB475
 13620 0088 00000000 		.4byte	.LFB476
 13621 008c 7C000000 		.4byte	.LFE476-.LFB476
 13622 0090 00000000 		.4byte	.LFB477
 13623 0094 22000000 		.4byte	.LFE477-.LFB477
 13624 0098 00000000 		.4byte	.LFB478
 13625 009c 22000000 		.4byte	.LFE478-.LFB478
 13626 00a0 00000000 		.4byte	.LFB479
 13627 00a4 14000000 		.4byte	.LFE479-.LFB479
 13628 00a8 00000000 		.4byte	.LFB480
 13629 00ac 14000000 		.4byte	.LFE480-.LFB480
 13630 00b0 00000000 		.4byte	.LFB481
 13631 00b4 8C000000 		.4byte	.LFE481-.LFB481
 13632 00b8 00000000 		.4byte	.LFB482
 13633 00bc 9C000000 		.4byte	.LFE482-.LFB482
 13634 00c0 00000000 		.4byte	.LFB484
 13635 00c4 28000000 		.4byte	.LFE484-.LFB484
 13636 00c8 00000000 		.4byte	.LFB485
 13637 00cc 28000000 		.4byte	.LFE485-.LFB485
 13638 00d0 00000000 		.4byte	.LFB483
 13639 00d4 5C000000 		.4byte	.LFE483-.LFB483
 13640 00d8 00000000 		.4byte	.LFB487
 13641 00dc 0C000000 		.4byte	.LFE487-.LFB487
 13642 00e0 00000000 		.4byte	.LFB488
ARM GAS  C:\Users\ASUS\AppData\Local\Temp\ccYYtRfk.s 			page 288


 13643 00e4 30000000 		.4byte	.LFE488-.LFB488
 13644 00e8 00000000 		.4byte	.LFB489
 13645 00ec D8000000 		.4byte	.LFE489-.LFB489
 13646 00f0 00000000 		.4byte	.LFB490
 13647 00f4 00010000 		.4byte	.LFE490-.LFB490
 13648 00f8 00000000 		.4byte	0
 13649 00fc 00000000 		.4byte	0
 13650              		.section	.debug_ranges,"",%progbits
 13651              	.Ldebug_ranges0:
 13652 0000 16000000 		.4byte	.LBB93
 13653 0004 18000000 		.4byte	.LBE93
 13654 0008 1C000000 		.4byte	.LBB94
 13655 000c 52000000 		.4byte	.LBE94
 13656 0010 00000000 		.4byte	0
 13657 0014 00000000 		.4byte	0
 13658 0018 00000000 		.4byte	.LFB467
 13659 001c 44000000 		.4byte	.LFE467
 13660 0020 00000000 		.4byte	.LFB468
 13661 0024 08000000 		.4byte	.LFE468
 13662 0028 00000000 		.4byte	.LFB486
 13663 002c 0C000000 		.4byte	.LFE486
 13664 0030 00000000 		.4byte	.LFB462
 13665 0034 14000000 		.4byte	.LFE462
 13666 0038 00000000 		.4byte	.LFB463
 13667 003c 22000000 		.4byte	.LFE463
 13668 0040 00000000 		.4byte	.LFB464
 13669 0044 6C000000 		.4byte	.LFE464
 13670 0048 00000000 		.4byte	.LFB465
 13671 004c 4C000000 		.4byte	.LFE465
 13672 0050 00000000 		.4byte	.LFB466
 13673 0054 24000000 		.4byte	.LFE466
 13674 0058 00000000 		.4byte	.LFB469
 13675 005c 6C000000 		.4byte	.LFE469
 13676 0060 00000000 		.4byte	.LFB470
 13677 0064 C8000000 		.4byte	.LFE470
 13678 0068 00000000 		.4byte	.LFB471
 13679 006c 7C000000 		.4byte	.LFE471
 13680 0070 00000000 		.4byte	.LFB472
 13681 0074 42000000 		.4byte	.LFE472
 13682 0078 00000000 		.4byte	.LFB473
 13683 007c 4C000000 		.4byte	.LFE473
 13684 0080 00000000 		.4byte	.LFB474
 13685 0084 B8000000 		.4byte	.LFE474
 13686 0088 00000000 		.4byte	.LFB475
 13687 008c C8000000 		.4byte	.LFE475
 13688 0090 00000000 		.4byte	.LFB476
 13689 0094 7C000000 		.4byte	.LFE476
 13690 0098 00000000 		.4byte	.LFB477
 13691 009c 22000000 		.4byte	.LFE477
 13692 00a0 00000000 		.4byte	.LFB478
 13693 00a4 22000000 		.4byte	.LFE478
 13694 00a8 00000000 		.4byte	.LFB479
 13695 00ac 14000000 		.4byte	.LFE479
 13696 00b0 00000000 		.4byte	.LFB480
 13697 00b4 14000000 		.4byte	.LFE480
 13698 00b8 00000000 		.4byte	.LFB481
 13699 00bc 8C000000 		.4byte	.LFE481
ARM GAS  C:\Users\ASUS\AppData\Local\Temp\ccYYtRfk.s 			page 289


 13700 00c0 00000000 		.4byte	.LFB482
 13701 00c4 9C000000 		.4byte	.LFE482
 13702 00c8 00000000 		.4byte	.LFB484
 13703 00cc 28000000 		.4byte	.LFE484
 13704 00d0 00000000 		.4byte	.LFB485
 13705 00d4 28000000 		.4byte	.LFE485
 13706 00d8 00000000 		.4byte	.LFB483
 13707 00dc 5C000000 		.4byte	.LFE483
 13708 00e0 00000000 		.4byte	.LFB487
 13709 00e4 0C000000 		.4byte	.LFE487
 13710 00e8 00000000 		.4byte	.LFB488
 13711 00ec 30000000 		.4byte	.LFE488
 13712 00f0 00000000 		.4byte	.LFB489
 13713 00f4 D8000000 		.4byte	.LFE489
 13714 00f8 00000000 		.4byte	.LFB490
 13715 00fc 00010000 		.4byte	.LFE490
 13716 0100 00000000 		.4byte	0
 13717 0104 00000000 		.4byte	0
 13718              		.section	.debug_line,"",%progbits
 13719              	.Ldebug_line0:
 13720 0000 ED0A0000 		.section	.debug_str,"MS",%progbits,1
 13720      02003606 
 13720      00000201 
 13720      FB0E0D00 
 13720      01010101 
 13721              	.LASF784:
 13722 0000 61636349 		.ascii	"accInactive\000"
 13722      6E616374 
 13722      69766500 
 13723              	.LASF141:
 13724 000c 74637077 		.ascii	"tcpwm_1_interrupts_4_IRQn\000"
 13724      6D5F315F 
 13724      696E7465 
 13724      72727570 
 13724      74735F34 
 13725              	.LASF601:
 13726 0026 43595F42 		.ascii	"CY_BLE_EVT_PENDING_FLASH_WRITE\000"
 13726      4C455F45 
 13726      56545F50 
 13726      454E4449 
 13726      4E475F46 
 13727              	.LASF585:
 13728 0045 5F736967 		.ascii	"_signal_buf\000"
 13728      6E616C5F 
 13728      62756600 
 13729              	.LASF442:
 13730 0051 63795F65 		.ascii	"cy_en_scb_i2c_status_t\000"
 13730      6E5F7363 
 13730      625F6932 
 13730      635F7374 
 13730      61747573 
 13731              	.LASF441:
 13732 0068 43595F53 		.ascii	"CY_SCB_I2C_MASTER_MANUAL_ABORT_START\000"
 13732      43425F49 
 13732      32435F4D 
 13732      41535445 
 13732      525F4D41 
ARM GAS  C:\Users\ASUS\AppData\Local\Temp\ccYYtRfk.s 			page 290


 13733              	.LASF298:
 13734 008d 63727970 		.ascii	"cryptoBase\000"
 13734      746F4261 
 13734      736500
 13735              	.LASF161:
 13736 0098 7564625F 		.ascii	"udb_interrupts_0_IRQn\000"
 13736      696E7465 
 13736      72727570 
 13736      74735F30 
 13736      5F495251 
 13737              	.LASF211:
 13738 00ae 52534552 		.ascii	"RSERVED1\000"
 13738      56454431 
 13738      00
 13739              	.LASF754:
 13740 00b7 71756575 		.ascii	"queue\000"
 13740      6500
 13741              	.LASF362:
 13742 00bd 63707573 		.ascii	"cpussCm0StatusOffset\000"
 13742      73436D30 
 13742      53746174 
 13742      75734F66 
 13742      66736574 
 13743              	.LASF217:
 13744 00d2 73697A65 		.ascii	"sizetype\000"
 13744      74797065 
 13744      00
 13745              	.LASF810:
 13746 00db 6C696768 		.ascii	"lightI2CRead\000"
 13746      74493243 
 13746      52656164 
 13746      00
 13747              	.LASF696:
 13748 00e8 43595F42 		.ascii	"CY_BLE_EVT_GATTS_DATA_SIGNED_CMD_REQ\000"
 13748      4C455F45 
 13748      56545F47 
 13748      41545453 
 13748      5F444154 
 13749              	.LASF497:
 13750 010d 5F5F7661 		.ascii	"__value\000"
 13750      6C756500 
 13751              	.LASF629:
 13752 0115 43595F42 		.ascii	"CY_BLE_EVT_SET_DEVICE_ADDR_COMPLETE\000"
 13752      4C455F45 
 13752      56545F53 
 13752      45545F44 
 13752      45564943 
 13753              	.LASF565:
 13754 0139 5F5F7366 		.ascii	"__sf\000"
 13754      00
 13755              	.LASF248:
 13756 013e 52585F4D 		.ascii	"RX_MATCH\000"
 13756      41544348 
 13756      00
 13757              	.LASF7:
 13758 0147 4E766963 		.ascii	"NvicMux1_IRQn\000"
 13758      4D757831 
ARM GAS  C:\Users\ASUS\AppData\Local\Temp\ccYYtRfk.s 			page 291


 13758      5F495251 
 13758      6E00
 13759              	.LASF388:
 13760 0155 43595F52 		.ascii	"CY_RTC_SUCCESS\000"
 13760      54435F53 
 13760      55434345 
 13760      535300
 13761              	.LASF532:
 13762 0164 5F726561 		.ascii	"_read\000"
 13762      6400
 13763              	.LASF475:
 13764 016a 63795F73 		.ascii	"cy_stc_scb_uart_context\000"
 13764      74635F73 
 13764      63625F75 
 13764      6172745F 
 13764      636F6E74 
 13765              	.LASF865:
 13766 0182 43795F42 		.ascii	"Cy_BLE_GATTS_WriteRsp\000"
 13766      4C455F47 
 13766      41545453 
 13766      5F577269 
 13766      74655273 
 13767              	.LASF52:
 13768 0198 696F7373 		.ascii	"ioss_interrupts_gpio_13_IRQn\000"
 13768      5F696E74 
 13768      65727275 
 13768      7074735F 
 13768      6770696F 
 13769              	.LASF554:
 13770 01b5 5F5F636C 		.ascii	"__cleanup\000"
 13770      65616E75 
 13770      7000
 13771              	.LASF255:
 13772 01bf 494E5452 		.ascii	"INTR_CAUSE\000"
 13772      5F434155 
 13772      534500
 13773              	.LASF227:
 13774 01ca 55415254 		.ascii	"UART_CTRL\000"
 13774      5F435452 
 13774      4C00
 13775              	.LASF482:
 13776 01d4 72784275 		.ascii	"rxBuf\000"
 13776      6600
 13777              	.LASF628:
 13778 01da 43595F42 		.ascii	"CY_BLE_EVT_SOFT_RESET_COMPLETE\000"
 13778      4C455F45 
 13778      56545F53 
 13778      4F46545F 
 13778      52455345 
 13779              	.LASF325:
 13780 01f9 63727970 		.ascii	"cryptoMemSize\000"
 13780      746F4D65 
 13780      6D53697A 
 13780      6500
 13781              	.LASF591:
 13782 0207 5F776373 		.ascii	"_wcsrtombs_state\000"
 13782      72746F6D 
ARM GAS  C:\Users\ASUS\AppData\Local\Temp\ccYYtRfk.s 			page 292


 13782      62735F73 
 13782      74617465 
 13782      00
 13783              	.LASF576:
 13784 0218 5F617363 		.ascii	"_asctime_buf\000"
 13784      74696D65 
 13784      5F627566 
 13784      00
 13785              	.LASF559:
 13786 0225 5F637674 		.ascii	"_cvtlen\000"
 13786      6C656E00 
 13787              	.LASF429:
 13788 022d 63795F73 		.ascii	"cy_stc_rtc_dst_format_t\000"
 13788      74635F72 
 13788      74635F64 
 13788      73745F66 
 13788      6F726D61 
 13789              	.LASF16:
 13790 0245 4E766963 		.ascii	"NvicMux10_IRQn\000"
 13790      4D757831 
 13790      305F4952 
 13790      516E00
 13791              	.LASF294:
 13792 0254 6873696F 		.ascii	"hsiomBase\000"
 13792      6D426173 
 13792      6500
 13793              	.LASF130:
 13794 025e 74637077 		.ascii	"tcpwm_0_interrupts_1_IRQn\000"
 13794      6D5F305F 
 13794      696E7465 
 13794      72727570 
 13794      74735F31 
 13795              	.LASF13:
 13796 0278 4E766963 		.ascii	"NvicMux7_IRQn\000"
 13796      4D757837 
 13796      5F495251 
 13796      6E00
 13797              	.LASF315:
 13798 0286 73727373 		.ascii	"srssNumClkpath\000"
 13798      4E756D43 
 13798      6C6B7061 
 13798      746800
 13799              	.LASF36:
 13800 0295 4E766963 		.ascii	"NvicMux30_IRQn\000"
 13800      4D757833 
 13800      305F4952 
 13800      516E00
 13801              	.LASF634:
 13802 02a4 43595F42 		.ascii	"CY_BLE_EVT_GET_CLK_CONFIG_COMPLETE\000"
 13802      4C455F45 
 13802      56545F47 
 13802      45545F43 
 13802      4C4B5F43 
 13803              	.LASF739:
 13804 02c7 43595F42 		.ascii	"CY_BLE_CONN_STATE_CLIENT_DESCR_DISCOVERING\000"
 13804      4C455F43 
 13804      4F4E4E5F 
ARM GAS  C:\Users\ASUS\AppData\Local\Temp\ccYYtRfk.s 			page 293


 13804      53544154 
 13804      455F434C 
 13805              	.LASF730:
 13806 02f2 43595F42 		.ascii	"CY_BLE_ADV_STATE_ADVERTISING\000"
 13806      4C455F41 
 13806      44565F53 
 13806      54415445 
 13806      5F414456 
 13807              	.LASF68:
 13808 030f 63707573 		.ascii	"cpuss_interrupts_ipc_4_IRQn\000"
 13808      735F696E 
 13808      74657272 
 13808      75707473 
 13808      5F697063 
 13809              	.LASF136:
 13810 032b 74637077 		.ascii	"tcpwm_0_interrupts_7_IRQn\000"
 13810      6D5F305F 
 13810      696E7465 
 13810      72727570 
 13810      74735F37 
 13811              	.LASF578:
 13812 0345 5F67616D 		.ascii	"_gamma_signgam\000"
 13812      6D615F73 
 13812      69676E67 
 13812      616D00
 13813              	.LASF44:
 13814 0354 696F7373 		.ascii	"ioss_interrupts_gpio_5_IRQn\000"
 13814      5F696E74 
 13814      65727275 
 13814      7074735F 
 13814      6770696F 
 13815              	.LASF595:
 13816 0370 5F756E75 		.ascii	"_unused\000"
 13816      73656400 
 13817              	.LASF506:
 13818 0378 5F5F746D 		.ascii	"__tm\000"
 13818      00
 13819              	.LASF603:
 13820 037d 43595F42 		.ascii	"CY_BLE_EVT_HARDWARE_ERROR\000"
 13820      4C455F45 
 13820      56545F48 
 13820      41524457 
 13820      4152455F 
 13821              	.LASF537:
 13822 0397 5F6E6275 		.ascii	"_nbuf\000"
 13822      6600
 13823              	.LASF507:
 13824 039d 5F5F746D 		.ascii	"__tm_sec\000"
 13824      5F736563 
 13824      00
 13825              	.LASF563:
 13826 03a6 5F736967 		.ascii	"_sig_func\000"
 13826      5F66756E 
 13826      6300
 13827              	.LASF584:
 13828 03b0 5F6C3634 		.ascii	"_l64a_buf\000"
 13828      615F6275 
ARM GAS  C:\Users\ASUS\AppData\Local\Temp\ccYYtRfk.s 			page 294


 13828      6600
 13829              	.LASF604:
 13830 03ba 43595F42 		.ascii	"CY_BLE_EVT_WRITE_AUTH_PAYLOAD_TO_COMPLETE\000"
 13830      4C455F45 
 13830      56545F57 
 13830      52495445 
 13830      5F415554 
 13831              	.LASF110:
 13832 03e4 63707573 		.ascii	"cpuss_interrupts_dw1_5_IRQn\000"
 13832      735F696E 
 13832      74657272 
 13832      75707473 
 13832      5F647731 
 13833              	.LASF476:
 13834 0400 74785374 		.ascii	"txStatus\000"
 13834      61747573 
 13834      00
 13835              	.LASF711:
 13836 0409 43595F42 		.ascii	"CY_BLE_EVT_MAX\000"
 13836      4C455F45 
 13836      56545F4D 
 13836      415800
 13837              	.LASF855:
 13838 0418 5254435F 		.ascii	"RTC_dstConfig\000"
 13838      64737443 
 13838      6F6E6669 
 13838      6700
 13839              	.LASF396:
 13840 0426 43595F52 		.ascii	"CY_RTC_24_HOURS\000"
 13840      54435F32 
 13840      345F484F 
 13840      55525300 
 13841              	.LASF143:
 13842 0436 74637077 		.ascii	"tcpwm_1_interrupts_6_IRQn\000"
 13842      6D5F315F 
 13842      696E7465 
 13842      72727570 
 13842      74735F36 
 13843              	.LASF124:
 13844 0450 63707573 		.ascii	"cpuss_interrupt_fm_IRQn\000"
 13844      735F696E 
 13844      74657272 
 13844      7570745F 
 13844      666D5F49 
 13845              	.LASF431:
 13846 0468 73746F70 		.ascii	"stopDst\000"
 13846      44737400 
 13847              	.LASF680:
 13848 0470 43595F42 		.ascii	"CY_BLE_EVT_GATTC_READ_BY_GROUP_TYPE_RSP\000"
 13848      4C455F45 
 13848      56545F47 
 13848      41545443 
 13848      5F524541 
 13849              	.LASF454:
 13850 0498 73746174 		.ascii	"state\000"
 13850      6500
 13851              	.LASF2:
ARM GAS  C:\Users\ASUS\AppData\Local\Temp\ccYYtRfk.s 			page 295


 13852 049e 48617264 		.ascii	"HardFault_IRQn\000"
 13852      4661756C 
 13852      745F4952 
 13852      516E00
 13853              	.LASF541:
 13854 04ad 5F6C6F63 		.ascii	"_lock\000"
 13854      6B00
 13855              	.LASF720:
 13856 04b3 63795F73 		.ascii	"cy_stc_ble_gatt_handle_value_pair_t\000"
 13856      74635F62 
 13856      6C655F67 
 13856      6174745F 
 13856      68616E64 
 13857              	.LASF355:
 13858 04d7 6770696F 		.ascii	"gpioPrtCfgOffset\000"
 13858      50727443 
 13858      66674F66 
 13858      66736574 
 13858      00
 13859              	.LASF533:
 13860 04e8 5F777269 		.ascii	"_write\000"
 13860      746500
 13861              	.LASF902:
 13862 04ef 70757473 		.ascii	"puts\000"
 13862      00
 13863              	.LASF267:
 13864 04f4 494E5452 		.ascii	"INTR_M\000"
 13864      5F4D00
 13865              	.LASF900:
 13866 04fb 43795F52 		.ascii	"Cy_RTC_Alarm2Interrupt\000"
 13866      54435F41 
 13866      6C61726D 
 13866      32496E74 
 13866      65727275 
 13867              	.LASF6:
 13868 0512 4E766963 		.ascii	"NvicMux0_IRQn\000"
 13868      4D757830 
 13868      5F495251 
 13868      6E00
 13869              	.LASF272:
 13870 0520 494E5452 		.ascii	"INTR_S\000"
 13870      5F5300
 13871              	.LASF778:
 13872 0527 74617267 		.ascii	"target\000"
 13872      657400
 13873              	.LASF825:
 13874 052e 69735F63 		.ascii	"is_cow_moving\000"
 13874      6F775F6D 
 13874      6F76696E 
 13874      6700
 13875              	.LASF180:
 13876 053c 70726F66 		.ascii	"profile_interrupt_IRQn\000"
 13876      696C655F 
 13876      696E7465 
 13876      72727570 
 13876      745F4952 
 13877              	.LASF51:
ARM GAS  C:\Users\ASUS\AppData\Local\Temp\ccYYtRfk.s 			page 296


 13878 0553 696F7373 		.ascii	"ioss_interrupts_gpio_12_IRQn\000"
 13878      5F696E74 
 13878      65727275 
 13878      7074735F 
 13878      6770696F 
 13879              	.LASF100:
 13880 0570 63707573 		.ascii	"cpuss_interrupts_dw0_11_IRQn\000"
 13880      735F696E 
 13880      74657272 
 13880      75707473 
 13880      5F647730 
 13881              	.LASF586:
 13882 058d 5F676574 		.ascii	"_getdate_err\000"
 13882      64617465 
 13882      5F657272 
 13882      00
 13883              	.LASF572:
 13884 059a 5F6D756C 		.ascii	"_mult\000"
 13884      7400
 13885              	.LASF186:
 13886 05a0 64697363 		.ascii	"disconnected_IRQn\000"
 13886      6F6E6E65 
 13886      63746564 
 13886      5F495251 
 13886      6E00
 13887              	.LASF544:
 13888 05b2 5F726565 		.ascii	"_reent\000"
 13888      6E7400
 13889              	.LASF181:
 13890 05b9 736D6966 		.ascii	"smif_interrupt_IRQn\000"
 13890      5F696E74 
 13890      65727275 
 13890      70745F49 
 13890      52516E00 
 13891              	.LASF151:
 13892 05cd 74637077 		.ascii	"tcpwm_1_interrupts_14_IRQn\000"
 13892      6D5F315F 
 13892      696E7465 
 13892      72727570 
 13892      74735F31 
 13893              	.LASF786:
 13894 05e8 74656D70 		.ascii	"tempFlag\000"
 13894      466C6167 
 13894      00
 13895              	.LASF833:
 13896 05f1 75706461 		.ascii	"update_happy_score\000"
 13896      74655F68 
 13896      61707079 
 13896      5F73636F 
 13896      726500
 13897              	.LASF627:
 13898 0604 43595F42 		.ascii	"CY_BLE_EVT_LL_CNTRL_PROC_PENDING_COMPLETE\000"
 13898      4C455F45 
 13898      56545F4C 
 13898      4C5F434E 
 13898      54524C5F 
 13899              	.LASF120:
ARM GAS  C:\Users\ASUS\AppData\Local\Temp\ccYYtRfk.s 			page 297


 13900 062e 63707573 		.ascii	"cpuss_interrupts_dw1_15_IRQn\000"
 13900      735F696E 
 13900      74657272 
 13900      75707473 
 13900      5F647731 
 13901              	.LASF126:
 13902 064b 63707573 		.ascii	"cpuss_interrupts_cm0_cti_1_IRQn\000"
 13902      735F696E 
 13902      74657272 
 13902      75707473 
 13902      5F636D30 
 13903              	.LASF282:
 13904 066b 494E5452 		.ascii	"INTR_RX\000"
 13904      5F525800 
 13905              	.LASF214:
 13906 0673 49435052 		.ascii	"ICPR\000"
 13906      00
 13907              	.LASF340:
 13908 0678 64775374 		.ascii	"dwStatusChIdxPos\000"
 13908      61747573 
 13908      43684964 
 13908      78506F73 
 13908      00
 13909              	.LASF236:
 13910 0689 4932435F 		.ascii	"I2C_CFG\000"
 13910      43464700 
 13911              	.LASF692:
 13912 0691 43595F42 		.ascii	"CY_BLE_EVT_GATTC_EXEC_WRITE_RSP\000"
 13912      4C455F45 
 13912      56545F47 
 13912      41545443 
 13912      5F455845 
 13913              	.LASF93:
 13914 06b1 63707573 		.ascii	"cpuss_interrupts_dw0_4_IRQn\000"
 13914      735F696E 
 13914      74657272 
 13914      75707473 
 13914      5F647730 
 13915              	.LASF726:
 13916 06cd 43595F42 		.ascii	"CY_BLE_STATE_ON\000"
 13916      4C455F53 
 13916      54415445 
 13916      5F4F4E00 
 13917              	.LASF670:
 13918 06dd 43595F42 		.ascii	"CY_BLE_EVT_GAP_GEN_SET_LOCAL_P256_KEYS_COMPLETE\000"
 13918      4C455F45 
 13918      56545F47 
 13918      41505F47 
 13918      454E5F53 
 13919              	.LASF67:
 13920 070d 63707573 		.ascii	"cpuss_interrupts_ipc_3_IRQn\000"
 13920      735F696E 
 13920      74657272 
 13920      75707473 
 13920      5F697063 
 13921              	.LASF135:
 13922 0729 74637077 		.ascii	"tcpwm_0_interrupts_6_IRQn\000"
ARM GAS  C:\Users\ASUS\AppData\Local\Temp\ccYYtRfk.s 			page 298


 13922      6D5F305F 
 13922      696E7465 
 13922      72727570 
 13922      74735F36 
 13923              	.LASF168:
 13924 0743 7564625F 		.ascii	"udb_interrupts_7_IRQn\000"
 13924      696E7465 
 13924      72727570 
 13924      74735F37 
 13924      5F495251 
 13925              	.LASF43:
 13926 0759 696F7373 		.ascii	"ioss_interrupts_gpio_4_IRQn\000"
 13926      5F696E74 
 13926      65727275 
 13926      7074735F 
 13926      6770696F 
 13927              	.LASF832:
 13928 0775 52746353 		.ascii	"RtcStepAlarm\000"
 13928      74657041 
 13928      6C61726D 
 13928      00
 13929              	.LASF699:
 13930 0782 43595F42 		.ascii	"CY_BLE_EVT_GATTC_LONG_PROCEDURE_END\000"
 13930      4C455F45 
 13930      56545F47 
 13930      41545443 
 13930      5F4C4F4E 
 13931              	.LASF19:
 13932 07a6 4E766963 		.ascii	"NvicMux13_IRQn\000"
 13932      4D757831 
 13932      335F4952 
 13932      516E00
 13933              	.LASF246:
 13934 07b5 52585F46 		.ascii	"RX_FIFO_STATUS\000"
 13934      49464F5F 
 13934      53544154 
 13934      555300
 13935              	.LASF704:
 13936 07c4 43595F42 		.ascii	"CY_BLE_EVT_L2CAP_CBFC_CONN_CNF\000"
 13936      4C455F45 
 13936      56545F4C 
 13936      32434150 
 13936      5F434246 
 13937              	.LASF712:
 13938 07e3 62644861 		.ascii	"bdHandle\000"
 13938      6E646C65 
 13938      00
 13939              	.LASF748:
 13940 07ec 54414C4B 		.ascii	"TALK\000"
 13940      00
 13941              	.LASF764:
 13942 07f1 74696D65 		.ascii	"timeoutMs\000"
 13942      6F75744D 
 13942      7300
 13943              	.LASF494:
 13944 07fb 5F5F7763 		.ascii	"__wch\000"
 13944      6800
ARM GAS  C:\Users\ASUS\AppData\Local\Temp\ccYYtRfk.s 			page 299


 13945              	.LASF790:
 13946 0801 73657276 		.ascii	"serviceHandle\000"
 13946      69636548 
 13946      616E646C 
 13946      6500
 13947              	.LASF192:
 13948 080f 5F5F7569 		.ascii	"__uint8_t\000"
 13948      6E74385F 
 13948      7400
 13949              	.LASF653:
 13950 0819 43595F42 		.ascii	"CY_BLE_EVT_GAP_AUTH_FAILED\000"
 13950      4C455F45 
 13950      56545F47 
 13950      41505F41 
 13950      5554485F 
 13951              	.LASF555:
 13952 0834 5F726573 		.ascii	"_result\000"
 13952      756C7400 
 13953              	.LASF381:
 13954 083c 696E7472 		.ascii	"intrSrc\000"
 13954      53726300 
 13955              	.LASF284:
 13956 0844 494E5452 		.ascii	"INTR_RX_MASK\000"
 13956      5F52585F 
 13956      4D41534B 
 13956      00
 13957              	.LASF529:
 13958 0851 5F66696C 		.ascii	"_file\000"
 13958      6500
 13959              	.LASF829:
 13960 0857 72657375 		.ascii	"result\000"
 13960      6C7400
 13961              	.LASF887:
 13962 085e 71756575 		.ascii	"queue_length\000"
 13962      655F6C65 
 13962      6E677468 
 13962      00
 13963              	.LASF516:
 13964 086b 5F6F6E5F 		.ascii	"_on_exit_args\000"
 13964      65786974 
 13964      5F617267 
 13964      7300
 13965              	.LASF452:
 13966 0879 75736552 		.ascii	"useRxFifo\000"
 13966      78466966 
 13966      6F00
 13967              	.LASF864:
 13968 0883 6779726F 		.ascii	"gyro_queue\000"
 13968      5F717565 
 13968      756500
 13969              	.LASF694:
 13970 088e 43595F42 		.ascii	"CY_BLE_EVT_GATTC_HANDLE_VALUE_IND\000"
 13970      4C455F45 
 13970      56545F47 
 13970      41545443 
 13970      5F48414E 
 13971              	.LASF661:
ARM GAS  C:\Users\ASUS\AppData\Local\Temp\ccYYtRfk.s 			page 300


 13972 08b0 43595F42 		.ascii	"CY_BLE_EVT_GAP_NUMERIC_COMPARISON_REQUEST\000"
 13972      4C455F45 
 13972      56545F47 
 13972      41505F4E 
 13972      554D4552 
 13973              	.LASF399:
 13974 08da 43595F52 		.ascii	"CY_RTC_DST_RELATIVE\000"
 13974      54435F44 
 13974      53545F52 
 13974      454C4154 
 13974      49564500 
 13975              	.LASF486:
 13976 08ee 74784275 		.ascii	"txBufSize\000"
 13976      6653697A 
 13976      6500
 13977              	.LASF599:
 13978 08f8 43595F42 		.ascii	"CY_BLE_EVT_STACK_BUSY_STATUS\000"
 13978      4C455F45 
 13978      56545F53 
 13978      5441434B 
 13978      5F425553 
 13979              	.LASF244:
 13980 0915 52585F43 		.ascii	"RX_CTRL\000"
 13980      54524C00 
 13981              	.LASF570:
 13982 091d 5F72616E 		.ascii	"_rand48\000"
 13982      64343800 
 13983              	.LASF587:
 13984 0925 5F6D6272 		.ascii	"_mbrlen_state\000"
 13984      6C656E5F 
 13984      73746174 
 13984      6500
 13985              	.LASF197:
 13986 0933 6C6F6E67 		.ascii	"long int\000"
 13986      20696E74 
 13986      00
 13987              	.LASF164:
 13988 093c 7564625F 		.ascii	"udb_interrupts_3_IRQn\000"
 13988      696E7465 
 13988      72727570 
 13988      74735F33 
 13988      5F495251 
 13989              	.LASF678:
 13990 0952 43595F42 		.ascii	"CY_BLE_EVT_GATTS_XCNHG_MTU_REQ\000"
 13990      4C455F45 
 13990      56545F47 
 13990      41545453 
 13990      5F58434E 
 13991              	.LASF845:
 13992 0971 5F696D70 		.ascii	"_impure_ptr\000"
 13992      7572655F 
 13992      70747200 
 13993              	.LASF645:
 13994 097d 43595F42 		.ascii	"CY_BLE_EVT_SET_EVENT_MASK_COMPLETE\000"
 13994      4C455F45 
 13994      56545F53 
 13994      45545F45 
ARM GAS  C:\Users\ASUS\AppData\Local\Temp\ccYYtRfk.s 			page 301


 13994      56454E54 
 13995              	.LASF740:
 13996 09a0 43595F42 		.ascii	"CY_BLE_CONN_STATE_CLIENT_DISCOVERED\000"
 13996      4C455F43 
 13996      4F4E4E5F 
 13996      53544154 
 13996      455F434C 
 13997              	.LASF792:
 13998 09c4 72657430 		.ascii	"ret0\000"
 13998      00
 13999              	.LASF793:
 14000 09c9 72657431 		.ascii	"ret1\000"
 14000      00
 14001              	.LASF794:
 14002 09ce 72657432 		.ascii	"ret2\000"
 14002      00
 14003              	.LASF795:
 14004 09d3 72657433 		.ascii	"ret3\000"
 14004      00
 14005              	.LASF796:
 14006 09d8 72657434 		.ascii	"ret4\000"
 14006      00
 14007              	.LASF797:
 14008 09dd 72657435 		.ascii	"ret5\000"
 14008      00
 14009              	.LASF526:
 14010 09e2 5F73697A 		.ascii	"_size\000"
 14010      6500
 14011              	.LASF150:
 14012 09e8 74637077 		.ascii	"tcpwm_1_interrupts_13_IRQn\000"
 14012      6D5F315F 
 14012      696E7465 
 14012      72727570 
 14012      74735F31 
 14013              	.LASF687:
 14014 0a03 43595F42 		.ascii	"CY_BLE_EVT_GATTS_WRITE_REQ\000"
 14014      4C455F45 
 14014      56545F47 
 14014      41545453 
 14014      5F575249 
 14015              	.LASF718:
 14016 0a1e 76616C75 		.ascii	"value\000"
 14016      6500
 14017              	.LASF224:
 14018 0a24 5350495F 		.ascii	"SPI_CTRL\000"
 14018      4354524C 
 14018      00
 14019              	.LASF322:
 14020 0a2d 75646250 		.ascii	"udbPresent\000"
 14020      72657365 
 14020      6E7400
 14021              	.LASF358:
 14022 0a38 6770696F 		.ascii	"gpioPrtCfgSioOffset\000"
 14022      50727443 
 14022      66675369 
 14022      6F4F6666 
 14022      73657400 
ARM GAS  C:\Users\ASUS\AppData\Local\Temp\ccYYtRfk.s 			page 302


 14023              	.LASF758:
 14024 0a4c 4E6F6465 		.ascii	"Node\000"
 14024      00
 14025              	.LASF891:
 14026 0a51 4932435F 		.ascii	"I2C_Start\000"
 14026      53746172 
 14026      7400
 14027              	.LASF700:
 14028 0a5b 43595F42 		.ascii	"CY_BLE_EVT_L2CAP_CONN_PARAM_UPDATE_REQ\000"
 14028      4C455F45 
 14028      56545F4C 
 14028      32434150 
 14028      5F434F4E 
 14029              	.LASF343:
 14030 0a82 70657269 		.ascii	"periTrCmdGrSelMsk\000"
 14030      5472436D 
 14030      64477253 
 14030      656C4D73 
 14030      6B00
 14031              	.LASF29:
 14032 0a94 4E766963 		.ascii	"NvicMux23_IRQn\000"
 14032      4D757832 
 14032      335F4952 
 14032      516E00
 14033              	.LASF327:
 14034 0aa3 666C6173 		.ascii	"flashPipeRequired\000"
 14034      68506970 
 14034      65526571 
 14034      75697265 
 14034      6400
 14035              	.LASF394:
 14036 0ab5 43595F52 		.ascii	"CY_RTC_ALARM_1\000"
 14036      54435F41 
 14036      4C41524D 
 14036      5F3100
 14037              	.LASF395:
 14038 0ac4 43595F52 		.ascii	"CY_RTC_ALARM_2\000"
 14038      54435F41 
 14038      4C41524D 
 14038      5F3200
 14039              	.LASF717:
 14040 0ad3 63795F73 		.ascii	"cy_stc_ble_gatt_value_t\000"
 14040      74635F62 
 14040      6C655F67 
 14040      6174745F 
 14040      76616C75 
 14041              	.LASF407:
 14042 0aeb 63795F65 		.ascii	"cy_en_rtc_alarm_enable_t\000"
 14042      6E5F7274 
 14042      635F616C 
 14042      61726D5F 
 14042      656E6162 
 14043              	.LASF901:
 14044 0b04 6D61696E 		.ascii	"main\000"
 14044      00
 14045              	.LASF280:
 14046 0b09 494E5452 		.ascii	"INTR_TX_MASKED\000"
ARM GAS  C:\Users\ASUS\AppData\Local\Temp\ccYYtRfk.s 			page 303


 14046      5F54585F 
 14046      4D41534B 
 14046      454400
 14047              	.LASF811:
 14048 0b18 61636349 		.ascii	"accI2CRead\000"
 14048      32435265 
 14048      616400
 14049              	.LASF519:
 14050 0b23 5F666E74 		.ascii	"_fntypes\000"
 14050      79706573 
 14050      00
 14051              	.LASF772:
 14052 0b2c 4952516E 		.ascii	"IRQn\000"
 14052      00
 14053              	.LASF345:
 14054 0b31 70657269 		.ascii	"periTrGrSize\000"
 14054      54724772 
 14054      53697A65 
 14054      00
 14055              	.LASF577:
 14056 0b3e 5F6C6F63 		.ascii	"_localtime_buf\000"
 14056      616C7469 
 14056      6D655F62 
 14056      756600
 14057              	.LASF167:
 14058 0b4d 7564625F 		.ascii	"udb_interrupts_6_IRQn\000"
 14058      696E7465 
 14058      72727570 
 14058      74735F36 
 14058      5F495251 
 14059              	.LASF443:
 14060 0b63 43595F53 		.ascii	"CY_SCB_I2C_WRITE_XFER\000"
 14060      43425F49 
 14060      32435F57 
 14060      52495445 
 14060      5F584645 
 14061              	.LASF626:
 14062 0b79 43595F42 		.ascii	"CY_BLE_EVT_SET_PRIVACY_MODE_COMPLETE\000"
 14062      4C455F45 
 14062      56545F53 
 14062      45545F50 
 14062      52495641 
 14063              	.LASF194:
 14064 0b9e 5F5F7569 		.ascii	"__uint16_t\000"
 14064      6E743136 
 14064      5F7400
 14065              	.LASF75:
 14066 0ba9 63707573 		.ascii	"cpuss_interrupts_ipc_11_IRQn\000"
 14066      735F696E 
 14066      74657272 
 14066      75707473 
 14066      5F697063 
 14067              	.LASF858:
 14068 0bc6 70726576 		.ascii	"prev_gY\000"
 14068      5F675900 
 14069              	.LASF657:
 14070 0bce 43595F42 		.ascii	"CY_BLE_EVT_GAP_ENCRYPT_CHANGE\000"
ARM GAS  C:\Users\ASUS\AppData\Local\Temp\ccYYtRfk.s 			page 304


 14070      4C455F45 
 14070      56545F47 
 14070      41505F45 
 14070      4E435259 
 14071              	.LASF859:
 14072 0bec 70726576 		.ascii	"prev_gZ\000"
 14072      5F675A00 
 14073              	.LASF511:
 14074 0bf4 5F5F746D 		.ascii	"__tm_mon\000"
 14074      5F6D6F6E 
 14074      00
 14075              	.LASF747:
 14076 0bfd 43524954 		.ascii	"CRITICAL\000"
 14076      4943414C 
 14076      00
 14077              	.LASF229:
 14078 0c06 55415254 		.ascii	"UART_RX_CTRL\000"
 14078      5F52585F 
 14078      4354524C 
 14078      00
 14079              	.LASF850:
 14080 0c13 63795F62 		.ascii	"cy_ble_pendingFlashWrite\000"
 14080      6C655F70 
 14080      656E6469 
 14080      6E67466C 
 14080      61736857 
 14081              	.LASF283:
 14082 0c2c 494E5452 		.ascii	"INTR_RX_SET\000"
 14082      5F52585F 
 14082      53455400 
 14083              	.LASF759:
 14084 0c38 64617461 		.ascii	"data\000"
 14084      00
 14085              	.LASF729:
 14086 0c3d 43595F42 		.ascii	"CY_BLE_ADV_STATE_ADV_INITIATED\000"
 14086      4C455F41 
 14086      44565F53 
 14086      54415445 
 14086      5F414456 
 14087              	.LASF598:
 14088 0c5c 43595F42 		.ascii	"CY_BLE_EVT_TIMEOUT\000"
 14088      4C455F45 
 14088      56545F54 
 14088      494D454F 
 14088      555400
 14089              	.LASF107:
 14090 0c6f 63707573 		.ascii	"cpuss_interrupts_dw1_2_IRQn\000"
 14090      735F696E 
 14090      74657272 
 14090      75707473 
 14090      5F647731 
 14091              	.LASF412:
 14092 0c8b 64617465 		.ascii	"date\000"
 14092      00
 14093              	.LASF317:
 14094 0c90 73727373 		.ascii	"srssNumHfroot\000"
 14094      4E756D48 
ARM GAS  C:\Users\ASUS\AppData\Local\Temp\ccYYtRfk.s 			page 305


 14094      66726F6F 
 14094      7400
 14095              	.LASF427:
 14096 0c9e 6461794F 		.ascii	"dayOfMonth\000"
 14096      664D6F6E 
 14096      746800
 14097              	.LASF788:
 14098 0ca9 696E6974 		.ascii	"initFSM\000"
 14098      46534D00 
 14099              	.LASF5:
 14100 0cb1 53797354 		.ascii	"SysTick_IRQn\000"
 14100      69636B5F 
 14100      4952516E 
 14100      00
 14101              	.LASF551:
 14102 0cbe 5F637572 		.ascii	"_current_category\000"
 14102      72656E74 
 14102      5F636174 
 14102      65676F72 
 14102      7900
 14103              	.LASF619:
 14104 0cd0 43595F42 		.ascii	"CY_BLE_EVT_REMOVE_DEVICE_FROM_RPA_LIST_COMPLETE\000"
 14104      4C455F45 
 14104      56545F52 
 14104      454D4F56 
 14104      455F4445 
 14105              	.LASF234:
 14106 0d00 4932435F 		.ascii	"I2C_M_CMD\000"
 14106      4D5F434D 
 14106      4400
 14107              	.LASF88:
 14108 0d0a 6373645F 		.ascii	"csd_interrupt_IRQn\000"
 14108      696E7465 
 14108      72727570 
 14108      745F4952 
 14108      516E00
 14109              	.LASF489:
 14110 0d1d 63795F73 		.ascii	"cy_stc_scb_uart_context_t\000"
 14110      74635F73 
 14110      63625F75 
 14110      6172745F 
 14110      636F6E74 
 14111              	.LASF389:
 14112 0d37 43595F52 		.ascii	"CY_RTC_BAD_PARAM\000"
 14112      54435F42 
 14112      41445F50 
 14112      4152414D 
 14112      00
 14113              	.LASF574:
 14114 0d48 5F756E75 		.ascii	"_unused_rand\000"
 14114      7365645F 
 14114      72616E64 
 14114      00
 14115              	.LASF765:
 14116 0d55 61636B4E 		.ascii	"ackNack\000"
 14116      61636B00 
 14117              	.LASF895:
ARM GAS  C:\Users\ASUS\AppData\Local\Temp\ccYYtRfk.s 			page 306


 14118 0d5d 6D61696E 		.ascii	"main_cm0p.c\000"
 14118      5F636D30 
 14118      702E6300 
 14119              	.LASF191:
 14120 0d69 7369676E 		.ascii	"signed char\000"
 14120      65642063 
 14120      68617200 
 14121              	.LASF665:
 14122 0d75 43595F42 		.ascii	"CY_BLE_EVT_GAPC_DIRECT_ADV_REPORT\000"
 14122      4C455F45 
 14122      56545F47 
 14122      4150435F 
 14122      44495245 
 14123              	.LASF203:
 14124 0d97 75696E74 		.ascii	"uint8_t\000"
 14124      385F7400 
 14125              	.LASF763:
 14126 0d9f 4932435F 		.ascii	"I2C_MasterReadByte\000"
 14126      4D617374 
 14126      65725265 
 14126      61644279 
 14126      746500
 14127              	.LASF600:
 14128 0db2 43595F42 		.ascii	"CY_BLE_EVT_MEMORY_REQUEST\000"
 14128      4C455F45 
 14128      56545F4D 
 14128      454D4F52 
 14128      595F5245 
 14129              	.LASF894:
 14130 0dcc 474E5520 		.ascii	"GNU C11 5.4.1 20160609 (release) [ARM/embedded-5-br"
 14130      43313120 
 14130      352E342E 
 14130      31203230 
 14130      31363036 
 14131 0dff 616E6368 		.ascii	"anch revision 237715] -mcpu=cortex-m0plus -mthumb -"
 14131      20726576 
 14131      6973696F 
 14131      6E203233 
 14131      37373135 
 14132 0e32 67202D4F 		.ascii	"g -Og -ffunction-sections -ffat-lto-objects\000"
 14132      67202D66 
 14132      66756E63 
 14132      74696F6E 
 14132      2D736563 
 14133              	.LASF715:
 14134 0e5e 63795F62 		.ascii	"cy_ble_gatt_db_attr_handle_t\000"
 14134      6C655F67 
 14134      6174745F 
 14134      64625F61 
 14134      7474725F 
 14135              	.LASF348:
 14136 0e7b 70657269 		.ascii	"periDivCmdPaDivSelPos\000"
 14136      44697643 
 14136      6D645061 
 14136      44697653 
 14136      656C506F 
 14137              	.LASF547:
ARM GAS  C:\Users\ASUS\AppData\Local\Temp\ccYYtRfk.s 			page 307


 14138 0e91 5F737464 		.ascii	"_stdout\000"
 14138      6F757400 
 14139              	.LASF369:
 14140 0e99 63707573 		.ascii	"cpussRomCtl\000"
 14140      73526F6D 
 14140      43746C00 
 14141              	.LASF71:
 14142 0ea5 63707573 		.ascii	"cpuss_interrupts_ipc_7_IRQn\000"
 14142      735F696E 
 14142      74657272 
 14142      75707473 
 14142      5F697063 
 14143              	.LASF466:
 14144 0ec1 736C6176 		.ascii	"slaveTxBufferIdx\000"
 14144      65547842 
 14144      75666665 
 14144      72496478 
 14144      00
 14145              	.LASF708:
 14146 0ed2 43595F42 		.ascii	"CY_BLE_EVT_L2CAP_CBFC_RX_CREDIT_IND\000"
 14146      4C455F45 
 14146      56545F4C 
 14146      32434150 
 14146      5F434246 
 14147              	.LASF695:
 14148 0ef6 43595F42 		.ascii	"CY_BLE_EVT_GATTS_HANDLE_VALUE_CNF\000"
 14148      4C455F45 
 14148      56545F47 
 14148      41545453 
 14148      5F48414E 
 14149              	.LASF47:
 14150 0f18 696F7373 		.ascii	"ioss_interrupts_gpio_8_IRQn\000"
 14150      5F696E74 
 14150      65727275 
 14150      7074735F 
 14150      6770696F 
 14151              	.LASF87:
 14152 0f34 7363625F 		.ascii	"scb_7_interrupt_IRQn\000"
 14152      375F696E 
 14152      74657272 
 14152      7570745F 
 14152      4952516E 
 14153              	.LASF480:
 14154 0f49 72785269 		.ascii	"rxRingBufHead\000"
 14154      6E674275 
 14154      66486561 
 14154      6400
 14155              	.LASF468:
 14156 0f57 736C6176 		.ascii	"slaveRxBuffer\000"
 14156      65527842 
 14156      75666665 
 14156      7200
 14157              	.LASF221:
 14158 0f65 434D445F 		.ascii	"CMD_RESP_CTRL\000"
 14158      52455350 
 14158      5F435452 
 14158      4C00
ARM GAS  C:\Users\ASUS\AppData\Local\Temp\ccYYtRfk.s 			page 308


 14159              	.LASF209:
 14160 0f73 52455345 		.ascii	"RESERVED0\000"
 14160      52564544 
 14160      3000
 14161              	.LASF226:
 14162 0f7d 52455345 		.ascii	"RESERVED1\000"
 14162      52564544 
 14162      3100
 14163              	.LASF188:
 14164 0f87 756E7369 		.ascii	"unsigned char\000"
 14164      676E6564 
 14164      20636861 
 14164      7200
 14165              	.LASF279:
 14166 0f95 494E5452 		.ascii	"INTR_TX_MASK\000"
 14166      5F54585F 
 14166      4D41534B 
 14166      00
 14167              	.LASF216:
 14168 0fa2 52455345 		.ascii	"RESERVED4\000"
 14168      52564544 
 14168      3400
 14169              	.LASF241:
 14170 0fac 52455345 		.ascii	"RESERVED5\000"
 14170      52564544 
 14170      3500
 14171              	.LASF243:
 14172 0fb6 52455345 		.ascii	"RESERVED6\000"
 14172      52564544 
 14172      3600
 14173              	.LASF406:
 14174 0fc0 43595F52 		.ascii	"CY_RTC_ALARM_ENABLE\000"
 14174      54435F41 
 14174      4C41524D 
 14174      5F454E41 
 14174      424C4500 
 14175              	.LASF828:
 14176 0fd4 61747465 		.ascii	"attempts\000"
 14176      6D707473 
 14176      00
 14177              	.LASF252:
 14178 0fdd 52455345 		.ascii	"RESERVED9\000"
 14178      52564544 
 14178      3900
 14179              	.LASF744:
 14180 0fe7 53544154 		.ascii	"STATES\000"
 14180      455300
 14181              	.LASF803:
 14182 0fee 7A436861 		.ascii	"zChannel\000"
 14182      6E6E656C 
 14182      00
 14183              	.LASF889:
 14184 0ff7 55415254 		.ascii	"UART_Start\000"
 14184      5F537461 
 14184      727400
 14185              	.LASF667:
 14186 1002 43595F42 		.ascii	"CY_BLE_EVT_GAP_DEVICE_ADDR_GEN_COMPLETE\000"
ARM GAS  C:\Users\ASUS\AppData\Local\Temp\ccYYtRfk.s 			page 309


 14186      4C455F45 
 14186      56545F47 
 14186      41505F44 
 14186      45564943 
 14187              	.LASF738:
 14188 102a 43595F42 		.ascii	"CY_BLE_CONN_STATE_CLIENT_CHAR_DISCOVERING\000"
 14188      4C455F43 
 14188      4F4E4E5F 
 14188      53544154 
 14188      455F434C 
 14189              	.LASF184:
 14190 1054 7573625F 		.ascii	"usb_interrupt_lo_IRQn\000"
 14190      696E7465 
 14190      72727570 
 14190      745F6C6F 
 14190      5F495251 
 14191              	.LASF838:
 14192 106a 68617070 		.ascii	"happy_temp_score\000"
 14192      795F7465 
 14192      6D705F73 
 14192      636F7265 
 14192      00
 14193              	.LASF682:
 14194 107b 43595F42 		.ascii	"CY_BLE_EVT_GATTC_FIND_INFO_RSP\000"
 14194      4C455F45 
 14194      56545F47 
 14194      41545443 
 14194      5F46494E 
 14195              	.LASF63:
 14196 109a 626C6573 		.ascii	"bless_interrupt_IRQn\000"
 14196      735F696E 
 14196      74657272 
 14196      7570745F 
 14196      4952516E 
 14197              	.LASF607:
 14198 10af 43595F42 		.ascii	"CY_BLE_EVT_LE_SET_EVENT_MASK_COMPLETE\000"
 14198      4C455F45 
 14198      56545F4C 
 14198      455F5345 
 14198      545F4556 
 14199              	.LASF514:
 14200 10d5 5F5F746D 		.ascii	"__tm_yday\000"
 14200      5F796461 
 14200      7900
 14201              	.LASF364:
 14202 10df 63707573 		.ascii	"cpussTrimRamCtlOffset\000"
 14202      73547269 
 14202      6D52616D 
 14202      43746C4F 
 14202      66667365 
 14203              	.LASF848:
 14204 10f5 63795F62 		.ascii	"cy_ble_connHandle\000"
 14204      6C655F63 
 14204      6F6E6E48 
 14204      616E646C 
 14204      6500
 14205              	.LASF713:
ARM GAS  C:\Users\ASUS\AppData\Local\Temp\ccYYtRfk.s 			page 310


 14206 1107 61747449 		.ascii	"attId\000"
 14206      6400
 14207              	.LASF745:
 14208 110d 53454E53 		.ascii	"SENSOR\000"
 14208      4F5200
 14209              	.LASF9:
 14210 1114 4E766963 		.ascii	"NvicMux3_IRQn\000"
 14210      4D757833 
 14210      5F495251 
 14210      6E00
 14211              	.LASF387:
 14212 1122 5F426F6F 		.ascii	"_Bool\000"
 14212      6C00
 14213              	.LASF240:
 14214 1128 54585F46 		.ascii	"TX_FIFO_STATUS\000"
 14214      49464F5F 
 14214      53544154 
 14214      555300
 14215              	.LASF296:
 14216 1137 70617373 		.ascii	"passBase\000"
 14216      42617365 
 14216      00
 14217              	.LASF365:
 14218 1140 63707573 		.ascii	"cpussTrimRomCtlOffset\000"
 14218      73547269 
 14218      6D526F6D 
 14218      43746C4F 
 14218      66667365 
 14219              	.LASF237:
 14220 1156 44444654 		.ascii	"DDFT_CTRL\000"
 14220      5F435452 
 14220      4C00
 14221              	.LASF103:
 14222 1160 63707573 		.ascii	"cpuss_interrupts_dw0_14_IRQn\000"
 14222      735F696E 
 14222      74657272 
 14222      75707473 
 14222      5F647730 
 14223              	.LASF215:
 14224 117d 52455345 		.ascii	"RESERVED3\000"
 14224      52564544 
 14224      3300
 14225              	.LASF247:
 14226 1187 52455345 		.ascii	"RESERVED7\000"
 14226      52564544 
 14226      3700
 14227              	.LASF249:
 14228 1191 52455345 		.ascii	"RESERVED8\000"
 14228      52564544 
 14228      3800
 14229              	.LASF579:
 14230 119b 5F72616E 		.ascii	"_rand_next\000"
 14230      645F6E65 
 14230      787400
 14231              	.LASF377:
 14232 11a6 63686172 		.ascii	"char\000"
 14232      00
ARM GAS  C:\Users\ASUS\AppData\Local\Temp\ccYYtRfk.s 			page 311


 14233              	.LASF697:
 14234 11ab 43595F42 		.ascii	"CY_BLE_EVT_GATTC_STOP_CMD_COMPLETE\000"
 14234      4C455F45 
 14234      56545F47 
 14234      41545443 
 14234      5F53544F 
 14235              	.LASF235:
 14236 11ce 4932435F 		.ascii	"I2C_S_CMD\000"
 14236      535F434D 
 14236      4400
 14237              	.LASF808:
 14238 11d8 63686970 		.ascii	"chip_temp\000"
 14238      5F74656D 
 14238      7000
 14239              	.LASF523:
 14240 11e2 5F666E73 		.ascii	"_fns\000"
 14240      00
 14241              	.LASF869:
 14242 11e7 7072696E 		.ascii	"printf\000"
 14242      746600
 14243              	.LASF183:
 14244 11ee 7573625F 		.ascii	"usb_interrupt_med_IRQn\000"
 14244      696E7465 
 14244      72727570 
 14244      745F6D65 
 14244      645F4952 
 14245              	.LASF39:
 14246 1205 696F7373 		.ascii	"ioss_interrupts_gpio_0_IRQn\000"
 14246      5F696E74 
 14246      65727275 
 14246      7074735F 
 14246      6770696F 
 14247              	.LASF357:
 14248 1221 6770696F 		.ascii	"gpioPrtCfgOutOffset\000"
 14248      50727443 
 14248      66674F75 
 14248      744F6666 
 14248      73657400 
 14249              	.LASF535:
 14250 1235 5F636C6F 		.ascii	"_close\000"
 14250      736500
 14251              	.LASF96:
 14252 123c 63707573 		.ascii	"cpuss_interrupts_dw0_7_IRQn\000"
 14252      735F696E 
 14252      74657272 
 14252      75707473 
 14252      5F647730 
 14253              	.LASF622:
 14254 1258 43595F42 		.ascii	"CY_BLE_EVT_GET_PHY_COMPLETE\000"
 14254      4C455F45 
 14254      56545F47 
 14254      45545F50 
 14254      48595F43 
 14255              	.LASF624:
 14256 1274 43595F42 		.ascii	"CY_BLE_EVT_SET_PHY_COMPLETE\000"
 14256      4C455F45 
 14256      56545F53 
ARM GAS  C:\Users\ASUS\AppData\Local\Temp\ccYYtRfk.s 			page 312


 14256      45545F50 
 14256      48595F43 
 14257              	.LASF639:
 14258 1290 43595F42 		.ascii	"CY_BLE_EVT_AES_CCM_DECRYPT_COMPLETE\000"
 14258      4C455F45 
 14258      56545F41 
 14258      45535F43 
 14258      434D5F44 
 14259              	.LASF139:
 14260 12b4 74637077 		.ascii	"tcpwm_1_interrupts_2_IRQn\000"
 14260      6D5F315F 
 14260      696E7465 
 14260      72727570 
 14260      74735F32 
 14261              	.LASF70:
 14262 12ce 63707573 		.ascii	"cpuss_interrupts_ipc_6_IRQn\000"
 14262      735F696E 
 14262      74657272 
 14262      75707473 
 14262      5F697063 
 14263              	.LASF483:
 14264 12ea 72784275 		.ascii	"rxBufSize\000"
 14264      6653697A 
 14264      6500
 14265              	.LASF228:
 14266 12f4 55415254 		.ascii	"UART_TX_CTRL\000"
 14266      5F54585F 
 14266      4354524C 
 14266      00
 14267              	.LASF46:
 14268 1301 696F7373 		.ascii	"ioss_interrupts_gpio_7_IRQn\000"
 14268      5F696E74 
 14268      65727275 
 14268      7074735F 
 14268      6770696F 
 14269              	.LASF22:
 14270 131d 4E766963 		.ascii	"NvicMux16_IRQn\000"
 14270      4D757831 
 14270      365F4952 
 14270      516E00
 14271              	.LASF242:
 14272 132c 54585F46 		.ascii	"TX_FIFO_WR\000"
 14272      49464F5F 
 14272      575200
 14273              	.LASF617:
 14274 1337 43595F42 		.ascii	"CY_BLE_EVT_SET_HOST_CHANNEL_COMPLETE\000"
 14274      4C455F45 
 14274      56545F53 
 14274      45545F48 
 14274      4F53545F 
 14275              	.LASF817:
 14276 135c 6779726F 		.ascii	"gyroMeasure\000"
 14276      4D656173 
 14276      75726500 
 14277              	.LASF83:
 14278 1368 7363625F 		.ascii	"scb_3_interrupt_IRQn\000"
 14278      335F696E 
ARM GAS  C:\Users\ASUS\AppData\Local\Temp\ccYYtRfk.s 			page 313


 14278      74657272 
 14278      7570745F 
 14278      4952516E 
 14279              	.LASF648:
 14280 137d 43595F42 		.ascii	"CY_BLE_EVT_GAPC_SCAN_PROGRESS_RESULT\000"
 14280      4C455F45 
 14280      56545F47 
 14280      4150435F 
 14280      5343414E 
 14281              	.LASF213:
 14282 13a2 52455345 		.ascii	"RESERVED2\000"
 14282      52564544 
 14282      3200
 14283              	.LASF546:
 14284 13ac 5F737464 		.ascii	"_stdin\000"
 14284      696E00
 14285              	.LASF111:
 14286 13b3 63707573 		.ascii	"cpuss_interrupts_dw1_6_IRQn\000"
 14286      735F696E 
 14286      74657272 
 14286      75707473 
 14286      5F647731 
 14287              	.LASF664:
 14288 13cf 43595F42 		.ascii	"CY_BLE_EVT_GAP_ENHANCE_CONN_COMPLETE\000"
 14288      4C455F45 
 14288      56545F47 
 14288      41505F45 
 14288      4E48414E 
 14289              	.LASF80:
 14290 13f4 7363625F 		.ascii	"scb_0_interrupt_IRQn\000"
 14290      305F696E 
 14290      74657272 
 14290      7570745F 
 14290      4952516E 
 14291              	.LASF814:
 14292 1409 61636358 		.ascii	"accX\000"
 14292      00
 14293              	.LASF815:
 14294 140e 61636359 		.ascii	"accY\000"
 14294      00
 14295              	.LASF816:
 14296 1413 6163635A 		.ascii	"accZ\000"
 14296      00
 14297              	.LASF312:
 14298 1418 63707573 		.ascii	"cpussIpc0Irq\000"
 14298      73497063 
 14298      30497271 
 14298      00
 14299              	.LASF746:
 14300 1425 534C4545 		.ascii	"SLEEP\000"
 14300      5000
 14301              	.LASF147:
 14302 142b 74637077 		.ascii	"tcpwm_1_interrupts_10_IRQn\000"
 14302      6D5F315F 
 14302      696E7465 
 14302      72727570 
 14302      74735F31 
ARM GAS  C:\Users\ASUS\AppData\Local\Temp\ccYYtRfk.s 			page 314


 14303              	.LASF400:
 14304 1446 43595F52 		.ascii	"CY_RTC_DST_FIXED\000"
 14304      54435F44 
 14304      53545F46 
 14304      49584544 
 14304      00
 14305              	.LASF524:
 14306 1457 5F5F7362 		.ascii	"__sbuf\000"
 14306      756600
 14307              	.LASF806:
 14308 145e 6C696768 		.ascii	"light_process_data\000"
 14308      745F7072 
 14308      6F636573 
 14308      735F6461 
 14308      746100
 14309              	.LASF430:
 14310 1471 73746172 		.ascii	"startDst\000"
 14310      74447374 
 14310      00
 14311              	.LASF116:
 14312 147a 63707573 		.ascii	"cpuss_interrupts_dw1_11_IRQn\000"
 14312      735F696E 
 14312      74657272 
 14312      75707473 
 14312      5F647731 
 14313              	.LASF361:
 14314 1497 63707573 		.ascii	"cpussCm4StatusOffset\000"
 14314      73436D34 
 14314      53746174 
 14314      75734F66 
 14314      66736574 
 14315              	.LASF463:
 14316 14ac 736C6176 		.ascii	"slaveRdBufEmpty\000"
 14316      65526442 
 14316      7566456D 
 14316      70747900 
 14317              	.LASF86:
 14318 14bc 7363625F 		.ascii	"scb_6_interrupt_IRQn\000"
 14318      365F696E 
 14318      74657272 
 14318      7570745F 
 14318      4952516E 
 14319              	.LASF520:
 14320 14d1 5F69735F 		.ascii	"_is_cxa\000"
 14320      63786100 
 14321              	.LASF292:
 14322 14d9 75646242 		.ascii	"udbBase\000"
 14322      61736500 
 14323              	.LASF89:
 14324 14e1 63707573 		.ascii	"cpuss_interrupts_dw0_0_IRQn\000"
 14324      735F696E 
 14324      74657272 
 14324      75707473 
 14324      5F647730 
 14325              	.LASF688:
 14326 14fd 43595F42 		.ascii	"CY_BLE_EVT_GATTC_WRITE_RSP\000"
 14326      4C455F45 
ARM GAS  C:\Users\ASUS\AppData\Local\Temp\ccYYtRfk.s 			page 315


 14326      56545F47 
 14326      41545443 
 14326      5F575249 
 14327              	.LASF212:
 14328 1518 49535052 		.ascii	"ISPR\000"
 14328      00
 14329              	.LASF414:
 14330 151d 79656172 		.ascii	"year\000"
 14330      00
 14331              	.LASF152:
 14332 1522 74637077 		.ascii	"tcpwm_1_interrupts_15_IRQn\000"
 14332      6D5F315F 
 14332      696E7465 
 14332      72727570 
 14332      74735F31 
 14333              	.LASF177:
 14334 153d 70617373 		.ascii	"pass_interrupt_sar_IRQn\000"
 14334      5F696E74 
 14334      65727275 
 14334      70745F73 
 14334      61725F49 
 14335              	.LASF771:
 14336 1555 4932435F 		.ascii	"I2C_MasterSendStart\000"
 14336      4D617374 
 14336      65725365 
 14336      6E645374 
 14336      61727400 
 14337              	.LASF359:
 14338 1569 63707573 		.ascii	"cpussCm0ClockCtlOffset\000"
 14338      73436D30 
 14338      436C6F63 
 14338      6B43746C 
 14338      4F666673 
 14339              	.LASF397:
 14340 1580 43595F52 		.ascii	"CY_RTC_12_HOURS\000"
 14340      54435F31 
 14340      325F484F 
 14340      55525300 
 14341              	.LASF455:
 14342 1590 6D617374 		.ascii	"masterStatus\000"
 14342      65725374 
 14342      61747573 
 14342      00
 14343              	.LASF344:
 14344 159d 70657269 		.ascii	"periTrGrOffset\000"
 14344      54724772 
 14344      4F666673 
 14344      657400
 14345              	.LASF32:
 14346 15ac 4E766963 		.ascii	"NvicMux26_IRQn\000"
 14346      4D757832 
 14346      365F4952 
 14346      516E00
 14347              	.LASF467:
 14348 15bb 736C6176 		.ascii	"slaveTxBufferCnt\000"
 14348      65547842 
 14348      75666665 
ARM GAS  C:\Users\ASUS\AppData\Local\Temp\ccYYtRfk.s 			page 316


 14348      72436E74 
 14348      00
 14349              	.LASF374:
 14350 15cc 6970634C 		.ascii	"ipcLockStatusOffset\000"
 14350      6F636B53 
 14350      74617475 
 14350      734F6666 
 14350      73657400 
 14351              	.LASF781:
 14352 15e0 73657443 		.ascii	"setCurrState\000"
 14352      75727253 
 14352      74617465 
 14352      00
 14353              	.LASF693:
 14354 15ed 43595F42 		.ascii	"CY_BLE_EVT_GATTC_HANDLE_VALUE_NTF\000"
 14354      4C455F45 
 14354      56545F47 
 14354      41545443 
 14354      5F48414E 
 14355              	.LASF663:
 14356 160f 43595F42 		.ascii	"CY_BLE_EVT_GAP_OOB_GENERATED_NOTIFICATION\000"
 14356      4C455F45 
 14356      56545F47 
 14356      41505F4F 
 14356      4F425F47 
 14357              	.LASF647:
 14358 1639 43595F42 		.ascii	"CY_BLE_EVT_SET_CONN_PRIORITY_COMPLETE\000"
 14358      4C455F45 
 14358      56545F53 
 14358      45545F43 
 14358      4F4E4E5F 
 14359              	.LASF170:
 14360 165f 7564625F 		.ascii	"udb_interrupts_9_IRQn\000"
 14360      696E7465 
 14360      72727570 
 14360      74735F39 
 14360      5F495251 
 14361              	.LASF78:
 14362 1675 63707573 		.ascii	"cpuss_interrupts_ipc_14_IRQn\000"
 14362      735F696E 
 14362      74657272 
 14362      75707473 
 14362      5F697063 
 14363              	.LASF623:
 14364 1692 43595F42 		.ascii	"CY_BLE_EVT_SET_DEFAULT_PHY_COMPLETE\000"
 14364      4C455F45 
 14364      56545F53 
 14364      45545F44 
 14364      45464155 
 14365              	.LASF384:
 14366 16b6 63795F73 		.ascii	"cy_stc_sysint_t\000"
 14366      74635F73 
 14366      7973696E 
 14366      745F7400 
 14367              	.LASF360:
 14368 16c6 63707573 		.ascii	"cpussCm4ClockCtlOffset\000"
 14368      73436D34 
ARM GAS  C:\Users\ASUS\AppData\Local\Temp\ccYYtRfk.s 			page 317


 14368      436C6F63 
 14368      6B43746C 
 14368      4F666673 
 14369              	.LASF102:
 14370 16dd 63707573 		.ascii	"cpuss_interrupts_dw0_13_IRQn\000"
 14370      735F696E 
 14370      74657272 
 14370      75707473 
 14370      5F647730 
 14371              	.LASF157:
 14372 16fa 74637077 		.ascii	"tcpwm_1_interrupts_20_IRQn\000"
 14372      6D5F315F 
 14372      696E7465 
 14372      72727570 
 14372      74735F32 
 14373              	.LASF185:
 14374 1715 70617373 		.ascii	"pass_interrupt_dacs_IRQn\000"
 14374      5F696E74 
 14374      65727275 
 14374      70745F64 
 14374      6163735F 
 14375              	.LASF223:
 14376 172e 52455345 		.ascii	"RESERVED\000"
 14376      52564544 
 14376      00
 14377              	.LASF418:
 14378 1737 73656345 		.ascii	"secEn\000"
 14378      6E00
 14379              	.LASF363:
 14380 173d 63707573 		.ascii	"cpussCm4PwrCtlOffset\000"
 14380      73436D34 
 14380      50777243 
 14380      746C4F66 
 14380      66736574 
 14381              	.LASF402:
 14382 1752 43595F52 		.ascii	"CY_RTC_AM\000"
 14382      54435F41 
 14382      4D00
 14383              	.LASF230:
 14384 175c 55415254 		.ascii	"UART_RX_STATUS\000"
 14384      5F52585F 
 14384      53544154 
 14384      555300
 14385              	.LASF122:
 14386 176b 63707573 		.ascii	"cpuss_interrupts_fault_1_IRQn\000"
 14386      735F696E 
 14386      74657272 
 14386      75707473 
 14386      5F666175 
 14387              	.LASF531:
 14388 1789 5F636F6F 		.ascii	"_cookie\000"
 14388      6B696500 
 14389              	.LASF821:
 14390 1791 61636350 		.ascii	"accPrint\000"
 14390      72696E74 
 14390      00
 14391              	.LASF823:
ARM GAS  C:\Users\ASUS\AppData\Local\Temp\ccYYtRfk.s 			page 318


 14392 179a 6163635F 		.ascii	"acc_process_data\000"
 14392      70726F63 
 14392      6573735F 
 14392      64617461 
 14392      00
 14393              	.LASF446:
 14394 17ab 43595F53 		.ascii	"CY_SCB_I2C_ACK\000"
 14394      43425F49 
 14394      32435F41 
 14394      434B00
 14395              	.LASF505:
 14396 17ba 5F776473 		.ascii	"_wds\000"
 14396      00
 14397              	.LASF774:
 14398 17bf 6576656E 		.ascii	"eventParameter\000"
 14398      74506172 
 14398      616D6574 
 14398      657200
 14399              	.LASF335:
 14400 17ce 666C6173 		.ascii	"flashCtlMainWs4Freq\000"
 14400      6843746C 
 14400      4D61696E 
 14400      57733446 
 14400      72657100 
 14401              	.LASF38:
 14402 17e2 756E636F 		.ascii	"unconnected_IRQn\000"
 14402      6E6E6563 
 14402      7465645F 
 14402      4952516E 
 14402      00
 14403              	.LASF675:
 14404 17f3 43595F42 		.ascii	"CY_BLE_EVT_GATTC_ERROR_RSP\000"
 14404      4C455F45 
 14404      56545F47 
 14404      41545443 
 14404      5F455252 
 14405              	.LASF690:
 14406 180e 43595F42 		.ascii	"CY_BLE_EVT_GATTS_PREP_WRITE_REQ\000"
 14406      4C455F45 
 14406      56545F47 
 14406      41545453 
 14406      5F505245 
 14407              	.LASF174:
 14408 182e 7564625F 		.ascii	"udb_interrupts_13_IRQn\000"
 14408      696E7465 
 14408      72727570 
 14408      74735F31 
 14408      335F4952 
 14409              	.LASF424:
 14410 1845 616C6D45 		.ascii	"almEn\000"
 14410      6E00
 14411              	.LASF709:
 14412 184b 43595F42 		.ascii	"CY_BLE_EVT_L2CAP_CBFC_TX_CREDIT_IND\000"
 14412      4C455F45 
 14412      56545F4C 
 14412      32434150 
 14412      5F434246 
ARM GAS  C:\Users\ASUS\AppData\Local\Temp\ccYYtRfk.s 			page 319


 14413              	.LASF314:
 14414 186f 63707573 		.ascii	"cpussNotConnectedIrq\000"
 14414      734E6F74 
 14414      436F6E6E 
 14414      65637465 
 14414      64497271 
 14415              	.LASF539:
 14416 1884 5F6F6666 		.ascii	"_offset\000"
 14416      73657400 
 14417              	.LASF560:
 14418 188c 5F637674 		.ascii	"_cvtbuf\000"
 14418      62756600 
 14419              	.LASF163:
 14420 1894 7564625F 		.ascii	"udb_interrupts_2_IRQn\000"
 14420      696E7465 
 14420      72727570 
 14420      74735F32 
 14420      5F495251 
 14421              	.LASF356:
 14422 18aa 6770696F 		.ascii	"gpioPrtCfgInOffset\000"
 14422      50727443 
 14422      6667496E 
 14422      4F666673 
 14422      657400
 14423              	.LASF291:
 14424 18bd 70657269 		.ascii	"periBase\000"
 14424      42617365 
 14424      00
 14425              	.LASF703:
 14426 18c6 43595F42 		.ascii	"CY_BLE_EVT_L2CAP_CBFC_CONN_IND\000"
 14426      4C455F45 
 14426      56545F4C 
 14426      32434150 
 14426      5F434246 
 14427              	.LASF818:
 14428 18e5 6779726F 		.ascii	"gyroX\000"
 14428      5800
 14429              	.LASF819:
 14430 18eb 6779726F 		.ascii	"gyroY\000"
 14430      5900
 14431              	.LASF820:
 14432 18f1 6779726F 		.ascii	"gyroZ\000"
 14432      5A00
 14433              	.LASF779:
 14434 18f7 77726974 		.ascii	"writeReqParameter\000"
 14434      65526571 
 14434      50617261 
 14434      6D657465 
 14434      7200
 14435              	.LASF868:
 14436 1909 43795F52 		.ascii	"Cy_RTC_Interrupt\000"
 14436      54435F49 
 14436      6E746572 
 14436      72757074 
 14436      00
 14437              	.LASF775:
 14438 191a 67656E65 		.ascii	"genericEventHandler\000"
ARM GAS  C:\Users\ASUS\AppData\Local\Temp\ccYYtRfk.s 			page 320


 14438      72696345 
 14438      76656E74 
 14438      48616E64 
 14438      6C657200 
 14439              	.LASF131:
 14440 192e 74637077 		.ascii	"tcpwm_0_interrupts_2_IRQn\000"
 14440      6D5F305F 
 14440      696E7465 
 14440      72727570 
 14440      74735F32 
 14441              	.LASF631:
 14442 1948 43595F42 		.ascii	"CY_BLE_EVT_GET_RSSI_COMPLETE\000"
 14442      4C455F45 
 14442      56545F47 
 14442      45545F52 
 14442      5353495F 
 14443              	.LASF439:
 14444 1965 43595F53 		.ascii	"CY_SCB_I2C_MASTER_MANUAL_ARB_LOST\000"
 14444      43425F49 
 14444      32435F4D 
 14444      41535445 
 14444      525F4D41 
 14445              	.LASF459:
 14446 1987 6D617374 		.ascii	"masterBufferSize\000"
 14446      65724275 
 14446      66666572 
 14446      53697A65 
 14446      00
 14447              	.LASF425:
 14448 1998 63795F73 		.ascii	"cy_stc_rtc_alarm_t\000"
 14448      74635F72 
 14448      74635F61 
 14448      6C61726D 
 14448      5F7400
 14449              	.LASF1:
 14450 19ab 4E6F6E4D 		.ascii	"NonMaskableInt_IRQn\000"
 14450      61736B61 
 14450      626C6549 
 14450      6E745F49 
 14450      52516E00 
 14451              	.LASF148:
 14452 19bf 74637077 		.ascii	"tcpwm_1_interrupts_11_IRQn\000"
 14452      6D5F315F 
 14452      696E7465 
 14452      72727570 
 14452      74735F31 
 14453              	.LASF311:
 14454 19da 63707573 		.ascii	"cpussFlashPaSize\000"
 14454      73466C61 
 14454      73685061 
 14454      53697A65 
 14454      00
 14455              	.LASF881:
 14456 19eb 43795F52 		.ascii	"Cy_RTC_Init\000"
 14456      54435F49 
 14456      6E697400 
 14457              	.LASF471:
ARM GAS  C:\Users\ASUS\AppData\Local\Temp\ccYYtRfk.s 			page 321


 14458 19f7 63624576 		.ascii	"cbEvents\000"
 14458      656E7473 
 14458      00
 14459              	.LASF884:
 14460 1a00 43795F52 		.ascii	"Cy_RTC_SetInterruptMask\000"
 14460      54435F53 
 14460      6574496E 
 14460      74657272 
 14460      7570744D 
 14461              	.LASF557:
 14462 1a18 5F703573 		.ascii	"_p5s\000"
 14462      00
 14463              	.LASF199:
 14464 1a1d 6C6F6E67 		.ascii	"long unsigned int\000"
 14464      20756E73 
 14464      69676E65 
 14464      6420696E 
 14464      7400
 14465              	.LASF681:
 14466 1a2f 43595F42 		.ascii	"CY_BLE_EVT_GATTC_READ_BY_TYPE_RSP\000"
 14466      4C455F45 
 14466      56545F47 
 14466      41545443 
 14466      5F524541 
 14467              	.LASF382:
 14468 1a51 636D3070 		.ascii	"cm0pSrc\000"
 14468      53726300 
 14469              	.LASF426:
 14470 1a59 666F726D 		.ascii	"format\000"
 14470      617400
 14471              	.LASF659:
 14472 1a60 43595F42 		.ascii	"CY_BLE_EVT_GAPC_SCAN_START_STOP\000"
 14472      4C455F45 
 14472      56545F47 
 14472      4150435F 
 14472      5343414E 
 14473              	.LASF785:
 14474 1a80 6C696768 		.ascii	"lightFlag\000"
 14474      74466C61 
 14474      6700
 14475              	.LASF527:
 14476 1a8a 5F5F7346 		.ascii	"__sFILE\000"
 14476      494C4500 
 14477              	.LASF553:
 14478 1a92 5F5F7364 		.ascii	"__sdidinit\000"
 14478      6964696E 
 14478      697400
 14479              	.LASF543:
 14480 1a9d 5F666C61 		.ascii	"_flags2\000"
 14480      67733200 
 14481              	.LASF12:
 14482 1aa5 4E766963 		.ascii	"NvicMux6_IRQn\000"
 14482      4D757836 
 14482      5F495251 
 14482      6E00
 14483              	.LASF768:
 14484 1ab3 61646472 		.ascii	"address\000"
ARM GAS  C:\Users\ASUS\AppData\Local\Temp\ccYYtRfk.s 			page 322


 14484      65737300 
 14485              	.LASF321:
 14486 1abb 65704D6F 		.ascii	"epMonitorNr\000"
 14486      6E69746F 
 14486      724E7200 
 14487              	.LASF671:
 14488 1ac7 43595F42 		.ascii	"CY_BLE_EVT_GAP_CREATE_CONN_CANCEL_COMPLETE\000"
 14488      4C455F45 
 14488      56545F47 
 14488      41505F43 
 14488      52454154 
 14489              	.LASF448:
 14490 1af2 63795F65 		.ascii	"cy_en_scb_i2c_command_t\000"
 14490      6E5F7363 
 14490      625F6932 
 14490      635F636F 
 14490      6D6D616E 
 14491              	.LASF615:
 14492 1b0a 43595F42 		.ascii	"CY_BLE_EVT_SET_RPA_TO_COMPLETE\000"
 14492      4C455F45 
 14492      56545F53 
 14492      45545F52 
 14492      50415F54 
 14493              	.LASF372:
 14494 1b29 63707573 		.ascii	"cpussRam2Ctl0\000"
 14494      7352616D 
 14494      3243746C 
 14494      3000
 14495              	.LASF269:
 14496 1b37 494E5452 		.ascii	"INTR_M_MASK\000"
 14496      5F4D5F4D 
 14496      41534B00 
 14497              	.LASF189:
 14498 1b43 4952516E 		.ascii	"IRQn_Type\000"
 14498      5F547970 
 14498      6500
 14499              	.LASF193:
 14500 1b4d 5F5F696E 		.ascii	"__int16_t\000"
 14500      7431365F 
 14500      7400
 14501              	.LASF299:
 14502 1b57 63707573 		.ascii	"cpussVersion\000"
 14502      73566572 
 14502      73696F6E 
 14502      00
 14503              	.LASF490:
 14504 1b64 5F4C4F43 		.ascii	"_LOCK_RECURSIVE_T\000"
 14504      4B5F5245 
 14504      43555253 
 14504      4956455F 
 14504      5400
 14505              	.LASF206:
 14506 1b76 696E7433 		.ascii	"int32_t\000"
 14506      325F7400 
 14507              	.LASF702:
 14508 1b7e 43595F42 		.ascii	"CY_BLE_EVT_L2CAP_COMMAND_REJ\000"
 14508      4C455F45 
ARM GAS  C:\Users\ASUS\AppData\Local\Temp\ccYYtRfk.s 			page 323


 14508      56545F4C 
 14508      32434150 
 14508      5F434F4D 
 14509              	.LASF313:
 14510 1b9b 63707573 		.ascii	"cpussFmIrq\000"
 14510      73466D49 
 14510      727100
 14511              	.LASF462:
 14512 1ba6 736C6176 		.ascii	"slaveStatus\000"
 14512      65537461 
 14512      74757300 
 14513              	.LASF677:
 14514 1bb2 43595F42 		.ascii	"CY_BLE_EVT_GATT_DISCONNECT_IND\000"
 14514      4C455F45 
 14514      56545F47 
 14514      4154545F 
 14514      44495343 
 14515              	.LASF545:
 14516 1bd1 5F657272 		.ascii	"_errno\000"
 14516      6E6F00
 14517              	.LASF324:
 14518 1bd8 70726F74 		.ascii	"protBusMasterMask\000"
 14518      4275734D 
 14518      61737465 
 14518      724D6173 
 14518      6B00
 14519              	.LASF770:
 14520 1bea 4932435F 		.ascii	"I2C_MasterWriteByte\000"
 14520      4D617374 
 14520      65725772 
 14520      69746542 
 14520      79746500 
 14521              	.LASF337:
 14522 1bfe 64774368 		.ascii	"dwChSize\000"
 14522      53697A65 
 14522      00
 14523              	.LASF385:
 14524 1c07 43595F53 		.ascii	"CY_SYSPM_WAIT_FOR_INTERRUPT\000"
 14524      5953504D 
 14524      5F574149 
 14524      545F464F 
 14524      525F494E 
 14525              	.LASF752:
 14526 1c23 63757272 		.ascii	"curr\000"
 14526      00
 14527              	.LASF173:
 14528 1c28 7564625F 		.ascii	"udb_interrupts_12_IRQn\000"
 14528      696E7465 
 14528      72727570 
 14528      74735F31 
 14528      325F4952 
 14529              	.LASF683:
 14530 1c3f 43595F42 		.ascii	"CY_BLE_EVT_GATTC_FIND_BY_TYPE_VALUE_RSP\000"
 14530      4C455F45 
 14530      56545F47 
 14530      41545443 
 14530      5F46494E 
ARM GAS  C:\Users\ASUS\AppData\Local\Temp\ccYYtRfk.s 			page 324


 14531              	.LASF142:
 14532 1c67 74637077 		.ascii	"tcpwm_1_interrupts_5_IRQn\000"
 14532      6D5F315F 
 14532      696E7465 
 14532      72727570 
 14532      74735F35 
 14533              	.LASF73:
 14534 1c81 63707573 		.ascii	"cpuss_interrupts_ipc_9_IRQn\000"
 14534      735F696E 
 14534      74657272 
 14534      75707473 
 14534      5F697063 
 14535              	.LASF25:
 14536 1c9d 4E766963 		.ascii	"NvicMux19_IRQn\000"
 14536      4D757831 
 14536      395F4952 
 14536      516E00
 14537              	.LASF854:
 14538 1cac 5254435F 		.ascii	"RTC_rtcDstStatus\000"
 14538      72746344 
 14538      73745374 
 14538      61747573 
 14538      00
 14539              	.LASF684:
 14540 1cbd 43595F42 		.ascii	"CY_BLE_EVT_GATTC_READ_RSP\000"
 14540      4C455F45 
 14540      56545F47 
 14540      41545443 
 14540      5F524541 
 14541              	.LASF319:
 14542 1cd7 736D6966 		.ascii	"smifDeviceNr\000"
 14542      44657669 
 14542      63654E72 
 14542      00
 14543              	.LASF501:
 14544 1ce4 5F426967 		.ascii	"_Bigint\000"
 14544      696E7400 
 14545              	.LASF640:
 14546 1cec 43595F42 		.ascii	"CY_BLE_EVT_SET_SLAVE_LATENCY_MODE_COMPLETE\000"
 14546      4C455F45 
 14546      56545F53 
 14546      45545F53 
 14546      4C415645 
 14547              	.LASF82:
 14548 1d17 7363625F 		.ascii	"scb_2_interrupt_IRQn\000"
 14548      325F696E 
 14548      74657272 
 14548      7570745F 
 14548      4952516E 
 14549              	.LASF415:
 14550 1d2c 63795F73 		.ascii	"cy_stc_rtc_config_t\000"
 14550      74635F72 
 14550      74635F63 
 14550      6F6E6669 
 14550      675F7400 
 14551              	.LASF736:
 14552 1d40 43595F42 		.ascii	"CY_BLE_CONN_STATE_CLIENT_SRVC_DISCOVERING\000"
ARM GAS  C:\Users\ASUS\AppData\Local\Temp\ccYYtRfk.s 			page 325


 14552      4C455F43 
 14552      4F4E4E5F 
 14552      53544154 
 14552      455F434C 
 14553              	.LASF503:
 14554 1d6a 5F6D6178 		.ascii	"_maxwds\000"
 14554      77647300 
 14555              	.LASF636:
 14556 1d72 43595F42 		.ascii	"CY_BLE_EVT_RANDOM_NUM_GEN_COMPLETE\000"
 14556      4C455F45 
 14556      56545F52 
 14556      414E444F 
 14556      4D5F4E55 
 14557              	.LASF50:
 14558 1d95 696F7373 		.ascii	"ioss_interrupts_gpio_11_IRQn\000"
 14558      5F696E74 
 14558      65727275 
 14558      7074735F 
 14558      6770696F 
 14559              	.LASF351:
 14560 1db2 70657269 		.ascii	"periDiv16CtlOffset\000"
 14560      44697631 
 14560      3643746C 
 14560      4F666673 
 14560      657400
 14561              	.LASF99:
 14562 1dc5 63707573 		.ascii	"cpuss_interrupts_dw0_10_IRQn\000"
 14562      735F696E 
 14562      74657272 
 14562      75707473 
 14562      5F647730 
 14563              	.LASF366:
 14564 1de2 63707573 		.ascii	"cpussSysTickCtlOffset\000"
 14564      73537973 
 14564      5469636B 
 14564      43746C4F 
 14564      66667365 
 14565              	.LASF867:
 14566 1df8 43795F42 		.ascii	"Cy_BLE_ProcessEvents\000"
 14566      4C455F50 
 14566      726F6365 
 14566      73734576 
 14566      656E7473 
 14567              	.LASF589:
 14568 1e0d 5F6D6273 		.ascii	"_mbsrtowcs_state\000"
 14568      72746F77 
 14568      63735F73 
 14568      74617465 
 14568      00
 14569              	.LASF562:
 14570 1e1e 5F617465 		.ascii	"_atexit0\000"
 14570      78697430 
 14570      00
 14571              	.LASF410:
 14572 1e27 6872466F 		.ascii	"hrFormat\000"
 14572      726D6174 
 14572      00
ARM GAS  C:\Users\ASUS\AppData\Local\Temp\ccYYtRfk.s 			page 326


 14573              	.LASF465:
 14574 1e30 736C6176 		.ascii	"slaveTxBufferSize\000"
 14574      65547842 
 14574      75666665 
 14574      7253697A 
 14574      6500
 14575              	.LASF41:
 14576 1e42 696F7373 		.ascii	"ioss_interrupts_gpio_2_IRQn\000"
 14576      5F696E74 
 14576      65727275 
 14576      7074735F 
 14576      6770696F 
 14577              	.LASF347:
 14578 1e5e 70657269 		.ascii	"periDivCmdTypeSelPos\000"
 14578      44697643 
 14578      6D645479 
 14578      70655365 
 14578      6C506F73 
 14579              	.LASF119:
 14580 1e73 63707573 		.ascii	"cpuss_interrupts_dw1_14_IRQn\000"
 14580      735F696E 
 14580      74657272 
 14580      75707473 
 14580      5F647731 
 14581              	.LASF289:
 14582 1e90 63707573 		.ascii	"cpussBase\000"
 14582      73426173 
 14582      6500
 14583              	.LASF293:
 14584 1e9a 70726F74 		.ascii	"protBase\000"
 14584      42617365 
 14584      00
 14585              	.LASF305:
 14586 1ea3 69706356 		.ascii	"ipcVersion\000"
 14586      65727369 
 14586      6F6E00
 14587              	.LASF92:
 14588 1eae 63707573 		.ascii	"cpuss_interrupts_dw0_3_IRQn\000"
 14588      735F696E 
 14588      74657272 
 14588      75707473 
 14588      5F647730 
 14589              	.LASF198:
 14590 1eca 5F5F7569 		.ascii	"__uint32_t\000"
 14590      6E743332 
 14590      5F7400
 14591              	.LASF550:
 14592 1ed5 5F656D65 		.ascii	"_emergency\000"
 14592      7267656E 
 14592      637900
 14593              	.LASF253:
 14594 1ee0 455A5F44 		.ascii	"EZ_DATA\000"
 14594      41544100 
 14595              	.LASF582:
 14596 1ee8 5F6D6274 		.ascii	"_mbtowc_state\000"
 14596      6F77635F 
 14596      73746174 
ARM GAS  C:\Users\ASUS\AppData\Local\Temp\ccYYtRfk.s 			page 327


 14596      6500
 14597              	.LASF66:
 14598 1ef6 63707573 		.ascii	"cpuss_interrupts_ipc_2_IRQn\000"
 14598      735F696E 
 14598      74657272 
 14598      75707473 
 14598      5F697063 
 14599              	.LASF320:
 14600 1f12 70617373 		.ascii	"passSarChannels\000"
 14600      53617243 
 14600      68616E6E 
 14600      656C7300 
 14601              	.LASF134:
 14602 1f22 74637077 		.ascii	"tcpwm_0_interrupts_5_IRQn\000"
 14602      6D5F305F 
 14602      696E7465 
 14602      72727570 
 14602      74735F35 
 14603              	.LASF878:
 14604 1f3c 43795F53 		.ascii	"Cy_SCB_I2C_MasterReadByte\000"
 14604      43425F49 
 14604      32435F4D 
 14604      61737465 
 14604      72526561 
 14605              	.LASF42:
 14606 1f56 696F7373 		.ascii	"ioss_interrupts_gpio_3_IRQn\000"
 14606      5F696E74 
 14606      65727275 
 14606      7074735F 
 14606      6770696F 
 14607              	.LASF156:
 14608 1f72 74637077 		.ascii	"tcpwm_1_interrupts_19_IRQn\000"
 14608      6D5F315F 
 14608      696E7465 
 14608      72727570 
 14608      74735F31 
 14609              	.LASF621:
 14610 1f8d 43595F42 		.ascii	"CY_BLE_EVT_REMOVE_DEVICE_FROM_WHITE_LIST_COMPLETE\000"
 14610      4C455F45 
 14610      56545F52 
 14610      454D4F56 
 14610      455F4445 
 14611              	.LASF686:
 14612 1fbf 43595F42 		.ascii	"CY_BLE_EVT_GATTC_READ_MULTI_RSP\000"
 14612      4C455F45 
 14612      56545F47 
 14612      41545443 
 14612      5F524541 
 14613              	.LASF724:
 14614 1fdf 43595F42 		.ascii	"CY_BLE_STATE_STOPPED\000"
 14614      4C455F53 
 14614      54415445 
 14614      5F53544F 
 14614      50504544 
 14615              	.LASF706:
 14616 1ff4 43595F42 		.ascii	"CY_BLE_EVT_L2CAP_CBFC_DISCONN_CNF\000"
 14616      4C455F45 
ARM GAS  C:\Users\ASUS\AppData\Local\Temp\ccYYtRfk.s 			page 328


 14616      56545F4C 
 14616      32434150 
 14616      5F434246 
 14617              	.LASF306:
 14618 2016 70657269 		.ascii	"periVersion\000"
 14618      56657273 
 14618      696F6E00 
 14619              	.LASF777:
 14620 2022 746F6767 		.ascii	"toggleState\000"
 14620      6C655374 
 14620      61746500 
 14621              	.LASF461:
 14622 202e 6D617374 		.ascii	"masterNumBytes\000"
 14622      65724E75 
 14622      6D427974 
 14622      657300
 14623              	.LASF866:
 14624 203d 43795F42 		.ascii	"Cy_BLE_GAPP_StartAdvertisement\000"
 14624      4C455F47 
 14624      4150505F 
 14624      53746172 
 14624      74416476 
 14625              	.LASF896:
 14626 205c 443A5C44 		.ascii	"D:\\Documents\\Lab2Part3.cydsn\\EasyMoo.cydsn\000"
 14626      6F63756D 
 14626      656E7473 
 14626      5C4C6162 
 14626      32506172 
 14627              	.LASF568:
 14628 2087 5F6E696F 		.ascii	"_niobs\000"
 14628      627300
 14629              	.LASF433:
 14630 208e 43595F53 		.ascii	"CY_SCB_I2C_SUCCESS\000"
 14630      43425F49 
 14630      32435F53 
 14630      55434345 
 14630      535300
 14631              	.LASF35:
 14632 20a1 4E766963 		.ascii	"NvicMux29_IRQn\000"
 14632      4D757832 
 14632      395F4952 
 14632      516E00
 14633              	.LASF375:
 14634 20b0 63795F73 		.ascii	"cy_stc_device_t\000"
 14634      74635F64 
 14634      65766963 
 14634      655F7400 
 14635              	.LASF422:
 14636 20c0 64617465 		.ascii	"dateEn\000"
 14636      456E00
 14637              	.LASF4:
 14638 20c7 50656E64 		.ascii	"PendSV_IRQn\000"
 14638      53565F49 
 14638      52516E00 
 14639              	.LASF98:
 14640 20d3 63707573 		.ascii	"cpuss_interrupts_dw0_9_IRQn\000"
 14640      735F696E 
ARM GAS  C:\Users\ASUS\AppData\Local\Temp\ccYYtRfk.s 			page 329


 14640      74657272 
 14640      75707473 
 14640      5F647730 
 14641              	.LASF564:
 14642 20ef 5F5F7367 		.ascii	"__sglue\000"
 14642      6C756500 
 14643              	.LASF270:
 14644 20f7 494E5452 		.ascii	"INTR_M_MASKED\000"
 14644      5F4D5F4D 
 14644      41534B45 
 14644      4400
 14645              	.LASF172:
 14646 2105 7564625F 		.ascii	"udb_interrupts_11_IRQn\000"
 14646      696E7465 
 14646      72727570 
 14646      74735F31 
 14646      315F4952 
 14647              	.LASF880:
 14648 211c 71756575 		.ascii	"queue_enqueue\000"
 14648      655F656E 
 14648      71756575 
 14648      6500
 14649              	.LASF594:
 14650 212a 5F6E6D61 		.ascii	"_nmalloc\000"
 14650      6C6C6F63 
 14650      00
 14651              	.LASF625:
 14652 2133 43595F42 		.ascii	"CY_BLE_EVT_PHY_UPDATE_COMPLETE\000"
 14652      4C455F45 
 14652      56545F50 
 14652      48595F55 
 14652      50444154 
 14653              	.LASF379:
 14654 2152 646F7562 		.ascii	"double\000"
 14654      6C6500
 14655              	.LASF3:
 14656 2159 53564361 		.ascii	"SVCall_IRQn\000"
 14656      6C6C5F49 
 14656      52516E00 
 14657              	.LASF300:
 14658 2165 63727970 		.ascii	"cryptoVersion\000"
 14658      746F5665 
 14658      7273696F 
 14658      6E00
 14659              	.LASF117:
 14660 2173 63707573 		.ascii	"cpuss_interrupts_dw1_12_IRQn\000"
 14660      735F696E 
 14660      74657272 
 14660      75707473 
 14660      5F647731 
 14661              	.LASF707:
 14662 2190 43595F42 		.ascii	"CY_BLE_EVT_L2CAP_CBFC_DATA_READ\000"
 14662      4C455F45 
 14662      56545F4C 
 14662      32434150 
 14662      5F434246 
 14663              	.LASF723:
ARM GAS  C:\Users\ASUS\AppData\Local\Temp\ccYYtRfk.s 			page 330


 14664 21b0 63795F73 		.ascii	"cy_stc_ble_gatt_write_param_t\000"
 14664      74635F62 
 14664      6C655F67 
 14664      6174745F 
 14664      77726974 
 14665              	.LASF328:
 14666 21ce 666C6173 		.ascii	"flashWriteDelay\000"
 14666      68577269 
 14666      74654465 
 14666      6C617900 
 14667              	.LASF326:
 14668 21de 666C6173 		.ascii	"flashRwwRequired\000"
 14668      68527777 
 14668      52657175 
 14668      69726564 
 14668      00
 14669              	.LASF334:
 14670 21ef 666C6173 		.ascii	"flashCtlMainWs3Freq\000"
 14670      6843746C 
 14670      4D61696E 
 14670      57733346 
 14670      72657100 
 14671              	.LASF552:
 14672 2203 5F637572 		.ascii	"_current_locale\000"
 14672      72656E74 
 14672      5F6C6F63 
 14672      616C6500 
 14673              	.LASF160:
 14674 2213 74637077 		.ascii	"tcpwm_1_interrupts_23_IRQn\000"
 14674      6D5F315F 
 14674      696E7465 
 14674      72727570 
 14674      74735F32 
 14675              	.LASF558:
 14676 222e 5F667265 		.ascii	"_freelist\000"
 14676      656C6973 
 14676      7400
 14677              	.LASF113:
 14678 2238 63707573 		.ascii	"cpuss_interrupts_dw1_8_IRQn\000"
 14678      735F696E 
 14678      74657272 
 14678      75707473 
 14678      5F647731 
 14679              	.LASF484:
 14680 2254 72784275 		.ascii	"rxBufIdx\000"
 14680      66496478 
 14680      00
 14681              	.LASF352:
 14682 225d 70657269 		.ascii	"periDiv16_5CtlOffset\000"
 14682      44697631 
 14682      365F3543 
 14682      746C4F66 
 14682      66736574 
 14683              	.LASF569:
 14684 2272 5F696F62 		.ascii	"_iobs\000"
 14684      7300
 14685              	.LASF567:
ARM GAS  C:\Users\ASUS\AppData\Local\Temp\ccYYtRfk.s 			page 331


 14686 2278 5F676C75 		.ascii	"_glue\000"
 14686      6500
 14687              	.LASF835:
 14688 227e 6176675F 		.ascii	"avg_temp_score\000"
 14688      74656D70 
 14688      5F73636F 
 14688      726500
 14689              	.LASF8:
 14690 228d 4E766963 		.ascii	"NvicMux2_IRQn\000"
 14690      4D757832 
 14690      5F495251 
 14690      6E00
 14691              	.LASF504:
 14692 229b 5F736967 		.ascii	"_sign\000"
 14692      6E00
 14693              	.LASF611:
 14694 22a1 43595F42 		.ascii	"CY_BLE_EVT_GET_DATA_LENGTH_COMPLETE\000"
 14694      4C455F45 
 14694      56545F47 
 14694      45545F44 
 14694      4154415F 
 14695              	.LASF149:
 14696 22c5 74637077 		.ascii	"tcpwm_1_interrupts_12_IRQn\000"
 14696      6D5F315F 
 14696      696E7465 
 14696      72727570 
 14696      74735F31 
 14697              	.LASF769:
 14698 22e0 62697452 		.ascii	"bitRnW\000"
 14698      6E5700
 14699              	.LASF897:
 14700 22e7 5F5F4E56 		.ascii	"__NVIC_EnableIRQ\000"
 14700      49435F45 
 14700      6E61626C 
 14700      65495251 
 14700      00
 14701              	.LASF672:
 14702 22f8 43595F42 		.ascii	"CY_BLE_EVT_GAP_CONN_ESTB\000"
 14702      4C455F45 
 14702      56545F47 
 14702      41505F43 
 14702      4F4E4E5F 
 14703              	.LASF20:
 14704 2311 4E766963 		.ascii	"NvicMux14_IRQn\000"
 14704      4D757831 
 14704      345F4952 
 14704      516E00
 14705              	.LASF836:
 14706 2320 636F756E 		.ascii	"count\000"
 14706      7400
 14707              	.LASF225:
 14708 2326 5350495F 		.ascii	"SPI_STATUS\000"
 14708      53544154 
 14708      555300
 14709              	.LASF773:
 14710 2331 6576656E 		.ascii	"event\000"
 14710      7400
ARM GAS  C:\Users\ASUS\AppData\Local\Temp\ccYYtRfk.s 			page 332


 14711              	.LASF308:
 14712 2337 63707573 		.ascii	"cpussIpcNr\000"
 14712      73497063 
 14712      4E7200
 14713              	.LASF719:
 14714 2342 61747472 		.ascii	"attrHandle\000"
 14714      48616E64 
 14714      6C6500
 14715              	.LASF166:
 14716 234d 7564625F 		.ascii	"udb_interrupts_5_IRQn\000"
 14716      696E7465 
 14716      72727570 
 14716      74735F35 
 14716      5F495251 
 14717              	.LASF202:
 14718 2363 756E7369 		.ascii	"unsigned int\000"
 14718      676E6564 
 14718      20696E74 
 14718      00
 14719              	.LASF219:
 14720 2370 4354524C 		.ascii	"CTRL\000"
 14720      00
 14721              	.LASF17:
 14722 2375 4E766963 		.ascii	"NvicMux11_IRQn\000"
 14722      4D757831 
 14722      315F4952 
 14722      516E00
 14723              	.LASF74:
 14724 2384 63707573 		.ascii	"cpuss_interrupts_ipc_10_IRQn\000"
 14724      735F696E 
 14724      74657272 
 14724      75707473 
 14724      5F697063 
 14725              	.LASF761:
 14726 23a1 6E6F6465 		.ascii	"node_t\000"
 14726      5F7400
 14727              	.LASF734:
 14728 23a8 43595F42 		.ascii	"CY_BLE_CONN_STATE_CLIENT_DISCONNECTED_DISCOVERED\000"
 14728      4C455F43 
 14728      4F4E4E5F 
 14728      53544154 
 14728      455F434C 
 14729              	.LASF879:
 14730 23d9 43795F53 		.ascii	"Cy_SCB_I2C_MasterSendStop\000"
 14730      43425F49 
 14730      32435F4D 
 14730      61737465 
 14730      7253656E 
 14731              	.LASF403:
 14732 23f3 43595F52 		.ascii	"CY_RTC_PM\000"
 14732      54435F50 
 14732      4D00
 14733              	.LASF762:
 14734 23fd 4932435F 		.ascii	"I2C_MasterSendStop\000"
 14734      4D617374 
 14734      65725365 
 14734      6E645374 
ARM GAS  C:\Users\ASUS\AppData\Local\Temp\ccYYtRfk.s 			page 333


 14734      6F7000
 14735              	.LASF592:
 14736 2410 5F685F65 		.ascii	"_h_errno\000"
 14736      72726E6F 
 14736      00
 14737              	.LASF733:
 14738 2419 43595F42 		.ascii	"CY_BLE_CONN_STATE_DISCONNECTED\000"
 14738      4C455F43 
 14738      4F4E4E5F 
 14738      53544154 
 14738      455F4449 
 14739              	.LASF106:
 14740 2438 63707573 		.ascii	"cpuss_interrupts_dw1_1_IRQn\000"
 14740      735F696E 
 14740      74657272 
 14740      75707473 
 14740      5F647731 
 14741              	.LASF420:
 14742 2454 686F7572 		.ascii	"hourEn\000"
 14742      456E00
 14743              	.LASF417:
 14744 245b 63795F73 		.ascii	"cy_stc_rtc_alarm\000"
 14744      74635F72 
 14744      74635F61 
 14744      6C61726D 
 14744      00
 14745              	.LASF393:
 14746 246c 63795F65 		.ascii	"cy_en_rtc_status_t\000"
 14746      6E5F7274 
 14746      635F7374 
 14746      61747573 
 14746      5F7400
 14747              	.LASF662:
 14748 247f 43595F42 		.ascii	"CY_BLE_EVT_GAP_KEYPRESS_NOTIFICATION\000"
 14748      4C455F45 
 14748      56545F47 
 14748      41505F4B 
 14748      45595052 
 14749              	.LASF419:
 14750 24a4 6D696E45 		.ascii	"minEn\000"
 14750      6E00
 14751              	.LASF606:
 14752 24aa 43595F42 		.ascii	"CY_BLE_EVT_GET_CHANNEL_MAP_COMPLETE\000"
 14752      4C455F45 
 14752      56545F47 
 14752      45545F43 
 14752      48414E4E 
 14753              	.LASF890:
 14754 24ce 73657476 		.ascii	"setvbuf\000"
 14754      62756600 
 14755              	.LASF590:
 14756 24d6 5F776372 		.ascii	"_wcrtomb_state\000"
 14756      746F6D62 
 14756      5F737461 
 14756      746500
 14757              	.LASF354:
 14758 24e5 6770696F 		.ascii	"gpioPrtIntrCfgOffset\000"
ARM GAS  C:\Users\ASUS\AppData\Local\Temp\ccYYtRfk.s 			page 334


 14758      50727449 
 14758      6E747243 
 14758      66674F66 
 14758      66736574 
 14759              	.LASF371:
 14760 24fa 63707573 		.ascii	"cpussRam1Ctl0\000"
 14760      7352616D 
 14760      3143746C 
 14760      3000
 14761              	.LASF510:
 14762 2508 5F5F746D 		.ascii	"__tm_mday\000"
 14762      5F6D6461 
 14762      7900
 14763              	.LASF737:
 14764 2512 43595F42 		.ascii	"CY_BLE_CONN_STATE_CLIENT_INCL_DISCOVERING\000"
 14764      4C455F43 
 14764      4F4E4E5F 
 14764      53544154 
 14764      455F434C 
 14765              	.LASF863:
 14766 253c 6163635F 		.ascii	"acc_queue\000"
 14766      71756575 
 14766      6500
 14767              	.LASF862:
 14768 2546 74656D70 		.ascii	"temp_queue\000"
 14768      5F717565 
 14768      756500
 14769              	.LASF159:
 14770 2551 74637077 		.ascii	"tcpwm_1_interrupts_22_IRQn\000"
 14770      6D5F315F 
 14770      696E7465 
 14770      72727570 
 14770      74735F32 
 14771              	.LASF536:
 14772 256c 5F756275 		.ascii	"_ubuf\000"
 14772      6600
 14773              	.LASF423:
 14774 2572 6D6F6E74 		.ascii	"monthEn\000"
 14774      68456E00 
 14775              	.LASF596:
 14776 257a 43595F42 		.ascii	"CY_BLE_EVT_INVALID\000"
 14776      4C455F45 
 14776      56545F49 
 14776      4E56414C 
 14776      494400
 14777              	.LASF676:
 14778 258d 43595F42 		.ascii	"CY_BLE_EVT_GATT_CONNECT_IND\000"
 14778      4C455F45 
 14778      56545F47 
 14778      4154545F 
 14778      434F4E4E 
 14779              	.LASF238:
 14780 25a9 54585F43 		.ascii	"TX_CTRL\000"
 14780      54524C00 
 14781              	.LASF15:
 14782 25b1 4E766963 		.ascii	"NvicMux9_IRQn\000"
 14782      4D757839 
ARM GAS  C:\Users\ASUS\AppData\Local\Temp\ccYYtRfk.s 			page 335


 14782      5F495251 
 14782      6E00
 14783              	.LASF805:
 14784 25bf 6C696768 		.ascii	"lightPrint\000"
 14784      74507269 
 14784      6E7400
 14785              	.LASF259:
 14786 25ca 494E5452 		.ascii	"INTR_I2C_EC_MASK\000"
 14786      5F493243 
 14786      5F45435F 
 14786      4D41534B 
 14786      00
 14787              	.LASF542:
 14788 25db 5F6D6273 		.ascii	"_mbstate\000"
 14788      74617465 
 14788      00
 14789              	.LASF800:
 14790 25e4 6C696768 		.ascii	"lightMeasure\000"
 14790      744D6561 
 14790      73757265 
 14790      00
 14791              	.LASF837:
 14792 25f1 68617070 		.ascii	"happy_light_score\000"
 14792      795F6C69 
 14792      6768745F 
 14792      73636F72 
 14792      6500
 14793              	.LASF802:
 14794 2603 79436861 		.ascii	"yChannel\000"
 14794      6E6E656C 
 14794      00
 14795              	.LASF728:
 14796 260c 43595F42 		.ascii	"CY_BLE_ADV_STATE_STOPPED\000"
 14796      4C455F41 
 14796      44565F53 
 14796      54415445 
 14796      5F53544F 
 14797              	.LASF528:
 14798 2625 5F666C61 		.ascii	"_flags\000"
 14798      677300
 14799              	.LASF826:
 14800 262c 6779726F 		.ascii	"gyro_process_data\000"
 14800      5F70726F 
 14800      63657373 
 14800      5F646174 
 14800      6100
 14801              	.LASF846:
 14802 263e 63795F62 		.ascii	"cy_ble_state\000"
 14802      6C655F73 
 14802      74617465 
 14802      00
 14803              	.LASF876:
 14804 264b 43795F53 		.ascii	"Cy_SCB_I2C_MasterWriteByte\000"
 14804      43425F49 
 14804      32435F4D 
 14804      61737465 
 14804      72577269 
ARM GAS  C:\Users\ASUS\AppData\Local\Temp\ccYYtRfk.s 			page 336


 14805              	.LASF822:
 14806 2666 6779726F 		.ascii	"gyroPrint\000"
 14806      5072696E 
 14806      7400
 14807              	.LASF776:
 14808 2670 52746349 		.ascii	"RtcInterruptHandler\000"
 14808      6E746572 
 14808      72757074 
 14808      48616E64 
 14808      6C657200 
 14809              	.LASF783:
 14810 2684 75706461 		.ascii	"updateFSM\000"
 14810      74654653 
 14810      4D00
 14811              	.LASF54:
 14812 268e 696F7373 		.ascii	"ioss_interrupt_gpio_IRQn\000"
 14812      5F696E74 
 14812      65727275 
 14812      70745F67 
 14812      70696F5F 
 14813              	.LASF521:
 14814 26a7 5F617465 		.ascii	"_atexit\000"
 14814      78697400 
 14815              	.LASF27:
 14816 26af 4E766963 		.ascii	"NvicMux21_IRQn\000"
 14816      4D757832 
 14816      315F4952 
 14816      516E00
 14817              	.LASF755:
 14818 26be 66697273 		.ascii	"first\000"
 14818      7400
 14819              	.LASF231:
 14820 26c4 55415254 		.ascii	"UART_FLOW_CTRL\000"
 14820      5F464C4F 
 14820      575F4354 
 14820      524C00
 14821              	.LASF469:
 14822 26d3 736C6176 		.ascii	"slaveRxBufferSize\000"
 14822      65527842 
 14822      75666665 
 14822      7253697A 
 14822      6500
 14823              	.LASF642:
 14824 26e5 43595F42 		.ascii	"CY_BLE_EVT_RADIO_TEMPERATURE\000"
 14824      4C455F45 
 14824      56545F52 
 14824      4144494F 
 14824      5F54454D 
 14825              	.LASF176:
 14826 2702 7564625F 		.ascii	"udb_interrupts_15_IRQn\000"
 14826      696E7465 
 14826      72727570 
 14826      74735F31 
 14826      355F4952 
 14827              	.LASF449:
 14828 2719 63795F63 		.ascii	"cy_cb_scb_i2c_handle_events_t\000"
 14828      625F7363 
ARM GAS  C:\Users\ASUS\AppData\Local\Temp\ccYYtRfk.s 			page 337


 14828      625F6932 
 14828      635F6861 
 14828      6E646C65 
 14829              	.LASF435:
 14830 2737 43595F53 		.ascii	"CY_SCB_I2C_MASTER_NOT_READY\000"
 14830      43425F49 
 14830      32435F4D 
 14830      41535445 
 14830      525F4E4F 
 14831              	.LASF145:
 14832 2753 74637077 		.ascii	"tcpwm_1_interrupts_8_IRQn\000"
 14832      6D5F315F 
 14832      696E7465 
 14832      72727570 
 14832      74735F38 
 14833              	.LASF496:
 14834 276d 5F5F636F 		.ascii	"__count\000"
 14834      756E7400 
 14835              	.LASF398:
 14836 2775 63795F65 		.ascii	"cy_en_rtc_hours_format_t\000"
 14836      6E5F7274 
 14836      635F686F 
 14836      7572735F 
 14836      666F726D 
 14837              	.LASF445:
 14838 278e 63795F65 		.ascii	"cy_en_scb_i2c_direction_t\000"
 14838      6E5F7363 
 14838      625F6932 
 14838      635F6469 
 14838      72656374 
 14839              	.LASF341:
 14840 27a8 64775374 		.ascii	"dwStatusChIdxMsk\000"
 14840      61747573 
 14840      43684964 
 14840      784D736B 
 14840      00
 14841              	.LASF392:
 14842 27b9 43595F52 		.ascii	"CY_RTC_UNKNOWN\000"
 14842      54435F55 
 14842      4E4B4E4F 
 14842      574E00
 14843              	.LASF799:
 14844 27c8 6C696768 		.ascii	"lightI2CWrite\000"
 14844      74493243 
 14844      57726974 
 14844      6500
 14845              	.LASF646:
 14846 27d6 43595F42 		.ascii	"CY_BLE_EVT_SET_CE_LENGTH_COMPLETE\000"
 14846      4C455F45 
 14846      56545F53 
 14846      45545F43 
 14846      455F4C45 
 14847              	.LASF479:
 14848 27f8 72785269 		.ascii	"rxRingBufSize\000"
 14848      6E674275 
 14848      6653697A 
 14848      6500
ARM GAS  C:\Users\ASUS\AppData\Local\Temp\ccYYtRfk.s 			page 338


 14849              	.LASF287:
 14850 2806 43795343 		.ascii	"CySCB_Type\000"
 14850      425F5479 
 14850      706500
 14851              	.LASF330:
 14852 2811 666C6173 		.ascii	"flashEraseDelay\000"
 14852      68457261 
 14852      73654465 
 14852      6C617900 
 14853              	.LASF84:
 14854 2821 7363625F 		.ascii	"scb_4_interrupt_IRQn\000"
 14854      345F696E 
 14854      74657272 
 14854      7570745F 
 14854      4952516E 
 14855              	.LASF28:
 14856 2836 4E766963 		.ascii	"NvicMux22_IRQn\000"
 14856      4D757832 
 14856      325F4952 
 14856      516E00
 14857              	.LASF264:
 14858 2845 494E5452 		.ascii	"INTR_SPI_EC_MASK\000"
 14858      5F535049 
 14858      5F45435F 
 14858      4D41534B 
 14858      00
 14859              	.LASF513:
 14860 2856 5F5F746D 		.ascii	"__tm_wday\000"
 14860      5F776461 
 14860      7900
 14861              	.LASF652:
 14862 2860 43595F42 		.ascii	"CY_BLE_EVT_GAP_AUTH_COMPLETE\000"
 14862      4C455F45 
 14862      56545F47 
 14862      41505F41 
 14862      5554485F 
 14863              	.LASF342:
 14864 287d 70657269 		.ascii	"periTrCmdOffset\000"
 14864      5472436D 
 14864      644F6666 
 14864      73657400 
 14865              	.LASF860:
 14866 288d 616C6172 		.ascii	"alarmConfig\000"
 14866      6D436F6E 
 14866      66696700 
 14867              	.LASF53:
 14868 2899 696F7373 		.ascii	"ioss_interrupts_gpio_14_IRQn\000"
 14868      5F696E74 
 14868      65727275 
 14868      7074735F 
 14868      6770696F 
 14869              	.LASF705:
 14870 28b6 43595F42 		.ascii	"CY_BLE_EVT_L2CAP_CBFC_DISCONN_IND\000"
 14870      4C455F45 
 14870      56545F4C 
 14870      32434150 
 14870      5F434246 
ARM GAS  C:\Users\ASUS\AppData\Local\Temp\ccYYtRfk.s 			page 339


 14871              	.LASF780:
 14872 28d8 70726576 		.ascii	"previous\000"
 14872      696F7573 
 14872      00
 14873              	.LASF140:
 14874 28e1 74637077 		.ascii	"tcpwm_1_interrupts_3_IRQn\000"
 14874      6D5F315F 
 14874      696E7465 
 14874      72727570 
 14874      74735F33 
 14875              	.LASF288:
 14876 28fb 6C6F6E67 		.ascii	"long double\000"
 14876      20646F75 
 14876      626C6500 
 14877              	.LASF59:
 14878 2907 73727373 		.ascii	"srss_interrupt_mcwdt_1_IRQn\000"
 14878      5F696E74 
 14878      65727275 
 14878      70745F6D 
 14878      63776474 
 14879              	.LASF434:
 14880 2923 43595F53 		.ascii	"CY_SCB_I2C_BAD_PARAM\000"
 14880      43425F49 
 14880      32435F42 
 14880      41445F50 
 14880      4152414D 
 14881              	.LASF275:
 14882 2938 494E5452 		.ascii	"INTR_S_MASKED\000"
 14882      5F535F4D 
 14882      41534B45 
 14882      4400
 14883              	.LASF689:
 14884 2946 43595F42 		.ascii	"CY_BLE_EVT_GATTS_WRITE_CMD_REQ\000"
 14884      4C455F45 
 14884      56545F47 
 14884      41545453 
 14884      5F575249 
 14885              	.LASF474:
 14886 2965 63795F63 		.ascii	"cy_cb_scb_uart_handle_events_t\000"
 14886      625F7363 
 14886      625F7561 
 14886      72745F68 
 14886      616E646C 
 14887              	.LASF609:
 14888 2984 43595F42 		.ascii	"CY_BLE_EVT_SET_DATA_LENGTH_COMPLETE\000"
 14888      4C455F45 
 14888      56545F53 
 14888      45545F44 
 14888      4154415F 
 14889              	.LASF691:
 14890 29a8 43595F42 		.ascii	"CY_BLE_EVT_GATTS_EXEC_WRITE_REQ\000"
 14890      4C455F45 
 14890      56545F47 
 14890      41545453 
 14890      5F455845 
 14891              	.LASF753:
 14892 29c8 71756575 		.ascii	"queue_t\000"
ARM GAS  C:\Users\ASUS\AppData\Local\Temp\ccYYtRfk.s 			page 340


 14892      655F7400 
 14893              	.LASF571:
 14894 29d0 5F736565 		.ascii	"_seed\000"
 14894      6400
 14895              	.LASF262:
 14896 29d6 494E5452 		.ascii	"INTR_SPI_EC\000"
 14896      5F535049 
 14896      5F454300 
 14897              	.LASF95:
 14898 29e2 63707573 		.ascii	"cpuss_interrupts_dw0_6_IRQn\000"
 14898      735F696E 
 14898      74657272 
 14898      75707473 
 14898      5F647730 
 14899              	.LASF534:
 14900 29fe 5F736565 		.ascii	"_seek\000"
 14900      6B00
 14901              	.LASF487:
 14902 2a04 74784C65 		.ascii	"txLeftToTransmit\000"
 14902      6674546F 
 14902      5472616E 
 14902      736D6974 
 14902      00
 14903              	.LASF316:
 14904 2a15 73727373 		.ascii	"srssNumPll\000"
 14904      4E756D50 
 14904      6C6C00
 14905              	.LASF138:
 14906 2a20 74637077 		.ascii	"tcpwm_1_interrupts_1_IRQn\000"
 14906      6D5F315F 
 14906      696E7465 
 14906      72727570 
 14906      74735F31 
 14907              	.LASF69:
 14908 2a3a 63707573 		.ascii	"cpuss_interrupts_ipc_5_IRQn\000"
 14908      735F696E 
 14908      74657272 
 14908      75707473 
 14908      5F697063 
 14909              	.LASF903:
 14910 2a56 5F5F6275 		.ascii	"__builtin_puts\000"
 14910      696C7469 
 14910      6E5F7075 
 14910      747300
 14911              	.LASF45:
 14912 2a65 696F7373 		.ascii	"ioss_interrupts_gpio_6_IRQn\000"
 14912      5F696E74 
 14912      65727275 
 14912      7074735F 
 14912      6770696F 
 14913              	.LASF21:
 14914 2a81 4E766963 		.ascii	"NvicMux15_IRQn\000"
 14914      4D757831 
 14914      355F4952 
 14914      516E00
 14915              	.LASF492:
 14916 2a90 5F66706F 		.ascii	"_fpos_t\000"
ARM GAS  C:\Users\ASUS\AppData\Local\Temp\ccYYtRfk.s 			page 341


 14916      735F7400 
 14917              	.LASF179:
 14918 2a98 61756469 		.ascii	"audioss_interrupt_pdm_IRQn\000"
 14918      6F73735F 
 14918      696E7465 
 14918      72727570 
 14918      745F7064 
 14919              	.LASF349:
 14920 2ab3 70657269 		.ascii	"periDivCmdPaTypeSelPos\000"
 14920      44697643 
 14920      6D645061 
 14920      54797065 
 14920      53656C50 
 14921              	.LASF495:
 14922 2aca 5F5F7763 		.ascii	"__wchb\000"
 14922      686200
 14923              	.LASF302:
 14924 2ad1 666C6173 		.ascii	"flashcVersion\000"
 14924      68635665 
 14924      7273696F 
 14924      6E00
 14925              	.LASF616:
 14926 2adf 43595F42 		.ascii	"CY_BLE_EVT_SET_RPA_ENABLE_COMPLETE\000"
 14926      4C455F45 
 14926      56545F53 
 14926      45545F52 
 14926      50415F45 
 14927              	.LASF368:
 14928 2b02 63707573 		.ascii	"cpussCm4NmiCtlOffset\000"
 14928      73436D34 
 14928      4E6D6943 
 14928      746C4F66 
 14928      66736574 
 14929              	.LASF877:
 14930 2b17 43795F53 		.ascii	"Cy_SCB_I2C_MasterSendReStart\000"
 14930      43425F49 
 14930      32435F4D 
 14930      61737465 
 14930      7253656E 
 14931              	.LASF391:
 14932 2b34 43595F52 		.ascii	"CY_RTC_INVALID_STATE\000"
 14932      54435F49 
 14932      4E56414C 
 14932      49445F53 
 14932      54415445 
 14933              	.LASF367:
 14934 2b49 63707573 		.ascii	"cpussCm0NmiCtlOffset\000"
 14934      73436D30 
 14934      4E6D6943 
 14934      746C4F66 
 14934      66736574 
 14935              	.LASF660:
 14936 2b5e 43595F42 		.ascii	"CY_BLE_EVT_GAP_KEYINFO_EXCHNGE_CMPLT\000"
 14936      4C455F45 
 14936      56545F47 
 14936      41505F4B 
 14936      4559494E 
ARM GAS  C:\Users\ASUS\AppData\Local\Temp\ccYYtRfk.s 			page 342


 14937              	.LASF218:
 14938 2b83 4E564943 		.ascii	"NVIC_Type\000"
 14938      5F547970 
 14938      6500
 14939              	.LASF333:
 14940 2b8d 666C6173 		.ascii	"flashCtlMainWs2Freq\000"
 14940      6843746C 
 14940      4D61696E 
 14940      57733246 
 14940      72657100 
 14941              	.LASF175:
 14942 2ba1 7564625F 		.ascii	"udb_interrupts_14_IRQn\000"
 14942      696E7465 
 14942      72727570 
 14942      74735F31 
 14942      345F4952 
 14943              	.LASF153:
 14944 2bb8 74637077 		.ascii	"tcpwm_1_interrupts_16_IRQn\000"
 14944      6D5F315F 
 14944      696E7465 
 14944      72727570 
 14944      74735F31 
 14945              	.LASF144:
 14946 2bd3 74637077 		.ascii	"tcpwm_1_interrupts_7_IRQn\000"
 14946      6D5F315F 
 14946      696E7465 
 14946      72727570 
 14946      74735F37 
 14947              	.LASF882:
 14948 2bed 43795F52 		.ascii	"Cy_RTC_SetAlarmDateAndTime\000"
 14948      54435F53 
 14948      6574416C 
 14948      61726D44 
 14948      61746541 
 14949              	.LASF658:
 14950 2c08 43595F42 		.ascii	"CY_BLE_EVT_GAP_CONNECTION_UPDATE_COMPLETE\000"
 14950      4C455F45 
 14950      56545F47 
 14950      41505F43 
 14950      4F4E4E45 
 14951              	.LASF453:
 14952 2c32 75736554 		.ascii	"useTxFifo\000"
 14952      78466966 
 14952      6F00
 14953              	.LASF899:
 14954 2c3c 626C6549 		.ascii	"bleInterruptNotify\000"
 14954      6E746572 
 14954      72757074 
 14954      4E6F7469 
 14954      667900
 14955              	.LASF376:
 14956 2c4f 63686172 		.ascii	"char_t\000"
 14956      5F7400
 14957              	.LASF757:
 14958 2c56 73697A65 		.ascii	"size\000"
 14958      00
 14959              	.LASF651:
ARM GAS  C:\Users\ASUS\AppData\Local\Temp\ccYYtRfk.s 			page 343


 14960 2c5b 43595F42 		.ascii	"CY_BLE_EVT_GAP_PASSKEY_DISPLAY_REQUEST\000"
 14960      4C455F45 
 14960      56545F47 
 14960      41505F50 
 14960      4153534B 
 14961              	.LASF201:
 14962 2c82 6C6F6E67 		.ascii	"long long unsigned int\000"
 14962      206C6F6E 
 14962      6720756E 
 14962      7369676E 
 14962      65642069 
 14963              	.LASF421:
 14964 2c99 6461794F 		.ascii	"dayOfWeekEn\000"
 14964      66576565 
 14964      6B456E00 
 14965              	.LASF620:
 14966 2ca5 43595F42 		.ascii	"CY_BLE_EVT_ADD_DEVICE_TO_WHITE_LIST_COMPLETE\000"
 14966      4C455F45 
 14966      56545F41 
 14966      44445F44 
 14966      45564943 
 14967              	.LASF115:
 14968 2cd2 63707573 		.ascii	"cpuss_interrupts_dw1_10_IRQn\000"
 14968      735F696E 
 14968      74657272 
 14968      75707473 
 14968      5F647731 
 14969              	.LASF608:
 14970 2cef 43595F42 		.ascii	"CY_BLE_EVT_LE_PING_AUTH_TIMEOUT\000"
 14970      4C455F45 
 14970      56545F4C 
 14970      455F5049 
 14970      4E475F41 
 14971              	.LASF205:
 14972 2d0f 75696E74 		.ascii	"uint16_t\000"
 14972      31365F74 
 14972      00
 14973              	.LASF583:
 14974 2d18 5F776374 		.ascii	"_wctomb_state\000"
 14974      6F6D625F 
 14974      73746174 
 14974      6500
 14975              	.LASF638:
 14976 2d26 43595F42 		.ascii	"CY_BLE_EVT_AES_CCM_ENCRYPT_COMPLETE\000"
 14976      4C455F45 
 14976      56545F41 
 14976      45535F43 
 14976      434D5F45 
 14977              	.LASF518:
 14978 2d4a 5F64736F 		.ascii	"_dso_handle\000"
 14978      5F68616E 
 14978      646C6500 
 14979              	.LASF409:
 14980 2d56 616D506D 		.ascii	"amPm\000"
 14980      00
 14981              	.LASF239:
 14982 2d5b 54585F46 		.ascii	"TX_FIFO_CTRL\000"
ARM GAS  C:\Users\ASUS\AppData\Local\Temp\ccYYtRfk.s 			page 344


 14982      49464F5F 
 14982      4354524C 
 14982      00
 14983              	.LASF669:
 14984 2d68 43595F42 		.ascii	"CY_BLE_EVT_GAP_RESOLVE_DEVICE_COMPLETE\000"
 14984      4C455F45 
 14984      56545F47 
 14984      41505F52 
 14984      45534F4C 
 14985              	.LASF101:
 14986 2d8f 63707573 		.ascii	"cpuss_interrupts_dw0_12_IRQn\000"
 14986      735F696E 
 14986      74657272 
 14986      75707473 
 14986      5F647730 
 14987              	.LASF679:
 14988 2dac 43595F42 		.ascii	"CY_BLE_EVT_GATTC_XCHNG_MTU_RSP\000"
 14988      4C455F45 
 14988      56545F47 
 14988      41545443 
 14988      5F584348 
 14989              	.LASF254:
 14990 2dcb 52455345 		.ascii	"RESERVED10\000"
 14990      52564544 
 14990      313000
 14991              	.LASF0:
 14992 2dd6 52657365 		.ascii	"Reset_IRQn\000"
 14992      745F4952 
 14992      516E00
 14993              	.LASF258:
 14994 2de1 52455345 		.ascii	"RESERVED12\000"
 14994      52564544 
 14994      313200
 14995              	.LASF261:
 14996 2dec 52455345 		.ascii	"RESERVED13\000"
 14996      52564544 
 14996      313300
 14997              	.LASF263:
 14998 2df7 52455345 		.ascii	"RESERVED14\000"
 14998      52564544 
 14998      313400
 14999              	.LASF266:
 15000 2e02 52455345 		.ascii	"RESERVED15\000"
 15000      52564544 
 15000      313500
 15001              	.LASF613:
 15002 2e0d 43595F42 		.ascii	"CY_BLE_EVT_GET_PEER_RPA_COMPLETE\000"
 15002      4C455F45 
 15002      56545F47 
 15002      45545F50 
 15002      4545525F 
 15003              	.LASF276:
 15004 2e2e 52455345 		.ascii	"RESERVED17\000"
 15004      52564544 
 15004      313700
 15005              	.LASF286:
 15006 2e39 43795343 		.ascii	"CySCB_V1_Type\000"
ARM GAS  C:\Users\ASUS\AppData\Local\Temp\ccYYtRfk.s 			page 345


 15006      425F5631 
 15006      5F547970 
 15006      6500
 15007              	.LASF561:
 15008 2e47 5F6E6577 		.ascii	"_new\000"
 15008      00
 15009              	.LASF650:
 15010 2e4c 43595F42 		.ascii	"CY_BLE_EVT_GAP_PASSKEY_ENTRY_REQUEST\000"
 15010      4C455F45 
 15010      56545F47 
 15010      41505F50 
 15010      4153534B 
 15011              	.LASF31:
 15012 2e71 4E766963 		.ascii	"NvicMux25_IRQn\000"
 15012      4D757832 
 15012      355F4952 
 15012      516E00
 15013              	.LASF538:
 15014 2e80 5F626C6B 		.ascii	"_blksize\000"
 15014      73697A65 
 15014      00
 15015              	.LASF278:
 15016 2e89 494E5452 		.ascii	"INTR_TX_SET\000"
 15016      5F54585F 
 15016      53455400 
 15017              	.LASF81:
 15018 2e95 7363625F 		.ascii	"scb_1_interrupt_IRQn\000"
 15018      315F696E 
 15018      74657272 
 15018      7570745F 
 15018      4952516E 
 15019              	.LASF741:
 15020 2eaa 63795F65 		.ascii	"cy_en_ble_conn_state_t\000"
 15020      6E5F626C 
 15020      655F636F 
 15020      6E6E5F73 
 15020      74617465 
 15021              	.LASF94:
 15022 2ec1 63707573 		.ascii	"cpuss_interrupts_dw0_5_IRQn\000"
 15022      735F696E 
 15022      74657272 
 15022      75707473 
 15022      5F647730 
 15023              	.LASF485:
 15024 2edd 74784275 		.ascii	"txBuf\000"
 15024      6600
 15025              	.LASF346:
 15026 2ee3 70657269 		.ascii	"periDivCmdDivSelMsk\000"
 15026      44697643 
 15026      6D644469 
 15026      7653656C 
 15026      4D736B00 
 15027              	.LASF438:
 15028 2ef7 43595F53 		.ascii	"CY_SCB_I2C_MASTER_MANUAL_NAK\000"
 15028      43425F49 
 15028      32435F4D 
 15028      41535445 
ARM GAS  C:\Users\ASUS\AppData\Local\Temp\ccYYtRfk.s 			page 346


 15028      525F4D41 
 15029              	.LASF668:
 15030 2f14 43595F42 		.ascii	"CY_BLE_EVT_GAP_KEYS_GEN_COMPLETE\000"
 15030      4C455F45 
 15030      56545F47 
 15030      41505F4B 
 15030      4559535F 
 15031              	.LASF525:
 15032 2f35 5F626173 		.ascii	"_base\000"
 15032      6500
 15033              	.LASF222:
 15034 2f3b 434D445F 		.ascii	"CMD_RESP_STATUS\000"
 15034      52455350 
 15034      5F535441 
 15034      54555300 
 15035              	.LASF731:
 15036 2f4b 43595F42 		.ascii	"CY_BLE_ADV_STATE_STOP_INITIATED\000"
 15036      4C455F41 
 15036      44565F53 
 15036      54415445 
 15036      5F53544F 
 15037              	.LASF169:
 15038 2f6b 7564625F 		.ascii	"udb_interrupts_8_IRQn\000"
 15038      696E7465 
 15038      72727570 
 15038      74735F38 
 15038      5F495251 
 15039              	.LASF743:
 15040 2f81 63795F65 		.ascii	"cy_en_rtc_alarm\000"
 15040      6E5F7274 
 15040      635F616C 
 15040      61726D00 
 15041              	.LASF597:
 15042 2f91 43595F42 		.ascii	"CY_BLE_EVT_STACK_ON\000"
 15042      4C455F45 
 15042      56545F53 
 15042      5441434B 
 15042      5F4F4E00 
 15043              	.LASF575:
 15044 2fa5 5F737472 		.ascii	"_strtok_last\000"
 15044      746F6B5F 
 15044      6C617374 
 15044      00
 15045              	.LASF710:
 15046 2fb2 43595F42 		.ascii	"CY_BLE_EVT_L2CAP_CBFC_DATA_WRITE_IND\000"
 15046      4C455F45 
 15046      56545F4C 
 15046      32434150 
 15046      5F434246 
 15047              	.LASF77:
 15048 2fd7 63707573 		.ascii	"cpuss_interrupts_ipc_13_IRQn\000"
 15048      735F696E 
 15048      74657272 
 15048      75707473 
 15048      5F697063 
 15049              	.LASF839:
 15050 2ff4 68617070 		.ascii	"happy_score\000"
ARM GAS  C:\Users\ASUS\AppData\Local\Temp\ccYYtRfk.s 			page 347


 15050      795F7363 
 15050      6F726500 
 15051              	.LASF588:
 15052 3000 5F6D6272 		.ascii	"_mbrtowc_state\000"
 15052      746F7763 
 15052      5F737461 
 15052      746500
 15053              	.LASF824:
 15054 300f 696E6163 		.ascii	"inactive_count\000"
 15054      74697665 
 15054      5F636F75 
 15054      6E7400
 15055              	.LASF310:
 15056 301e 63707573 		.ascii	"cpussDwChNr\000"
 15056      73447743 
 15056      684E7200 
 15057              	.LASF353:
 15058 302a 70657269 		.ascii	"periDiv24_5CtlOffset\000"
 15058      44697632 
 15058      345F3543 
 15058      746C4F66 
 15058      66736574 
 15059              	.LASF210:
 15060 303f 49434552 		.ascii	"ICER\000"
 15060      00
 15061              	.LASF370:
 15062 3044 63707573 		.ascii	"cpussRam0Ctl0\000"
 15062      7352616D 
 15062      3043746C 
 15062      3000
 15063              	.LASF499:
 15064 3052 5F666C6F 		.ascii	"_flock_t\000"
 15064      636B5F74 
 15064      00
 15065              	.LASF125:
 15066 305b 63707573 		.ascii	"cpuss_interrupts_cm0_cti_0_IRQn\000"
 15066      735F696E 
 15066      74657272 
 15066      75707473 
 15066      5F636D30 
 15067              	.LASF109:
 15068 307b 63707573 		.ascii	"cpuss_interrupts_dw1_4_IRQn\000"
 15068      735F696E 
 15068      74657272 
 15068      75707473 
 15068      5F647731 
 15069              	.LASF566:
 15070 3097 5F5F4649 		.ascii	"__FILE\000"
 15070      4C4500
 15071              	.LASF121:
 15072 309e 63707573 		.ascii	"cpuss_interrupts_fault_0_IRQn\000"
 15072      735F696E 
 15072      74657272 
 15072      75707473 
 15072      5F666175 
 15073              	.LASF722:
 15074 30bc 636F6E6E 		.ascii	"connHandle\000"
ARM GAS  C:\Users\ASUS\AppData\Local\Temp\ccYYtRfk.s 			page 348


 15074      48616E64 
 15074      6C6500
 15075              	.LASF437:
 15076 30c7 43595F53 		.ascii	"CY_SCB_I2C_MASTER_MANUAL_ADDR_NAK\000"
 15076      43425F49 
 15076      32435F4D 
 15076      41535445 
 15076      525F4D41 
 15077              	.LASF498:
 15078 30e9 5F6D6273 		.ascii	"_mbstate_t\000"
 15078      74617465 
 15078      5F7400
 15079              	.LASF804:
 15080 30f4 74656D70 		.ascii	"temperature\000"
 15080      65726174 
 15080      75726500 
 15081              	.LASF666:
 15082 3100 43595F42 		.ascii	"CY_BLE_EVT_GAP_SMP_NEGOTIATED_AUTH_INFO\000"
 15082      4C455F45 
 15082      56545F47 
 15082      41505F53 
 15082      4D505F4E 
 15083              	.LASF132:
 15084 3128 74637077 		.ascii	"tcpwm_0_interrupts_3_IRQn\000"
 15084      6D5F305F 
 15084      696E7465 
 15084      72727570 
 15084      74735F33 
 15085              	.LASF827:
 15086 3142 52746349 		.ascii	"RtcInit\000"
 15086      6E697400 
 15087              	.LASF813:
 15088 314a 6163634D 		.ascii	"accMeasure\000"
 15088      65617375 
 15088      726500
 15089              	.LASF580:
 15090 3155 5F723438 		.ascii	"_r48\000"
 15090      00
 15091              	.LASF123:
 15092 315a 63707573 		.ascii	"cpuss_interrupt_crypto_IRQn\000"
 15092      735F696E 
 15092      74657272 
 15092      7570745F 
 15092      63727970 
 15093              	.LASF875:
 15094 3176 43795F53 		.ascii	"Cy_SCB_I2C_MasterSendStart\000"
 15094      43425F49 
 15094      32435F4D 
 15094      61737465 
 15094      7253656E 
 15095              	.LASF831:
 15096 3191 696E6974 		.ascii	"init_RTC\000"
 15096      5F525443 
 15096      00
 15097              	.LASF493:
 15098 319a 77696E74 		.ascii	"wint_t\000"
 15098      5F7400
ARM GAS  C:\Users\ASUS\AppData\Local\Temp\ccYYtRfk.s 			page 349


 15099              	.LASF220:
 15100 31a1 53544154 		.ascii	"STATUS\000"
 15100      555300
 15101              	.LASF841:
 15102 31a8 64617461 		.ascii	"data_count\000"
 15102      5F636F75 
 15102      6E7400
 15103              	.LASF701:
 15104 31b3 43595F42 		.ascii	"CY_BLE_EVT_L2CAP_CONN_PARAM_UPDATE_RSP\000"
 15104      4C455F45 
 15104      56545F4C 
 15104      32434150 
 15104      5F434F4E 
 15105              	.LASF260:
 15106 31da 494E5452 		.ascii	"INTR_I2C_EC_MASKED\000"
 15106      5F493243 
 15106      5F45435F 
 15106      4D41534B 
 15106      454400
 15107              	.LASF756:
 15108 31ed 6C617374 		.ascii	"last\000"
 15108      00
 15109              	.LASF301:
 15110 31f2 64775665 		.ascii	"dwVersion\000"
 15110      7273696F 
 15110      6E00
 15111              	.LASF502:
 15112 31fc 5F6E6578 		.ascii	"_next\000"
 15112      7400
 15113              	.LASF444:
 15114 3202 43595F53 		.ascii	"CY_SCB_I2C_READ_XFER\000"
 15114      43425F49 
 15114      32435F52 
 15114      4541445F 
 15114      58464552 
 15115              	.LASF540:
 15116 3217 5F646174 		.ascii	"_data\000"
 15116      6100
 15117              	.LASF378:
 15118 321d 666C6F61 		.ascii	"float\000"
 15118      7400
 15119              	.LASF685:
 15120 3223 43595F42 		.ascii	"CY_BLE_EVT_GATTC_READ_BLOB_RSP\000"
 15120      4C455F45 
 15120      56545F47 
 15120      41545443 
 15120      5F524541 
 15121              	.LASF178:
 15122 3242 61756469 		.ascii	"audioss_interrupt_i2s_IRQn\000"
 15122      6F73735F 
 15122      696E7465 
 15122      72727570 
 15122      745F6932 
 15123              	.LASF295:
 15124 325d 6770696F 		.ascii	"gpioBase\000"
 15124      42617365 
 15124      00
ARM GAS  C:\Users\ASUS\AppData\Local\Temp\ccYYtRfk.s 			page 350


 15125              	.LASF129:
 15126 3266 74637077 		.ascii	"tcpwm_0_interrupts_0_IRQn\000"
 15126      6D5F305F 
 15126      696E7465 
 15126      72727570 
 15126      74735F30 
 15127              	.LASF162:
 15128 3280 7564625F 		.ascii	"udb_interrupts_1_IRQn\000"
 15128      696E7465 
 15128      72727570 
 15128      74735F31 
 15128      5F495251 
 15129              	.LASF146:
 15130 3296 74637077 		.ascii	"tcpwm_1_interrupts_9_IRQn\000"
 15130      6D5F315F 
 15130      696E7465 
 15130      72727570 
 15130      74735F39 
 15131              	.LASF274:
 15132 32b0 494E5452 		.ascii	"INTR_S_MASK\000"
 15132      5F535F4D 
 15132      41534B00 
 15133              	.LASF383:
 15134 32bc 696E7472 		.ascii	"intrPriority\000"
 15134      5072696F 
 15134      72697479 
 15134      00
 15135              	.LASF323:
 15136 32c9 73797350 		.ascii	"sysPmSimoPresent\000"
 15136      6D53696D 
 15136      6F507265 
 15136      73656E74 
 15136      00
 15137              	.LASF698:
 15138 32da 43595F42 		.ascii	"CY_BLE_EVT_GATTS_READ_CHAR_VAL_ACCESS_REQ\000"
 15138      4C455F45 
 15138      56545F47 
 15138      41545453 
 15138      5F524541 
 15139              	.LASF413:
 15140 3304 6D6F6E74 		.ascii	"month\000"
 15140      6800
 15141              	.LASF268:
 15142 330a 494E5452 		.ascii	"INTR_M_SET\000"
 15142      5F4D5F53 
 15142      455400
 15143              	.LASF265:
 15144 3315 494E5452 		.ascii	"INTR_SPI_EC_MASKED\000"
 15144      5F535049 
 15144      5F45435F 
 15144      4D41534B 
 15144      454400
 15145              	.LASF30:
 15146 3328 4E766963 		.ascii	"NvicMux24_IRQn\000"
 15146      4D757832 
 15146      345F4952 
 15146      516E00
ARM GAS  C:\Users\ASUS\AppData\Local\Temp\ccYYtRfk.s 			page 351


 15147              	.LASF285:
 15148 3337 494E5452 		.ascii	"INTR_RX_MASKED\000"
 15148      5F52585F 
 15148      4D41534B 
 15148      454400
 15149              	.LASF843:
 15150 3346 63795F64 		.ascii	"cy_device\000"
 15150      65766963 
 15150      6500
 15151              	.LASF789:
 15152 3350 62726F61 		.ascii	"broadcastBLE\000"
 15152      64636173 
 15152      74424C45 
 15152      00
 15153              	.LASF714:
 15154 335d 63795F73 		.ascii	"cy_stc_ble_conn_handle_t\000"
 15154      74635F62 
 15154      6C655F63 
 15154      6F6E6E5F 
 15154      68616E64 
 15155              	.LASF767:
 15156 3376 4932435F 		.ascii	"I2C_MasterSendReStart\000"
 15156      4D617374 
 15156      65725365 
 15156      6E645265 
 15156      53746172 
 15157              	.LASF654:
 15158 338c 43595F42 		.ascii	"CY_BLE_EVT_GAPP_ADVERTISEMENT_START_STOP\000"
 15158      4C455F45 
 15158      56545F47 
 15158      4150505F 
 15158      41445645 
 15159              	.LASF477:
 15160 33b5 72785374 		.ascii	"rxStatus\000"
 15160      61747573 
 15160      00
 15161              	.LASF137:
 15162 33be 74637077 		.ascii	"tcpwm_1_interrupts_0_IRQn\000"
 15162      6D5F315F 
 15162      696E7465 
 15162      72727570 
 15162      74735F30 
 15163              	.LASF458:
 15164 33d8 6D617374 		.ascii	"masterBuffer\000"
 15164      65724275 
 15164      66666572 
 15164      00
 15165              	.LASF472:
 15166 33e5 63624164 		.ascii	"cbAddr\000"
 15166      647200
 15167              	.LASF76:
 15168 33ec 63707573 		.ascii	"cpuss_interrupts_ipc_12_IRQn\000"
 15168      735F696E 
 15168      74657272 
 15168      75707473 
 15168      5F697063 
 15169              	.LASF91:
ARM GAS  C:\Users\ASUS\AppData\Local\Temp\ccYYtRfk.s 			page 352


 15170 3409 63707573 		.ascii	"cpuss_interrupts_dw0_2_IRQn\000"
 15170      735F696E 
 15170      74657272 
 15170      75707473 
 15170      5F647730 
 15171              	.LASF735:
 15172 3425 43595F42 		.ascii	"CY_BLE_CONN_STATE_CONNECTED\000"
 15172      4C455F43 
 15172      4F4E4E5F 
 15172      53544154 
 15172      455F434F 
 15173              	.LASF250:
 15174 3441 52585F46 		.ascii	"RX_FIFO_RD\000"
 15174      49464F5F 
 15174      524400
 15175              	.LASF812:
 15176 344c 61636349 		.ascii	"accI2CWrite\000"
 15176      32435772 
 15176      69746500 
 15177              	.LASF807:
 15178 3458 6461726B 		.ascii	"dark_count\000"
 15178      5F636F75 
 15178      6E7400
 15179              	.LASF473:
 15180 3463 63795F73 		.ascii	"cy_stc_scb_i2c_context_t\000"
 15180      74635F73 
 15180      63625F69 
 15180      32635F63 
 15180      6F6E7465 
 15181              	.LASF154:
 15182 347c 74637077 		.ascii	"tcpwm_1_interrupts_17_IRQn\000"
 15182      6D5F315F 
 15182      696E7465 
 15182      72727570 
 15182      74735F31 
 15183              	.LASF605:
 15184 3497 43595F42 		.ascii	"CY_BLE_EVT_READ_AUTH_PAYLOAD_TO_COMPLETE\000"
 15184      4C455F45 
 15184      56545F52 
 15184      4541445F 
 15184      41555448 
 15185              	.LASF380:
 15186 34c0 75696E74 		.ascii	"uint8\000"
 15186      3800
 15187              	.LASF307:
 15188 34c6 70726F74 		.ascii	"protVersion\000"
 15188      56657273 
 15188      696F6E00 
 15189              	.LASF766:
 15190 34d2 62797465 		.ascii	"byte\000"
 15190      00
 15191              	.LASF11:
 15192 34d7 4E766963 		.ascii	"NvicMux5_IRQn\000"
 15192      4D757835 
 15192      5F495251 
 15192      6E00
 15193              	.LASF85:
ARM GAS  C:\Users\ASUS\AppData\Local\Temp\ccYYtRfk.s 			page 353


 15194 34e5 7363625F 		.ascii	"scb_5_interrupt_IRQn\000"
 15194      355F696E 
 15194      74657272 
 15194      7570745F 
 15194      4952516E 
 15195              	.LASF861:
 15196 34fa 6C696768 		.ascii	"light_queue\000"
 15196      745F7175 
 15196      65756500 
 15197              	.LASF488:
 15198 3506 696E6974 		.ascii	"initKey\000"
 15198      4B657900 
 15199              	.LASF581:
 15200 350e 5F6D626C 		.ascii	"_mblen_state\000"
 15200      656E5F73 
 15200      74617465 
 15200      00
 15201              	.LASF187:
 15202 351b 73686F72 		.ascii	"short int\000"
 15202      7420696E 
 15202      7400
 15203              	.LASF641:
 15204 3525 43595F42 		.ascii	"CY_BLE_EVT_STACK_SHUTDOWN_COMPLETE\000"
 15204      4C455F45 
 15204      56545F53 
 15204      5441434B 
 15204      5F534855 
 15205              	.LASF721:
 15206 3548 68616E64 		.ascii	"handleValPair\000"
 15206      6C655661 
 15206      6C506169 
 15206      7200
 15207              	.LASF632:
 15208 3556 43595F42 		.ascii	"CY_BLE_EVT_GET_TX_PWR_COMPLETE\000"
 15208      4C455F45 
 15208      56545F47 
 15208      45545F54 
 15208      585F5057 
 15209              	.LASF791:
 15210 3575 73657276 		.ascii	"serviceData\000"
 15210      69636544 
 15210      61746100 
 15211              	.LASF108:
 15212 3581 63707573 		.ascii	"cpuss_interrupts_dw1_3_IRQn\000"
 15212      735F696E 
 15212      74657272 
 15212      75707473 
 15212      5F647731 
 15213              	.LASF56:
 15214 359d 6C70636F 		.ascii	"lpcomp_interrupt_IRQn\000"
 15214      6D705F69 
 15214      6E746572 
 15214      72757074 
 15214      5F495251 
 15215              	.LASF62:
 15216 35b3 70617373 		.ascii	"pass_interrupt_ctbs_IRQn\000"
 15216      5F696E74 
ARM GAS  C:\Users\ASUS\AppData\Local\Temp\ccYYtRfk.s 			page 354


 15216      65727275 
 15216      70745F63 
 15216      7462735F 
 15217              	.LASF787:
 15218 35cc 7072696E 		.ascii	"printFSM\000"
 15218      7446534D 
 15218      00
 15219              	.LASF257:
 15220 35d5 494E5452 		.ascii	"INTR_I2C_EC\000"
 15220      5F493243 
 15220      5F454300 
 15221              	.LASF204:
 15222 35e1 696E7431 		.ascii	"int16_t\000"
 15222      365F7400 
 15223              	.LASF57:
 15224 35e9 7363625F 		.ascii	"scb_8_interrupt_IRQn\000"
 15224      385F696E 
 15224      74657272 
 15224      7570745F 
 15224      4952516E 
 15225              	.LASF18:
 15226 35fe 4E766963 		.ascii	"NvicMux12_IRQn\000"
 15226      4D757831 
 15226      325F4952 
 15226      516E00
 15227              	.LASF72:
 15228 360d 63707573 		.ascii	"cpuss_interrupts_ipc_8_IRQn\000"
 15228      735F696E 
 15228      74657272 
 15228      75707473 
 15228      5F697063 
 15229              	.LASF332:
 15230 3629 666C6173 		.ascii	"flashCtlMainWs1Freq\000"
 15230      6843746C 
 15230      4D61696E 
 15230      57733146 
 15230      72657100 
 15231              	.LASF649:
 15232 363d 43595F42 		.ascii	"CY_BLE_EVT_GAP_AUTH_REQ\000"
 15232      4C455F45 
 15232      56545F47 
 15232      41505F41 
 15232      5554485F 
 15233              	.LASF48:
 15234 3655 696F7373 		.ascii	"ioss_interrupts_gpio_9_IRQn\000"
 15234      5F696E74 
 15234      65727275 
 15234      7074735F 
 15234      6770696F 
 15235              	.LASF24:
 15236 3671 4E766963 		.ascii	"NvicMux18_IRQn\000"
 15236      4D757831 
 15236      385F4952 
 15236      516E00
 15237              	.LASF245:
 15238 3680 52585F46 		.ascii	"RX_FIFO_CTRL\000"
 15238      49464F5F 
ARM GAS  C:\Users\ASUS\AppData\Local\Temp\ccYYtRfk.s 			page 355


 15238      4354524C 
 15238      00
 15239              	.LASF128:
 15240 368d 63707573 		.ascii	"cpuss_interrupts_cm4_cti_1_IRQn\000"
 15240      735F696E 
 15240      74657272 
 15240      75707473 
 15240      5F636D34 
 15241              	.LASF512:
 15242 36ad 5F5F746D 		.ascii	"__tm_year\000"
 15242      5F796561 
 15242      7200
 15243              	.LASF892:
 15244 36b7 71756575 		.ascii	"queue_create\000"
 15244      655F6372 
 15244      65617465 
 15244      00
 15245              	.LASF853:
 15246 36c4 4932435F 		.ascii	"I2C_context\000"
 15246      636F6E74 
 15246      65787400 
 15247              	.LASF273:
 15248 36d0 494E5452 		.ascii	"INTR_S_SET\000"
 15248      5F535F53 
 15248      455400
 15249              	.LASF655:
 15250 36db 43595F42 		.ascii	"CY_BLE_EVT_GAP_DEVICE_CONNECTED\000"
 15250      4C455F45 
 15250      56545F47 
 15250      41505F44 
 15250      45564943 
 15251              	.LASF436:
 15252 36fb 43595F53 		.ascii	"CY_SCB_I2C_MASTER_MANUAL_TIMEOUT\000"
 15252      43425F49 
 15252      32435F4D 
 15252      41535445 
 15252      525F4D41 
 15253              	.LASF643:
 15254 371c 43595F42 		.ascii	"CY_BLE_EVT_RADIO_VOLTAGE_LEVEL\000"
 15254      4C455F45 
 15254      56545F52 
 15254      4144494F 
 15254      5F564F4C 
 15255              	.LASF460:
 15256 373b 6D617374 		.ascii	"masterBufferIdx\000"
 15256      65724275 
 15256      66666572 
 15256      49647800 
 15257              	.LASF556:
 15258 374b 5F726573 		.ascii	"_result_k\000"
 15258      756C745F 
 15258      6B00
 15259              	.LASF849:
 15260 3755 63795F62 		.ascii	"cy_ble_connState\000"
 15260      6C655F63 
 15260      6F6E6E53 
 15260      74617465 
ARM GAS  C:\Users\ASUS\AppData\Local\Temp\ccYYtRfk.s 			page 356


 15260      00
 15261              	.LASF49:
 15262 3766 696F7373 		.ascii	"ioss_interrupts_gpio_10_IRQn\000"
 15262      5F696E74 
 15262      65727275 
 15262      7074735F 
 15262      6770696F 
 15263              	.LASF432:
 15264 3783 63795F73 		.ascii	"cy_stc_rtc_dst_t\000"
 15264      74635F72 
 15264      74635F64 
 15264      73745F74 
 15264      00
 15265              	.LASF809:
 15266 3794 636F6D62 		.ascii	"combined_light\000"
 15266      696E6564 
 15266      5F6C6967 
 15266      687400
 15267              	.LASF329:
 15268 37a3 666C6173 		.ascii	"flashProgramDelay\000"
 15268      6850726F 
 15268      6772616D 
 15268      44656C61 
 15268      7900
 15269              	.LASF61:
 15270 37b5 73727373 		.ascii	"srss_interrupt_IRQn\000"
 15270      5F696E74 
 15270      65727275 
 15270      70745F49 
 15270      52516E00 
 15271              	.LASF404:
 15272 37c9 63795F65 		.ascii	"cy_en_rtc_am_pm_t\000"
 15272      6E5F7274 
 15272      635F616D 
 15272      5F706D5F 
 15272      7400
 15273              	.LASF408:
 15274 37db 686F7572 		.ascii	"hour\000"
 15274      00
 15275              	.LASF401:
 15276 37e0 63795F65 		.ascii	"cy_en_rtc_dst_format_t\000"
 15276      6E5F7274 
 15276      635F6473 
 15276      745F666F 
 15276      726D6174 
 15277              	.LASF118:
 15278 37f7 63707573 		.ascii	"cpuss_interrupts_dw1_13_IRQn\000"
 15278      735F696E 
 15278      74657272 
 15278      75707473 
 15278      5F647731 
 15279              	.LASF428:
 15280 3814 7765656B 		.ascii	"weekOfMonth\000"
 15280      4F664D6F 
 15280      6E746800 
 15281              	.LASF893:
 15282 3820 43795F53 		.ascii	"Cy_SysPm_CpuEnterDeepSleep\000"
ARM GAS  C:\Users\ASUS\AppData\Local\Temp\ccYYtRfk.s 			page 357


 15282      7973506D 
 15282      5F437075 
 15282      456E7465 
 15282      72446565 
 15283              	.LASF530:
 15284 383b 5F6C6266 		.ascii	"_lbfsize\000"
 15284      73697A65 
 15284      00
 15285              	.LASF549:
 15286 3844 5F696E63 		.ascii	"_inc\000"
 15286      00
 15287              	.LASF522:
 15288 3849 5F696E64 		.ascii	"_ind\000"
 15288      00
 15289              	.LASF874:
 15290 384e 43795F42 		.ascii	"Cy_BLE_Stop\000"
 15290      4C455F53 
 15290      746F7000 
 15291              	.LASF303:
 15292 385a 6770696F 		.ascii	"gpioVersion\000"
 15292      56657273 
 15292      696F6E00 
 15293              	.LASF749:
 15294 3866 53746174 		.ascii	"State\000"
 15294      6500
 15295              	.LASF10:
 15296 386c 4E766963 		.ascii	"NvicMux4_IRQn\000"
 15296      4D757834 
 15296      5F495251 
 15296      6E00
 15297              	.LASF104:
 15298 387a 63707573 		.ascii	"cpuss_interrupts_dw0_15_IRQn\000"
 15298      735F696E 
 15298      74657272 
 15298      75707473 
 15298      5F647730 
 15299              	.LASF65:
 15300 3897 63707573 		.ascii	"cpuss_interrupts_ipc_1_IRQn\000"
 15300      735F696E 
 15300      74657272 
 15300      75707473 
 15300      5F697063 
 15301              	.LASF133:
 15302 38b3 74637077 		.ascii	"tcpwm_0_interrupts_4_IRQn\000"
 15302      6D5F305F 
 15302      696E7465 
 15302      72727570 
 15302      74735F34 
 15303              	.LASF847:
 15304 38cd 63795F62 		.ascii	"cy_ble_advState\000"
 15304      6C655F61 
 15304      64765374 
 15304      61746500 
 15305              	.LASF155:
 15306 38dd 74637077 		.ascii	"tcpwm_1_interrupts_18_IRQn\000"
 15306      6D5F315F 
 15306      696E7465 
ARM GAS  C:\Users\ASUS\AppData\Local\Temp\ccYYtRfk.s 			page 358


 15306      72727570 
 15306      74735F31 
 15307              	.LASF593:
 15308 38f8 5F6E6578 		.ascii	"_nextf\000"
 15308      746600
 15309              	.LASF898:
 15310 38ff 5F5F656E 		.ascii	"__enable_irq\000"
 15310      61626C65 
 15310      5F697271 
 15310      00
 15311              	.LASF416:
 15312 390c 63795F73 		.ascii	"cy_stc_rtc_config\000"
 15312      74635F72 
 15312      74635F63 
 15312      6F6E6669 
 15312      6700
 15313              	.LASF856:
 15314 391e 5254435F 		.ascii	"RTC_config\000"
 15314      636F6E66 
 15314      696700
 15315              	.LASF190:
 15316 3929 63795F65 		.ascii	"cy_en_intr_t\000"
 15316      6E5F696E 
 15316      74725F74 
 15316      00
 15317              	.LASF644:
 15318 3936 43595F42 		.ascii	"CY_BLE_EVT_AES_CMAC_GEN_COMPLETE\000"
 15318      4C455F45 
 15318      56545F41 
 15318      45535F43 
 15318      4D41435F 
 15319              	.LASF830:
 15320 3957 52746341 		.ascii	"RtcAlarmConfig\000"
 15320      6C61726D 
 15320      436F6E66 
 15320      696700
 15321              	.LASF34:
 15322 3966 4E766963 		.ascii	"NvicMux28_IRQn\000"
 15322      4D757832 
 15322      385F4952 
 15322      516E00
 15323              	.LASF612:
 15324 3975 43595F42 		.ascii	"CY_BLE_EVT_DATA_LENGTH_CHANGE\000"
 15324      4C455F45 
 15324      56545F44 
 15324      4154415F 
 15324      4C454E47 
 15325              	.LASF97:
 15326 3993 63707573 		.ascii	"cpuss_interrupts_dw0_8_IRQn\000"
 15326      735F696E 
 15326      74657272 
 15326      75707473 
 15326      5F647730 
 15327              	.LASF277:
 15328 39af 494E5452 		.ascii	"INTR_TX\000"
 15328      5F545800 
 15329              	.LASF171:
ARM GAS  C:\Users\ASUS\AppData\Local\Temp\ccYYtRfk.s 			page 359


 15330 39b7 7564625F 		.ascii	"udb_interrupts_10_IRQn\000"
 15330      696E7465 
 15330      72727570 
 15330      74735F31 
 15330      305F4952 
 15331              	.LASF55:
 15332 39ce 696F7373 		.ascii	"ioss_interrupt_vdd_IRQn\000"
 15332      5F696E74 
 15332      65727275 
 15332      70745F76 
 15332      64645F49 
 15333              	.LASF500:
 15334 39e6 5F5F554C 		.ascii	"__ULong\000"
 15334      6F6E6700 
 15335              	.LASF751:
 15336 39ee 73746174 		.ascii	"states\000"
 15336      657300
 15337              	.LASF233:
 15338 39f5 4932435F 		.ascii	"I2C_STATUS\000"
 15338      53544154 
 15338      555300
 15339              	.LASF630:
 15340 3a00 43595F42 		.ascii	"CY_BLE_EVT_GET_DEVICE_ADDR_COMPLETE\000"
 15340      4C455F45 
 15340      56545F47 
 15340      45545F44 
 15340      45564943 
 15341              	.LASF464:
 15342 3a24 736C6176 		.ascii	"slaveTxBuffer\000"
 15342      65547842 
 15342      75666665 
 15342      7200
 15343              	.LASF200:
 15344 3a32 6C6F6E67 		.ascii	"long long int\000"
 15344      206C6F6E 
 15344      6720696E 
 15344      7400
 15345              	.LASF637:
 15346 3a40 43595F42 		.ascii	"CY_BLE_EVT_AES_ENCRYPT_COMPLETE\000"
 15346      4C455F45 
 15346      56545F41 
 15346      45535F45 
 15346      4E435259 
 15347              	.LASF23:
 15348 3a60 4E766963 		.ascii	"NvicMux17_IRQn\000"
 15348      4D757831 
 15348      375F4952 
 15348      516E00
 15349              	.LASF207:
 15350 3a6f 75696E74 		.ascii	"uint32_t\000"
 15350      33325F74 
 15350      00
 15351              	.LASF64:
 15352 3a78 63707573 		.ascii	"cpuss_interrupts_ipc_0_IRQn\000"
 15352      735F696E 
 15352      74657272 
 15352      75707473 
ARM GAS  C:\Users\ASUS\AppData\Local\Temp\ccYYtRfk.s 			page 360


 15352      5F697063 
 15353              	.LASF852:
 15354 3a94 55415254 		.ascii	"UART_context\000"
 15354      5F636F6E 
 15354      74657874 
 15354      00
 15355              	.LASF844:
 15356 3aa1 63795F52 		.ascii	"cy_RTC_daysInMonthTbl\000"
 15356      54435F64 
 15356      61797349 
 15356      6E4D6F6E 
 15356      74685462 
 15357              	.LASF674:
 15358 3ab7 43595F42 		.ascii	"CY_BLE_EVT_GAP_ADV_TX\000"
 15358      4C455F45 
 15358      56545F47 
 15358      41505F41 
 15358      44565F54 
 15359              	.LASF742:
 15360 3acd 63795F73 		.ascii	"cy_stc_ble_gatts_write_cmd_req_param_t\000"
 15360      74635F62 
 15360      6C655F67 
 15360      61747473 
 15360      5F777269 
 15361              	.LASF456:
 15362 3af4 6D617374 		.ascii	"masterPause\000"
 15362      65725061 
 15362      75736500 
 15363              	.LASF732:
 15364 3b00 63795F65 		.ascii	"cy_en_ble_adv_state_t\000"
 15364      6E5F626C 
 15364      655F6164 
 15364      765F7374 
 15364      6174655F 
 15365              	.LASF112:
 15366 3b16 63707573 		.ascii	"cpuss_interrupts_dw1_7_IRQn\000"
 15366      735F696E 
 15366      74657272 
 15366      75707473 
 15366      5F647731 
 15367              	.LASF782:
 15368 3b32 6D616368 		.ascii	"machine\000"
 15368      696E6500 
 15369              	.LASF182:
 15370 3b3a 7573625F 		.ascii	"usb_interrupt_hi_IRQn\000"
 15370      696E7465 
 15370      72727570 
 15370      745F6869 
 15370      5F495251 
 15371              	.LASF457:
 15372 3b50 6D617374 		.ascii	"masterRdDir\000"
 15372      65725264 
 15372      44697200 
 15373              	.LASF888:
 15374 3b5c 43795F53 		.ascii	"Cy_SysEnableCM4\000"
 15374      7973456E 
 15374      61626C65 
ARM GAS  C:\Users\ASUS\AppData\Local\Temp\ccYYtRfk.s 			page 361


 15374      434D3400 
 15375              	.LASF491:
 15376 3b6c 5F6F6666 		.ascii	"_off_t\000"
 15376      5F7400
 15377              	.LASF447:
 15378 3b73 43595F53 		.ascii	"CY_SCB_I2C_NAK\000"
 15378      43425F49 
 15378      32435F4E 
 15378      414B00
 15379              	.LASF338:
 15380 3b82 64774368 		.ascii	"dwChCtlPrioPos\000"
 15380      43746C50 
 15380      72696F50 
 15380      6F7300
 15381              	.LASF297:
 15382 3b91 69706342 		.ascii	"ipcBase\000"
 15382      61736500 
 15383              	.LASF350:
 15384 3b99 70657269 		.ascii	"periDiv8CtlOffset\000"
 15384      44697638 
 15384      43746C4F 
 15384      66667365 
 15384      7400
 15385              	.LASF251:
 15386 3bab 52585F46 		.ascii	"RX_FIFO_RD_SILENT\000"
 15386      49464F5F 
 15386      52445F53 
 15386      494C454E 
 15386      5400
 15387              	.LASF573:
 15388 3bbd 5F616464 		.ascii	"_add\000"
 15388      00
 15389              	.LASF870:
 15390 3bc2 43795F42 		.ascii	"Cy_BLE_GATTS_WriteAttributeValueLocal\000"
 15390      4C455F47 
 15390      41545453 
 15390      5F577269 
 15390      74654174 
 15391              	.LASF873:
 15392 3be8 43795F42 		.ascii	"Cy_BLE_RegisterAppHostCallback\000"
 15392      4C455F52 
 15392      65676973 
 15392      74657241 
 15392      7070486F 
 15393              	.LASF339:
 15394 3c07 64774368 		.ascii	"dwChCtlPreemptablePos\000"
 15394      43746C50 
 15394      7265656D 
 15394      70746162 
 15394      6C65506F 
 15395              	.LASF195:
 15396 3c1d 73686F72 		.ascii	"short unsigned int\000"
 15396      7420756E 
 15396      7369676E 
 15396      65642069 
 15396      6E7400
 15397              	.LASF509:
ARM GAS  C:\Users\ASUS\AppData\Local\Temp\ccYYtRfk.s 			page 362


 15398 3c30 5F5F746D 		.ascii	"__tm_hour\000"
 15398      5F686F75 
 15398      7200
 15399              	.LASF390:
 15400 3c3a 43595F52 		.ascii	"CY_RTC_TIMEOUT\000"
 15400      54435F54 
 15400      494D454F 
 15400      555400
 15401              	.LASF798:
 15402 3c49 72656164 		.ascii	"readBuf\000"
 15402      42756600 
 15403              	.LASF834:
 15404 3c51 6176675F 		.ascii	"avg_light_score\000"
 15404      6C696768 
 15404      745F7363 
 15404      6F726500 
 15405              	.LASF727:
 15406 3c61 63795F65 		.ascii	"cy_en_ble_state_t\000"
 15406      6E5F626C 
 15406      655F7374 
 15406      6174655F 
 15406      7400
 15407              	.LASF90:
 15408 3c73 63707573 		.ascii	"cpuss_interrupts_dw0_1_IRQn\000"
 15408      735F696E 
 15408      74657272 
 15408      75707473 
 15408      5F647730 
 15409              	.LASF440:
 15410 3c8f 43595F53 		.ascii	"CY_SCB_I2C_MASTER_MANUAL_BUS_ERR\000"
 15410      43425F49 
 15410      32435F4D 
 15410      41535445 
 15410      525F4D41 
 15411              	.LASF656:
 15412 3cb0 43595F42 		.ascii	"CY_BLE_EVT_GAP_DEVICE_DISCONNECTED\000"
 15412      4C455F45 
 15412      56545F47 
 15412      41505F44 
 15412      45564943 
 15413              	.LASF470:
 15414 3cd3 736C6176 		.ascii	"slaveRxBufferIdx\000"
 15414      65527842 
 15414      75666665 
 15414      72496478 
 15414      00
 15415              	.LASF256:
 15416 3ce4 52455345 		.ascii	"RESERVED11\000"
 15416      52564544 
 15416      313100
 15417              	.LASF883:
 15418 3cef 43795F53 		.ascii	"Cy_SysLib_AssertFailed\000"
 15418      79734C69 
 15418      625F4173 
 15418      73657274 
 15418      4661696C 
 15419              	.LASF309:
ARM GAS  C:\Users\ASUS\AppData\Local\Temp\ccYYtRfk.s 			page 363


 15420 3d06 63707573 		.ascii	"cpussIpcIrqNr\000"
 15420      73497063 
 15420      4972714E 
 15420      7200
 15421              	.LASF165:
 15422 3d14 7564625F 		.ascii	"udb_interrupts_4_IRQn\000"
 15422      696E7465 
 15422      72727570 
 15422      74735F34 
 15422      5F495251 
 15423              	.LASF40:
 15424 3d2a 696F7373 		.ascii	"ioss_interrupts_gpio_1_IRQn\000"
 15424      5F696E74 
 15424      65727275 
 15424      7074735F 
 15424      6770696F 
 15425              	.LASF373:
 15426 3d46 69706353 		.ascii	"ipcStructSize\000"
 15426      74727563 
 15426      7453697A 
 15426      6500
 15427              	.LASF716:
 15428 3d54 61637475 		.ascii	"actualLen\000"
 15428      616C4C65 
 15428      6E00
 15429              	.LASF271:
 15430 3d5e 52455345 		.ascii	"RESERVED16\000"
 15430      52564544 
 15430      313600
 15431              	.LASF290:
 15432 3d69 666C6173 		.ascii	"flashcBase\000"
 15432      68634261 
 15432      736500
 15433              	.LASF281:
 15434 3d74 52455345 		.ascii	"RESERVED18\000"
 15434      52564544 
 15434      313800
 15435              	.LASF602:
 15436 3d7f 43595F42 		.ascii	"CY_BLE_EVT_FLASH_CORRUPT\000"
 15436      4C455F45 
 15436      56545F46 
 15436      4C415348 
 15436      5F434F52 
 15437              	.LASF114:
 15438 3d98 63707573 		.ascii	"cpuss_interrupts_dw1_9_IRQn\000"
 15438      735F696E 
 15438      74657272 
 15438      75707473 
 15438      5F647731 
 15439              	.LASF886:
 15440 3db4 71756575 		.ascii	"queue_dequeue\000"
 15440      655F6465 
 15440      71756575 
 15440      6500
 15441              	.LASF33:
 15442 3dc2 4E766963 		.ascii	"NvicMux27_IRQn\000"
 15442      4D757832 
ARM GAS  C:\Users\ASUS\AppData\Local\Temp\ccYYtRfk.s 			page 364


 15442      375F4952 
 15442      516E00
 15443              	.LASF196:
 15444 3dd1 5F5F696E 		.ascii	"__int32_t\000"
 15444      7433325F 
 15444      7400
 15445              	.LASF127:
 15446 3ddb 63707573 		.ascii	"cpuss_interrupts_cm4_cti_0_IRQn\000"
 15446      735F696E 
 15446      74657272 
 15446      75707473 
 15446      5F636D34 
 15447              	.LASF105:
 15448 3dfb 63707573 		.ascii	"cpuss_interrupts_dw1_0_IRQn\000"
 15448      735F696E 
 15448      74657272 
 15448      75707473 
 15448      5F647731 
 15449              	.LASF885:
 15450 3e17 43795F53 		.ascii	"Cy_SysInt_Init\000"
 15450      7973496E 
 15450      745F496E 
 15450      697400
 15451              	.LASF411:
 15452 3e26 6461794F 		.ascii	"dayOfWeek\000"
 15452      66576565 
 15452      6B00
 15453              	.LASF750:
 15454 3e30 70726576 		.ascii	"prev\000"
 15454      00
 15455              	.LASF614:
 15456 3e35 43595F42 		.ascii	"CY_BLE_EVT_GET_LOCAL_RPA_COMPLETE\000"
 15456      4C455F45 
 15456      56545F47 
 15456      45545F4C 
 15456      4F43414C 
 15457              	.LASF801:
 15458 3e57 78436861 		.ascii	"xChannel\000"
 15458      6E6E656C 
 15458      00
 15459              	.LASF673:
 15460 3e60 43595F42 		.ascii	"CY_BLE_EVT_GAPP_UPDATE_ADV_SCAN_DATA_COMPLETE\000"
 15460      4C455F45 
 15460      56545F47 
 15460      4150505F 
 15460      55504441 
 15461              	.LASF548:
 15462 3e8e 5F737464 		.ascii	"_stderr\000"
 15462      65727200 
 15463              	.LASF208:
 15464 3e96 49534552 		.ascii	"ISER\000"
 15464      00
 15465              	.LASF79:
 15466 3e9b 63707573 		.ascii	"cpuss_interrupts_ipc_15_IRQn\000"
 15466      735F696E 
 15466      74657272 
 15466      75707473 
ARM GAS  C:\Users\ASUS\AppData\Local\Temp\ccYYtRfk.s 			page 365


 15466      5F697063 
 15467              	.LASF872:
 15468 3eb8 43795F42 		.ascii	"Cy_BLE_Start\000"
 15468      4C455F53 
 15468      74617274 
 15468      00
 15469              	.LASF481:
 15470 3ec5 72785269 		.ascii	"rxRingBufTail\000"
 15470      6E674275 
 15470      66546169 
 15470      6C00
 15471              	.LASF60:
 15472 3ed3 73727373 		.ascii	"srss_interrupt_backup_IRQn\000"
 15472      5F696E74 
 15472      65727275 
 15472      70745F62 
 15472      61636B75 
 15473              	.LASF517:
 15474 3eee 5F666E61 		.ascii	"_fnargs\000"
 15474      72677300 
 15475              	.LASF633:
 15476 3ef6 43595F42 		.ascii	"CY_BLE_EVT_SET_TX_PWR_COMPLETE\000"
 15476      4C455F45 
 15476      56545F53 
 15476      45545F54 
 15476      585F5057 
 15477              	.LASF58:
 15478 3f15 73727373 		.ascii	"srss_interrupt_mcwdt_0_IRQn\000"
 15478      5F696E74 
 15478      65727275 
 15478      70745F6D 
 15478      63776474 
 15479              	.LASF515:
 15480 3f31 5F5F746D 		.ascii	"__tm_isdst\000"
 15480      5F697364 
 15480      737400
 15481              	.LASF158:
 15482 3f3c 74637077 		.ascii	"tcpwm_1_interrupts_21_IRQn\000"
 15482      6D5F315F 
 15482      696E7465 
 15482      72727570 
 15482      74735F32 
 15483              	.LASF478:
 15484 3f57 72785269 		.ascii	"rxRingBuf\000"
 15484      6E674275 
 15484      6600
 15485              	.LASF760:
 15486 3f61 6E657874 		.ascii	"next\000"
 15486      00
 15487              	.LASF451:
 15488 3f66 63795F73 		.ascii	"cy_stc_scb_i2c_context\000"
 15488      74635F73 
 15488      63625F69 
 15488      32635F63 
 15488      6F6E7465 
 15489              	.LASF851:
 15490 3f7d 5254435F 		.ascii	"RTC_RTC_IRQ_cfg\000"
ARM GAS  C:\Users\ASUS\AppData\Local\Temp\ccYYtRfk.s 			page 366


 15490      5254435F 
 15490      4952515F 
 15490      63666700 
 15491              	.LASF14:
 15492 3f8d 4E766963 		.ascii	"NvicMux8_IRQn\000"
 15492      4D757838 
 15492      5F495251 
 15492      6E00
 15493              	.LASF840:
 15494 3f9b 6C696768 		.ascii	"lightdata\000"
 15494      74646174 
 15494      6100
 15495              	.LASF37:
 15496 3fa5 4E766963 		.ascii	"NvicMux31_IRQn\000"
 15496      4D757833 
 15496      315F4952 
 15496      516E00
 15497              	.LASF618:
 15498 3fb4 43595F42 		.ascii	"CY_BLE_EVT_ADD_DEVICE_TO_RPA_LIST_COMPLETE\000"
 15498      4C455F45 
 15498      56545F41 
 15498      44445F44 
 15498      45564943 
 15499              	.LASF857:
 15500 3fdf 70726576 		.ascii	"prev_gX\000"
 15500      5F675800 
 15501              	.LASF508:
 15502 3fe7 5F5F746D 		.ascii	"__tm_min\000"
 15502      5F6D696E 
 15502      00
 15503              	.LASF610:
 15504 3ff0 43595F42 		.ascii	"CY_BLE_EVT_SET_SUGGESTED_DATA_LENGTH_COMPLETE\000"
 15504      4C455F45 
 15504      56545F53 
 15504      45545F53 
 15504      55474745 
 15505              	.LASF725:
 15506 401e 43595F42 		.ascii	"CY_BLE_STATE_INITIALIZING\000"
 15506      4C455F53 
 15506      54415445 
 15506      5F494E49 
 15506      5449414C 
 15507              	.LASF232:
 15508 4038 4932435F 		.ascii	"I2C_CTRL\000"
 15508      4354524C 
 15508      00
 15509              	.LASF318:
 15510 4041 70657269 		.ascii	"periClockNr\000"
 15510      436C6F63 
 15510      6B4E7200 
 15511              	.LASF331:
 15512 404d 666C6173 		.ascii	"flashCtlMainWs0Freq\000"
 15512      6843746C 
 15512      4D61696E 
 15512      57733046 
 15512      72657100 
 15513              	.LASF635:
ARM GAS  C:\Users\ASUS\AppData\Local\Temp\ccYYtRfk.s 			page 367


 15514 4061 43595F42 		.ascii	"CY_BLE_EVT_SET_CLK_CONFIG_COMPLETE\000"
 15514      4C455F45 
 15514      56545F53 
 15514      45545F43 
 15514      4C4B5F43 
 15515              	.LASF405:
 15516 4084 43595F52 		.ascii	"CY_RTC_ALARM_DISABLE\000"
 15516      54435F41 
 15516      4C41524D 
 15516      5F444953 
 15516      41424C45 
 15517              	.LASF26:
 15518 4099 4E766963 		.ascii	"NvicMux20_IRQn\000"
 15518      4D757832 
 15518      305F4952 
 15518      516E00
 15519              	.LASF304:
 15520 40a8 6873696F 		.ascii	"hsiomVersion\000"
 15520      6D566572 
 15520      73696F6E 
 15520      00
 15521              	.LASF386:
 15522 40b5 43595F53 		.ascii	"CY_SYSPM_WAIT_FOR_EVENT\000"
 15522      5953504D 
 15522      5F574149 
 15522      545F464F 
 15522      525F4556 
 15523              	.LASF450:
 15524 40cd 63795F63 		.ascii	"cy_cb_scb_i2c_handle_addr_t\000"
 15524      625F7363 
 15524      625F6932 
 15524      635F6861 
 15524      6E646C65 
 15525              	.LASF336:
 15526 40e9 64774368 		.ascii	"dwChOffset\000"
 15526      4F666673 
 15526      657400
 15527              	.LASF842:
 15528 40f4 616C6172 		.ascii	"alarmFlag\000"
 15528      6D466C61 
 15528      6700
 15529              	.LASF871:
 15530 40fe 43795F53 		.ascii	"Cy_SysLib_Delay\000"
 15530      79734C69 
 15530      625F4465 
 15530      6C617900 
 15531              		.ident	"GCC: (GNU Tools for ARM Embedded Processors) 5.4.1 20160609 (release) [ARM/embedded-5-bran
