ARM GAS  C:\Users\ASUS\AppData\Local\Temp\ccarWmgw.s 			page 1


   1              		.syntax unified
   2              		.cpu cortex-m0plus
   3              		.fpu softvfp
   4              		.eabi_attribute 20, 1
   5              		.eabi_attribute 21, 1
   6              		.eabi_attribute 23, 3
   7              		.eabi_attribute 24, 1
   8              		.eabi_attribute 25, 1
   9              		.eabi_attribute 26, 1
  10              		.eabi_attribute 30, 1
  11              		.eabi_attribute 34, 0
  12              		.eabi_attribute 18, 4
  13              		.thumb
  14              		.syntax unified
  15              		.file	"main_cm0p.c"
  16              		.text
  17              	.Ltext0:
  18              		.cfi_sections	.debug_frame
  19              		.section	.text.genericEventHandler,"ax",%progbits
  20              		.align	2
  21              		.global	genericEventHandler
  22              		.code	16
  23              		.thumb_func
  24              		.type	genericEventHandler, %function
  25              	genericEventHandler:
  26              	.LFB462:
  27              		.file 1 "BLE.h"
   1:BLE.h         **** /* ========================================
   2:BLE.h         ****  *
   3:BLE.h         ****  * Copyright YOUR COMPANY, THE YEAR
   4:BLE.h         ****  * All Rights Reserved
   5:BLE.h         ****  * UNPUBLISHED, LICENSED SOFTWARE.
   6:BLE.h         ****  *
   7:BLE.h         ****  * CONFIDENTIAL AND PROPRIETARY INFORMATION
   8:BLE.h         ****  * WHICH IS THE PROPERTY OF your company.
   9:BLE.h         ****  *
  10:BLE.h         ****  * ========================================
  11:BLE.h         **** */
  12:BLE.h         **** #include "stdio.h"
  13:BLE.h         **** #include "project.h"
  14:BLE.h         **** 
  15:BLE.h         **** static uint8 data[1] = {0};
  16:BLE.h         **** 
  17:BLE.h         **** void genericEventHandler(uint32_t event, void *eventParameter)
  18:BLE.h         **** {
  28              		.loc 1 18 0
  29              		.cfi_startproc
  30              		@ args = 0, pretend = 0, frame = 0
  31              		@ frame_needed = 0, uses_anonymous_args = 0
  32              	.LVL0:
  33 0000 10B5     		push	{r4, lr}
  34              		.cfi_def_cfa_offset 8
  35              		.cfi_offset 4, -8
  36              		.cfi_offset 14, -4
  19:BLE.h         ****     switch(event)
  37              		.loc 1 19 0
  38 0002 0D4B     		ldr	r3, .L5
ARM GAS  C:\Users\ASUS\AppData\Local\Temp\ccarWmgw.s 			page 2


  39 0004 9842     		cmp	r0, r3
  40 0006 06D0     		beq	.L3
  41 0008 0C4B     		ldr	r3, .L5+4
  42 000a 9842     		cmp	r0, r3
  43 000c 08D0     		beq	.L4
  44 000e 8023     		movs	r3, #128
  45 0010 5B01     		lsls	r3, r3, #5
  46 0012 9842     		cmp	r0, r3
  47 0014 0ED1     		bne	.L1
  48              	.L3:
  20:BLE.h         ****     {
  21:BLE.h         ****         case CY_BLE_EVT_STACK_ON:
  22:BLE.h         ****         case CY_BLE_EVT_GAP_DEVICE_DISCONNECTED:
  23:BLE.h         ****         {
  24:BLE.h         ****             Cy_BLE_GAPP_StartAdvertisement(CY_BLE_ADVERTISING_FAST, CY_BLE_PERIPHERAL_CONFIGURATION
  49              		.loc 1 24 0
  50 0016 0021     		movs	r1, #0
  51              	.LVL1:
  52 0018 0020     		movs	r0, #0
  53              	.LVL2:
  54 001a FFF7FEFF 		bl	Cy_BLE_GAPP_StartAdvertisement
  55              	.LVL3:
  25:BLE.h         ****             break;
  56              		.loc 1 25 0
  57 001e 09E0     		b	.L1
  58              	.LVL4:
  59              	.L4:
  60              	.LBB46:
  26:BLE.h         ****         }
  27:BLE.h         ****         case CY_BLE_EVT_GATT_CONNECT_IND:
  28:BLE.h         ****         {
  29:BLE.h         ****             break;
  30:BLE.h         ****         }
  31:BLE.h         ****         case CY_BLE_EVT_GATTS_WRITE_CMD_REQ:
  32:BLE.h         ****         {
  33:BLE.h         ****             cy_stc_ble_gatts_write_cmd_req_param_t *writeReqParameter = (cy_stc_ble_gatts_write_cmd
  34:BLE.h         ****             
  35:BLE.h         ****             if (CY_BLE_DEVICE_INTERFACE_DEVICE_INBOUND_CHAR_HANDLE == writeReqParameter->handleValP
  61              		.loc 1 35 0
  62 0020 0B89     		ldrh	r3, [r1, #8]
  63 0022 122B     		cmp	r3, #18
  64 0024 06D1     		bne	.L1
  36:BLE.h         ****             {
  37:BLE.h         ****                 data[0] = writeReqParameter->handleValPair.value.val[0];
  65              		.loc 1 37 0
  66 0026 0B68     		ldr	r3, [r1]
  67 0028 1A78     		ldrb	r2, [r3]
  68 002a 054B     		ldr	r3, .L5+8
  69 002c 1A70     		strb	r2, [r3]
  38:BLE.h         ****                 Cy_BLE_GATTS_WriteRsp(writeReqParameter->connHandle);
  70              		.loc 1 38 0
  71 002e C868     		ldr	r0, [r1, #12]
  72              	.LVL5:
  73 0030 FFF7FEFF 		bl	Cy_BLE_GATTS_WriteRsp
  74              	.LVL6:
  75              	.L1:
  76              	.LBE46:
ARM GAS  C:\Users\ASUS\AppData\Local\Temp\ccarWmgw.s 			page 3


  39:BLE.h         ****             }
  40:BLE.h         ****             break;
  41:BLE.h         ****         }
  42:BLE.h         ****     }
  43:BLE.h         **** }
  77              		.loc 1 43 0
  78              		@ sp needed
  79 0034 10BD     		pop	{r4, pc}
  80              	.L6:
  81 0036 C046     		.align	2
  82              	.L5:
  83 0038 08400000 		.word	16392
  84 003c 0E500000 		.word	20494
  85 0040 00000000 		.word	.LANCHOR0
  86              		.cfi_endproc
  87              	.LFE462:
  88              		.size	genericEventHandler, .-genericEventHandler
  89              		.section	.text.bleInterruptNotify,"ax",%progbits
  90              		.align	2
  91              		.global	bleInterruptNotify
  92              		.code	16
  93              		.thumb_func
  94              		.type	bleInterruptNotify, %function
  95              	bleInterruptNotify:
  96              	.LFB463:
  44:BLE.h         **** void bleInterruptNotify()
  45:BLE.h         **** {
  97              		.loc 1 45 0
  98              		.cfi_startproc
  99              		@ args = 0, pretend = 0, frame = 0
 100              		@ frame_needed = 0, uses_anonymous_args = 0
 101 0000 10B5     		push	{r4, lr}
 102              		.cfi_def_cfa_offset 8
 103              		.cfi_offset 4, -8
 104              		.cfi_offset 14, -4
  46:BLE.h         ****     Cy_BLE_ProcessEvents();
 105              		.loc 1 46 0
 106 0002 FFF7FEFF 		bl	Cy_BLE_ProcessEvents
 107              	.LVL7:
  47:BLE.h         **** }
 108              		.loc 1 47 0
 109              		@ sp needed
 110 0006 10BD     		pop	{r4, pc}
 111              		.cfi_endproc
 112              	.LFE463:
 113              		.size	bleInterruptNotify, .-bleInterruptNotify
 114              		.section	.text.RtcInterruptHandler,"ax",%progbits
 115              		.align	2
 116              		.global	RtcInterruptHandler
 117              		.code	16
 118              		.thumb_func
 119              		.type	RtcInterruptHandler, %function
 120              	RtcInterruptHandler:
 121              	.LFB478:
 122              		.file 2 "RTC_Alarm.h"
   1:RTC_Alarm.h   **** #include "project.h"
   2:RTC_Alarm.h   **** 
ARM GAS  C:\Users\ASUS\AppData\Local\Temp\ccarWmgw.s 			page 4


   3:RTC_Alarm.h   **** /* Macros */
   4:RTC_Alarm.h   **** #define MAX_ATTEMPTS        (500u)  /* Maximum number of attempts for RTC operation */ 
   5:RTC_Alarm.h   **** #define INIT_DELAY          (5u)    /* delay 5 milliseconds before trying again */
   6:RTC_Alarm.h   **** 
   7:RTC_Alarm.h   **** #define SECONDS_PER_MIN     (60u)   /* used to keep values in range */
   8:RTC_Alarm.h   **** #define MINUTES_PER_HOUR    (60u)
   9:RTC_Alarm.h   **** 
  10:RTC_Alarm.h   **** #define TICK_INTERVAL       (5u)    /* seconds or minutes interval. The range should be 1-59 */
  11:RTC_Alarm.h   **** #define USE_SECONDS         (1u)    /* set to one to use, set to zero to not use */
  12:RTC_Alarm.h   **** #define USE_MINUTES         (0u)    /* use seconds OR minutes, not both  */
  13:RTC_Alarm.h   **** 
  14:RTC_Alarm.h   **** /* The interrupt status variable */
  15:RTC_Alarm.h   **** static uint32_t alarmFlag = 0u;
  16:RTC_Alarm.h   **** 
  17:RTC_Alarm.h   **** /* 
  18:RTC_Alarm.h   ****     If an En field is set to CY_RTC_ALARM_DISABLE, the alarm
  19:RTC_Alarm.h   ****     function ignores the disabled field when looking for a match.
  20:RTC_Alarm.h   ****     Configured to ignore all matches but enable the alarm, and
  21:RTC_Alarm.h   ****     the alarm goes off once per second, because the RTC uses 
  22:RTC_Alarm.h   ****     one-second resolution. 
  23:RTC_Alarm.h   **** */
  24:RTC_Alarm.h   **** cy_stc_rtc_alarm_t alarmConfig = 
  25:RTC_Alarm.h   **** {
  26:RTC_Alarm.h   ****     .sec            = RTC_INITIAL_DATE_SEC,
  27:RTC_Alarm.h   ****     .secEn          = CY_RTC_ALARM_DISABLE,
  28:RTC_Alarm.h   ****     .min            = RTC_INITIAL_DATE_MIN,
  29:RTC_Alarm.h   ****     .minEn          = CY_RTC_ALARM_DISABLE,
  30:RTC_Alarm.h   ****     .hour           = RTC_INITIAL_DATE_HOUR,
  31:RTC_Alarm.h   ****     .hourEn         = CY_RTC_ALARM_DISABLE,
  32:RTC_Alarm.h   ****     .dayOfWeek      = RTC_INITIAL_DATE_DOW,
  33:RTC_Alarm.h   ****     .dayOfWeekEn    = CY_RTC_ALARM_DISABLE,
  34:RTC_Alarm.h   ****     .date           = RTC_INITIAL_DATE_DOM,
  35:RTC_Alarm.h   ****     .dateEn         = CY_RTC_ALARM_DISABLE,
  36:RTC_Alarm.h   ****     .month          = RTC_INITIAL_DATE_MONTH,
  37:RTC_Alarm.h   ****     .monthEn        = CY_RTC_ALARM_DISABLE,
  38:RTC_Alarm.h   ****     .almEn          = CY_RTC_ALARM_ENABLE
  39:RTC_Alarm.h   **** };
  40:RTC_Alarm.h   **** 
  41:RTC_Alarm.h   **** /*******************************************************************************/
  42:RTC_Alarm.h   **** /*                      Function Prototypes                                    */
  43:RTC_Alarm.h   **** /*******************************************************************************/
  44:RTC_Alarm.h   **** cy_en_rtc_status_t RtcInit(void);
  45:RTC_Alarm.h   **** cy_en_rtc_status_t RtcAlarmConfig(void);
  46:RTC_Alarm.h   **** void RtcInterruptHandler(void);
  47:RTC_Alarm.h   **** void RtcStepAlarm(void);
  48:RTC_Alarm.h   **** 
  49:RTC_Alarm.h   **** /******************************************************************************
  50:RTC_Alarm.h   **** * Function Name: main
  51:RTC_Alarm.h   **** *******************************************************************************
  52:RTC_Alarm.h   **** *
  53:RTC_Alarm.h   **** * Summary: This is the system entrance point for Cortex-M4.
  54:RTC_Alarm.h   **** * This function generates a custom tick time interrupt using RTC alarm function.
  55:RTC_Alarm.h   **** *
  56:RTC_Alarm.h   **** * Parameters:
  57:RTC_Alarm.h   **** *  None
  58:RTC_Alarm.h   **** *
  59:RTC_Alarm.h   **** * Return:
ARM GAS  C:\Users\ASUS\AppData\Local\Temp\ccarWmgw.s 			page 5


  60:RTC_Alarm.h   **** *  int
  61:RTC_Alarm.h   **** *
  62:RTC_Alarm.h   **** * Side Effects:
  63:RTC_Alarm.h   **** *  None  
  64:RTC_Alarm.h   **** *
  65:RTC_Alarm.h   **** ******************************************************************************/
  66:RTC_Alarm.h   **** void init_RTC(void)
  67:RTC_Alarm.h   **** {
  68:RTC_Alarm.h   ****     /* Init RTC - Configure the time and date */
  69:RTC_Alarm.h   ****     if(RtcInit() != CY_RTC_SUCCESS)
  70:RTC_Alarm.h   ****     {
  71:RTC_Alarm.h   ****         /* If operation fails, halt */
  72:RTC_Alarm.h   ****         CY_ASSERT(0u);
  73:RTC_Alarm.h   ****     }
  74:RTC_Alarm.h   ****     else  /* Configures the alarm to enable interrupt */
  75:RTC_Alarm.h   ****     {   
  76:RTC_Alarm.h   ****         /*
  77:RTC_Alarm.h   ****             To create a periodic alarm once per minute, enable the seconds match.
  78:RTC_Alarm.h   ****             Do not enable the minutes match, because all that matters is the
  79:RTC_Alarm.h   ****             seconds number. If it's zero, then every time the RTC second wraps
  80:RTC_Alarm.h   ****             around to zero, there is a match, and the alarm goes off.
  81:RTC_Alarm.h   ****         */
  82:RTC_Alarm.h   ****         if( (TICK_INTERVAL == 1u) && (USE_MINUTES == 1u))
  83:RTC_Alarm.h   ****         {
  84:RTC_Alarm.h   ****             alarmConfig.secEn = CY_RTC_ALARM_ENABLE;
  85:RTC_Alarm.h   ****         }
  86:RTC_Alarm.h   **** 
  87:RTC_Alarm.h   ****         /* Now configure the alarm */
  88:RTC_Alarm.h   ****         if(RtcAlarmConfig() != CY_RTC_SUCCESS)
  89:RTC_Alarm.h   ****         {
  90:RTC_Alarm.h   ****            /* If operation fails, halt */
  91:RTC_Alarm.h   ****            CY_ASSERT(0u);
  92:RTC_Alarm.h   ****         }
  93:RTC_Alarm.h   ****         else
  94:RTC_Alarm.h   ****         {
  95:RTC_Alarm.h   **** 	        /* This CE uses Alarm2, enable that interrupt */
  96:RTC_Alarm.h   **** 		    Cy_RTC_SetInterruptMask(CY_RTC_INTR_ALARM2);
  97:RTC_Alarm.h   ****         }
  98:RTC_Alarm.h   ****     }
  99:RTC_Alarm.h   ****     
 100:RTC_Alarm.h   ****     /* Enable RTC interrupt handler function */
 101:RTC_Alarm.h   ****     Cy_SysInt_Init(&RTC_RTC_IRQ_cfg, RtcInterruptHandler);
 102:RTC_Alarm.h   ****     NVIC_EnableIRQ(RTC_RTC_IRQ_cfg.intrSrc);
 103:RTC_Alarm.h   **** }
 104:RTC_Alarm.h   **** 
 105:RTC_Alarm.h   **** /******************************************************************************
 106:RTC_Alarm.h   **** * Function Name: RtcInit
 107:RTC_Alarm.h   **** *******************************************************************************
 108:RTC_Alarm.h   **** *
 109:RTC_Alarm.h   **** * Summary: 
 110:RTC_Alarm.h   **** *  This function configures the RTC registers.
 111:RTC_Alarm.h   **** *
 112:RTC_Alarm.h   **** * Parameters:
 113:RTC_Alarm.h   **** *  None
 114:RTC_Alarm.h   **** *
 115:RTC_Alarm.h   **** * Return:
 116:RTC_Alarm.h   **** *  cy_en_rtc_status_t
ARM GAS  C:\Users\ASUS\AppData\Local\Temp\ccarWmgw.s 			page 6


 117:RTC_Alarm.h   **** *       CY_RTC_SUCCESS      : Time and date configuration is successfully done.
 118:RTC_Alarm.h   **** *       CY_RTC_BAD_PARAM    : Date values are not valid.
 119:RTC_Alarm.h   **** *       CY_RTC_INVALID_STATE: RTC is busy state
 120:RTC_Alarm.h   **** *
 121:RTC_Alarm.h   **** ******************************************************************************/
 122:RTC_Alarm.h   **** cy_en_rtc_status_t RtcInit(void)
 123:RTC_Alarm.h   **** {
 124:RTC_Alarm.h   ****     uint32_t attempts = MAX_ATTEMPTS;
 125:RTC_Alarm.h   ****     cy_en_rtc_status_t result;
 126:RTC_Alarm.h   ****     
 127:RTC_Alarm.h   ****     /* Setting the time and date can fail. For example the RTC might be busy.
 128:RTC_Alarm.h   ****        Check the result and try again, if necessary.  */
 129:RTC_Alarm.h   ****     do
 130:RTC_Alarm.h   ****     {
 131:RTC_Alarm.h   ****         result = Cy_RTC_Init(&RTC_config);
 132:RTC_Alarm.h   ****         attempts--;
 133:RTC_Alarm.h   ****         
 134:RTC_Alarm.h   ****         Cy_SysLib_Delay(INIT_DELAY);
 135:RTC_Alarm.h   ****     } while(( result != CY_RTC_SUCCESS) && (attempts != 0u));
 136:RTC_Alarm.h   ****     
 137:RTC_Alarm.h   **** 	return (result);
 138:RTC_Alarm.h   **** }
 139:RTC_Alarm.h   **** 
 140:RTC_Alarm.h   **** /******************************************************************************
 141:RTC_Alarm.h   **** * Function Name: RtcAlarmConfig
 142:RTC_Alarm.h   **** *******************************************************************************
 143:RTC_Alarm.h   **** *
 144:RTC_Alarm.h   **** * Summary: 
 145:RTC_Alarm.h   **** *  This function configures the custom RTC alarm to utilize the custom tick
 146:RTC_Alarm.h   **** *  timer interrupt.
 147:RTC_Alarm.h   **** *
 148:RTC_Alarm.h   **** * Parameters:
 149:RTC_Alarm.h   **** *  None
 150:RTC_Alarm.h   **** *
 151:RTC_Alarm.h   **** * Return:
 152:RTC_Alarm.h   **** *  cy_en_rtc_status_t
 153:RTC_Alarm.h   **** *       CY_RTC_SUCCESS      : Time and date configuration is successfully done.
 154:RTC_Alarm.h   **** *       CY_RTC_BAD_PARAM    : Date values are not valid.
 155:RTC_Alarm.h   **** *       CY_RTC_INVALID_STATE: RTC is busy state
 156:RTC_Alarm.h   **** *
 157:RTC_Alarm.h   **** ******************************************************************************/
 158:RTC_Alarm.h   **** cy_en_rtc_status_t RtcAlarmConfig(void)
 159:RTC_Alarm.h   **** {
 160:RTC_Alarm.h   ****     uint32_t attempts = MAX_ATTEMPTS;
 161:RTC_Alarm.h   ****     cy_en_rtc_status_t result;
 162:RTC_Alarm.h   **** 
 163:RTC_Alarm.h   ****     /* 
 164:RTC_Alarm.h   ****        Setting the alarm can fail. For example the RTC might be busy. 
 165:RTC_Alarm.h   ****        Check the result and try again, if necessary.
 166:RTC_Alarm.h   ****     */
 167:RTC_Alarm.h   ****     do
 168:RTC_Alarm.h   **** 	{
 169:RTC_Alarm.h   **** 		result = Cy_RTC_SetAlarmDateAndTime((cy_stc_rtc_alarm_t const *)&alarmConfig, CY_RTC_ALARM_2);
 170:RTC_Alarm.h   **** 		attempts--;
 171:RTC_Alarm.h   ****         
 172:RTC_Alarm.h   **** 		Cy_SysLib_Delay(INIT_DELAY);
 173:RTC_Alarm.h   ****     } while(( result != CY_RTC_SUCCESS) && (attempts != 0u));
ARM GAS  C:\Users\ASUS\AppData\Local\Temp\ccarWmgw.s 			page 7


 174:RTC_Alarm.h   ****     
 175:RTC_Alarm.h   **** 	return (result);
 176:RTC_Alarm.h   **** }
 177:RTC_Alarm.h   **** 
 178:RTC_Alarm.h   **** /******************************************************************************
 179:RTC_Alarm.h   **** * Function Name: RtcInterruptHandler
 180:RTC_Alarm.h   **** *******************************************************************************
 181:RTC_Alarm.h   **** *
 182:RTC_Alarm.h   **** * Summary: 
 183:RTC_Alarm.h   **** *  This is the general RTC interrupt handler in CPU NVIC.
 184:RTC_Alarm.h   **** *  It calls the Alarm2 interrupt handler if that is the interrupt that occurs.
 185:RTC_Alarm.h   **** *
 186:RTC_Alarm.h   **** * Parameters:
 187:RTC_Alarm.h   **** *  None
 188:RTC_Alarm.h   **** *
 189:RTC_Alarm.h   **** * Return:
 190:RTC_Alarm.h   **** *  None
 191:RTC_Alarm.h   **** *
 192:RTC_Alarm.h   **** ******************************************************************************/
 193:RTC_Alarm.h   **** void RtcInterruptHandler(void)
 194:RTC_Alarm.h   **** {
 123              		.loc 2 194 0
 124              		.cfi_startproc
 125              		@ args = 0, pretend = 0, frame = 0
 126              		@ frame_needed = 0, uses_anonymous_args = 0
 127 0000 10B5     		push	{r4, lr}
 128              		.cfi_def_cfa_offset 8
 129              		.cfi_offset 4, -8
 130              		.cfi_offset 14, -4
 195:RTC_Alarm.h   ****     /* No DST parameters are required for the custom tick. */
 196:RTC_Alarm.h   ****     Cy_RTC_Interrupt(NULL, false);
 131              		.loc 2 196 0
 132 0002 0021     		movs	r1, #0
 133 0004 0020     		movs	r0, #0
 134 0006 FFF7FEFF 		bl	Cy_RTC_Interrupt
 135              	.LVL8:
 197:RTC_Alarm.h   **** }
 136              		.loc 2 197 0
 137              		@ sp needed
 138 000a 10BD     		pop	{r4, pc}
 139              		.cfi_endproc
 140              	.LFE478:
 141              		.size	RtcInterruptHandler, .-RtcInterruptHandler
 142              		.section	.text.broadcastBLE,"ax",%progbits
 143              		.align	2
 144              		.global	broadcastBLE
 145              		.code	16
 146              		.thumb_func
 147              		.type	broadcastBLE, %function
 148              	broadcastBLE:
 149              	.LFB464:
  48:BLE.h         **** void broadcastBLE(void)
  49:BLE.h         **** {
 150              		.loc 1 49 0
 151              		.cfi_startproc
 152              		@ args = 0, pretend = 0, frame = 24
 153              		@ frame_needed = 0, uses_anonymous_args = 0
ARM GAS  C:\Users\ASUS\AppData\Local\Temp\ccarWmgw.s 			page 8


 154 0000 70B5     		push	{r4, r5, r6, lr}
 155              		.cfi_def_cfa_offset 16
 156              		.cfi_offset 4, -16
 157              		.cfi_offset 5, -12
 158              		.cfi_offset 6, -8
 159              		.cfi_offset 14, -4
 160 0002 86B0     		sub	sp, sp, #24
 161              		.cfi_def_cfa_offset 40
 162              	.LVL9:
  50:BLE.h         ****     int i = 0;
  51:BLE.h         ****     Cy_BLE_Start(genericEventHandler);
 163              		.loc 1 51 0
 164 0004 1348     		ldr	r0, .L14
 165 0006 FFF7FEFF 		bl	Cy_BLE_Start
 166              	.LVL10:
  52:BLE.h         ****     
  53:BLE.h         ****     while (Cy_BLE_GetState() != CY_BLE_STATE_ON)
 167              		.loc 1 53 0
 168 000a 01E0     		b	.L10
 169              	.L11:
  54:BLE.h         ****     {
  55:BLE.h         ****         Cy_BLE_ProcessEvents();
 170              		.loc 1 55 0
 171 000c FFF7FEFF 		bl	Cy_BLE_ProcessEvents
 172              	.LVL11:
 173              	.L10:
  53:BLE.h         ****     {
 174              		.loc 1 53 0
 175 0010 114B     		ldr	r3, .L14+4
 176 0012 1B78     		ldrb	r3, [r3]
 177 0014 022B     		cmp	r3, #2
 178 0016 F9D1     		bne	.L11
  56:BLE.h         ****     }
  57:BLE.h         ****     Cy_BLE_RegisterAppHostCallback(bleInterruptNotify);
 179              		.loc 1 57 0
 180 0018 1048     		ldr	r0, .L14+8
 181 001a FFF7FEFF 		bl	Cy_BLE_RegisterAppHostCallback
 182              	.LVL12:
  50:BLE.h         ****     Cy_BLE_Start(genericEventHandler);
 183              		.loc 1 50 0
 184 001e 0024     		movs	r4, #0
 185              	.LVL13:
 186              	.L13:
 187              	.LBB47:
  58:BLE.h         **** 
  59:BLE.h         ****     for(;;)
  60:BLE.h         ****     {
  61:BLE.h         ****         /* Place your application code here. */
  62:BLE.h         ****         i++;
 188              		.loc 1 62 0
 189 0020 0134     		adds	r4, r4, #1
 190              	.LVL14:
  63:BLE.h         ****         printf("Hello world!\r\n");
 191              		.loc 1 63 0
 192 0022 0F48     		ldr	r0, .L14+12
 193 0024 FFF7FEFF 		bl	puts
 194              	.LVL15:
ARM GAS  C:\Users\ASUS\AppData\Local\Temp\ccarWmgw.s 			page 9


  64:BLE.h         ****         
  65:BLE.h         ****         cy_stc_ble_gatt_handle_value_pair_t serviceHandle;
  66:BLE.h         ****         cy_stc_ble_gatt_value_t serviceData;
  67:BLE.h         ****         
  68:BLE.h         ****         serviceData.val = (uint8*)data;
 195              		.loc 1 68 0
 196 0028 01AB     		add	r3, sp, #4
 197 002a 0E4D     		ldr	r5, .L14+16
 198 002c 0195     		str	r5, [sp, #4]
  69:BLE.h         ****         serviceData.len = 1;
 199              		.loc 1 69 0
 200 002e 0122     		movs	r2, #1
 201 0030 9A80     		strh	r2, [r3, #4]
  70:BLE.h         ****         
  71:BLE.h         ****         serviceHandle.attrHandle = CY_BLE_DEVICE_INTERFACE_DEVICE_OUTBOUND_CHAR_HANDLE;
 202              		.loc 1 71 0
 203 0032 03A8     		add	r0, sp, #12
 204 0034 1332     		adds	r2, r2, #19
 205 0036 0281     		strh	r2, [r0, #8]
  72:BLE.h         ****         serviceHandle.value = serviceData;
 206              		.loc 1 72 0
 207 0038 0200     		movs	r2, r0
 208 003a 42CB     		ldmia	r3!, {r1, r6}
 209 003c 42C2     		stmia	r2!, {r1, r6}
  73:BLE.h         ****         
  74:BLE.h         ****         Cy_BLE_GATTS_WriteAttributeValueLocal(&serviceHandle);
 210              		.loc 1 74 0
 211 003e FFF7FEFF 		bl	Cy_BLE_GATTS_WriteAttributeValueLocal
 212              	.LVL16:
  75:BLE.h         ****         
  76:BLE.h         ****         data[0] = i;
 213              		.loc 1 76 0
 214 0042 2C70     		strb	r4, [r5]
  77:BLE.h         ****         CyDelay(1000);
 215              		.loc 1 77 0
 216 0044 FA20     		movs	r0, #250
 217 0046 8000     		lsls	r0, r0, #2
 218 0048 FFF7FEFF 		bl	Cy_SysLib_Delay
 219              	.LVL17:
  78:BLE.h         ****         
  79:BLE.h         ****         if (i == 9)
 220              		.loc 1 79 0
 221 004c 092C     		cmp	r4, #9
 222 004e E7D1     		bne	.L13
 223              	.LBE47:
  80:BLE.h         ****             break;
  81:BLE.h         ****     }
  82:BLE.h         **** }
 224              		.loc 1 82 0
 225 0050 06B0     		add	sp, sp, #24
 226              		@ sp needed
 227              	.LVL18:
 228 0052 70BD     		pop	{r4, r5, r6, pc}
 229              	.L15:
 230              		.align	2
 231              	.L14:
 232 0054 00000000 		.word	genericEventHandler
ARM GAS  C:\Users\ASUS\AppData\Local\Temp\ccarWmgw.s 			page 10


 233 0058 00000000 		.word	cy_ble_state
 234 005c 00000000 		.word	bleInterruptNotify
 235 0060 00000000 		.word	.LC4
 236 0064 00000000 		.word	.LANCHOR0
 237              		.cfi_endproc
 238              	.LFE464:
 239              		.size	broadcastBLE, .-broadcastBLE
 240              		.section	.text.lightI2CRead,"ax",%progbits
 241              		.align	2
 242              		.global	lightI2CRead
 243              		.code	16
 244              		.thumb_func
 245              		.type	lightI2CRead, %function
 246              	lightI2CRead:
 247              	.LFB465:
 248              		.file 3 "Light.h"
   1:Light.h       **** /******************************************************************************
   2:Light.h       **** * File Name: Light.h
   3:Light.h       **** *
   4:Light.h       **** * Version: Beta
   5:Light.h       **** *
   6:Light.h       **** * Description: This file contains the firmware for setting up communication
   7:Light.h       **** * between the PSoC and the AS73211 True Color Sensor using the I2C protocol.
   8:Light.h       **** *
   9:Light.h       **** * Related Document: TrueColor_LightSensor.pdf
  10:Light.h       **** * Hardware Dependency:  CY8CKIT-063-BLE PSoC 6 BLE Pioneer kit
  11:Light.h       **** *                       AS73211 True Color Sensor
  12:Light.h       **** *
  13:Light.h       **** * Author(s):
  14:Light.h       **** *	Yousef H. Akbar & and Cow Team
  15:Light.h       **** *	Dept. Electrical and Computer Engineering
  16:Light.h       **** *	University of California, Davis
  17:Light.h       **** *******************************************************************************
  18:Light.h       **** * Refer to Section 7.18 of TrueColor_LightSensor.pdf for I2C R/W Protocols.
  19:Light.h       **** *
  20:Light.h       **** * General I2C Procedure (7.21):
  21:Light.h       **** *  - After supplying power: device in CONF state, but Powered Down.
  22:Light.h       **** *  	- This is where we set control registers for options.
  23:Light.h       **** *  	- Check by reading those same control registers.
  24:Light.h       **** *  - Switch to MEAS state while specifying what mode you want.
  25:Light.h       **** *
  26:Light.h       **** * Figure 42 and 43 for example reading/writing.
  27:Light.h       **** * Section 8 contains register bank information.
  28:Light.h       **** ******************************************************************************/
  29:Light.h       **** 
  30:Light.h       **** #include "project.h"
  31:Light.h       **** #include "stdio.h"
  32:Light.h       **** 
  33:Light.h       **** /* Slave addresses */
  34:Light.h       **** #define LIGHT_ADDRESS 0x74    // 1110100[0|1]
  35:Light.h       **** 
  36:Light.h       **** /* Control Register Bank */
  37:Light.h       **** #define OSR     0x00        // Operational State Register (default 0x42)
  38:Light.h       **** #define CREG1   0x06        // Config Register 1
  39:Light.h       **** #define CREG2   0x07        // Config Register 2
  40:Light.h       **** #define CREG3   0x08        // Config Register 3
  41:Light.h       **** #define TBREAK  0x09        // Break time between measurements
ARM GAS  C:\Users\ASUS\AppData\Local\Temp\ccarWmgw.s 			page 11


  42:Light.h       **** 
  43:Light.h       **** /* Output Register Bank */
  44:Light.h       **** #define TEMP    0x01        // Temperature (0h + 12 bit temp result)
  45:Light.h       **** #define MRES1   0x02        // Measurement X-Channel RED
  46:Light.h       **** #define MRES2   0x03        // Y-Channel GREEN
  47:Light.h       **** #define MRES3   0x04        // Z-Channel BLUE
  48:Light.h       **** 
  49:Light.h       **** /* Macro for converting 16 bit temp. to celcius (Refer to Section 7.16) */
  50:Light.h       **** uint16_t temperature;       // declaration of existing temp in main_cm0p.c
  51:Light.h       **** #define CHIPTEMP temperature * 0.05 - 66.9
  52:Light.h       **** 
  53:Light.h       **** /* Function Name: lightI2CRead
  54:Light.h       ****  *
  55:Light.h       ****  * Summary:
  56:Light.h       ****  * This function reads from the light sensor using the I2C protocol. The general
  57:Light.h       ****  * procedure for read sequences is detailed in 7.19 and Figure 40.
  58:Light.h       ****  *
  59:Light.h       ****  * Parameters:
  60:Light.h       ****  *	@reg:		The register from which you want to read data.
  61:Light.h       ****  *
  62:Light.h       ****  * Return:
  63:Light.h       ****  *	readBuf:	Buffer containing data read from register
  64:Light.h       ****  */
  65:Light.h       **** uint16_t lightI2CRead(uint8_t reg)
  66:Light.h       **** {
 249              		.loc 3 66 0
 250              		.cfi_startproc
 251              		@ args = 0, pretend = 0, frame = 32
 252              		@ frame_needed = 0, uses_anonymous_args = 0
 253              	.LVL19:
 254 0000 F0B5     		push	{r4, r5, r6, r7, lr}
 255              		.cfi_def_cfa_offset 20
 256              		.cfi_offset 4, -20
 257              		.cfi_offset 5, -16
 258              		.cfi_offset 6, -12
 259              		.cfi_offset 7, -8
 260              		.cfi_offset 14, -4
 261 0002 8DB0     		sub	sp, sp, #52
 262              		.cfi_def_cfa_offset 72
 263 0004 0600     		movs	r6, r0
  67:Light.h       ****     volatile cy_en_scb_i2c_status_t ret0 = 0;
 264              		.loc 3 67 0
 265 0006 0023     		movs	r3, #0
 266 0008 0B93     		str	r3, [sp, #44]
  68:Light.h       ****     volatile cy_en_scb_i2c_status_t ret1 = 0;
 267              		.loc 3 68 0
 268 000a 0A93     		str	r3, [sp, #40]
  69:Light.h       ****     volatile cy_en_scb_i2c_status_t ret2 = 0;
 269              		.loc 3 69 0
 270 000c 0993     		str	r3, [sp, #36]
  70:Light.h       ****     volatile cy_en_scb_i2c_status_t ret3 = 0;
 271              		.loc 3 70 0
 272 000e 0893     		str	r3, [sp, #32]
  71:Light.h       ****     volatile cy_en_scb_i2c_status_t ret4 = 0;
 273              		.loc 3 71 0
 274 0010 0793     		str	r3, [sp, #28]
  72:Light.h       ****     volatile cy_en_scb_i2c_status_t ret5 = 0;
ARM GAS  C:\Users\ASUS\AppData\Local\Temp\ccarWmgw.s 			page 12


 275              		.loc 3 72 0
 276 0012 0693     		str	r3, [sp, #24]
  73:Light.h       ****     uint8_t readBuf[2] = {0, 0};
 277              		.loc 3 73 0
 278 0014 05AD     		add	r5, sp, #20
 279 0016 2B70     		strb	r3, [r5]
 280 0018 6B70     		strb	r3, [r5, #1]
 281              	.LVL20:
 282              	.LBB48:
 283              	.LBB49:
 284              		.file 4 "Generated_Source\\PSoC6/I2C.h"
   1:Generated_Source\PSoC6/I2C.h **** /***************************************************************************//**
   2:Generated_Source\PSoC6/I2C.h **** * \file I2C.c
   3:Generated_Source\PSoC6/I2C.h **** * \version 2.0
   4:Generated_Source\PSoC6/I2C.h **** *
   5:Generated_Source\PSoC6/I2C.h **** *  This file provides constants and parameter values for the I2C component.
   6:Generated_Source\PSoC6/I2C.h **** *
   7:Generated_Source\PSoC6/I2C.h **** ********************************************************************************
   8:Generated_Source\PSoC6/I2C.h **** * \copyright
   9:Generated_Source\PSoC6/I2C.h **** * Copyright 2016-2017, Cypress Semiconductor Corporation. All rights reserved.
  10:Generated_Source\PSoC6/I2C.h **** * You may use this file only in accordance with the license, terms, conditions,
  11:Generated_Source\PSoC6/I2C.h **** * disclaimers, and limitations in the end user license agreement accompanying
  12:Generated_Source\PSoC6/I2C.h **** * the software package with which this file was provided.
  13:Generated_Source\PSoC6/I2C.h **** *******************************************************************************/
  14:Generated_Source\PSoC6/I2C.h **** 
  15:Generated_Source\PSoC6/I2C.h **** #if !defined(I2C_CY_SCB_I2C_PDL_H)
  16:Generated_Source\PSoC6/I2C.h **** #define I2C_CY_SCB_I2C_PDL_H
  17:Generated_Source\PSoC6/I2C.h **** 
  18:Generated_Source\PSoC6/I2C.h **** #include "cyfitter.h"
  19:Generated_Source\PSoC6/I2C.h **** #include "scb/cy_scb_i2c.h"
  20:Generated_Source\PSoC6/I2C.h **** 
  21:Generated_Source\PSoC6/I2C.h **** #if defined(__cplusplus)
  22:Generated_Source\PSoC6/I2C.h **** extern "C" {
  23:Generated_Source\PSoC6/I2C.h **** #endif
  24:Generated_Source\PSoC6/I2C.h **** 
  25:Generated_Source\PSoC6/I2C.h **** /***************************************
  26:Generated_Source\PSoC6/I2C.h **** *   Initial Parameter Constants
  27:Generated_Source\PSoC6/I2C.h **** ****************************************/
  28:Generated_Source\PSoC6/I2C.h **** 
  29:Generated_Source\PSoC6/I2C.h **** #define I2C_MODE               (0x2U)
  30:Generated_Source\PSoC6/I2C.h **** #define I2C_MODE_SLAVE_MASK    (0x1U)
  31:Generated_Source\PSoC6/I2C.h **** #define I2C_MODE_MASTER_MASK   (0x2U)
  32:Generated_Source\PSoC6/I2C.h **** 
  33:Generated_Source\PSoC6/I2C.h **** #define I2C_ENABLE_SLAVE       (0UL != (I2C_MODE & I2C_MODE_SLAVE_MASK))
  34:Generated_Source\PSoC6/I2C.h **** #define I2C_ENABLE_MASTER      (0UL != (I2C_MODE & I2C_MODE_MASTER_MASK))
  35:Generated_Source\PSoC6/I2C.h **** #define I2C_MANUAL_SCL_CONTROL (0U)
  36:Generated_Source\PSoC6/I2C.h **** 
  37:Generated_Source\PSoC6/I2C.h **** 
  38:Generated_Source\PSoC6/I2C.h **** /***************************************
  39:Generated_Source\PSoC6/I2C.h **** *        Function Prototypes
  40:Generated_Source\PSoC6/I2C.h **** ***************************************/
  41:Generated_Source\PSoC6/I2C.h **** /**
  42:Generated_Source\PSoC6/I2C.h **** * \addtogroup group_general
  43:Generated_Source\PSoC6/I2C.h **** * @{
  44:Generated_Source\PSoC6/I2C.h **** */
  45:Generated_Source\PSoC6/I2C.h **** /* Component only APIs. */
  46:Generated_Source\PSoC6/I2C.h **** void I2C_Start(void);
ARM GAS  C:\Users\ASUS\AppData\Local\Temp\ccarWmgw.s 			page 13


  47:Generated_Source\PSoC6/I2C.h **** 
  48:Generated_Source\PSoC6/I2C.h **** /* Basic functions. */
  49:Generated_Source\PSoC6/I2C.h **** __STATIC_INLINE cy_en_scb_i2c_status_t I2C_Init(cy_stc_scb_i2c_config_t const *config);
  50:Generated_Source\PSoC6/I2C.h **** __STATIC_INLINE void I2C_DeInit (void);
  51:Generated_Source\PSoC6/I2C.h **** __STATIC_INLINE void I2C_Enable (void);
  52:Generated_Source\PSoC6/I2C.h **** __STATIC_INLINE void I2C_Disable(void);
  53:Generated_Source\PSoC6/I2C.h **** 
  54:Generated_Source\PSoC6/I2C.h **** /* Data rate configuration functions. */
  55:Generated_Source\PSoC6/I2C.h **** __STATIC_INLINE uint32_t I2C_SetDataRate(uint32_t dataRateHz, uint32_t scbClockHz);
  56:Generated_Source\PSoC6/I2C.h **** __STATIC_INLINE uint32_t I2C_GetDataRate(uint32_t scbClockHz);
  57:Generated_Source\PSoC6/I2C.h **** 
  58:Generated_Source\PSoC6/I2C.h **** /* Register callbacks. */
  59:Generated_Source\PSoC6/I2C.h **** __STATIC_INLINE void I2C_RegisterEventCallback(cy_cb_scb_i2c_handle_events_t callback);
  60:Generated_Source\PSoC6/I2C.h **** #if (I2C_ENABLE_SLAVE)
  61:Generated_Source\PSoC6/I2C.h **** __STATIC_INLINE void I2C_RegisterAddrCallback (cy_cb_scb_i2c_handle_addr_t callback);
  62:Generated_Source\PSoC6/I2C.h **** #endif /* (I2C_ENABLE_SLAVE) */
  63:Generated_Source\PSoC6/I2C.h **** 
  64:Generated_Source\PSoC6/I2C.h **** /* Configuration functions. */
  65:Generated_Source\PSoC6/I2C.h **** #if (I2C_ENABLE_SLAVE)
  66:Generated_Source\PSoC6/I2C.h **** __STATIC_INLINE void     I2C_SlaveSetAddress(uint8_t addr);
  67:Generated_Source\PSoC6/I2C.h **** __STATIC_INLINE uint32_t I2C_SlaveGetAddress(void);
  68:Generated_Source\PSoC6/I2C.h **** __STATIC_INLINE void     I2C_SlaveSetAddressMask(uint8_t addrMask);
  69:Generated_Source\PSoC6/I2C.h **** __STATIC_INLINE uint32_t I2C_SlaveGetAddressMask(void);
  70:Generated_Source\PSoC6/I2C.h **** #endif /* (I2C_ENABLE_SLAVE) */
  71:Generated_Source\PSoC6/I2C.h **** 
  72:Generated_Source\PSoC6/I2C.h **** #if (I2C_ENABLE_MASTER)
  73:Generated_Source\PSoC6/I2C.h **** __STATIC_INLINE void I2C_MasterSetLowPhaseDutyCycle (uint32_t clockCycles);
  74:Generated_Source\PSoC6/I2C.h **** __STATIC_INLINE void I2C_MasterSetHighPhaseDutyCycle(uint32_t clockCycles);
  75:Generated_Source\PSoC6/I2C.h **** #endif /* (I2C_ENABLE_MASTER) */
  76:Generated_Source\PSoC6/I2C.h **** 
  77:Generated_Source\PSoC6/I2C.h **** /* Bus status. */
  78:Generated_Source\PSoC6/I2C.h **** __STATIC_INLINE bool     I2C_IsBusBusy(void);
  79:Generated_Source\PSoC6/I2C.h **** 
  80:Generated_Source\PSoC6/I2C.h **** /* Slave functions. */
  81:Generated_Source\PSoC6/I2C.h **** #if (I2C_ENABLE_SLAVE)
  82:Generated_Source\PSoC6/I2C.h **** __STATIC_INLINE uint32_t I2C_SlaveGetStatus(void);
  83:Generated_Source\PSoC6/I2C.h **** 
  84:Generated_Source\PSoC6/I2C.h **** __STATIC_INLINE void     I2C_SlaveConfigReadBuf(uint8_t *buffer, uint32_t size);
  85:Generated_Source\PSoC6/I2C.h **** __STATIC_INLINE void     I2C_SlaveAbortRead(void);
  86:Generated_Source\PSoC6/I2C.h **** __STATIC_INLINE uint32_t I2C_SlaveGetReadTransferCount(void);
  87:Generated_Source\PSoC6/I2C.h **** __STATIC_INLINE uint32_t I2C_SlaveClearReadStatus(void);
  88:Generated_Source\PSoC6/I2C.h **** 
  89:Generated_Source\PSoC6/I2C.h **** __STATIC_INLINE void     I2C_SlaveConfigWriteBuf(uint8_t *buffer, uint32_t size);
  90:Generated_Source\PSoC6/I2C.h **** __STATIC_INLINE void     I2C_SlaveAbortWrite(void);
  91:Generated_Source\PSoC6/I2C.h **** __STATIC_INLINE uint32_t I2C_SlaveGetWriteTransferCount(void);
  92:Generated_Source\PSoC6/I2C.h **** __STATIC_INLINE uint32_t I2C_SlaveClearWriteStatus(void);
  93:Generated_Source\PSoC6/I2C.h **** #endif /* (I2C_ENABLE_SLAVE) */
  94:Generated_Source\PSoC6/I2C.h **** 
  95:Generated_Source\PSoC6/I2C.h **** /* Master interrupt processing functions. */
  96:Generated_Source\PSoC6/I2C.h **** #if (I2C_ENABLE_MASTER)
  97:Generated_Source\PSoC6/I2C.h **** __STATIC_INLINE uint32_t I2C_MasterGetStatus(void);
  98:Generated_Source\PSoC6/I2C.h **** 
  99:Generated_Source\PSoC6/I2C.h **** __STATIC_INLINE cy_en_scb_i2c_status_t I2C_MasterRead(cy_stc_scb_i2c_master_xfer_config_t *xferConf
 100:Generated_Source\PSoC6/I2C.h **** __STATIC_INLINE void I2C_MasterAbortRead(void);
 101:Generated_Source\PSoC6/I2C.h **** __STATIC_INLINE cy_en_scb_i2c_status_t I2C_MasterWrite(cy_stc_scb_i2c_master_xfer_config_t *xferCon
 102:Generated_Source\PSoC6/I2C.h **** __STATIC_INLINE void I2C_MasterAbortWrite(void);
 103:Generated_Source\PSoC6/I2C.h **** __STATIC_INLINE uint32_t I2C_MasterGetTransferCount(void);
ARM GAS  C:\Users\ASUS\AppData\Local\Temp\ccarWmgw.s 			page 14


 104:Generated_Source\PSoC6/I2C.h **** 
 105:Generated_Source\PSoC6/I2C.h **** /* Master manual processing functions. */
 106:Generated_Source\PSoC6/I2C.h **** __STATIC_INLINE cy_en_scb_i2c_status_t I2C_MasterSendStart(uint32_t address, cy_en_scb_i2c_directio
 107:Generated_Source\PSoC6/I2C.h **** __STATIC_INLINE cy_en_scb_i2c_status_t I2C_MasterSendReStart(uint32_t address, cy_en_scb_i2c_direct
 108:Generated_Source\PSoC6/I2C.h **** __STATIC_INLINE cy_en_scb_i2c_status_t I2C_MasterSendStop(uint32_t timeoutMs);
 109:Generated_Source\PSoC6/I2C.h **** __STATIC_INLINE cy_en_scb_i2c_status_t I2C_MasterReadByte(cy_en_scb_i2c_command_t ackNack, uint8_t 
 110:Generated_Source\PSoC6/I2C.h **** __STATIC_INLINE cy_en_scb_i2c_status_t I2C_MasterWriteByte(uint8_t byte, uint32_t timeoutMs);
 111:Generated_Source\PSoC6/I2C.h **** #endif /* (I2C_ENABLE_MASTER) */
 112:Generated_Source\PSoC6/I2C.h **** 
 113:Generated_Source\PSoC6/I2C.h **** /* Interrupt handler. */
 114:Generated_Source\PSoC6/I2C.h **** __STATIC_INLINE void I2C_Interrupt(void);
 115:Generated_Source\PSoC6/I2C.h **** /** @} group_general */
 116:Generated_Source\PSoC6/I2C.h **** 
 117:Generated_Source\PSoC6/I2C.h **** 
 118:Generated_Source\PSoC6/I2C.h **** /***************************************
 119:Generated_Source\PSoC6/I2C.h **** *    Variables with External Linkage
 120:Generated_Source\PSoC6/I2C.h **** ***************************************/
 121:Generated_Source\PSoC6/I2C.h **** /**
 122:Generated_Source\PSoC6/I2C.h **** * \addtogroup group_globals
 123:Generated_Source\PSoC6/I2C.h **** * @{
 124:Generated_Source\PSoC6/I2C.h **** */
 125:Generated_Source\PSoC6/I2C.h **** extern uint8_t I2C_initVar;
 126:Generated_Source\PSoC6/I2C.h **** extern cy_stc_scb_i2c_config_t const I2C_config;
 127:Generated_Source\PSoC6/I2C.h **** extern cy_stc_scb_i2c_context_t I2C_context;
 128:Generated_Source\PSoC6/I2C.h **** /** @} group_globals */
 129:Generated_Source\PSoC6/I2C.h **** 
 130:Generated_Source\PSoC6/I2C.h **** 
 131:Generated_Source\PSoC6/I2C.h **** /***************************************
 132:Generated_Source\PSoC6/I2C.h **** *         Preprocessor Macros
 133:Generated_Source\PSoC6/I2C.h **** ***************************************/
 134:Generated_Source\PSoC6/I2C.h **** /**
 135:Generated_Source\PSoC6/I2C.h **** * \addtogroup group_macros
 136:Generated_Source\PSoC6/I2C.h **** * @{
 137:Generated_Source\PSoC6/I2C.h **** */
 138:Generated_Source\PSoC6/I2C.h **** /** The pointer to the base address of the SCB instance */
 139:Generated_Source\PSoC6/I2C.h **** #define I2C_HW     ((CySCB_Type *) I2C_SCB__HW)
 140:Generated_Source\PSoC6/I2C.h **** 
 141:Generated_Source\PSoC6/I2C.h **** /** The desired data rate in Hz */
 142:Generated_Source\PSoC6/I2C.h **** #define I2C_DATA_RATE_HZ      (100000U)
 143:Generated_Source\PSoC6/I2C.h **** 
 144:Generated_Source\PSoC6/I2C.h **** /** The frequency of the clock used by the Component in Hz */
 145:Generated_Source\PSoC6/I2C.h **** #define I2C_CLK_FREQ_HZ       (1562500U)
 146:Generated_Source\PSoC6/I2C.h **** 
 147:Generated_Source\PSoC6/I2C.h **** /** The number of Component clocks used by the master to generate the SCL
 148:Generated_Source\PSoC6/I2C.h **** * low phase. This number is calculated by GUI based on the selected data rate.
 149:Generated_Source\PSoC6/I2C.h **** */
 150:Generated_Source\PSoC6/I2C.h **** #define I2C_LOW_PHASE_DUTY_CYCLE   (8U)
 151:Generated_Source\PSoC6/I2C.h **** 
 152:Generated_Source\PSoC6/I2C.h **** /** The number of Component clocks used by the master to generate the SCL
 153:Generated_Source\PSoC6/I2C.h **** * high phase. This number is calculated by GUI based on the selected data rate.
 154:Generated_Source\PSoC6/I2C.h **** */
 155:Generated_Source\PSoC6/I2C.h **** #define I2C_HIGH_PHASE_DUTY_CYCLE  (8U)
 156:Generated_Source\PSoC6/I2C.h **** /** @} group_macros */
 157:Generated_Source\PSoC6/I2C.h **** 
 158:Generated_Source\PSoC6/I2C.h **** 
 159:Generated_Source\PSoC6/I2C.h **** /***************************************
 160:Generated_Source\PSoC6/I2C.h **** *    In-line Function Implementation
ARM GAS  C:\Users\ASUS\AppData\Local\Temp\ccarWmgw.s 			page 15


 161:Generated_Source\PSoC6/I2C.h **** ***************************************/
 162:Generated_Source\PSoC6/I2C.h **** 
 163:Generated_Source\PSoC6/I2C.h **** /*******************************************************************************
 164:Generated_Source\PSoC6/I2C.h **** * Function Name: I2C_Init
 165:Generated_Source\PSoC6/I2C.h **** ****************************************************************************//**
 166:Generated_Source\PSoC6/I2C.h **** *
 167:Generated_Source\PSoC6/I2C.h **** * Invokes the Cy_SCB_I2C_Init() PDL driver function.
 168:Generated_Source\PSoC6/I2C.h **** *
 169:Generated_Source\PSoC6/I2C.h **** *******************************************************************************/
 170:Generated_Source\PSoC6/I2C.h **** __STATIC_INLINE cy_en_scb_i2c_status_t I2C_Init(cy_stc_scb_i2c_config_t const *config)
 171:Generated_Source\PSoC6/I2C.h **** {
 172:Generated_Source\PSoC6/I2C.h ****     return Cy_SCB_I2C_Init(I2C_HW, config, &I2C_context);
 173:Generated_Source\PSoC6/I2C.h **** }
 174:Generated_Source\PSoC6/I2C.h **** 
 175:Generated_Source\PSoC6/I2C.h **** 
 176:Generated_Source\PSoC6/I2C.h **** /*******************************************************************************
 177:Generated_Source\PSoC6/I2C.h **** *  Function Name: I2C_DeInit
 178:Generated_Source\PSoC6/I2C.h **** ****************************************************************************//**
 179:Generated_Source\PSoC6/I2C.h **** *
 180:Generated_Source\PSoC6/I2C.h **** * Invokes the Cy_SCB_I2C_DeInit() PDL driver function.
 181:Generated_Source\PSoC6/I2C.h **** *
 182:Generated_Source\PSoC6/I2C.h **** *******************************************************************************/
 183:Generated_Source\PSoC6/I2C.h **** __STATIC_INLINE void I2C_DeInit(void)
 184:Generated_Source\PSoC6/I2C.h **** {
 185:Generated_Source\PSoC6/I2C.h ****     Cy_SCB_I2C_DeInit(I2C_HW);
 186:Generated_Source\PSoC6/I2C.h **** }
 187:Generated_Source\PSoC6/I2C.h **** 
 188:Generated_Source\PSoC6/I2C.h **** 
 189:Generated_Source\PSoC6/I2C.h **** /*******************************************************************************
 190:Generated_Source\PSoC6/I2C.h **** * Function Name: I2C_Enable
 191:Generated_Source\PSoC6/I2C.h **** ****************************************************************************//**
 192:Generated_Source\PSoC6/I2C.h **** *
 193:Generated_Source\PSoC6/I2C.h **** * Invokes the Cy_SCB_I2C_Enable() PDL driver function.
 194:Generated_Source\PSoC6/I2C.h **** *
 195:Generated_Source\PSoC6/I2C.h **** *******************************************************************************/
 196:Generated_Source\PSoC6/I2C.h **** __STATIC_INLINE void I2C_Enable(void)
 197:Generated_Source\PSoC6/I2C.h **** {
 198:Generated_Source\PSoC6/I2C.h ****     Cy_SCB_I2C_Enable(I2C_HW);
 199:Generated_Source\PSoC6/I2C.h **** }
 200:Generated_Source\PSoC6/I2C.h **** 
 201:Generated_Source\PSoC6/I2C.h **** 
 202:Generated_Source\PSoC6/I2C.h **** /*******************************************************************************
 203:Generated_Source\PSoC6/I2C.h **** * Function Name: I2C_Disable
 204:Generated_Source\PSoC6/I2C.h **** ****************************************************************************//**
 205:Generated_Source\PSoC6/I2C.h **** *
 206:Generated_Source\PSoC6/I2C.h **** * Invokes the Cy_SCB_I2C_Disable() PDL driver function.
 207:Generated_Source\PSoC6/I2C.h **** *
 208:Generated_Source\PSoC6/I2C.h **** *******************************************************************************/
 209:Generated_Source\PSoC6/I2C.h **** __STATIC_INLINE void I2C_Disable(void)
 210:Generated_Source\PSoC6/I2C.h **** {
 211:Generated_Source\PSoC6/I2C.h ****     Cy_SCB_I2C_Disable(I2C_HW, &I2C_context);
 212:Generated_Source\PSoC6/I2C.h **** }
 213:Generated_Source\PSoC6/I2C.h **** 
 214:Generated_Source\PSoC6/I2C.h **** 
 215:Generated_Source\PSoC6/I2C.h **** /*******************************************************************************
 216:Generated_Source\PSoC6/I2C.h **** * Function Name: I2C_SetDataRate
 217:Generated_Source\PSoC6/I2C.h **** ****************************************************************************//**
ARM GAS  C:\Users\ASUS\AppData\Local\Temp\ccarWmgw.s 			page 16


 218:Generated_Source\PSoC6/I2C.h **** *
 219:Generated_Source\PSoC6/I2C.h **** * Invokes the Cy_SCB_I2C_SetDataRate() PDL driver function.
 220:Generated_Source\PSoC6/I2C.h **** *
 221:Generated_Source\PSoC6/I2C.h **** *******************************************************************************/
 222:Generated_Source\PSoC6/I2C.h **** __STATIC_INLINE uint32_t I2C_SetDataRate(uint32_t dataRateHz, uint32_t scbClockHz)
 223:Generated_Source\PSoC6/I2C.h **** {
 224:Generated_Source\PSoC6/I2C.h ****     return Cy_SCB_I2C_SetDataRate(I2C_HW, dataRateHz, scbClockHz);
 225:Generated_Source\PSoC6/I2C.h **** }
 226:Generated_Source\PSoC6/I2C.h **** 
 227:Generated_Source\PSoC6/I2C.h **** 
 228:Generated_Source\PSoC6/I2C.h **** /*******************************************************************************
 229:Generated_Source\PSoC6/I2C.h **** * Function Name: I2C_GetDataRate
 230:Generated_Source\PSoC6/I2C.h **** ****************************************************************************//**
 231:Generated_Source\PSoC6/I2C.h **** *
 232:Generated_Source\PSoC6/I2C.h **** * Invokes the Cy_SCB_I2C_GetDataRate() PDL driver function.
 233:Generated_Source\PSoC6/I2C.h **** *
 234:Generated_Source\PSoC6/I2C.h **** *******************************************************************************/
 235:Generated_Source\PSoC6/I2C.h **** __STATIC_INLINE uint32_t I2C_GetDataRate(uint32_t scbClockHz)
 236:Generated_Source\PSoC6/I2C.h **** {
 237:Generated_Source\PSoC6/I2C.h ****     return Cy_SCB_I2C_GetDataRate(I2C_HW, scbClockHz);
 238:Generated_Source\PSoC6/I2C.h **** }
 239:Generated_Source\PSoC6/I2C.h **** 
 240:Generated_Source\PSoC6/I2C.h **** 
 241:Generated_Source\PSoC6/I2C.h **** /*******************************************************************************
 242:Generated_Source\PSoC6/I2C.h **** * Function Name: I2C_RegisterEventCallback
 243:Generated_Source\PSoC6/I2C.h **** ****************************************************************************//**
 244:Generated_Source\PSoC6/I2C.h **** *
 245:Generated_Source\PSoC6/I2C.h **** * Invokes the Cy_SCB_I2C_RegisterEventCallback() PDL driver function.
 246:Generated_Source\PSoC6/I2C.h **** *
 247:Generated_Source\PSoC6/I2C.h **** *******************************************************************************/
 248:Generated_Source\PSoC6/I2C.h **** __STATIC_INLINE void I2C_RegisterEventCallback(cy_cb_scb_i2c_handle_events_t callback)
 249:Generated_Source\PSoC6/I2C.h **** {
 250:Generated_Source\PSoC6/I2C.h ****     Cy_SCB_I2C_RegisterEventCallback(I2C_HW, callback, &I2C_context);
 251:Generated_Source\PSoC6/I2C.h **** }
 252:Generated_Source\PSoC6/I2C.h **** 
 253:Generated_Source\PSoC6/I2C.h **** 
 254:Generated_Source\PSoC6/I2C.h **** #if (I2C_ENABLE_SLAVE)
 255:Generated_Source\PSoC6/I2C.h **** /*******************************************************************************
 256:Generated_Source\PSoC6/I2C.h **** * Function Name: I2C_RegisterAddrCallback
 257:Generated_Source\PSoC6/I2C.h **** ****************************************************************************//**
 258:Generated_Source\PSoC6/I2C.h **** *
 259:Generated_Source\PSoC6/I2C.h **** * Invokes the Cy_SCB_I2C_RegisterAddrCallback() PDL driver function.
 260:Generated_Source\PSoC6/I2C.h **** *
 261:Generated_Source\PSoC6/I2C.h **** *******************************************************************************/
 262:Generated_Source\PSoC6/I2C.h **** __STATIC_INLINE void I2C_RegisterAddrCallback(cy_cb_scb_i2c_handle_addr_t callback)
 263:Generated_Source\PSoC6/I2C.h **** {
 264:Generated_Source\PSoC6/I2C.h ****     Cy_SCB_I2C_RegisterAddrCallback(I2C_HW, callback, &I2C_context);
 265:Generated_Source\PSoC6/I2C.h **** }
 266:Generated_Source\PSoC6/I2C.h **** #endif /* (I2C_ENABLE_SLAVE) */
 267:Generated_Source\PSoC6/I2C.h **** 
 268:Generated_Source\PSoC6/I2C.h **** 
 269:Generated_Source\PSoC6/I2C.h **** /*******************************************************************************
 270:Generated_Source\PSoC6/I2C.h **** * Function Name: I2C_IsBusBusy
 271:Generated_Source\PSoC6/I2C.h **** ****************************************************************************//**
 272:Generated_Source\PSoC6/I2C.h **** *
 273:Generated_Source\PSoC6/I2C.h **** * Invokes the Cy_SCB_I2C_IsBusBusy() PDL driver function.
 274:Generated_Source\PSoC6/I2C.h **** *
ARM GAS  C:\Users\ASUS\AppData\Local\Temp\ccarWmgw.s 			page 17


 275:Generated_Source\PSoC6/I2C.h **** *******************************************************************************/
 276:Generated_Source\PSoC6/I2C.h **** __STATIC_INLINE bool I2C_IsBusBusy(void)
 277:Generated_Source\PSoC6/I2C.h **** {
 278:Generated_Source\PSoC6/I2C.h ****     return Cy_SCB_I2C_IsBusBusy(I2C_HW);
 279:Generated_Source\PSoC6/I2C.h **** }
 280:Generated_Source\PSoC6/I2C.h **** 
 281:Generated_Source\PSoC6/I2C.h **** 
 282:Generated_Source\PSoC6/I2C.h **** #if (I2C_ENABLE_SLAVE)
 283:Generated_Source\PSoC6/I2C.h **** /*******************************************************************************
 284:Generated_Source\PSoC6/I2C.h **** * Function Name: I2C_SlaveSetAddress
 285:Generated_Source\PSoC6/I2C.h **** ****************************************************************************//**
 286:Generated_Source\PSoC6/I2C.h **** *
 287:Generated_Source\PSoC6/I2C.h **** * Invokes the Cy_SCB_I2C_SlaveGetAddress() PDL driver function.
 288:Generated_Source\PSoC6/I2C.h **** *
 289:Generated_Source\PSoC6/I2C.h **** *******************************************************************************/
 290:Generated_Source\PSoC6/I2C.h **** __STATIC_INLINE void I2C_SlaveSetAddress(uint8_t addr)
 291:Generated_Source\PSoC6/I2C.h **** {
 292:Generated_Source\PSoC6/I2C.h ****     Cy_SCB_I2C_SlaveSetAddress(I2C_HW, addr);
 293:Generated_Source\PSoC6/I2C.h **** }
 294:Generated_Source\PSoC6/I2C.h **** 
 295:Generated_Source\PSoC6/I2C.h **** 
 296:Generated_Source\PSoC6/I2C.h **** /*******************************************************************************
 297:Generated_Source\PSoC6/I2C.h **** * Function Name: I2C_SlaveGetAddress
 298:Generated_Source\PSoC6/I2C.h **** ****************************************************************************//**
 299:Generated_Source\PSoC6/I2C.h **** *
 300:Generated_Source\PSoC6/I2C.h **** * Invokes the Cy_SCB_I2C_SlaveGetAddress() PDL driver function.
 301:Generated_Source\PSoC6/I2C.h **** *
 302:Generated_Source\PSoC6/I2C.h **** *******************************************************************************/
 303:Generated_Source\PSoC6/I2C.h **** __STATIC_INLINE uint32_t I2C_SlaveGetAddress(void)
 304:Generated_Source\PSoC6/I2C.h **** {
 305:Generated_Source\PSoC6/I2C.h ****     return Cy_SCB_I2C_SlaveGetAddress(I2C_HW);
 306:Generated_Source\PSoC6/I2C.h **** }
 307:Generated_Source\PSoC6/I2C.h **** 
 308:Generated_Source\PSoC6/I2C.h **** 
 309:Generated_Source\PSoC6/I2C.h **** /*******************************************************************************
 310:Generated_Source\PSoC6/I2C.h **** * Function Name: I2C_SlaveSetAddressMask
 311:Generated_Source\PSoC6/I2C.h **** ****************************************************************************//**
 312:Generated_Source\PSoC6/I2C.h **** *
 313:Generated_Source\PSoC6/I2C.h **** * Invokes the Cy_SCB_I2C_SlaveSetAddressMask() PDL driver function.
 314:Generated_Source\PSoC6/I2C.h **** *
 315:Generated_Source\PSoC6/I2C.h **** *******************************************************************************/
 316:Generated_Source\PSoC6/I2C.h **** __STATIC_INLINE void I2C_SlaveSetAddressMask(uint8_t addrMask)
 317:Generated_Source\PSoC6/I2C.h **** {
 318:Generated_Source\PSoC6/I2C.h ****     Cy_SCB_I2C_SlaveSetAddressMask(I2C_HW, addrMask);
 319:Generated_Source\PSoC6/I2C.h **** }
 320:Generated_Source\PSoC6/I2C.h **** 
 321:Generated_Source\PSoC6/I2C.h **** 
 322:Generated_Source\PSoC6/I2C.h **** /*******************************************************************************
 323:Generated_Source\PSoC6/I2C.h **** * Function Name: I2C_SlaveGetAddressMask
 324:Generated_Source\PSoC6/I2C.h **** ****************************************************************************//**
 325:Generated_Source\PSoC6/I2C.h **** *
 326:Generated_Source\PSoC6/I2C.h **** * Invokes the Cy_SCB_I2C_SlaveGetAddressMask() PDL driver function.
 327:Generated_Source\PSoC6/I2C.h **** *
 328:Generated_Source\PSoC6/I2C.h **** *******************************************************************************/
 329:Generated_Source\PSoC6/I2C.h **** __STATIC_INLINE uint32_t I2C_SlaveGetAddressMask(void)
 330:Generated_Source\PSoC6/I2C.h **** {
 331:Generated_Source\PSoC6/I2C.h ****     return Cy_SCB_I2C_SlaveGetAddressMask(I2C_HW);
ARM GAS  C:\Users\ASUS\AppData\Local\Temp\ccarWmgw.s 			page 18


 332:Generated_Source\PSoC6/I2C.h **** }
 333:Generated_Source\PSoC6/I2C.h **** #endif /* (I2C_ENABLE_SLAVE) */
 334:Generated_Source\PSoC6/I2C.h **** 
 335:Generated_Source\PSoC6/I2C.h **** #if (I2C_ENABLE_MASTER)
 336:Generated_Source\PSoC6/I2C.h **** /*******************************************************************************
 337:Generated_Source\PSoC6/I2C.h **** * Function Name: I2C_MasterSetLowPhaseDutyCycle
 338:Generated_Source\PSoC6/I2C.h **** ****************************************************************************//**
 339:Generated_Source\PSoC6/I2C.h **** *
 340:Generated_Source\PSoC6/I2C.h **** * Invokes the Cy_SCB_I2C_MasterSetLowPhaseDutyCycle() PDL driver function.
 341:Generated_Source\PSoC6/I2C.h **** *
 342:Generated_Source\PSoC6/I2C.h **** *******************************************************************************/
 343:Generated_Source\PSoC6/I2C.h **** __STATIC_INLINE void I2C_MasterSetLowPhaseDutyCycle(uint32_t clockCycles)
 344:Generated_Source\PSoC6/I2C.h **** {
 345:Generated_Source\PSoC6/I2C.h ****     Cy_SCB_I2C_MasterSetLowPhaseDutyCycle(I2C_HW, clockCycles);
 346:Generated_Source\PSoC6/I2C.h **** }
 347:Generated_Source\PSoC6/I2C.h **** 
 348:Generated_Source\PSoC6/I2C.h **** 
 349:Generated_Source\PSoC6/I2C.h **** /*******************************************************************************
 350:Generated_Source\PSoC6/I2C.h **** * Function Name: I2C_MasterSetHighPhaseDutyCycle
 351:Generated_Source\PSoC6/I2C.h **** ****************************************************************************//**
 352:Generated_Source\PSoC6/I2C.h **** *
 353:Generated_Source\PSoC6/I2C.h **** * Invokes the Cy_SCB_I2C_MasterSetHighPhaseDutyCycle() PDL driver function.
 354:Generated_Source\PSoC6/I2C.h **** *
 355:Generated_Source\PSoC6/I2C.h **** *******************************************************************************/
 356:Generated_Source\PSoC6/I2C.h **** __STATIC_INLINE void I2C_MasterSetHighPhaseDutyCycle(uint32_t clockCycles)
 357:Generated_Source\PSoC6/I2C.h **** {
 358:Generated_Source\PSoC6/I2C.h ****     Cy_SCB_I2C_MasterSetHighPhaseDutyCycle(I2C_HW, clockCycles);
 359:Generated_Source\PSoC6/I2C.h **** }
 360:Generated_Source\PSoC6/I2C.h **** #endif /* (I2C_ENABLE_MASTER) */
 361:Generated_Source\PSoC6/I2C.h **** 
 362:Generated_Source\PSoC6/I2C.h **** 
 363:Generated_Source\PSoC6/I2C.h **** #if (I2C_ENABLE_SLAVE)
 364:Generated_Source\PSoC6/I2C.h **** /*******************************************************************************
 365:Generated_Source\PSoC6/I2C.h **** * Function Name: I2C_SlaveGetStatus
 366:Generated_Source\PSoC6/I2C.h **** ****************************************************************************//**
 367:Generated_Source\PSoC6/I2C.h **** *
 368:Generated_Source\PSoC6/I2C.h **** * Invokes the Cy_SCB_I2C_SlaveGetStatus() PDL driver function.
 369:Generated_Source\PSoC6/I2C.h **** *
 370:Generated_Source\PSoC6/I2C.h **** *******************************************************************************/
 371:Generated_Source\PSoC6/I2C.h **** __STATIC_INLINE uint32_t I2C_SlaveGetStatus(void)
 372:Generated_Source\PSoC6/I2C.h **** {
 373:Generated_Source\PSoC6/I2C.h ****     return Cy_SCB_I2C_SlaveGetStatus(I2C_HW, &I2C_context);
 374:Generated_Source\PSoC6/I2C.h **** }
 375:Generated_Source\PSoC6/I2C.h **** 
 376:Generated_Source\PSoC6/I2C.h **** 
 377:Generated_Source\PSoC6/I2C.h **** /*******************************************************************************
 378:Generated_Source\PSoC6/I2C.h **** * Function Name: I2C_SlaveConfigReadBuf
 379:Generated_Source\PSoC6/I2C.h **** ****************************************************************************//**
 380:Generated_Source\PSoC6/I2C.h **** *
 381:Generated_Source\PSoC6/I2C.h **** * Invokes the Cy_SCB_I2C_SlaveConfigReadBuf() PDL driver function.
 382:Generated_Source\PSoC6/I2C.h **** *
 383:Generated_Source\PSoC6/I2C.h **** *******************************************************************************/
 384:Generated_Source\PSoC6/I2C.h **** __STATIC_INLINE void I2C_SlaveConfigReadBuf(uint8_t *buffer, uint32_t size)
 385:Generated_Source\PSoC6/I2C.h **** {
 386:Generated_Source\PSoC6/I2C.h ****     Cy_SCB_I2C_SlaveConfigReadBuf(I2C_HW, buffer, size, &I2C_context);
 387:Generated_Source\PSoC6/I2C.h **** }
 388:Generated_Source\PSoC6/I2C.h **** 
ARM GAS  C:\Users\ASUS\AppData\Local\Temp\ccarWmgw.s 			page 19


 389:Generated_Source\PSoC6/I2C.h **** 
 390:Generated_Source\PSoC6/I2C.h **** /*******************************************************************************
 391:Generated_Source\PSoC6/I2C.h **** * Function Name: I2C_SlaveAbortRead
 392:Generated_Source\PSoC6/I2C.h **** ****************************************************************************//**
 393:Generated_Source\PSoC6/I2C.h **** *
 394:Generated_Source\PSoC6/I2C.h **** * Invokes the Cy_SCB_I2C_SlaveAbortRead() PDL driver function.
 395:Generated_Source\PSoC6/I2C.h **** *
 396:Generated_Source\PSoC6/I2C.h **** *******************************************************************************/
 397:Generated_Source\PSoC6/I2C.h **** __STATIC_INLINE void I2C_SlaveAbortRead(void)
 398:Generated_Source\PSoC6/I2C.h **** {
 399:Generated_Source\PSoC6/I2C.h ****     Cy_SCB_I2C_SlaveAbortRead(I2C_HW, &I2C_context);
 400:Generated_Source\PSoC6/I2C.h **** }
 401:Generated_Source\PSoC6/I2C.h **** 
 402:Generated_Source\PSoC6/I2C.h **** 
 403:Generated_Source\PSoC6/I2C.h **** /*******************************************************************************
 404:Generated_Source\PSoC6/I2C.h **** * Function Name: I2C_SlaveGetReadTransferCount
 405:Generated_Source\PSoC6/I2C.h **** ****************************************************************************//**
 406:Generated_Source\PSoC6/I2C.h **** *
 407:Generated_Source\PSoC6/I2C.h **** * Invokes the Cy_SCB_I2C_SlaveGetReadTransferCount() PDL driver function.
 408:Generated_Source\PSoC6/I2C.h **** *
 409:Generated_Source\PSoC6/I2C.h **** *******************************************************************************/
 410:Generated_Source\PSoC6/I2C.h **** __STATIC_INLINE uint32_t I2C_SlaveGetReadTransferCount(void)
 411:Generated_Source\PSoC6/I2C.h **** {
 412:Generated_Source\PSoC6/I2C.h ****     return Cy_SCB_I2C_SlaveGetReadTransferCount(I2C_HW, &I2C_context);
 413:Generated_Source\PSoC6/I2C.h **** }
 414:Generated_Source\PSoC6/I2C.h **** 
 415:Generated_Source\PSoC6/I2C.h **** 
 416:Generated_Source\PSoC6/I2C.h **** /*******************************************************************************
 417:Generated_Source\PSoC6/I2C.h **** * Function Name: I2C_SlaveClearReadStatus
 418:Generated_Source\PSoC6/I2C.h **** ****************************************************************************//**
 419:Generated_Source\PSoC6/I2C.h **** *
 420:Generated_Source\PSoC6/I2C.h **** * Invokes the Cy_SCB_I2C_SlaveClearReadStatus() PDL driver function.
 421:Generated_Source\PSoC6/I2C.h **** *
 422:Generated_Source\PSoC6/I2C.h **** *******************************************************************************/
 423:Generated_Source\PSoC6/I2C.h **** __STATIC_INLINE uint32_t I2C_SlaveClearReadStatus(void)
 424:Generated_Source\PSoC6/I2C.h **** {
 425:Generated_Source\PSoC6/I2C.h ****     return Cy_SCB_I2C_SlaveClearReadStatus(I2C_HW, &I2C_context);
 426:Generated_Source\PSoC6/I2C.h **** }
 427:Generated_Source\PSoC6/I2C.h **** 
 428:Generated_Source\PSoC6/I2C.h **** 
 429:Generated_Source\PSoC6/I2C.h **** /*******************************************************************************
 430:Generated_Source\PSoC6/I2C.h **** * Function Name: I2C_SlaveConfigWriteBuf
 431:Generated_Source\PSoC6/I2C.h **** ****************************************************************************//**
 432:Generated_Source\PSoC6/I2C.h **** *
 433:Generated_Source\PSoC6/I2C.h **** * Invokes the Cy_SCB_I2C_SlaveConfigWriteBuf() PDL driver function.
 434:Generated_Source\PSoC6/I2C.h **** *
 435:Generated_Source\PSoC6/I2C.h **** *******************************************************************************/
 436:Generated_Source\PSoC6/I2C.h **** __STATIC_INLINE void I2C_SlaveConfigWriteBuf(uint8_t *buffer, uint32_t size)
 437:Generated_Source\PSoC6/I2C.h **** {
 438:Generated_Source\PSoC6/I2C.h ****     Cy_SCB_I2C_SlaveConfigWriteBuf(I2C_HW, buffer, size, &I2C_context);
 439:Generated_Source\PSoC6/I2C.h **** }
 440:Generated_Source\PSoC6/I2C.h **** 
 441:Generated_Source\PSoC6/I2C.h **** 
 442:Generated_Source\PSoC6/I2C.h **** /*******************************************************************************
 443:Generated_Source\PSoC6/I2C.h **** * Function Name: I2C_SlaveAbortWrite
 444:Generated_Source\PSoC6/I2C.h **** ****************************************************************************//**
 445:Generated_Source\PSoC6/I2C.h **** *
ARM GAS  C:\Users\ASUS\AppData\Local\Temp\ccarWmgw.s 			page 20


 446:Generated_Source\PSoC6/I2C.h **** * Invokes the Cy_SCB_I2C_SlaveAbortWrite() PDL driver function.
 447:Generated_Source\PSoC6/I2C.h **** *
 448:Generated_Source\PSoC6/I2C.h **** *******************************************************************************/
 449:Generated_Source\PSoC6/I2C.h **** __STATIC_INLINE void I2C_SlaveAbortWrite(void)
 450:Generated_Source\PSoC6/I2C.h **** {
 451:Generated_Source\PSoC6/I2C.h ****     Cy_SCB_I2C_SlaveAbortWrite(I2C_HW, &I2C_context);
 452:Generated_Source\PSoC6/I2C.h **** }
 453:Generated_Source\PSoC6/I2C.h **** 
 454:Generated_Source\PSoC6/I2C.h **** 
 455:Generated_Source\PSoC6/I2C.h **** /*******************************************************************************
 456:Generated_Source\PSoC6/I2C.h **** * Function Name: I2C_SlaveGetWriteTransferCount
 457:Generated_Source\PSoC6/I2C.h **** ****************************************************************************//**
 458:Generated_Source\PSoC6/I2C.h **** *
 459:Generated_Source\PSoC6/I2C.h **** * Invokes the Cy_SCB_I2C_SlaveGetWriteTransferCount() PDL driver function.
 460:Generated_Source\PSoC6/I2C.h **** *
 461:Generated_Source\PSoC6/I2C.h **** *******************************************************************************/
 462:Generated_Source\PSoC6/I2C.h **** __STATIC_INLINE uint32_t I2C_SlaveGetWriteTransferCount(void)
 463:Generated_Source\PSoC6/I2C.h **** {
 464:Generated_Source\PSoC6/I2C.h ****     return Cy_SCB_I2C_SlaveGetWriteTransferCount(I2C_HW, &I2C_context);
 465:Generated_Source\PSoC6/I2C.h **** }
 466:Generated_Source\PSoC6/I2C.h **** 
 467:Generated_Source\PSoC6/I2C.h **** 
 468:Generated_Source\PSoC6/I2C.h **** /*******************************************************************************
 469:Generated_Source\PSoC6/I2C.h **** * Function Name: I2C_SlaveClearWriteStatus
 470:Generated_Source\PSoC6/I2C.h **** ****************************************************************************//**
 471:Generated_Source\PSoC6/I2C.h **** *
 472:Generated_Source\PSoC6/I2C.h **** * Invokes the Cy_SCB_I2C_SlaveClearWriteStatus() PDL driver function.
 473:Generated_Source\PSoC6/I2C.h **** *
 474:Generated_Source\PSoC6/I2C.h **** *******************************************************************************/
 475:Generated_Source\PSoC6/I2C.h **** __STATIC_INLINE uint32_t I2C_SlaveClearWriteStatus(void)
 476:Generated_Source\PSoC6/I2C.h **** {
 477:Generated_Source\PSoC6/I2C.h ****     return Cy_SCB_I2C_SlaveClearWriteStatus(I2C_HW, &I2C_context);
 478:Generated_Source\PSoC6/I2C.h **** }
 479:Generated_Source\PSoC6/I2C.h **** #endif /* (I2C_ENABLE_SLAVE) */
 480:Generated_Source\PSoC6/I2C.h **** 
 481:Generated_Source\PSoC6/I2C.h **** 
 482:Generated_Source\PSoC6/I2C.h **** #if (I2C_ENABLE_MASTER)
 483:Generated_Source\PSoC6/I2C.h **** /*******************************************************************************
 484:Generated_Source\PSoC6/I2C.h **** * Function Name: I2C_MasterGetStatus
 485:Generated_Source\PSoC6/I2C.h **** ****************************************************************************//**
 486:Generated_Source\PSoC6/I2C.h **** *
 487:Generated_Source\PSoC6/I2C.h **** * Invokes the Cy_SCB_I2C_MasterGetStatus() PDL driver function.
 488:Generated_Source\PSoC6/I2C.h **** *
 489:Generated_Source\PSoC6/I2C.h **** *******************************************************************************/
 490:Generated_Source\PSoC6/I2C.h **** __STATIC_INLINE uint32_t I2C_MasterGetStatus(void)
 491:Generated_Source\PSoC6/I2C.h **** {
 492:Generated_Source\PSoC6/I2C.h ****     return Cy_SCB_I2C_MasterGetStatus(I2C_HW, &I2C_context);
 493:Generated_Source\PSoC6/I2C.h **** }
 494:Generated_Source\PSoC6/I2C.h **** 
 495:Generated_Source\PSoC6/I2C.h **** 
 496:Generated_Source\PSoC6/I2C.h **** /*******************************************************************************
 497:Generated_Source\PSoC6/I2C.h **** * Function Name: I2C_MasterRead
 498:Generated_Source\PSoC6/I2C.h **** ****************************************************************************//**
 499:Generated_Source\PSoC6/I2C.h **** *
 500:Generated_Source\PSoC6/I2C.h **** * Invokes the Cy_SCB_I2C_MasterRead() PDL driver function.
 501:Generated_Source\PSoC6/I2C.h **** *
 502:Generated_Source\PSoC6/I2C.h **** *******************************************************************************/
ARM GAS  C:\Users\ASUS\AppData\Local\Temp\ccarWmgw.s 			page 21


 503:Generated_Source\PSoC6/I2C.h **** __STATIC_INLINE cy_en_scb_i2c_status_t I2C_MasterRead(cy_stc_scb_i2c_master_xfer_config_t *xferConf
 504:Generated_Source\PSoC6/I2C.h **** {
 505:Generated_Source\PSoC6/I2C.h ****     return Cy_SCB_I2C_MasterRead(I2C_HW, xferConfig, &I2C_context);
 506:Generated_Source\PSoC6/I2C.h **** }
 507:Generated_Source\PSoC6/I2C.h **** 
 508:Generated_Source\PSoC6/I2C.h **** 
 509:Generated_Source\PSoC6/I2C.h **** /*******************************************************************************
 510:Generated_Source\PSoC6/I2C.h **** * Function Name: I2C_MasterAbortRead
 511:Generated_Source\PSoC6/I2C.h **** ****************************************************************************//**
 512:Generated_Source\PSoC6/I2C.h **** *
 513:Generated_Source\PSoC6/I2C.h **** * Invokes the Cy_SCB_I2C_MasterAbortRead() PDL driver function.
 514:Generated_Source\PSoC6/I2C.h **** *
 515:Generated_Source\PSoC6/I2C.h **** ******************************************************************************/
 516:Generated_Source\PSoC6/I2C.h **** __STATIC_INLINE void I2C_MasterAbortRead(void)
 517:Generated_Source\PSoC6/I2C.h **** {
 518:Generated_Source\PSoC6/I2C.h ****     Cy_SCB_I2C_MasterAbortRead(I2C_HW, &I2C_context);
 519:Generated_Source\PSoC6/I2C.h **** }
 520:Generated_Source\PSoC6/I2C.h **** 
 521:Generated_Source\PSoC6/I2C.h **** 
 522:Generated_Source\PSoC6/I2C.h **** /*******************************************************************************
 523:Generated_Source\PSoC6/I2C.h **** * Function Name: I2C_MasterWrite
 524:Generated_Source\PSoC6/I2C.h **** ****************************************************************************//**
 525:Generated_Source\PSoC6/I2C.h **** *
 526:Generated_Source\PSoC6/I2C.h **** * Invokes the Cy_SCB_I2C_MasterWrite() PDL driver function.
 527:Generated_Source\PSoC6/I2C.h **** *
 528:Generated_Source\PSoC6/I2C.h **** *******************************************************************************/
 529:Generated_Source\PSoC6/I2C.h **** __STATIC_INLINE cy_en_scb_i2c_status_t I2C_MasterWrite(cy_stc_scb_i2c_master_xfer_config_t *xferCon
 530:Generated_Source\PSoC6/I2C.h **** {
 531:Generated_Source\PSoC6/I2C.h ****     return Cy_SCB_I2C_MasterWrite(I2C_HW, xferConfig, &I2C_context);
 532:Generated_Source\PSoC6/I2C.h **** }
 533:Generated_Source\PSoC6/I2C.h **** 
 534:Generated_Source\PSoC6/I2C.h **** 
 535:Generated_Source\PSoC6/I2C.h **** /*******************************************************************************
 536:Generated_Source\PSoC6/I2C.h **** * Function Name: I2C_MasterAbortWrite
 537:Generated_Source\PSoC6/I2C.h **** ****************************************************************************//**
 538:Generated_Source\PSoC6/I2C.h **** *
 539:Generated_Source\PSoC6/I2C.h **** * Invokes the Cy_SCB_I2C_MasterAbortWrite() PDL driver function.
 540:Generated_Source\PSoC6/I2C.h **** *
 541:Generated_Source\PSoC6/I2C.h **** *******************************************************************************/
 542:Generated_Source\PSoC6/I2C.h **** __STATIC_INLINE void I2C_MasterAbortWrite(void)
 543:Generated_Source\PSoC6/I2C.h **** {
 544:Generated_Source\PSoC6/I2C.h ****     Cy_SCB_I2C_MasterAbortWrite(I2C_HW, &I2C_context);
 545:Generated_Source\PSoC6/I2C.h **** }
 546:Generated_Source\PSoC6/I2C.h **** 
 547:Generated_Source\PSoC6/I2C.h **** 
 548:Generated_Source\PSoC6/I2C.h **** /*******************************************************************************
 549:Generated_Source\PSoC6/I2C.h **** * Function Name: I2C_MasterGetTransferCount
 550:Generated_Source\PSoC6/I2C.h **** ****************************************************************************//**
 551:Generated_Source\PSoC6/I2C.h **** *
 552:Generated_Source\PSoC6/I2C.h **** * Invokes the Cy_SCB_I2C_MasterGetTransferCount() PDL driver function.
 553:Generated_Source\PSoC6/I2C.h **** *
 554:Generated_Source\PSoC6/I2C.h **** *******************************************************************************/
 555:Generated_Source\PSoC6/I2C.h **** __STATIC_INLINE uint32_t I2C_MasterGetTransferCount(void)
 556:Generated_Source\PSoC6/I2C.h **** {
 557:Generated_Source\PSoC6/I2C.h ****     return Cy_SCB_I2C_MasterGetTransferCount(I2C_HW, &I2C_context);
 558:Generated_Source\PSoC6/I2C.h **** }
 559:Generated_Source\PSoC6/I2C.h **** 
ARM GAS  C:\Users\ASUS\AppData\Local\Temp\ccarWmgw.s 			page 22


 560:Generated_Source\PSoC6/I2C.h **** 
 561:Generated_Source\PSoC6/I2C.h **** /*******************************************************************************
 562:Generated_Source\PSoC6/I2C.h **** * Function Name: I2C_MasterSendStart
 563:Generated_Source\PSoC6/I2C.h **** ****************************************************************************//**
 564:Generated_Source\PSoC6/I2C.h **** *
 565:Generated_Source\PSoC6/I2C.h **** * Invokes the Cy_SCB_I2C_MasterSendStart() PDL driver function.
 566:Generated_Source\PSoC6/I2C.h **** *
 567:Generated_Source\PSoC6/I2C.h **** *******************************************************************************/
 568:Generated_Source\PSoC6/I2C.h **** __STATIC_INLINE cy_en_scb_i2c_status_t I2C_MasterSendStart(uint32_t address, cy_en_scb_i2c_directio
 569:Generated_Source\PSoC6/I2C.h **** {
 570:Generated_Source\PSoC6/I2C.h ****     return Cy_SCB_I2C_MasterSendStart(I2C_HW, address, bitRnW, timeoutMs, &I2C_context);
 285              		.loc 4 570 0
 286 001a 284C     		ldr	r4, .L17
 287 001c 284F     		ldr	r7, .L17+4
 288 001e 0097     		str	r7, [sp]
 289 0020 6433     		adds	r3, r3, #100
 290 0022 0022     		movs	r2, #0
 291 0024 7421     		movs	r1, #116
 292 0026 2000     		movs	r0, r4
 293              	.LVL21:
 294 0028 FFF7FEFF 		bl	Cy_SCB_I2C_MasterSendStart
 295              	.LVL22:
 296              	.LBE49:
 297              	.LBE48:
  74:Light.h       ****     
  75:Light.h       ****     // Start condition and broadcast slave address + WRITE bit (0)
  76:Light.h       ****     ret0 = I2C_MasterSendStart(LIGHT_ADDRESS, CY_SCB_I2C_WRITE_XFER, 100);
 298              		.loc 3 76 0
 299 002c 0B90     		str	r0, [sp, #44]
  77:Light.h       ****     CyDelay(1);
 300              		.loc 3 77 0
 301 002e 0120     		movs	r0, #1
 302 0030 FFF7FEFF 		bl	Cy_SysLib_Delay
 303              	.LVL23:
 304              	.LBB50:
 305              	.LBB51:
 571:Generated_Source\PSoC6/I2C.h **** }
 572:Generated_Source\PSoC6/I2C.h **** 
 573:Generated_Source\PSoC6/I2C.h **** 
 574:Generated_Source\PSoC6/I2C.h **** /*******************************************************************************
 575:Generated_Source\PSoC6/I2C.h **** * Function Name: I2C_MasterSendReStart
 576:Generated_Source\PSoC6/I2C.h **** ****************************************************************************//**
 577:Generated_Source\PSoC6/I2C.h **** *
 578:Generated_Source\PSoC6/I2C.h **** * Invokes the Cy_SCB_I2C_MasterSendReStart() PDL driver function.
 579:Generated_Source\PSoC6/I2C.h **** *
 580:Generated_Source\PSoC6/I2C.h **** *******************************************************************************/
 581:Generated_Source\PSoC6/I2C.h **** __STATIC_INLINE cy_en_scb_i2c_status_t I2C_MasterSendReStart(uint32_t address, cy_en_scb_i2c_direct
 582:Generated_Source\PSoC6/I2C.h **** {
 583:Generated_Source\PSoC6/I2C.h ****     return Cy_SCB_I2C_MasterSendReStart(I2C_HW, address, bitRnW, timeoutMs, &I2C_context);
 584:Generated_Source\PSoC6/I2C.h **** }
 585:Generated_Source\PSoC6/I2C.h **** 
 586:Generated_Source\PSoC6/I2C.h **** 
 587:Generated_Source\PSoC6/I2C.h **** /*******************************************************************************
 588:Generated_Source\PSoC6/I2C.h **** * Function Name: I2C_MasterSendStop
 589:Generated_Source\PSoC6/I2C.h **** ****************************************************************************//**
 590:Generated_Source\PSoC6/I2C.h **** *
 591:Generated_Source\PSoC6/I2C.h **** * Invokes the Cy_SCB_I2C_MasterSendStop() PDL driver function.
ARM GAS  C:\Users\ASUS\AppData\Local\Temp\ccarWmgw.s 			page 23


 592:Generated_Source\PSoC6/I2C.h **** *
 593:Generated_Source\PSoC6/I2C.h **** *******************************************************************************/
 594:Generated_Source\PSoC6/I2C.h **** __STATIC_INLINE cy_en_scb_i2c_status_t I2C_MasterSendStop(uint32_t timeoutMs)
 595:Generated_Source\PSoC6/I2C.h **** {
 596:Generated_Source\PSoC6/I2C.h ****     return Cy_SCB_I2C_MasterSendStop(I2C_HW, timeoutMs, &I2C_context);
 597:Generated_Source\PSoC6/I2C.h **** }
 598:Generated_Source\PSoC6/I2C.h **** 
 599:Generated_Source\PSoC6/I2C.h **** 
 600:Generated_Source\PSoC6/I2C.h **** /*******************************************************************************
 601:Generated_Source\PSoC6/I2C.h **** * Function Name: I2C_MasterReadByte
 602:Generated_Source\PSoC6/I2C.h **** ****************************************************************************//**
 603:Generated_Source\PSoC6/I2C.h **** *
 604:Generated_Source\PSoC6/I2C.h **** * Invokes the Cy_SCB_I2C_MasterReadByte() PDL driver function.
 605:Generated_Source\PSoC6/I2C.h **** *
 606:Generated_Source\PSoC6/I2C.h **** *******************************************************************************/
 607:Generated_Source\PSoC6/I2C.h **** __STATIC_INLINE cy_en_scb_i2c_status_t I2C_MasterReadByte(cy_en_scb_i2c_command_t ackNack, uint8_t 
 608:Generated_Source\PSoC6/I2C.h **** {
 609:Generated_Source\PSoC6/I2C.h ****     return Cy_SCB_I2C_MasterReadByte(I2C_HW, ackNack, byte, timeoutMs, &I2C_context);
 610:Generated_Source\PSoC6/I2C.h **** }
 611:Generated_Source\PSoC6/I2C.h **** 
 612:Generated_Source\PSoC6/I2C.h **** 
 613:Generated_Source\PSoC6/I2C.h **** /*******************************************************************************
 614:Generated_Source\PSoC6/I2C.h **** * Function Name: I2C_MasterWriteByte
 615:Generated_Source\PSoC6/I2C.h **** ****************************************************************************//**
 616:Generated_Source\PSoC6/I2C.h **** *
 617:Generated_Source\PSoC6/I2C.h **** * Invokes the Cy_SCB_I2C_MasterWriteByte() PDL driver function.
 618:Generated_Source\PSoC6/I2C.h **** *
 619:Generated_Source\PSoC6/I2C.h **** *******************************************************************************/
 620:Generated_Source\PSoC6/I2C.h **** __STATIC_INLINE cy_en_scb_i2c_status_t I2C_MasterWriteByte(uint8_t byte, uint32_t timeoutMs)
 621:Generated_Source\PSoC6/I2C.h **** {
 622:Generated_Source\PSoC6/I2C.h ****     return Cy_SCB_I2C_MasterWriteByte(I2C_HW, byte, timeoutMs, &I2C_context);
 306              		.loc 4 622 0
 307 0034 3B00     		movs	r3, r7
 308 0036 6422     		movs	r2, #100
 309 0038 3100     		movs	r1, r6
 310 003a 2000     		movs	r0, r4
 311 003c FFF7FEFF 		bl	Cy_SCB_I2C_MasterWriteByte
 312              	.LVL24:
 313              	.LBE51:
 314              	.LBE50:
  78:Light.h       ****     // Broadcast register requested from slave LIGHT_ADDRESS
  79:Light.h       ****     ret1 = I2C_MasterWriteByte(reg, 100);
 315              		.loc 3 79 0
 316 0040 0A90     		str	r0, [sp, #40]
  80:Light.h       ****     CyDelay(1);
 317              		.loc 3 80 0
 318 0042 0120     		movs	r0, #1
 319 0044 FFF7FEFF 		bl	Cy_SysLib_Delay
 320              	.LVL25:
 321              	.LBB52:
 322              	.LBB53:
 583:Generated_Source\PSoC6/I2C.h **** }
 323              		.loc 4 583 0
 324 0048 0097     		str	r7, [sp]
 325 004a 6423     		movs	r3, #100
 326 004c 0122     		movs	r2, #1
 327 004e 7421     		movs	r1, #116
ARM GAS  C:\Users\ASUS\AppData\Local\Temp\ccarWmgw.s 			page 24


 328 0050 2000     		movs	r0, r4
 329 0052 FFF7FEFF 		bl	Cy_SCB_I2C_MasterSendReStart
 330              	.LVL26:
 331              	.LBE53:
 332              	.LBE52:
  81:Light.h       ****     // Start repeat condition, broadcast slave address + READ bit (1)
  82:Light.h       ****     ret2 = I2C_MasterSendReStart(LIGHT_ADDRESS, CY_SCB_I2C_READ_XFER, 100);
 333              		.loc 3 82 0
 334 0056 0990     		str	r0, [sp, #36]
  83:Light.h       ****     CyDelay(1);
 335              		.loc 3 83 0
 336 0058 0120     		movs	r0, #1
 337 005a FFF7FEFF 		bl	Cy_SysLib_Delay
 338              	.LVL27:
 339              	.LBB54:
 340              	.LBB55:
 609:Generated_Source\PSoC6/I2C.h **** }
 341              		.loc 4 609 0
 342 005e 0097     		str	r7, [sp]
 343 0060 6423     		movs	r3, #100
 344 0062 2A00     		movs	r2, r5
 345 0064 0021     		movs	r1, #0
 346 0066 2000     		movs	r0, r4
 347 0068 FFF7FEFF 		bl	Cy_SCB_I2C_MasterReadByte
 348              	.LVL28:
 349              	.LBE55:
 350              	.LBE54:
  84:Light.h       ****     // Read from I2C device, put received byte in readBuf and send ack signal.
  85:Light.h       ****     ret3 = I2C_MasterReadByte(CY_SCB_I2C_ACK, &(readBuf[0]), 100);
 351              		.loc 3 85 0
 352 006c 0890     		str	r0, [sp, #32]
  86:Light.h       ****     CyDelay(1);
 353              		.loc 3 86 0
 354 006e 0120     		movs	r0, #1
 355 0070 FFF7FEFF 		bl	Cy_SysLib_Delay
 356              	.LVL29:
 357              	.LBB56:
 358              	.LBB57:
 609:Generated_Source\PSoC6/I2C.h **** }
 359              		.loc 4 609 0
 360 0074 0097     		str	r7, [sp]
 361 0076 6423     		movs	r3, #100
 362 0078 1522     		movs	r2, #21
 363 007a 6A44     		add	r2, r2, sp
 364 007c 0121     		movs	r1, #1
 365 007e 2000     		movs	r0, r4
 366 0080 FFF7FEFF 		bl	Cy_SCB_I2C_MasterReadByte
 367              	.LVL30:
 368              	.LBE57:
 369              	.LBE56:
  87:Light.h       ****     ret5 = I2C_MasterReadByte(CY_SCB_I2C_NAK, &(readBuf[1]), 100);
 370              		.loc 3 87 0
 371 0084 0690     		str	r0, [sp, #24]
  88:Light.h       ****     CyDelay(1);
 372              		.loc 3 88 0
 373 0086 0120     		movs	r0, #1
 374 0088 FFF7FEFF 		bl	Cy_SysLib_Delay
ARM GAS  C:\Users\ASUS\AppData\Local\Temp\ccarWmgw.s 			page 25


 375              	.LVL31:
 376              	.LBB58:
 377              	.LBB59:
 596:Generated_Source\PSoC6/I2C.h **** }
 378              		.loc 4 596 0
 379 008c 3A00     		movs	r2, r7
 380 008e 6421     		movs	r1, #100
 381 0090 2000     		movs	r0, r4
 382 0092 FFF7FEFF 		bl	Cy_SCB_I2C_MasterSendStop
 383              	.LVL32:
 384              	.LBE59:
 385              	.LBE58:
  89:Light.h       ****     // End I2C transaction
  90:Light.h       ****     ret4 = I2C_MasterSendStop(100);
 386              		.loc 3 90 0
 387 0096 0790     		str	r0, [sp, #28]
  91:Light.h       ****     
  92:Light.h       ****     printf("SendStart: %X,"
 388              		.loc 3 92 0
 389 0098 0B99     		ldr	r1, [sp, #44]
 390 009a 0A9A     		ldr	r2, [sp, #40]
 391 009c 099B     		ldr	r3, [sp, #36]
 392 009e 0898     		ldr	r0, [sp, #32]
 393 00a0 069C     		ldr	r4, [sp, #24]
 394 00a2 079E     		ldr	r6, [sp, #28]
 395 00a4 0296     		str	r6, [sp, #8]
 396 00a6 0194     		str	r4, [sp, #4]
 397 00a8 0090     		str	r0, [sp]
 398 00aa 0648     		ldr	r0, .L17+8
 399 00ac FFF7FEFF 		bl	printf
 400              	.LVL33:
  93:Light.h       **** 		    "WriteByte: %X,"
  94:Light.h       **** 		    "SendReStart: %X,"
  95:Light.h       **** 		    "ReadByte: %X,"
  96:Light.h       ****             "ReadByte2: %X"
  97:Light.h       **** 		    "SendStop: %X\r\n", ret0, ret1, ret2, ret3, ret5, ret4);
  98:Light.h       ****     
  99:Light.h       ****     //Start_Number = (Start_Number_High << 8) | (Start_Number_Low & 0xff);
 100:Light.h       ****     return (readBuf[1] << 8) | (readBuf[0] & 0xff);
 401              		.loc 3 100 0
 402 00b0 6878     		ldrb	r0, [r5, #1]
 403 00b2 0002     		lsls	r0, r0, #8
 404 00b4 2B78     		ldrb	r3, [r5]
 405 00b6 1843     		orrs	r0, r3
 101:Light.h       **** }
 406              		.loc 3 101 0
 407 00b8 0DB0     		add	sp, sp, #52
 408              		@ sp needed
 409 00ba F0BD     		pop	{r4, r5, r6, r7, pc}
 410              	.L18:
 411              		.align	2
 412              	.L17:
 413 00bc 00006740 		.word	1080492032
 414 00c0 00000000 		.word	I2C_context
 415 00c4 10000000 		.word	.LC8
 416              		.cfi_endproc
 417              	.LFE465:
ARM GAS  C:\Users\ASUS\AppData\Local\Temp\ccarWmgw.s 			page 26


 418              		.size	lightI2CRead, .-lightI2CRead
 419              		.section	.text.lightI2CWrite,"ax",%progbits
 420              		.align	2
 421              		.global	lightI2CWrite
 422              		.code	16
 423              		.thumb_func
 424              		.type	lightI2CWrite, %function
 425              	lightI2CWrite:
 426              	.LFB466:
 102:Light.h       **** 
 103:Light.h       **** /* Function Name: lightI2CWrite
 104:Light.h       ****  *
 105:Light.h       ****  * Summary:
 106:Light.h       ****  * This function writes to the light sensor using the I2C protocol. The general
 107:Light.h       ****  * procedure for write sequences is detailed in 7.18 and Figure 40.
 108:Light.h       ****  *
 109:Light.h       ****  * Parameters:
 110:Light.h       ****  *	@reg:	The register to which you want to write data.
 111:Light.h       ****  *	@val:	The value you would like to write to @reg
 112:Light.h       ****  *
 113:Light.h       ****  * Return:
 114:Light.h       ****  * 	None.
 115:Light.h       ****  */
 116:Light.h       **** void lightI2CWrite(uint8_t reg, uint8_t value)
 117:Light.h       **** {
 427              		.loc 3 117 0
 428              		.cfi_startproc
 429              		@ args = 0, pretend = 0, frame = 16
 430              		@ frame_needed = 0, uses_anonymous_args = 0
 431              	.LVL34:
 432 0000 F0B5     		push	{r4, r5, r6, r7, lr}
 433              		.cfi_def_cfa_offset 20
 434              		.cfi_offset 4, -20
 435              		.cfi_offset 5, -16
 436              		.cfi_offset 6, -12
 437              		.cfi_offset 7, -8
 438              		.cfi_offset 14, -4
 439 0002 87B0     		sub	sp, sp, #28
 440              		.cfi_def_cfa_offset 48
 441 0004 0700     		movs	r7, r0
 442 0006 0E00     		movs	r6, r1
 118:Light.h       ****     volatile cy_en_scb_i2c_status_t ret0 = 0;
 443              		.loc 3 118 0
 444 0008 0023     		movs	r3, #0
 445 000a 0593     		str	r3, [sp, #20]
 119:Light.h       ****     volatile cy_en_scb_i2c_status_t ret1 = 0;
 446              		.loc 3 119 0
 447 000c 0493     		str	r3, [sp, #16]
 120:Light.h       ****     volatile cy_en_scb_i2c_status_t ret2 = 0;
 448              		.loc 3 120 0
 449 000e 0393     		str	r3, [sp, #12]
 121:Light.h       ****     volatile cy_en_scb_i2c_status_t ret3 = 0;
 450              		.loc 3 121 0
 451 0010 0293     		str	r3, [sp, #8]
 452              	.LVL35:
 453              	.LBB60:
 454              	.LBB61:
ARM GAS  C:\Users\ASUS\AppData\Local\Temp\ccarWmgw.s 			page 27


 570:Generated_Source\PSoC6/I2C.h **** }
 455              		.loc 4 570 0
 456 0012 174C     		ldr	r4, .L20
 457 0014 174D     		ldr	r5, .L20+4
 458 0016 0095     		str	r5, [sp]
 459 0018 6433     		adds	r3, r3, #100
 460 001a 0022     		movs	r2, #0
 461 001c 7421     		movs	r1, #116
 462              	.LVL36:
 463 001e 2000     		movs	r0, r4
 464              	.LVL37:
 465 0020 FFF7FEFF 		bl	Cy_SCB_I2C_MasterSendStart
 466              	.LVL38:
 467              	.LBE61:
 468              	.LBE60:
 122:Light.h       ****     
 123:Light.h       ****     // Start I2C transaction
 124:Light.h       ****     ret0 = I2C_MasterSendStart(LIGHT_ADDRESS, CY_SCB_I2C_WRITE_XFER, 100);
 469              		.loc 3 124 0
 470 0024 0590     		str	r0, [sp, #20]
 125:Light.h       ****     CyDelay(1);
 471              		.loc 3 125 0
 472 0026 0120     		movs	r0, #1
 473 0028 FFF7FEFF 		bl	Cy_SysLib_Delay
 474              	.LVL39:
 475              	.LBB62:
 476              	.LBB63:
 477              		.loc 4 622 0
 478 002c 2B00     		movs	r3, r5
 479 002e 6422     		movs	r2, #100
 480 0030 3900     		movs	r1, r7
 481 0032 2000     		movs	r0, r4
 482 0034 FFF7FEFF 		bl	Cy_SCB_I2C_MasterWriteByte
 483              	.LVL40:
 484              	.LBE63:
 485              	.LBE62:
 126:Light.h       ****     //Write to I2C device
 127:Light.h       ****     ret1 = I2C_MasterWriteByte(reg, 100);
 486              		.loc 3 127 0
 487 0038 0490     		str	r0, [sp, #16]
 488              	.LVL41:
 489              	.LBB64:
 490              	.LBB65:
 491              		.loc 4 622 0
 492 003a 2B00     		movs	r3, r5
 493 003c 6422     		movs	r2, #100
 494 003e 3100     		movs	r1, r6
 495 0040 2000     		movs	r0, r4
 496 0042 FFF7FEFF 		bl	Cy_SCB_I2C_MasterWriteByte
 497              	.LVL42:
 498              	.LBE65:
 499              	.LBE64:
 128:Light.h       ****     ret2 = I2C_MasterWriteByte(value, 100);
 500              		.loc 3 128 0
 501 0046 0390     		str	r0, [sp, #12]
 129:Light.h       ****     CyDelay(1);
 502              		.loc 3 129 0
ARM GAS  C:\Users\ASUS\AppData\Local\Temp\ccarWmgw.s 			page 28


 503 0048 0120     		movs	r0, #1
 504 004a FFF7FEFF 		bl	Cy_SysLib_Delay
 505              	.LVL43:
 506              	.LBB66:
 507              	.LBB67:
 596:Generated_Source\PSoC6/I2C.h **** }
 508              		.loc 4 596 0
 509 004e 2A00     		movs	r2, r5
 510 0050 6421     		movs	r1, #100
 511 0052 2000     		movs	r0, r4
 512 0054 FFF7FEFF 		bl	Cy_SCB_I2C_MasterSendStop
 513              	.LVL44:
 514              	.LBE67:
 515              	.LBE66:
 130:Light.h       ****     // End I2C transaction
 131:Light.h       ****     ret3 = I2C_MasterSendStop(100);
 516              		.loc 3 131 0
 517 0058 0290     		str	r0, [sp, #8]
 132:Light.h       ****     
 133:Light.h       ****     printf("SendStart: %X, WriteByte: %X,%X, SendStop: %X\r\n", ret0, ret1,
 518              		.loc 3 133 0
 519 005a 0599     		ldr	r1, [sp, #20]
 520 005c 049A     		ldr	r2, [sp, #16]
 521 005e 039B     		ldr	r3, [sp, #12]
 522 0060 0298     		ldr	r0, [sp, #8]
 523 0062 0090     		str	r0, [sp]
 524 0064 0448     		ldr	r0, .L20+8
 525 0066 FFF7FEFF 		bl	printf
 526              	.LVL45:
 134:Light.h       **** 		    ret2, ret3);
 135:Light.h       **** }
 527              		.loc 3 135 0
 528 006a 07B0     		add	sp, sp, #28
 529              		@ sp needed
 530 006c F0BD     		pop	{r4, r5, r6, r7, pc}
 531              	.L21:
 532 006e C046     		.align	2
 533              	.L20:
 534 0070 00006740 		.word	1080492032
 535 0074 00000000 		.word	I2C_context
 536 0078 68000000 		.word	.LC11
 537              		.cfi_endproc
 538              	.LFE466:
 539              		.size	lightI2CWrite, .-lightI2CWrite
 540              		.section	.text.lightMeasure,"ax",%progbits
 541              		.align	2
 542              		.global	lightMeasure
 543              		.code	16
 544              		.thumb_func
 545              		.type	lightMeasure, %function
 546              	lightMeasure:
 547              	.LFB467:
 136:Light.h       **** 
 137:Light.h       **** /* Function Name: lightMeasure
 138:Light.h       ****  *
 139:Light.h       ****  * Summary:
 140:Light.h       ****  * This function performs a single measurement cycle for the light sensor by
ARM GAS  C:\Users\ASUS\AppData\Local\Temp\ccarWmgw.s 			page 29


 141:Light.h       ****  * transitioning the device state from power down to measurement, then after the
 142:Light.h       ****  * measurement is complete (64ms later), we save the results.  Lastly, we
 143:Light.h       ****  * transition back to the power down state for power reduction.
 144:Light.h       ****  *
 145:Light.h       ****  * Parameters:
 146:Light.h       ****  *	@xChannel, yChannel, zChannel:	The 3 RGB channels from photodiodes.
 147:Light.h       ****  *	@temperature:			On-board temperature sensor result.
 148:Light.h       ****  *
 149:Light.h       ****  * Return:
 150:Light.h       ****  *	None.
 151:Light.h       ****  */
 152:Light.h       **** void lightMeasure(uint16_t *xChannel, uint16_t *yChannel, uint16_t *zChannel,
 153:Light.h       **** 		uint16_t *temperature)
 154:Light.h       **** {
 548              		.loc 3 154 0
 549              		.cfi_startproc
 550              		@ args = 0, pretend = 0, frame = 0
 551              		@ frame_needed = 0, uses_anonymous_args = 0
 552              	.LVL46:
 553 0000 F8B5     		push	{r3, r4, r5, r6, r7, lr}
 554              		.cfi_def_cfa_offset 24
 555              		.cfi_offset 3, -24
 556              		.cfi_offset 4, -20
 557              		.cfi_offset 5, -16
 558              		.cfi_offset 6, -12
 559              		.cfi_offset 7, -8
 560              		.cfi_offset 14, -4
 561 0002 0600     		movs	r6, r0
 562 0004 0D00     		movs	r5, r1
 563 0006 1400     		movs	r4, r2
 564 0008 1F00     		movs	r7, r3
 155:Light.h       ****     /* Transition to Measurement mode 0x83 */
 156:Light.h       ****     lightI2CWrite(OSR, 0x83);
 565              		.loc 3 156 0
 566 000a 8321     		movs	r1, #131
 567              	.LVL47:
 568 000c 0020     		movs	r0, #0
 569              	.LVL48:
 570 000e FFF7FEFF 		bl	lightI2CWrite
 571              	.LVL49:
 157:Light.h       ****     /* Wait for conversion to finish, defined by TCONV */
 158:Light.h       ****     CyDelay(64);
 572              		.loc 3 158 0
 573 0012 4020     		movs	r0, #64
 574 0014 FFF7FEFF 		bl	Cy_SysLib_Delay
 575              	.LVL50:
 159:Light.h       **** 
 160:Light.h       ****     /* Read completed conversions */
 161:Light.h       ****     *temperature    = lightI2CRead(TEMP);
 576              		.loc 3 161 0
 577 0018 0120     		movs	r0, #1
 578 001a FFF7FEFF 		bl	lightI2CRead
 579              	.LVL51:
 580 001e 3880     		strh	r0, [r7]
 162:Light.h       ****     *xChannel       = lightI2CRead(MRES1);
 581              		.loc 3 162 0
 582 0020 0220     		movs	r0, #2
ARM GAS  C:\Users\ASUS\AppData\Local\Temp\ccarWmgw.s 			page 30


 583 0022 FFF7FEFF 		bl	lightI2CRead
 584              	.LVL52:
 585 0026 3080     		strh	r0, [r6]
 163:Light.h       ****     *yChannel       = lightI2CRead(MRES2);
 586              		.loc 3 163 0
 587 0028 0320     		movs	r0, #3
 588 002a FFF7FEFF 		bl	lightI2CRead
 589              	.LVL53:
 590 002e 2880     		strh	r0, [r5]
 164:Light.h       ****     *zChannel       = lightI2CRead(MRES3);
 591              		.loc 3 164 0
 592 0030 0420     		movs	r0, #4
 593 0032 FFF7FEFF 		bl	lightI2CRead
 594              	.LVL54:
 595 0036 2080     		strh	r0, [r4]
 165:Light.h       **** 
 166:Light.h       ****     /* Transition back to PowerDown, for power reduction */
 167:Light.h       ****     lightI2CWrite(OSR, 0x42);
 596              		.loc 3 167 0
 597 0038 4221     		movs	r1, #66
 598 003a 0020     		movs	r0, #0
 599 003c FFF7FEFF 		bl	lightI2CWrite
 600              	.LVL55:
 168:Light.h       **** }
 601              		.loc 3 168 0
 602              		@ sp needed
 603              	.LVL56:
 604              	.LVL57:
 605              	.LVL58:
 606              	.LVL59:
 607 0040 F8BD     		pop	{r3, r4, r5, r6, r7, pc}
 608              		.cfi_endproc
 609              	.LFE467:
 610              		.size	lightMeasure, .-lightMeasure
 611              		.global	__aeabi_i2d
 612              		.global	__aeabi_dmul
 613              		.global	__aeabi_dsub
 614 0042 C046     		.section	.text.lightPrint,"ax",%progbits
 615              		.align	2
 616              		.global	lightPrint
 617              		.code	16
 618              		.thumb_func
 619              		.type	lightPrint, %function
 620              	lightPrint:
 621              	.LFB468:
 169:Light.h       **** 
 170:Light.h       **** /* Function Name: lightPrint
 171:Light.h       ****  *
 172:Light.h       ****  * Summary:
 173:Light.h       ****  * This function prints the most recent data from the light sensor: the 3
 174:Light.h       ****  * channels of photodiodes conversions (RGB light) and the chip temperature.
 175:Light.h       ****  * Note that temperature is obtained using a macro function that converts the
 176:Light.h       ****  * TEMP register from the board to an actual celcius temperature.
 177:Light.h       ****  *
 178:Light.h       ****  * Parameters:
 179:Light.h       ****  *	@x: the xChannel (R) 16 bit result
 180:Light.h       ****  *	@y: the yChannel (G) 16 bit result
ARM GAS  C:\Users\ASUS\AppData\Local\Temp\ccarWmgw.s 			page 31


 181:Light.h       ****  *	@z: the zChannel (B) 16 bit result
 182:Light.h       ****  *
 183:Light.h       ****  * Return:
 184:Light.h       ****  *	None.
 185:Light.h       ****  */
 186:Light.h       **** void lightPrint(uint16_t x, uint16_t y, uint16_t z)
 187:Light.h       **** {
 622              		.loc 3 187 0
 623              		.cfi_startproc
 624              		@ args = 0, pretend = 0, frame = 0
 625              		@ frame_needed = 0, uses_anonymous_args = 0
 626              	.LVL60:
 627 0000 70B5     		push	{r4, r5, r6, lr}
 628              		.cfi_def_cfa_offset 16
 629              		.cfi_offset 4, -16
 630              		.cfi_offset 5, -12
 631              		.cfi_offset 6, -8
 632              		.cfi_offset 14, -4
 633 0002 82B0     		sub	sp, sp, #8
 634              		.cfi_def_cfa_offset 24
 635 0004 0400     		movs	r4, r0
 636 0006 0D00     		movs	r5, r1
 637 0008 1600     		movs	r6, r2
 188:Light.h       ****     printf("\r\n\r\nLight Sensor Data:\r\n"
 189:Light.h       ****         "Red Light: %d\r\n"
 190:Light.h       ****         "Green Light: %d\r\n"
 191:Light.h       ****         "Blue Light: %d\r\n"
 192:Light.h       ****         "Temperature: %.2f\r\n", x, y, z, CHIPTEMP);
 638              		.loc 3 192 0
 639 000a 0B4B     		ldr	r3, .L24
 640 000c 1888     		ldrh	r0, [r3]
 641              	.LVL61:
 642 000e FFF7FEFF 		bl	__aeabi_i2d
 643              	.LVL62:
 644 0012 0A4A     		ldr	r2, .L24+4
 645 0014 0A4B     		ldr	r3, .L24+8
 646 0016 FFF7FEFF 		bl	__aeabi_dmul
 647              	.LVL63:
 188:Light.h       ****     printf("\r\n\r\nLight Sensor Data:\r\n"
 648              		.loc 3 188 0
 649 001a 084A     		ldr	r2, .L24+4
 650 001c 094B     		ldr	r3, .L24+12
 651 001e FFF7FEFF 		bl	__aeabi_dsub
 652              	.LVL64:
 653 0022 0090     		str	r0, [sp]
 654 0024 0191     		str	r1, [sp, #4]
 655 0026 3300     		movs	r3, r6
 656 0028 2A00     		movs	r2, r5
 657 002a 2100     		movs	r1, r4
 658 002c 0648     		ldr	r0, .L24+16
 659 002e FFF7FEFF 		bl	printf
 660              	.LVL65:
 193:Light.h       **** }
 661              		.loc 3 193 0
 662 0032 02B0     		add	sp, sp, #8
 663              		@ sp needed
 664 0034 70BD     		pop	{r4, r5, r6, pc}
ARM GAS  C:\Users\ASUS\AppData\Local\Temp\ccarWmgw.s 			page 32


 665              	.L25:
 666 0036 C046     		.align	2
 667              	.L24:
 668 0038 00000000 		.word	temperature
 669 003c 9A999999 		.word	-1717986918
 670 0040 9999A93F 		.word	1068079513
 671 0044 99B95040 		.word	1079032217
 672 0048 98000000 		.word	.LC14
 673              		.cfi_endproc
 674              	.LFE468:
 675              		.size	lightPrint, .-lightPrint
 676              		.section	.text.accI2CRead,"ax",%progbits
 677              		.align	2
 678              		.global	accI2CRead
 679              		.code	16
 680              		.thumb_func
 681              		.type	accI2CRead, %function
 682              	accI2CRead:
 683              	.LFB469:
 684              		.file 5 "Accelerometer.h"
   1:Accelerometer.h **** /******************************************************************************
   2:Accelerometer.h **** * File Name: Accelerometer.h
   3:Accelerometer.h **** *
   4:Accelerometer.h **** * Version: Beta
   5:Accelerometer.h **** *
   6:Accelerometer.h **** * Description: This file contains the firmware for setting up communication
   7:Accelerometer.h **** * between the PSoC and the 9-axis accelerometer sensor using the I2C protocol.
   8:Accelerometer.h **** *
   9:Accelerometer.h **** * Related Document: Sensor-Nine-Axis.pdf
  10:Accelerometer.h **** * Hardware Dependency:  CY8CKIT-063-BLE PSoC 6 BLE Pioneer kit
  11:Accelerometer.h **** *                       ICM-20948 Nine-Axis Low Power Sensor
  12:Accelerometer.h **** *
  13:Accelerometer.h **** * Author(s):
  14:Accelerometer.h **** *	Yousef H. Akbar & and Cow Team
  15:Accelerometer.h **** *	Dept. Electrical and Computer Engineering
  16:Accelerometer.h **** *	University of California, Davis
  17:Accelerometer.h **** *******************************************************************************
  18:Accelerometer.h **** * Refer to Section 6.1 to 6.4 of Sensor-Nine-Axis.pdf for I2C protocol specs.
  19:Accelerometer.h **** ******************************************************************************/
  20:Accelerometer.h **** 
  21:Accelerometer.h **** #include "project.h"
  22:Accelerometer.h **** #include "stdio.h"
  23:Accelerometer.h **** 
  24:Accelerometer.h **** /* Slave addresses */
  25:Accelerometer.h **** #define ACC_ADDRESS 0x68    // 1101000[0|1]
  26:Accelerometer.h **** 
  27:Accelerometer.h **** /* Output Register Bank */
  28:Accelerometer.h **** #define WHOAMI      0x00
  29:Accelerometer.h **** #define INT_ENABLE  0x01
  30:Accelerometer.h **** #define XACCEL_H    0x2D
  31:Accelerometer.h **** #define YACCEL_H    0x2F
  32:Accelerometer.h **** #define ZACCEL_H    0x31
  33:Accelerometer.h **** #define XGYRO_H     0x33
  34:Accelerometer.h **** #define YGYRO_H     0x35
  35:Accelerometer.h **** #define ZGYRO_H     0x37
  36:Accelerometer.h **** 
  37:Accelerometer.h **** uint16_t accI2CRead(uint8_t reg)
ARM GAS  C:\Users\ASUS\AppData\Local\Temp\ccarWmgw.s 			page 33


  38:Accelerometer.h **** {
 685              		.loc 5 38 0
 686              		.cfi_startproc
 687              		@ args = 0, pretend = 0, frame = 32
 688              		@ frame_needed = 0, uses_anonymous_args = 0
 689              	.LVL66:
 690 0000 F0B5     		push	{r4, r5, r6, r7, lr}
 691              		.cfi_def_cfa_offset 20
 692              		.cfi_offset 4, -20
 693              		.cfi_offset 5, -16
 694              		.cfi_offset 6, -12
 695              		.cfi_offset 7, -8
 696              		.cfi_offset 14, -4
 697 0002 8DB0     		sub	sp, sp, #52
 698              		.cfi_def_cfa_offset 72
 699 0004 0600     		movs	r6, r0
  39:Accelerometer.h ****     volatile cy_en_scb_i2c_status_t ret0 = 0;
 700              		.loc 5 39 0
 701 0006 0023     		movs	r3, #0
 702 0008 0B93     		str	r3, [sp, #44]
  40:Accelerometer.h ****     volatile cy_en_scb_i2c_status_t ret1 = 0;
 703              		.loc 5 40 0
 704 000a 0A93     		str	r3, [sp, #40]
  41:Accelerometer.h ****     volatile cy_en_scb_i2c_status_t ret2 = 0;
 705              		.loc 5 41 0
 706 000c 0993     		str	r3, [sp, #36]
  42:Accelerometer.h ****     volatile cy_en_scb_i2c_status_t ret3 = 0;
 707              		.loc 5 42 0
 708 000e 0893     		str	r3, [sp, #32]
  43:Accelerometer.h ****     volatile cy_en_scb_i2c_status_t ret4 = 0;
 709              		.loc 5 43 0
 710 0010 0793     		str	r3, [sp, #28]
  44:Accelerometer.h ****     volatile cy_en_scb_i2c_status_t ret5 = 0;
 711              		.loc 5 44 0
 712 0012 0693     		str	r3, [sp, #24]
  45:Accelerometer.h ****     uint8_t readBuf[2] = {0, 0};
 713              		.loc 5 45 0
 714 0014 05AD     		add	r5, sp, #20
 715 0016 2B70     		strb	r3, [r5]
 716 0018 6B70     		strb	r3, [r5, #1]
 717              	.LVL67:
 718              	.LBB68:
 719              	.LBB69:
 570:Generated_Source\PSoC6/I2C.h **** }
 720              		.loc 4 570 0
 721 001a 284C     		ldr	r4, .L27
 722 001c 284F     		ldr	r7, .L27+4
 723 001e 0097     		str	r7, [sp]
 724 0020 6433     		adds	r3, r3, #100
 725 0022 0022     		movs	r2, #0
 726 0024 6821     		movs	r1, #104
 727 0026 2000     		movs	r0, r4
 728              	.LVL68:
 729 0028 FFF7FEFF 		bl	Cy_SCB_I2C_MasterSendStart
 730              	.LVL69:
 731              	.LBE69:
 732              	.LBE68:
ARM GAS  C:\Users\ASUS\AppData\Local\Temp\ccarWmgw.s 			page 34


  46:Accelerometer.h ****     
  47:Accelerometer.h ****     // Start condition and broadcast slave address + WRITE bit (0)
  48:Accelerometer.h ****     ret0 = I2C_MasterSendStart(ACC_ADDRESS, CY_SCB_I2C_WRITE_XFER, 100);
 733              		.loc 5 48 0
 734 002c 0B90     		str	r0, [sp, #44]
  49:Accelerometer.h ****     CyDelay(1);
 735              		.loc 5 49 0
 736 002e 0120     		movs	r0, #1
 737 0030 FFF7FEFF 		bl	Cy_SysLib_Delay
 738              	.LVL70:
 739              	.LBB70:
 740              	.LBB71:
 741              		.loc 4 622 0
 742 0034 3B00     		movs	r3, r7
 743 0036 6422     		movs	r2, #100
 744 0038 3100     		movs	r1, r6
 745 003a 2000     		movs	r0, r4
 746 003c FFF7FEFF 		bl	Cy_SCB_I2C_MasterWriteByte
 747              	.LVL71:
 748              	.LBE71:
 749              	.LBE70:
  50:Accelerometer.h ****     // Broadcast register requested from slave ACC_ADDRESS
  51:Accelerometer.h ****     ret1 = I2C_MasterWriteByte(reg, 100);
 750              		.loc 5 51 0
 751 0040 0A90     		str	r0, [sp, #40]
  52:Accelerometer.h ****     CyDelay(1);
 752              		.loc 5 52 0
 753 0042 0120     		movs	r0, #1
 754 0044 FFF7FEFF 		bl	Cy_SysLib_Delay
 755              	.LVL72:
 756              	.LBB72:
 757              	.LBB73:
 583:Generated_Source\PSoC6/I2C.h **** }
 758              		.loc 4 583 0
 759 0048 0097     		str	r7, [sp]
 760 004a 6423     		movs	r3, #100
 761 004c 0122     		movs	r2, #1
 762 004e 6821     		movs	r1, #104
 763 0050 2000     		movs	r0, r4
 764 0052 FFF7FEFF 		bl	Cy_SCB_I2C_MasterSendReStart
 765              	.LVL73:
 766              	.LBE73:
 767              	.LBE72:
  53:Accelerometer.h ****     // Start repeat condition, broadcast slave address + READ bit (1)
  54:Accelerometer.h ****     ret2 = I2C_MasterSendReStart(ACC_ADDRESS, CY_SCB_I2C_READ_XFER, 100);
 768              		.loc 5 54 0
 769 0056 0990     		str	r0, [sp, #36]
  55:Accelerometer.h ****     CyDelay(1);
 770              		.loc 5 55 0
 771 0058 0120     		movs	r0, #1
 772 005a FFF7FEFF 		bl	Cy_SysLib_Delay
 773              	.LVL74:
 774              	.LBB74:
 775              	.LBB75:
 609:Generated_Source\PSoC6/I2C.h **** }
 776              		.loc 4 609 0
 777 005e 0097     		str	r7, [sp]
ARM GAS  C:\Users\ASUS\AppData\Local\Temp\ccarWmgw.s 			page 35


 778 0060 6423     		movs	r3, #100
 779 0062 1522     		movs	r2, #21
 780 0064 6A44     		add	r2, r2, sp
 781 0066 0021     		movs	r1, #0
 782 0068 2000     		movs	r0, r4
 783 006a FFF7FEFF 		bl	Cy_SCB_I2C_MasterReadByte
 784              	.LVL75:
 785              	.LBE75:
 786              	.LBE74:
  56:Accelerometer.h ****     // Read from I2C device, put received byte in readBuf and send ack signal.
  57:Accelerometer.h ****     ret3 = I2C_MasterReadByte(CY_SCB_I2C_ACK, &(readBuf[1]), 100);
 787              		.loc 5 57 0
 788 006e 0890     		str	r0, [sp, #32]
  58:Accelerometer.h ****     CyDelay(1);
 789              		.loc 5 58 0
 790 0070 0120     		movs	r0, #1
 791 0072 FFF7FEFF 		bl	Cy_SysLib_Delay
 792              	.LVL76:
 793              	.LBB76:
 794              	.LBB77:
 609:Generated_Source\PSoC6/I2C.h **** }
 795              		.loc 4 609 0
 796 0076 0097     		str	r7, [sp]
 797 0078 6423     		movs	r3, #100
 798 007a 2A00     		movs	r2, r5
 799 007c 0121     		movs	r1, #1
 800 007e 2000     		movs	r0, r4
 801 0080 FFF7FEFF 		bl	Cy_SCB_I2C_MasterReadByte
 802              	.LVL77:
 803              	.LBE77:
 804              	.LBE76:
  59:Accelerometer.h ****     ret5 = I2C_MasterReadByte(CY_SCB_I2C_NAK, &(readBuf[0]), 100);
 805              		.loc 5 59 0
 806 0084 0690     		str	r0, [sp, #24]
  60:Accelerometer.h ****     CyDelay(1);
 807              		.loc 5 60 0
 808 0086 0120     		movs	r0, #1
 809 0088 FFF7FEFF 		bl	Cy_SysLib_Delay
 810              	.LVL78:
 811              	.LBB78:
 812              	.LBB79:
 596:Generated_Source\PSoC6/I2C.h **** }
 813              		.loc 4 596 0
 814 008c 3A00     		movs	r2, r7
 815 008e 6421     		movs	r1, #100
 816 0090 2000     		movs	r0, r4
 817 0092 FFF7FEFF 		bl	Cy_SCB_I2C_MasterSendStop
 818              	.LVL79:
 819              	.LBE79:
 820              	.LBE78:
  61:Accelerometer.h ****     // End I2C transaction
  62:Accelerometer.h ****     ret4 = I2C_MasterSendStop(100);
 821              		.loc 5 62 0
 822 0096 0790     		str	r0, [sp, #28]
  63:Accelerometer.h ****     
  64:Accelerometer.h ****     printf("SendStart: %X,"
 823              		.loc 5 64 0
ARM GAS  C:\Users\ASUS\AppData\Local\Temp\ccarWmgw.s 			page 36


 824 0098 0B99     		ldr	r1, [sp, #44]
 825 009a 0A9A     		ldr	r2, [sp, #40]
 826 009c 099B     		ldr	r3, [sp, #36]
 827 009e 0898     		ldr	r0, [sp, #32]
 828 00a0 069C     		ldr	r4, [sp, #24]
 829 00a2 079E     		ldr	r6, [sp, #28]
 830 00a4 0296     		str	r6, [sp, #8]
 831 00a6 0194     		str	r4, [sp, #4]
 832 00a8 0090     		str	r0, [sp]
 833 00aa 0648     		ldr	r0, .L27+8
 834 00ac FFF7FEFF 		bl	printf
 835              	.LVL80:
  65:Accelerometer.h **** 		    "WriteByte: %X,"
  66:Accelerometer.h **** 		    "SendReStart: %X,"
  67:Accelerometer.h **** 		    "ReadByte: %X,"
  68:Accelerometer.h ****             "ReadByte2: %X"
  69:Accelerometer.h **** 		    "SendStop: %X\r\n", ret0, ret1, ret2, ret3, ret5, ret4);
  70:Accelerometer.h ****     
  71:Accelerometer.h ****     //Start_Number = (Start_Number_High << 8) | (Start_Number_Low & 0xff);
  72:Accelerometer.h ****     return (readBuf[1] << 8) | (readBuf[0] & 0xff);
 836              		.loc 5 72 0
 837 00b0 6878     		ldrb	r0, [r5, #1]
 838 00b2 0002     		lsls	r0, r0, #8
 839 00b4 2B78     		ldrb	r3, [r5]
 840 00b6 1843     		orrs	r0, r3
  73:Accelerometer.h **** }
 841              		.loc 5 73 0
 842 00b8 0DB0     		add	sp, sp, #52
 843              		@ sp needed
 844 00ba F0BD     		pop	{r4, r5, r6, r7, pc}
 845              	.L28:
 846              		.align	2
 847              	.L27:
 848 00bc 00006740 		.word	1080492032
 849 00c0 00000000 		.word	I2C_context
 850 00c4 10000000 		.word	.LC8
 851              		.cfi_endproc
 852              	.LFE469:
 853              		.size	accI2CRead, .-accI2CRead
 854              		.section	.text.accI2CWrite,"ax",%progbits
 855              		.align	2
 856              		.global	accI2CWrite
 857              		.code	16
 858              		.thumb_func
 859              		.type	accI2CWrite, %function
 860              	accI2CWrite:
 861              	.LFB470:
  74:Accelerometer.h **** 
  75:Accelerometer.h **** void accI2CWrite(uint8_t reg, uint8_t value)
  76:Accelerometer.h **** {
 862              		.loc 5 76 0
 863              		.cfi_startproc
 864              		@ args = 0, pretend = 0, frame = 16
 865              		@ frame_needed = 0, uses_anonymous_args = 0
 866              	.LVL81:
 867 0000 F0B5     		push	{r4, r5, r6, r7, lr}
 868              		.cfi_def_cfa_offset 20
ARM GAS  C:\Users\ASUS\AppData\Local\Temp\ccarWmgw.s 			page 37


 869              		.cfi_offset 4, -20
 870              		.cfi_offset 5, -16
 871              		.cfi_offset 6, -12
 872              		.cfi_offset 7, -8
 873              		.cfi_offset 14, -4
 874 0002 87B0     		sub	sp, sp, #28
 875              		.cfi_def_cfa_offset 48
 876 0004 0700     		movs	r7, r0
 877 0006 0E00     		movs	r6, r1
  77:Accelerometer.h ****     volatile cy_en_scb_i2c_status_t ret0 = 0;
 878              		.loc 5 77 0
 879 0008 0023     		movs	r3, #0
 880 000a 0593     		str	r3, [sp, #20]
  78:Accelerometer.h ****     volatile cy_en_scb_i2c_status_t ret1 = 0;
 881              		.loc 5 78 0
 882 000c 0493     		str	r3, [sp, #16]
  79:Accelerometer.h ****     volatile cy_en_scb_i2c_status_t ret2 = 0;
 883              		.loc 5 79 0
 884 000e 0393     		str	r3, [sp, #12]
  80:Accelerometer.h ****     volatile cy_en_scb_i2c_status_t ret3 = 0;
 885              		.loc 5 80 0
 886 0010 0293     		str	r3, [sp, #8]
 887              	.LVL82:
 888              	.LBB80:
 889              	.LBB81:
 570:Generated_Source\PSoC6/I2C.h **** }
 890              		.loc 4 570 0
 891 0012 174C     		ldr	r4, .L30
 892 0014 174D     		ldr	r5, .L30+4
 893 0016 0095     		str	r5, [sp]
 894 0018 6433     		adds	r3, r3, #100
 895 001a 0022     		movs	r2, #0
 896 001c 6821     		movs	r1, #104
 897              	.LVL83:
 898 001e 2000     		movs	r0, r4
 899              	.LVL84:
 900 0020 FFF7FEFF 		bl	Cy_SCB_I2C_MasterSendStart
 901              	.LVL85:
 902              	.LBE81:
 903              	.LBE80:
  81:Accelerometer.h ****     
  82:Accelerometer.h ****     // Start I2C transaction
  83:Accelerometer.h ****     ret0 = I2C_MasterSendStart(ACC_ADDRESS, CY_SCB_I2C_WRITE_XFER, 100);
 904              		.loc 5 83 0
 905 0024 0590     		str	r0, [sp, #20]
  84:Accelerometer.h ****     CyDelay(1);
 906              		.loc 5 84 0
 907 0026 0120     		movs	r0, #1
 908 0028 FFF7FEFF 		bl	Cy_SysLib_Delay
 909              	.LVL86:
 910              	.LBB82:
 911              	.LBB83:
 912              		.loc 4 622 0
 913 002c 2B00     		movs	r3, r5
 914 002e 6422     		movs	r2, #100
 915 0030 3900     		movs	r1, r7
 916 0032 2000     		movs	r0, r4
ARM GAS  C:\Users\ASUS\AppData\Local\Temp\ccarWmgw.s 			page 38


 917 0034 FFF7FEFF 		bl	Cy_SCB_I2C_MasterWriteByte
 918              	.LVL87:
 919              	.LBE83:
 920              	.LBE82:
  85:Accelerometer.h ****     //Write to I2C device
  86:Accelerometer.h ****     ret1 = I2C_MasterWriteByte(reg, 100);
 921              		.loc 5 86 0
 922 0038 0490     		str	r0, [sp, #16]
 923              	.LVL88:
 924              	.LBB84:
 925              	.LBB85:
 926              		.loc 4 622 0
 927 003a 2B00     		movs	r3, r5
 928 003c 6422     		movs	r2, #100
 929 003e 3100     		movs	r1, r6
 930 0040 2000     		movs	r0, r4
 931 0042 FFF7FEFF 		bl	Cy_SCB_I2C_MasterWriteByte
 932              	.LVL89:
 933              	.LBE85:
 934              	.LBE84:
  87:Accelerometer.h ****     ret2 = I2C_MasterWriteByte(value, 100);
 935              		.loc 5 87 0
 936 0046 0390     		str	r0, [sp, #12]
  88:Accelerometer.h ****     CyDelay(1);
 937              		.loc 5 88 0
 938 0048 0120     		movs	r0, #1
 939 004a FFF7FEFF 		bl	Cy_SysLib_Delay
 940              	.LVL90:
 941              	.LBB86:
 942              	.LBB87:
 596:Generated_Source\PSoC6/I2C.h **** }
 943              		.loc 4 596 0
 944 004e 2A00     		movs	r2, r5
 945 0050 6421     		movs	r1, #100
 946 0052 2000     		movs	r0, r4
 947 0054 FFF7FEFF 		bl	Cy_SCB_I2C_MasterSendStop
 948              	.LVL91:
 949              	.LBE87:
 950              	.LBE86:
  89:Accelerometer.h ****     // End I2C transaction
  90:Accelerometer.h ****     ret3 = I2C_MasterSendStop(100);
 951              		.loc 5 90 0
 952 0058 0290     		str	r0, [sp, #8]
  91:Accelerometer.h ****     
  92:Accelerometer.h ****     printf("SendStart: %X, WriteByte: %X,%X, SendStop: %X\r\n", ret0, ret1,
 953              		.loc 5 92 0
 954 005a 0599     		ldr	r1, [sp, #20]
 955 005c 049A     		ldr	r2, [sp, #16]
 956 005e 039B     		ldr	r3, [sp, #12]
 957 0060 0298     		ldr	r0, [sp, #8]
 958 0062 0090     		str	r0, [sp]
 959 0064 0448     		ldr	r0, .L30+8
 960 0066 FFF7FEFF 		bl	printf
 961              	.LVL92:
  93:Accelerometer.h **** 		    ret2, ret3);
  94:Accelerometer.h **** }
 962              		.loc 5 94 0
ARM GAS  C:\Users\ASUS\AppData\Local\Temp\ccarWmgw.s 			page 39


 963 006a 07B0     		add	sp, sp, #28
 964              		@ sp needed
 965 006c F0BD     		pop	{r4, r5, r6, r7, pc}
 966              	.L31:
 967 006e C046     		.align	2
 968              	.L30:
 969 0070 00006740 		.word	1080492032
 970 0074 00000000 		.word	I2C_context
 971 0078 68000000 		.word	.LC11
 972              		.cfi_endproc
 973              	.LFE470:
 974              		.size	accI2CWrite, .-accI2CWrite
 975              		.section	.text.accMeasure,"ax",%progbits
 976              		.align	2
 977              		.global	accMeasure
 978              		.code	16
 979              		.thumb_func
 980              		.type	accMeasure, %function
 981              	accMeasure:
 982              	.LFB471:
  95:Accelerometer.h **** 
  96:Accelerometer.h **** void accMeasure(uint16_t *accX, uint16_t *accY, uint16_t *accZ)
  97:Accelerometer.h **** {
 983              		.loc 5 97 0
 984              		.cfi_startproc
 985              		@ args = 0, pretend = 0, frame = 0
 986              		@ frame_needed = 0, uses_anonymous_args = 0
 987              	.LVL93:
 988 0000 70B5     		push	{r4, r5, r6, lr}
 989              		.cfi_def_cfa_offset 16
 990              		.cfi_offset 4, -16
 991              		.cfi_offset 5, -12
 992              		.cfi_offset 6, -8
 993              		.cfi_offset 14, -4
 994 0002 0600     		movs	r6, r0
 995 0004 0D00     		movs	r5, r1
 996 0006 1400     		movs	r4, r2
  98:Accelerometer.h ****     /* Read completed conversions */
  99:Accelerometer.h ****     *accX       = accI2CRead(XACCEL_H);
 997              		.loc 5 99 0
 998 0008 2D20     		movs	r0, #45
 999              	.LVL94:
 1000 000a FFF7FEFF 		bl	accI2CRead
 1001              	.LVL95:
 1002 000e 3080     		strh	r0, [r6]
 100:Accelerometer.h ****     *accY       = accI2CRead(YACCEL_H);
 1003              		.loc 5 100 0
 1004 0010 2F20     		movs	r0, #47
 1005 0012 FFF7FEFF 		bl	accI2CRead
 1006              	.LVL96:
 1007 0016 2880     		strh	r0, [r5]
 101:Accelerometer.h ****     *accZ       = accI2CRead(ZACCEL_H);
 1008              		.loc 5 101 0
 1009 0018 3120     		movs	r0, #49
 1010 001a FFF7FEFF 		bl	accI2CRead
 1011              	.LVL97:
 1012 001e 2080     		strh	r0, [r4]
ARM GAS  C:\Users\ASUS\AppData\Local\Temp\ccarWmgw.s 			page 40


 102:Accelerometer.h **** }
 1013              		.loc 5 102 0
 1014              		@ sp needed
 1015              	.LVL98:
 1016              	.LVL99:
 1017              	.LVL100:
 1018 0020 70BD     		pop	{r4, r5, r6, pc}
 1019              		.cfi_endproc
 1020              	.LFE471:
 1021              		.size	accMeasure, .-accMeasure
 1022 0022 C046     		.section	.text.gyroMeasure,"ax",%progbits
 1023              		.align	2
 1024              		.global	gyroMeasure
 1025              		.code	16
 1026              		.thumb_func
 1027              		.type	gyroMeasure, %function
 1028              	gyroMeasure:
 1029              	.LFB472:
 103:Accelerometer.h **** 
 104:Accelerometer.h **** void gyroMeasure(uint16_t *gyroX, uint16_t *gyroY, uint16_t *gyroZ)
 105:Accelerometer.h **** {
 1030              		.loc 5 105 0
 1031              		.cfi_startproc
 1032              		@ args = 0, pretend = 0, frame = 0
 1033              		@ frame_needed = 0, uses_anonymous_args = 0
 1034              	.LVL101:
 1035 0000 70B5     		push	{r4, r5, r6, lr}
 1036              		.cfi_def_cfa_offset 16
 1037              		.cfi_offset 4, -16
 1038              		.cfi_offset 5, -12
 1039              		.cfi_offset 6, -8
 1040              		.cfi_offset 14, -4
 1041 0002 0600     		movs	r6, r0
 1042 0004 0D00     		movs	r5, r1
 1043 0006 1400     		movs	r4, r2
 106:Accelerometer.h ****     /* Read completed conversions */
 107:Accelerometer.h ****     *gyroX       = accI2CRead(XGYRO_H);
 1044              		.loc 5 107 0
 1045 0008 3320     		movs	r0, #51
 1046              	.LVL102:
 1047 000a FFF7FEFF 		bl	accI2CRead
 1048              	.LVL103:
 1049 000e 3080     		strh	r0, [r6]
 108:Accelerometer.h ****     *gyroY       = accI2CRead(YGYRO_H);
 1050              		.loc 5 108 0
 1051 0010 3520     		movs	r0, #53
 1052 0012 FFF7FEFF 		bl	accI2CRead
 1053              	.LVL104:
 1054 0016 2880     		strh	r0, [r5]
 109:Accelerometer.h ****     *gyroZ       = accI2CRead(ZGYRO_H);
 1055              		.loc 5 109 0
 1056 0018 3720     		movs	r0, #55
 1057 001a FFF7FEFF 		bl	accI2CRead
 1058              	.LVL105:
 1059 001e 2080     		strh	r0, [r4]
 110:Accelerometer.h **** }
 1060              		.loc 5 110 0
ARM GAS  C:\Users\ASUS\AppData\Local\Temp\ccarWmgw.s 			page 41


 1061              		@ sp needed
 1062              	.LVL106:
 1063              	.LVL107:
 1064              	.LVL108:
 1065 0020 70BD     		pop	{r4, r5, r6, pc}
 1066              		.cfi_endproc
 1067              	.LFE472:
 1068              		.size	gyroMeasure, .-gyroMeasure
 1069 0022 C046     		.section	.text.accPrint,"ax",%progbits
 1070              		.align	2
 1071              		.global	accPrint
 1072              		.code	16
 1073              		.thumb_func
 1074              		.type	accPrint, %function
 1075              	accPrint:
 1076              	.LFB473:
 111:Accelerometer.h **** 
 112:Accelerometer.h **** void accPrint(uint16_t x, uint16_t y, uint16_t z)
 113:Accelerometer.h **** {
 1077              		.loc 5 113 0
 1078              		.cfi_startproc
 1079              		@ args = 0, pretend = 0, frame = 0
 1080              		@ frame_needed = 0, uses_anonymous_args = 0
 1081              	.LVL109:
 1082 0000 10B5     		push	{r4, lr}
 1083              		.cfi_def_cfa_offset 8
 1084              		.cfi_offset 4, -8
 1085              		.cfi_offset 14, -4
 1086 0002 1300     		movs	r3, r2
 114:Accelerometer.h ****     printf("\r\n\r\nAccelerometer Data:\r\n"
 1087              		.loc 5 114 0
 1088 0004 0A00     		movs	r2, r1
 1089              	.LVL110:
 1090 0006 0100     		movs	r1, r0
 1091              	.LVL111:
 1092 0008 0148     		ldr	r0, .L35
 1093              	.LVL112:
 1094 000a FFF7FEFF 		bl	printf
 1095              	.LVL113:
 115:Accelerometer.h ****         "X Acceleration: %d\r\n"
 116:Accelerometer.h ****         "Y Acceleration: %d\r\n"
 117:Accelerometer.h ****         "Z Acceleration: %d\r\n", x, y, z);
 118:Accelerometer.h **** }
 1096              		.loc 5 118 0
 1097              		@ sp needed
 1098 000e 10BD     		pop	{r4, pc}
 1099              	.L36:
 1100              		.align	2
 1101              	.L35:
 1102 0010 F4000000 		.word	.LC20
 1103              		.cfi_endproc
 1104              	.LFE473:
 1105              		.size	accPrint, .-accPrint
 1106              		.section	.text.gyroPrint,"ax",%progbits
 1107              		.align	2
 1108              		.global	gyroPrint
 1109              		.code	16
ARM GAS  C:\Users\ASUS\AppData\Local\Temp\ccarWmgw.s 			page 42


 1110              		.thumb_func
 1111              		.type	gyroPrint, %function
 1112              	gyroPrint:
 1113              	.LFB474:
 119:Accelerometer.h **** 
 120:Accelerometer.h **** void gyroPrint(uint16_t x, uint16_t y, uint16_t z)
 121:Accelerometer.h **** {
 1114              		.loc 5 121 0
 1115              		.cfi_startproc
 1116              		@ args = 0, pretend = 0, frame = 0
 1117              		@ frame_needed = 0, uses_anonymous_args = 0
 1118              	.LVL114:
 1119 0000 10B5     		push	{r4, lr}
 1120              		.cfi_def_cfa_offset 8
 1121              		.cfi_offset 4, -8
 1122              		.cfi_offset 14, -4
 1123 0002 1300     		movs	r3, r2
 122:Accelerometer.h ****     printf("\r\n\r\nGyroscope Data:\r\n"
 1124              		.loc 5 122 0
 1125 0004 0A00     		movs	r2, r1
 1126              	.LVL115:
 1127 0006 0100     		movs	r1, r0
 1128              	.LVL116:
 1129 0008 0148     		ldr	r0, .L38
 1130              	.LVL117:
 1131 000a FFF7FEFF 		bl	printf
 1132              	.LVL118:
 123:Accelerometer.h ****         "X Gyroscope: %d\r\n"
 124:Accelerometer.h ****         "Y Gyroscope: %d\r\n"
 125:Accelerometer.h ****         "Z Gyroscope: %d\r\n", x, y, z);
 126:Accelerometer.h **** }
 1133              		.loc 5 126 0
 1134              		@ sp needed
 1135 000e 10BD     		pop	{r4, pc}
 1136              	.L39:
 1137              		.align	2
 1138              	.L38:
 1139 0010 4C010000 		.word	.LC22
 1140              		.cfi_endproc
 1141              	.LFE474:
 1142              		.size	gyroPrint, .-gyroPrint
 1143              		.section	.text.RtcInit,"ax",%progbits
 1144              		.align	2
 1145              		.global	RtcInit
 1146              		.code	16
 1147              		.thumb_func
 1148              		.type	RtcInit, %function
 1149              	RtcInit:
 1150              	.LFB476:
 123:RTC_Alarm.h   ****     uint32_t attempts = MAX_ATTEMPTS;
 1151              		.loc 2 123 0
 1152              		.cfi_startproc
 1153              		@ args = 0, pretend = 0, frame = 0
 1154              		@ frame_needed = 0, uses_anonymous_args = 0
 1155 0000 70B5     		push	{r4, r5, r6, lr}
 1156              		.cfi_def_cfa_offset 16
 1157              		.cfi_offset 4, -16
ARM GAS  C:\Users\ASUS\AppData\Local\Temp\ccarWmgw.s 			page 43


 1158              		.cfi_offset 5, -12
 1159              		.cfi_offset 6, -8
 1160              		.cfi_offset 14, -4
 1161              	.LVL119:
 124:RTC_Alarm.h   ****     cy_en_rtc_status_t result;
 1162              		.loc 2 124 0
 1163 0002 FA24     		movs	r4, #250
 1164 0004 6400     		lsls	r4, r4, #1
 1165              	.LVL120:
 1166              	.L42:
 131:RTC_Alarm.h   ****         attempts--;
 1167              		.loc 2 131 0 discriminator 2
 1168 0006 0748     		ldr	r0, .L43
 1169 0008 FFF7FEFF 		bl	Cy_RTC_Init
 1170              	.LVL121:
 1171 000c 0500     		movs	r5, r0
 1172              	.LVL122:
 132:RTC_Alarm.h   ****         
 1173              		.loc 2 132 0 discriminator 2
 1174 000e 013C     		subs	r4, r4, #1
 1175              	.LVL123:
 134:RTC_Alarm.h   ****     } while(( result != CY_RTC_SUCCESS) && (attempts != 0u));
 1176              		.loc 2 134 0 discriminator 2
 1177 0010 0520     		movs	r0, #5
 1178              	.LVL124:
 1179 0012 FFF7FEFF 		bl	Cy_SysLib_Delay
 1180              	.LVL125:
 135:RTC_Alarm.h   ****     
 1181              		.loc 2 135 0 discriminator 2
 1182 0016 002D     		cmp	r5, #0
 1183 0018 01D0     		beq	.L41
 135:RTC_Alarm.h   ****     
 1184              		.loc 2 135 0 is_stmt 0 discriminator 1
 1185 001a 002C     		cmp	r4, #0
 1186 001c F3D1     		bne	.L42
 1187              	.L41:
 138:RTC_Alarm.h   **** 
 1188              		.loc 2 138 0 is_stmt 1
 1189 001e 2800     		movs	r0, r5
 1190              		@ sp needed
 1191              	.LVL126:
 1192              	.LVL127:
 1193 0020 70BD     		pop	{r4, r5, r6, pc}
 1194              	.L44:
 1195 0022 C046     		.align	2
 1196              	.L43:
 1197 0024 00000000 		.word	RTC_config
 1198              		.cfi_endproc
 1199              	.LFE476:
 1200              		.size	RtcInit, .-RtcInit
 1201              		.section	.text.RtcAlarmConfig,"ax",%progbits
 1202              		.align	2
 1203              		.global	RtcAlarmConfig
 1204              		.code	16
 1205              		.thumb_func
 1206              		.type	RtcAlarmConfig, %function
 1207              	RtcAlarmConfig:
ARM GAS  C:\Users\ASUS\AppData\Local\Temp\ccarWmgw.s 			page 44


 1208              	.LFB477:
 159:RTC_Alarm.h   ****     uint32_t attempts = MAX_ATTEMPTS;
 1209              		.loc 2 159 0
 1210              		.cfi_startproc
 1211              		@ args = 0, pretend = 0, frame = 0
 1212              		@ frame_needed = 0, uses_anonymous_args = 0
 1213 0000 70B5     		push	{r4, r5, r6, lr}
 1214              		.cfi_def_cfa_offset 16
 1215              		.cfi_offset 4, -16
 1216              		.cfi_offset 5, -12
 1217              		.cfi_offset 6, -8
 1218              		.cfi_offset 14, -4
 1219              	.LVL128:
 160:RTC_Alarm.h   ****     cy_en_rtc_status_t result;
 1220              		.loc 2 160 0
 1221 0002 FA24     		movs	r4, #250
 1222 0004 6400     		lsls	r4, r4, #1
 1223              	.LVL129:
 1224              	.L47:
 169:RTC_Alarm.h   **** 		attempts--;
 1225              		.loc 2 169 0 discriminator 2
 1226 0006 0121     		movs	r1, #1
 1227 0008 0648     		ldr	r0, .L48
 1228 000a FFF7FEFF 		bl	Cy_RTC_SetAlarmDateAndTime
 1229              	.LVL130:
 1230 000e 0500     		movs	r5, r0
 1231              	.LVL131:
 170:RTC_Alarm.h   ****         
 1232              		.loc 2 170 0 discriminator 2
 1233 0010 013C     		subs	r4, r4, #1
 1234              	.LVL132:
 172:RTC_Alarm.h   ****     } while(( result != CY_RTC_SUCCESS) && (attempts != 0u));
 1235              		.loc 2 172 0 discriminator 2
 1236 0012 0520     		movs	r0, #5
 1237              	.LVL133:
 1238 0014 FFF7FEFF 		bl	Cy_SysLib_Delay
 1239              	.LVL134:
 173:RTC_Alarm.h   ****     
 1240              		.loc 2 173 0 discriminator 2
 1241 0018 002D     		cmp	r5, #0
 1242 001a 01D0     		beq	.L46
 173:RTC_Alarm.h   ****     
 1243              		.loc 2 173 0 is_stmt 0 discriminator 1
 1244 001c 002C     		cmp	r4, #0
 1245 001e F2D1     		bne	.L47
 1246              	.L46:
 176:RTC_Alarm.h   **** 
 1247              		.loc 2 176 0 is_stmt 1
 1248 0020 2800     		movs	r0, r5
 1249              		@ sp needed
 1250              	.LVL135:
 1251              	.LVL136:
 1252 0022 70BD     		pop	{r4, r5, r6, pc}
 1253              	.L49:
 1254              		.align	2
 1255              	.L48:
 1256 0024 00000000 		.word	.LANCHOR1
ARM GAS  C:\Users\ASUS\AppData\Local\Temp\ccarWmgw.s 			page 45


 1257              		.cfi_endproc
 1258              	.LFE477:
 1259              		.size	RtcAlarmConfig, .-RtcAlarmConfig
 1260              		.section	.text.init_RTC,"ax",%progbits
 1261              		.align	2
 1262              		.global	init_RTC
 1263              		.code	16
 1264              		.thumb_func
 1265              		.type	init_RTC, %function
 1266              	init_RTC:
 1267              	.LFB475:
  67:RTC_Alarm.h   ****     /* Init RTC - Configure the time and date */
 1268              		.loc 2 67 0
 1269              		.cfi_startproc
 1270              		@ args = 0, pretend = 0, frame = 0
 1271              		@ frame_needed = 0, uses_anonymous_args = 0
 1272 0000 10B5     		push	{r4, lr}
 1273              		.cfi_def_cfa_offset 8
 1274              		.cfi_offset 4, -8
 1275              		.cfi_offset 14, -4
  69:RTC_Alarm.h   ****     {
 1276              		.loc 2 69 0
 1277 0002 FFF7FEFF 		bl	RtcInit
 1278              	.LVL137:
 1279 0006 0028     		cmp	r0, #0
 1280 0008 04D0     		beq	.L51
  72:RTC_Alarm.h   ****     }
 1281              		.loc 2 72 0 discriminator 1
 1282 000a 4821     		movs	r1, #72
 1283 000c 0F48     		ldr	r0, .L55
 1284 000e FFF7FEFF 		bl	Cy_SysLib_AssertFailed
 1285              	.LVL138:
 1286 0012 0BE0     		b	.L52
 1287              	.L51:
  88:RTC_Alarm.h   ****         {
 1288              		.loc 2 88 0
 1289 0014 FFF7FEFF 		bl	RtcAlarmConfig
 1290              	.LVL139:
 1291 0018 0028     		cmp	r0, #0
 1292 001a 04D0     		beq	.L53
  91:RTC_Alarm.h   ****         }
 1293              		.loc 2 91 0 discriminator 1
 1294 001c 5B21     		movs	r1, #91
 1295 001e 0B48     		ldr	r0, .L55
 1296 0020 FFF7FEFF 		bl	Cy_SysLib_AssertFailed
 1297              	.LVL140:
 1298 0024 02E0     		b	.L52
 1299              	.L53:
  96:RTC_Alarm.h   ****         }
 1300              		.loc 2 96 0
 1301 0026 0220     		movs	r0, #2
 1302 0028 FFF7FEFF 		bl	Cy_RTC_SetInterruptMask
 1303              	.LVL141:
 1304              	.L52:
 101:RTC_Alarm.h   ****     NVIC_EnableIRQ(RTC_RTC_IRQ_cfg.intrSrc);
 1305              		.loc 2 101 0
 1306 002c 084C     		ldr	r4, .L55+4
ARM GAS  C:\Users\ASUS\AppData\Local\Temp\ccarWmgw.s 			page 46


 1307 002e 0949     		ldr	r1, .L55+8
 1308 0030 2000     		movs	r0, r4
 1309 0032 FFF7FEFF 		bl	Cy_SysInt_Init
 1310              	.LVL142:
 102:RTC_Alarm.h   **** }
 1311              		.loc 2 102 0
 1312 0036 0023     		movs	r3, #0
 1313 0038 E25E     		ldrsh	r2, [r4, r3]
 1314              	.LVL143:
 1315              	.LBB88:
 1316              	.LBB89:
 1317              		.file 6 "Generated_Source\\PSoC6\\pdl\\cmsis/include/core_cm0plus.h"
   1:Generated_Source\PSoC6\pdl\cmsis/include/core_cm0plus.h **** /**************************************************************************//**
   2:Generated_Source\PSoC6\pdl\cmsis/include/core_cm0plus.h ****  * @file     core_cm0plus.h
   3:Generated_Source\PSoC6\pdl\cmsis/include/core_cm0plus.h ****  * @brief    CMSIS Cortex-M0+ Core Peripheral Access Layer Header File
   4:Generated_Source\PSoC6\pdl\cmsis/include/core_cm0plus.h ****  * @version  V5.0.4
   5:Generated_Source\PSoC6\pdl\cmsis/include/core_cm0plus.h ****  * @date     10. January 2018
   6:Generated_Source\PSoC6\pdl\cmsis/include/core_cm0plus.h ****  ******************************************************************************/
   7:Generated_Source\PSoC6\pdl\cmsis/include/core_cm0plus.h **** /*
   8:Generated_Source\PSoC6\pdl\cmsis/include/core_cm0plus.h ****  * Copyright (c) 2009-2018 Arm Limited. All rights reserved.
   9:Generated_Source\PSoC6\pdl\cmsis/include/core_cm0plus.h ****  *
  10:Generated_Source\PSoC6\pdl\cmsis/include/core_cm0plus.h ****  * SPDX-License-Identifier: Apache-2.0
  11:Generated_Source\PSoC6\pdl\cmsis/include/core_cm0plus.h ****  *
  12:Generated_Source\PSoC6\pdl\cmsis/include/core_cm0plus.h ****  * Licensed under the Apache License, Version 2.0 (the License); you may
  13:Generated_Source\PSoC6\pdl\cmsis/include/core_cm0plus.h ****  * not use this file except in compliance with the License.
  14:Generated_Source\PSoC6\pdl\cmsis/include/core_cm0plus.h ****  * You may obtain a copy of the License at
  15:Generated_Source\PSoC6\pdl\cmsis/include/core_cm0plus.h ****  *
  16:Generated_Source\PSoC6\pdl\cmsis/include/core_cm0plus.h ****  * www.apache.org/licenses/LICENSE-2.0
  17:Generated_Source\PSoC6\pdl\cmsis/include/core_cm0plus.h ****  *
  18:Generated_Source\PSoC6\pdl\cmsis/include/core_cm0plus.h ****  * Unless required by applicable law or agreed to in writing, software
  19:Generated_Source\PSoC6\pdl\cmsis/include/core_cm0plus.h ****  * distributed under the License is distributed on an AS IS BASIS, WITHOUT
  20:Generated_Source\PSoC6\pdl\cmsis/include/core_cm0plus.h ****  * WARRANTIES OR CONDITIONS OF ANY KIND, either express or implied.
  21:Generated_Source\PSoC6\pdl\cmsis/include/core_cm0plus.h ****  * See the License for the specific language governing permissions and
  22:Generated_Source\PSoC6\pdl\cmsis/include/core_cm0plus.h ****  * limitations under the License.
  23:Generated_Source\PSoC6\pdl\cmsis/include/core_cm0plus.h ****  */
  24:Generated_Source\PSoC6\pdl\cmsis/include/core_cm0plus.h **** 
  25:Generated_Source\PSoC6\pdl\cmsis/include/core_cm0plus.h **** #if   defined ( __ICCARM__ )
  26:Generated_Source\PSoC6\pdl\cmsis/include/core_cm0plus.h ****   #pragma system_include         /* treat file as system include file for MISRA check */
  27:Generated_Source\PSoC6\pdl\cmsis/include/core_cm0plus.h **** #elif defined (__clang__)
  28:Generated_Source\PSoC6\pdl\cmsis/include/core_cm0plus.h ****   #pragma clang system_header   /* treat file as system include file */
  29:Generated_Source\PSoC6\pdl\cmsis/include/core_cm0plus.h **** #endif
  30:Generated_Source\PSoC6\pdl\cmsis/include/core_cm0plus.h **** 
  31:Generated_Source\PSoC6\pdl\cmsis/include/core_cm0plus.h **** #ifndef __CORE_CM0PLUS_H_GENERIC
  32:Generated_Source\PSoC6\pdl\cmsis/include/core_cm0plus.h **** #define __CORE_CM0PLUS_H_GENERIC
  33:Generated_Source\PSoC6\pdl\cmsis/include/core_cm0plus.h **** 
  34:Generated_Source\PSoC6\pdl\cmsis/include/core_cm0plus.h **** #include <stdint.h>
  35:Generated_Source\PSoC6\pdl\cmsis/include/core_cm0plus.h **** 
  36:Generated_Source\PSoC6\pdl\cmsis/include/core_cm0plus.h **** #ifdef __cplusplus
  37:Generated_Source\PSoC6\pdl\cmsis/include/core_cm0plus.h ****  extern "C" {
  38:Generated_Source\PSoC6\pdl\cmsis/include/core_cm0plus.h **** #endif
  39:Generated_Source\PSoC6\pdl\cmsis/include/core_cm0plus.h **** 
  40:Generated_Source\PSoC6\pdl\cmsis/include/core_cm0plus.h **** /**
  41:Generated_Source\PSoC6\pdl\cmsis/include/core_cm0plus.h ****   \page CMSIS_MISRA_Exceptions  MISRA-C:2004 Compliance Exceptions
  42:Generated_Source\PSoC6\pdl\cmsis/include/core_cm0plus.h ****   CMSIS violates the following MISRA-C:2004 rules:
  43:Generated_Source\PSoC6\pdl\cmsis/include/core_cm0plus.h **** 
  44:Generated_Source\PSoC6\pdl\cmsis/include/core_cm0plus.h ****    \li Required Rule 8.5, object/function definition in header file.<br>
  45:Generated_Source\PSoC6\pdl\cmsis/include/core_cm0plus.h ****      Function definitions in header files are used to allow 'inlining'.
ARM GAS  C:\Users\ASUS\AppData\Local\Temp\ccarWmgw.s 			page 47


  46:Generated_Source\PSoC6\pdl\cmsis/include/core_cm0plus.h **** 
  47:Generated_Source\PSoC6\pdl\cmsis/include/core_cm0plus.h ****    \li Required Rule 18.4, declaration of union type or object of union type: '{...}'.<br>
  48:Generated_Source\PSoC6\pdl\cmsis/include/core_cm0plus.h ****      Unions are used for effective representation of core registers.
  49:Generated_Source\PSoC6\pdl\cmsis/include/core_cm0plus.h **** 
  50:Generated_Source\PSoC6\pdl\cmsis/include/core_cm0plus.h ****    \li Advisory Rule 19.7, Function-like macro defined.<br>
  51:Generated_Source\PSoC6\pdl\cmsis/include/core_cm0plus.h ****      Function-like macros are used to allow more efficient code.
  52:Generated_Source\PSoC6\pdl\cmsis/include/core_cm0plus.h ****  */
  53:Generated_Source\PSoC6\pdl\cmsis/include/core_cm0plus.h **** 
  54:Generated_Source\PSoC6\pdl\cmsis/include/core_cm0plus.h **** 
  55:Generated_Source\PSoC6\pdl\cmsis/include/core_cm0plus.h **** /*******************************************************************************
  56:Generated_Source\PSoC6\pdl\cmsis/include/core_cm0plus.h ****  *                 CMSIS definitions
  57:Generated_Source\PSoC6\pdl\cmsis/include/core_cm0plus.h ****  ******************************************************************************/
  58:Generated_Source\PSoC6\pdl\cmsis/include/core_cm0plus.h **** /**
  59:Generated_Source\PSoC6\pdl\cmsis/include/core_cm0plus.h ****   \ingroup Cortex-M0+
  60:Generated_Source\PSoC6\pdl\cmsis/include/core_cm0plus.h ****   @{
  61:Generated_Source\PSoC6\pdl\cmsis/include/core_cm0plus.h ****  */
  62:Generated_Source\PSoC6\pdl\cmsis/include/core_cm0plus.h **** 
  63:Generated_Source\PSoC6\pdl\cmsis/include/core_cm0plus.h **** #include "cmsis_version.h"
  64:Generated_Source\PSoC6\pdl\cmsis/include/core_cm0plus.h ****  
  65:Generated_Source\PSoC6\pdl\cmsis/include/core_cm0plus.h **** /*  CMSIS CM0+ definitions */
  66:Generated_Source\PSoC6\pdl\cmsis/include/core_cm0plus.h **** #define __CM0PLUS_CMSIS_VERSION_MAIN (__CM_CMSIS_VERSION_MAIN)                  /*!< \deprecated [3
  67:Generated_Source\PSoC6\pdl\cmsis/include/core_cm0plus.h **** #define __CM0PLUS_CMSIS_VERSION_SUB  (__CM_CMSIS_VERSION_SUB)                   /*!< \deprecated [1
  68:Generated_Source\PSoC6\pdl\cmsis/include/core_cm0plus.h **** #define __CM0PLUS_CMSIS_VERSION      ((__CM0PLUS_CMSIS_VERSION_MAIN << 16U) | \
  69:Generated_Source\PSoC6\pdl\cmsis/include/core_cm0plus.h ****                                        __CM0PLUS_CMSIS_VERSION_SUB           )  /*!< \deprecated CM
  70:Generated_Source\PSoC6\pdl\cmsis/include/core_cm0plus.h **** 
  71:Generated_Source\PSoC6\pdl\cmsis/include/core_cm0plus.h **** #define __CORTEX_M                   (0U)                                       /*!< Cortex-M Core 
  72:Generated_Source\PSoC6\pdl\cmsis/include/core_cm0plus.h **** 
  73:Generated_Source\PSoC6\pdl\cmsis/include/core_cm0plus.h **** /** __FPU_USED indicates whether an FPU is used or not.
  74:Generated_Source\PSoC6\pdl\cmsis/include/core_cm0plus.h ****     This core does not support an FPU at all
  75:Generated_Source\PSoC6\pdl\cmsis/include/core_cm0plus.h **** */
  76:Generated_Source\PSoC6\pdl\cmsis/include/core_cm0plus.h **** #define __FPU_USED       0U
  77:Generated_Source\PSoC6\pdl\cmsis/include/core_cm0plus.h **** 
  78:Generated_Source\PSoC6\pdl\cmsis/include/core_cm0plus.h **** #if defined ( __CC_ARM )
  79:Generated_Source\PSoC6\pdl\cmsis/include/core_cm0plus.h ****   #if defined __TARGET_FPU_VFP
  80:Generated_Source\PSoC6\pdl\cmsis/include/core_cm0plus.h ****     #error "Compiler generates FPU instructions for a device without an FPU (check __FPU_PRESENT)"
  81:Generated_Source\PSoC6\pdl\cmsis/include/core_cm0plus.h ****   #endif
  82:Generated_Source\PSoC6\pdl\cmsis/include/core_cm0plus.h **** 
  83:Generated_Source\PSoC6\pdl\cmsis/include/core_cm0plus.h **** #elif defined (__ARMCC_VERSION) && (__ARMCC_VERSION >= 6010050)
  84:Generated_Source\PSoC6\pdl\cmsis/include/core_cm0plus.h ****   #if defined __ARM_PCS_VFP
  85:Generated_Source\PSoC6\pdl\cmsis/include/core_cm0plus.h ****     #error "Compiler generates FPU instructions for a device without an FPU (check __FPU_PRESENT)"
  86:Generated_Source\PSoC6\pdl\cmsis/include/core_cm0plus.h ****   #endif
  87:Generated_Source\PSoC6\pdl\cmsis/include/core_cm0plus.h **** 
  88:Generated_Source\PSoC6\pdl\cmsis/include/core_cm0plus.h **** #elif defined ( __GNUC__ )
  89:Generated_Source\PSoC6\pdl\cmsis/include/core_cm0plus.h ****   #if defined (__VFP_FP__) && !defined(__SOFTFP__)
  90:Generated_Source\PSoC6\pdl\cmsis/include/core_cm0plus.h ****     #error "Compiler generates FPU instructions for a device without an FPU (check __FPU_PRESENT)"
  91:Generated_Source\PSoC6\pdl\cmsis/include/core_cm0plus.h ****   #endif
  92:Generated_Source\PSoC6\pdl\cmsis/include/core_cm0plus.h **** 
  93:Generated_Source\PSoC6\pdl\cmsis/include/core_cm0plus.h **** #elif defined ( __ICCARM__ )
  94:Generated_Source\PSoC6\pdl\cmsis/include/core_cm0plus.h ****   #if defined __ARMVFP__
  95:Generated_Source\PSoC6\pdl\cmsis/include/core_cm0plus.h ****     #error "Compiler generates FPU instructions for a device without an FPU (check __FPU_PRESENT)"
  96:Generated_Source\PSoC6\pdl\cmsis/include/core_cm0plus.h ****   #endif
  97:Generated_Source\PSoC6\pdl\cmsis/include/core_cm0plus.h **** 
  98:Generated_Source\PSoC6\pdl\cmsis/include/core_cm0plus.h **** #elif defined ( __TI_ARM__ )
  99:Generated_Source\PSoC6\pdl\cmsis/include/core_cm0plus.h ****   #if defined __TI_VFP_SUPPORT__
 100:Generated_Source\PSoC6\pdl\cmsis/include/core_cm0plus.h ****     #error "Compiler generates FPU instructions for a device without an FPU (check __FPU_PRESENT)"
 101:Generated_Source\PSoC6\pdl\cmsis/include/core_cm0plus.h ****   #endif
 102:Generated_Source\PSoC6\pdl\cmsis/include/core_cm0plus.h **** 
ARM GAS  C:\Users\ASUS\AppData\Local\Temp\ccarWmgw.s 			page 48


 103:Generated_Source\PSoC6\pdl\cmsis/include/core_cm0plus.h **** #elif defined ( __TASKING__ )
 104:Generated_Source\PSoC6\pdl\cmsis/include/core_cm0plus.h ****   #if defined __FPU_VFP__
 105:Generated_Source\PSoC6\pdl\cmsis/include/core_cm0plus.h ****     #error "Compiler generates FPU instructions for a device without an FPU (check __FPU_PRESENT)"
 106:Generated_Source\PSoC6\pdl\cmsis/include/core_cm0plus.h ****   #endif
 107:Generated_Source\PSoC6\pdl\cmsis/include/core_cm0plus.h **** 
 108:Generated_Source\PSoC6\pdl\cmsis/include/core_cm0plus.h **** #elif defined ( __CSMC__ )
 109:Generated_Source\PSoC6\pdl\cmsis/include/core_cm0plus.h ****   #if ( __CSMC__ & 0x400U)
 110:Generated_Source\PSoC6\pdl\cmsis/include/core_cm0plus.h ****     #error "Compiler generates FPU instructions for a device without an FPU (check __FPU_PRESENT)"
 111:Generated_Source\PSoC6\pdl\cmsis/include/core_cm0plus.h ****   #endif
 112:Generated_Source\PSoC6\pdl\cmsis/include/core_cm0plus.h **** 
 113:Generated_Source\PSoC6\pdl\cmsis/include/core_cm0plus.h **** #endif
 114:Generated_Source\PSoC6\pdl\cmsis/include/core_cm0plus.h **** 
 115:Generated_Source\PSoC6\pdl\cmsis/include/core_cm0plus.h **** #include "cmsis_compiler.h"               /* CMSIS compiler specific defines */
 116:Generated_Source\PSoC6\pdl\cmsis/include/core_cm0plus.h **** 
 117:Generated_Source\PSoC6\pdl\cmsis/include/core_cm0plus.h **** 
 118:Generated_Source\PSoC6\pdl\cmsis/include/core_cm0plus.h **** #ifdef __cplusplus
 119:Generated_Source\PSoC6\pdl\cmsis/include/core_cm0plus.h **** }
 120:Generated_Source\PSoC6\pdl\cmsis/include/core_cm0plus.h **** #endif
 121:Generated_Source\PSoC6\pdl\cmsis/include/core_cm0plus.h **** 
 122:Generated_Source\PSoC6\pdl\cmsis/include/core_cm0plus.h **** #endif /* __CORE_CM0PLUS_H_GENERIC */
 123:Generated_Source\PSoC6\pdl\cmsis/include/core_cm0plus.h **** 
 124:Generated_Source\PSoC6\pdl\cmsis/include/core_cm0plus.h **** #ifndef __CMSIS_GENERIC
 125:Generated_Source\PSoC6\pdl\cmsis/include/core_cm0plus.h **** 
 126:Generated_Source\PSoC6\pdl\cmsis/include/core_cm0plus.h **** #ifndef __CORE_CM0PLUS_H_DEPENDANT
 127:Generated_Source\PSoC6\pdl\cmsis/include/core_cm0plus.h **** #define __CORE_CM0PLUS_H_DEPENDANT
 128:Generated_Source\PSoC6\pdl\cmsis/include/core_cm0plus.h **** 
 129:Generated_Source\PSoC6\pdl\cmsis/include/core_cm0plus.h **** #ifdef __cplusplus
 130:Generated_Source\PSoC6\pdl\cmsis/include/core_cm0plus.h ****  extern "C" {
 131:Generated_Source\PSoC6\pdl\cmsis/include/core_cm0plus.h **** #endif
 132:Generated_Source\PSoC6\pdl\cmsis/include/core_cm0plus.h **** 
 133:Generated_Source\PSoC6\pdl\cmsis/include/core_cm0plus.h **** /* check device defines and use defaults */
 134:Generated_Source\PSoC6\pdl\cmsis/include/core_cm0plus.h **** #if defined __CHECK_DEVICE_DEFINES
 135:Generated_Source\PSoC6\pdl\cmsis/include/core_cm0plus.h ****   #ifndef __CM0PLUS_REV
 136:Generated_Source\PSoC6\pdl\cmsis/include/core_cm0plus.h ****     #define __CM0PLUS_REV             0x0000U
 137:Generated_Source\PSoC6\pdl\cmsis/include/core_cm0plus.h ****     #warning "__CM0PLUS_REV not defined in device header file; using default!"
 138:Generated_Source\PSoC6\pdl\cmsis/include/core_cm0plus.h ****   #endif
 139:Generated_Source\PSoC6\pdl\cmsis/include/core_cm0plus.h **** 
 140:Generated_Source\PSoC6\pdl\cmsis/include/core_cm0plus.h ****   #ifndef __MPU_PRESENT
 141:Generated_Source\PSoC6\pdl\cmsis/include/core_cm0plus.h ****     #define __MPU_PRESENT             0U
 142:Generated_Source\PSoC6\pdl\cmsis/include/core_cm0plus.h ****     #warning "__MPU_PRESENT not defined in device header file; using default!"
 143:Generated_Source\PSoC6\pdl\cmsis/include/core_cm0plus.h ****   #endif
 144:Generated_Source\PSoC6\pdl\cmsis/include/core_cm0plus.h **** 
 145:Generated_Source\PSoC6\pdl\cmsis/include/core_cm0plus.h ****   #ifndef __VTOR_PRESENT
 146:Generated_Source\PSoC6\pdl\cmsis/include/core_cm0plus.h ****     #define __VTOR_PRESENT            0U
 147:Generated_Source\PSoC6\pdl\cmsis/include/core_cm0plus.h ****     #warning "__VTOR_PRESENT not defined in device header file; using default!"
 148:Generated_Source\PSoC6\pdl\cmsis/include/core_cm0plus.h ****   #endif
 149:Generated_Source\PSoC6\pdl\cmsis/include/core_cm0plus.h **** 
 150:Generated_Source\PSoC6\pdl\cmsis/include/core_cm0plus.h ****   #ifndef __NVIC_PRIO_BITS
 151:Generated_Source\PSoC6\pdl\cmsis/include/core_cm0plus.h ****     #define __NVIC_PRIO_BITS          2U
 152:Generated_Source\PSoC6\pdl\cmsis/include/core_cm0plus.h ****     #warning "__NVIC_PRIO_BITS not defined in device header file; using default!"
 153:Generated_Source\PSoC6\pdl\cmsis/include/core_cm0plus.h ****   #endif
 154:Generated_Source\PSoC6\pdl\cmsis/include/core_cm0plus.h **** 
 155:Generated_Source\PSoC6\pdl\cmsis/include/core_cm0plus.h ****   #ifndef __Vendor_SysTickConfig
 156:Generated_Source\PSoC6\pdl\cmsis/include/core_cm0plus.h ****     #define __Vendor_SysTickConfig    0U
 157:Generated_Source\PSoC6\pdl\cmsis/include/core_cm0plus.h ****     #warning "__Vendor_SysTickConfig not defined in device header file; using default!"
 158:Generated_Source\PSoC6\pdl\cmsis/include/core_cm0plus.h ****   #endif
 159:Generated_Source\PSoC6\pdl\cmsis/include/core_cm0plus.h **** #endif
ARM GAS  C:\Users\ASUS\AppData\Local\Temp\ccarWmgw.s 			page 49


 160:Generated_Source\PSoC6\pdl\cmsis/include/core_cm0plus.h **** 
 161:Generated_Source\PSoC6\pdl\cmsis/include/core_cm0plus.h **** /* IO definitions (access restrictions to peripheral registers) */
 162:Generated_Source\PSoC6\pdl\cmsis/include/core_cm0plus.h **** /**
 163:Generated_Source\PSoC6\pdl\cmsis/include/core_cm0plus.h ****     \defgroup CMSIS_glob_defs CMSIS Global Defines
 164:Generated_Source\PSoC6\pdl\cmsis/include/core_cm0plus.h **** 
 165:Generated_Source\PSoC6\pdl\cmsis/include/core_cm0plus.h ****     <strong>IO Type Qualifiers</strong> are used
 166:Generated_Source\PSoC6\pdl\cmsis/include/core_cm0plus.h ****     \li to specify the access to peripheral variables.
 167:Generated_Source\PSoC6\pdl\cmsis/include/core_cm0plus.h ****     \li for automatic generation of peripheral register debug information.
 168:Generated_Source\PSoC6\pdl\cmsis/include/core_cm0plus.h **** */
 169:Generated_Source\PSoC6\pdl\cmsis/include/core_cm0plus.h **** #ifdef __cplusplus
 170:Generated_Source\PSoC6\pdl\cmsis/include/core_cm0plus.h ****   #define   __I     volatile             /*!< Defines 'read only' permissions */
 171:Generated_Source\PSoC6\pdl\cmsis/include/core_cm0plus.h **** #else
 172:Generated_Source\PSoC6\pdl\cmsis/include/core_cm0plus.h ****   #define   __I     volatile const       /*!< Defines 'read only' permissions */
 173:Generated_Source\PSoC6\pdl\cmsis/include/core_cm0plus.h **** #endif
 174:Generated_Source\PSoC6\pdl\cmsis/include/core_cm0plus.h **** #define     __O     volatile             /*!< Defines 'write only' permissions */
 175:Generated_Source\PSoC6\pdl\cmsis/include/core_cm0plus.h **** #define     __IO    volatile             /*!< Defines 'read / write' permissions */
 176:Generated_Source\PSoC6\pdl\cmsis/include/core_cm0plus.h **** 
 177:Generated_Source\PSoC6\pdl\cmsis/include/core_cm0plus.h **** /* following defines should be used for structure members */
 178:Generated_Source\PSoC6\pdl\cmsis/include/core_cm0plus.h **** #define     __IM     volatile const      /*! Defines 'read only' structure member permissions */
 179:Generated_Source\PSoC6\pdl\cmsis/include/core_cm0plus.h **** #define     __OM     volatile            /*! Defines 'write only' structure member permissions */
 180:Generated_Source\PSoC6\pdl\cmsis/include/core_cm0plus.h **** #define     __IOM    volatile            /*! Defines 'read / write' structure member permissions */
 181:Generated_Source\PSoC6\pdl\cmsis/include/core_cm0plus.h **** 
 182:Generated_Source\PSoC6\pdl\cmsis/include/core_cm0plus.h **** /*@} end of group Cortex-M0+ */
 183:Generated_Source\PSoC6\pdl\cmsis/include/core_cm0plus.h **** 
 184:Generated_Source\PSoC6\pdl\cmsis/include/core_cm0plus.h **** 
 185:Generated_Source\PSoC6\pdl\cmsis/include/core_cm0plus.h **** 
 186:Generated_Source\PSoC6\pdl\cmsis/include/core_cm0plus.h **** /*******************************************************************************
 187:Generated_Source\PSoC6\pdl\cmsis/include/core_cm0plus.h ****  *                 Register Abstraction
 188:Generated_Source\PSoC6\pdl\cmsis/include/core_cm0plus.h ****   Core Register contain:
 189:Generated_Source\PSoC6\pdl\cmsis/include/core_cm0plus.h ****   - Core Register
 190:Generated_Source\PSoC6\pdl\cmsis/include/core_cm0plus.h ****   - Core NVIC Register
 191:Generated_Source\PSoC6\pdl\cmsis/include/core_cm0plus.h ****   - Core SCB Register
 192:Generated_Source\PSoC6\pdl\cmsis/include/core_cm0plus.h ****   - Core SysTick Register
 193:Generated_Source\PSoC6\pdl\cmsis/include/core_cm0plus.h ****   - Core MPU Register
 194:Generated_Source\PSoC6\pdl\cmsis/include/core_cm0plus.h ****  ******************************************************************************/
 195:Generated_Source\PSoC6\pdl\cmsis/include/core_cm0plus.h **** /**
 196:Generated_Source\PSoC6\pdl\cmsis/include/core_cm0plus.h ****   \defgroup CMSIS_core_register Defines and Type Definitions
 197:Generated_Source\PSoC6\pdl\cmsis/include/core_cm0plus.h ****   \brief Type definitions and defines for Cortex-M processor based devices.
 198:Generated_Source\PSoC6\pdl\cmsis/include/core_cm0plus.h **** */
 199:Generated_Source\PSoC6\pdl\cmsis/include/core_cm0plus.h **** 
 200:Generated_Source\PSoC6\pdl\cmsis/include/core_cm0plus.h **** /**
 201:Generated_Source\PSoC6\pdl\cmsis/include/core_cm0plus.h ****   \ingroup    CMSIS_core_register
 202:Generated_Source\PSoC6\pdl\cmsis/include/core_cm0plus.h ****   \defgroup   CMSIS_CORE  Status and Control Registers
 203:Generated_Source\PSoC6\pdl\cmsis/include/core_cm0plus.h ****   \brief      Core Register type definitions.
 204:Generated_Source\PSoC6\pdl\cmsis/include/core_cm0plus.h ****   @{
 205:Generated_Source\PSoC6\pdl\cmsis/include/core_cm0plus.h ****  */
 206:Generated_Source\PSoC6\pdl\cmsis/include/core_cm0plus.h **** 
 207:Generated_Source\PSoC6\pdl\cmsis/include/core_cm0plus.h **** /**
 208:Generated_Source\PSoC6\pdl\cmsis/include/core_cm0plus.h ****   \brief  Union type to access the Application Program Status Register (APSR).
 209:Generated_Source\PSoC6\pdl\cmsis/include/core_cm0plus.h ****  */
 210:Generated_Source\PSoC6\pdl\cmsis/include/core_cm0plus.h **** typedef union
 211:Generated_Source\PSoC6\pdl\cmsis/include/core_cm0plus.h **** {
 212:Generated_Source\PSoC6\pdl\cmsis/include/core_cm0plus.h ****   struct
 213:Generated_Source\PSoC6\pdl\cmsis/include/core_cm0plus.h ****   {
 214:Generated_Source\PSoC6\pdl\cmsis/include/core_cm0plus.h ****     uint32_t _reserved0:28;              /*!< bit:  0..27  Reserved */
 215:Generated_Source\PSoC6\pdl\cmsis/include/core_cm0plus.h ****     uint32_t V:1;                        /*!< bit:     28  Overflow condition code flag */
 216:Generated_Source\PSoC6\pdl\cmsis/include/core_cm0plus.h ****     uint32_t C:1;                        /*!< bit:     29  Carry condition code flag */
ARM GAS  C:\Users\ASUS\AppData\Local\Temp\ccarWmgw.s 			page 50


 217:Generated_Source\PSoC6\pdl\cmsis/include/core_cm0plus.h ****     uint32_t Z:1;                        /*!< bit:     30  Zero condition code flag */
 218:Generated_Source\PSoC6\pdl\cmsis/include/core_cm0plus.h ****     uint32_t N:1;                        /*!< bit:     31  Negative condition code flag */
 219:Generated_Source\PSoC6\pdl\cmsis/include/core_cm0plus.h ****   } b;                                   /*!< Structure used for bit  access */
 220:Generated_Source\PSoC6\pdl\cmsis/include/core_cm0plus.h ****   uint32_t w;                            /*!< Type      used for word access */
 221:Generated_Source\PSoC6\pdl\cmsis/include/core_cm0plus.h **** } APSR_Type;
 222:Generated_Source\PSoC6\pdl\cmsis/include/core_cm0plus.h **** 
 223:Generated_Source\PSoC6\pdl\cmsis/include/core_cm0plus.h **** /* APSR Register Definitions */
 224:Generated_Source\PSoC6\pdl\cmsis/include/core_cm0plus.h **** #define APSR_N_Pos                         31U                                            /*!< APSR
 225:Generated_Source\PSoC6\pdl\cmsis/include/core_cm0plus.h **** #define APSR_N_Msk                         (1UL << APSR_N_Pos)                            /*!< APSR
 226:Generated_Source\PSoC6\pdl\cmsis/include/core_cm0plus.h **** 
 227:Generated_Source\PSoC6\pdl\cmsis/include/core_cm0plus.h **** #define APSR_Z_Pos                         30U                                            /*!< APSR
 228:Generated_Source\PSoC6\pdl\cmsis/include/core_cm0plus.h **** #define APSR_Z_Msk                         (1UL << APSR_Z_Pos)                            /*!< APSR
 229:Generated_Source\PSoC6\pdl\cmsis/include/core_cm0plus.h **** 
 230:Generated_Source\PSoC6\pdl\cmsis/include/core_cm0plus.h **** #define APSR_C_Pos                         29U                                            /*!< APSR
 231:Generated_Source\PSoC6\pdl\cmsis/include/core_cm0plus.h **** #define APSR_C_Msk                         (1UL << APSR_C_Pos)                            /*!< APSR
 232:Generated_Source\PSoC6\pdl\cmsis/include/core_cm0plus.h **** 
 233:Generated_Source\PSoC6\pdl\cmsis/include/core_cm0plus.h **** #define APSR_V_Pos                         28U                                            /*!< APSR
 234:Generated_Source\PSoC6\pdl\cmsis/include/core_cm0plus.h **** #define APSR_V_Msk                         (1UL << APSR_V_Pos)                            /*!< APSR
 235:Generated_Source\PSoC6\pdl\cmsis/include/core_cm0plus.h **** 
 236:Generated_Source\PSoC6\pdl\cmsis/include/core_cm0plus.h **** 
 237:Generated_Source\PSoC6\pdl\cmsis/include/core_cm0plus.h **** /**
 238:Generated_Source\PSoC6\pdl\cmsis/include/core_cm0plus.h ****   \brief  Union type to access the Interrupt Program Status Register (IPSR).
 239:Generated_Source\PSoC6\pdl\cmsis/include/core_cm0plus.h ****  */
 240:Generated_Source\PSoC6\pdl\cmsis/include/core_cm0plus.h **** typedef union
 241:Generated_Source\PSoC6\pdl\cmsis/include/core_cm0plus.h **** {
 242:Generated_Source\PSoC6\pdl\cmsis/include/core_cm0plus.h ****   struct
 243:Generated_Source\PSoC6\pdl\cmsis/include/core_cm0plus.h ****   {
 244:Generated_Source\PSoC6\pdl\cmsis/include/core_cm0plus.h ****     uint32_t ISR:9;                      /*!< bit:  0.. 8  Exception number */
 245:Generated_Source\PSoC6\pdl\cmsis/include/core_cm0plus.h ****     uint32_t _reserved0:23;              /*!< bit:  9..31  Reserved */
 246:Generated_Source\PSoC6\pdl\cmsis/include/core_cm0plus.h ****   } b;                                   /*!< Structure used for bit  access */
 247:Generated_Source\PSoC6\pdl\cmsis/include/core_cm0plus.h ****   uint32_t w;                            /*!< Type      used for word access */
 248:Generated_Source\PSoC6\pdl\cmsis/include/core_cm0plus.h **** } IPSR_Type;
 249:Generated_Source\PSoC6\pdl\cmsis/include/core_cm0plus.h **** 
 250:Generated_Source\PSoC6\pdl\cmsis/include/core_cm0plus.h **** /* IPSR Register Definitions */
 251:Generated_Source\PSoC6\pdl\cmsis/include/core_cm0plus.h **** #define IPSR_ISR_Pos                        0U                                            /*!< IPSR
 252:Generated_Source\PSoC6\pdl\cmsis/include/core_cm0plus.h **** #define IPSR_ISR_Msk                       (0x1FFUL /*<< IPSR_ISR_Pos*/)                  /*!< IPSR
 253:Generated_Source\PSoC6\pdl\cmsis/include/core_cm0plus.h **** 
 254:Generated_Source\PSoC6\pdl\cmsis/include/core_cm0plus.h **** 
 255:Generated_Source\PSoC6\pdl\cmsis/include/core_cm0plus.h **** /**
 256:Generated_Source\PSoC6\pdl\cmsis/include/core_cm0plus.h ****   \brief  Union type to access the Special-Purpose Program Status Registers (xPSR).
 257:Generated_Source\PSoC6\pdl\cmsis/include/core_cm0plus.h ****  */
 258:Generated_Source\PSoC6\pdl\cmsis/include/core_cm0plus.h **** typedef union
 259:Generated_Source\PSoC6\pdl\cmsis/include/core_cm0plus.h **** {
 260:Generated_Source\PSoC6\pdl\cmsis/include/core_cm0plus.h ****   struct
 261:Generated_Source\PSoC6\pdl\cmsis/include/core_cm0plus.h ****   {
 262:Generated_Source\PSoC6\pdl\cmsis/include/core_cm0plus.h ****     uint32_t ISR:9;                      /*!< bit:  0.. 8  Exception number */
 263:Generated_Source\PSoC6\pdl\cmsis/include/core_cm0plus.h ****     uint32_t _reserved0:15;              /*!< bit:  9..23  Reserved */
 264:Generated_Source\PSoC6\pdl\cmsis/include/core_cm0plus.h ****     uint32_t T:1;                        /*!< bit:     24  Thumb bit        (read 0) */
 265:Generated_Source\PSoC6\pdl\cmsis/include/core_cm0plus.h ****     uint32_t _reserved1:3;               /*!< bit: 25..27  Reserved */
 266:Generated_Source\PSoC6\pdl\cmsis/include/core_cm0plus.h ****     uint32_t V:1;                        /*!< bit:     28  Overflow condition code flag */
 267:Generated_Source\PSoC6\pdl\cmsis/include/core_cm0plus.h ****     uint32_t C:1;                        /*!< bit:     29  Carry condition code flag */
 268:Generated_Source\PSoC6\pdl\cmsis/include/core_cm0plus.h ****     uint32_t Z:1;                        /*!< bit:     30  Zero condition code flag */
 269:Generated_Source\PSoC6\pdl\cmsis/include/core_cm0plus.h ****     uint32_t N:1;                        /*!< bit:     31  Negative condition code flag */
 270:Generated_Source\PSoC6\pdl\cmsis/include/core_cm0plus.h ****   } b;                                   /*!< Structure used for bit  access */
 271:Generated_Source\PSoC6\pdl\cmsis/include/core_cm0plus.h ****   uint32_t w;                            /*!< Type      used for word access */
 272:Generated_Source\PSoC6\pdl\cmsis/include/core_cm0plus.h **** } xPSR_Type;
 273:Generated_Source\PSoC6\pdl\cmsis/include/core_cm0plus.h **** 
ARM GAS  C:\Users\ASUS\AppData\Local\Temp\ccarWmgw.s 			page 51


 274:Generated_Source\PSoC6\pdl\cmsis/include/core_cm0plus.h **** /* xPSR Register Definitions */
 275:Generated_Source\PSoC6\pdl\cmsis/include/core_cm0plus.h **** #define xPSR_N_Pos                         31U                                            /*!< xPSR
 276:Generated_Source\PSoC6\pdl\cmsis/include/core_cm0plus.h **** #define xPSR_N_Msk                         (1UL << xPSR_N_Pos)                            /*!< xPSR
 277:Generated_Source\PSoC6\pdl\cmsis/include/core_cm0plus.h **** 
 278:Generated_Source\PSoC6\pdl\cmsis/include/core_cm0plus.h **** #define xPSR_Z_Pos                         30U                                            /*!< xPSR
 279:Generated_Source\PSoC6\pdl\cmsis/include/core_cm0plus.h **** #define xPSR_Z_Msk                         (1UL << xPSR_Z_Pos)                            /*!< xPSR
 280:Generated_Source\PSoC6\pdl\cmsis/include/core_cm0plus.h **** 
 281:Generated_Source\PSoC6\pdl\cmsis/include/core_cm0plus.h **** #define xPSR_C_Pos                         29U                                            /*!< xPSR
 282:Generated_Source\PSoC6\pdl\cmsis/include/core_cm0plus.h **** #define xPSR_C_Msk                         (1UL << xPSR_C_Pos)                            /*!< xPSR
 283:Generated_Source\PSoC6\pdl\cmsis/include/core_cm0plus.h **** 
 284:Generated_Source\PSoC6\pdl\cmsis/include/core_cm0plus.h **** #define xPSR_V_Pos                         28U                                            /*!< xPSR
 285:Generated_Source\PSoC6\pdl\cmsis/include/core_cm0plus.h **** #define xPSR_V_Msk                         (1UL << xPSR_V_Pos)                            /*!< xPSR
 286:Generated_Source\PSoC6\pdl\cmsis/include/core_cm0plus.h **** 
 287:Generated_Source\PSoC6\pdl\cmsis/include/core_cm0plus.h **** #define xPSR_T_Pos                         24U                                            /*!< xPSR
 288:Generated_Source\PSoC6\pdl\cmsis/include/core_cm0plus.h **** #define xPSR_T_Msk                         (1UL << xPSR_T_Pos)                            /*!< xPSR
 289:Generated_Source\PSoC6\pdl\cmsis/include/core_cm0plus.h **** 
 290:Generated_Source\PSoC6\pdl\cmsis/include/core_cm0plus.h **** #define xPSR_ISR_Pos                        0U                                            /*!< xPSR
 291:Generated_Source\PSoC6\pdl\cmsis/include/core_cm0plus.h **** #define xPSR_ISR_Msk                       (0x1FFUL /*<< xPSR_ISR_Pos*/)                  /*!< xPSR
 292:Generated_Source\PSoC6\pdl\cmsis/include/core_cm0plus.h **** 
 293:Generated_Source\PSoC6\pdl\cmsis/include/core_cm0plus.h **** 
 294:Generated_Source\PSoC6\pdl\cmsis/include/core_cm0plus.h **** /**
 295:Generated_Source\PSoC6\pdl\cmsis/include/core_cm0plus.h ****   \brief  Union type to access the Control Registers (CONTROL).
 296:Generated_Source\PSoC6\pdl\cmsis/include/core_cm0plus.h ****  */
 297:Generated_Source\PSoC6\pdl\cmsis/include/core_cm0plus.h **** typedef union
 298:Generated_Source\PSoC6\pdl\cmsis/include/core_cm0plus.h **** {
 299:Generated_Source\PSoC6\pdl\cmsis/include/core_cm0plus.h ****   struct
 300:Generated_Source\PSoC6\pdl\cmsis/include/core_cm0plus.h ****   {
 301:Generated_Source\PSoC6\pdl\cmsis/include/core_cm0plus.h ****     uint32_t nPRIV:1;                    /*!< bit:      0  Execution privilege in Thread mode */
 302:Generated_Source\PSoC6\pdl\cmsis/include/core_cm0plus.h ****     uint32_t SPSEL:1;                    /*!< bit:      1  Stack to be used */
 303:Generated_Source\PSoC6\pdl\cmsis/include/core_cm0plus.h ****     uint32_t _reserved1:30;              /*!< bit:  2..31  Reserved */
 304:Generated_Source\PSoC6\pdl\cmsis/include/core_cm0plus.h ****   } b;                                   /*!< Structure used for bit  access */
 305:Generated_Source\PSoC6\pdl\cmsis/include/core_cm0plus.h ****   uint32_t w;                            /*!< Type      used for word access */
 306:Generated_Source\PSoC6\pdl\cmsis/include/core_cm0plus.h **** } CONTROL_Type;
 307:Generated_Source\PSoC6\pdl\cmsis/include/core_cm0plus.h **** 
 308:Generated_Source\PSoC6\pdl\cmsis/include/core_cm0plus.h **** /* CONTROL Register Definitions */
 309:Generated_Source\PSoC6\pdl\cmsis/include/core_cm0plus.h **** #define CONTROL_SPSEL_Pos                   1U                                            /*!< CONT
 310:Generated_Source\PSoC6\pdl\cmsis/include/core_cm0plus.h **** #define CONTROL_SPSEL_Msk                  (1UL << CONTROL_SPSEL_Pos)                     /*!< CONT
 311:Generated_Source\PSoC6\pdl\cmsis/include/core_cm0plus.h **** 
 312:Generated_Source\PSoC6\pdl\cmsis/include/core_cm0plus.h **** #define CONTROL_nPRIV_Pos                   0U                                            /*!< CONT
 313:Generated_Source\PSoC6\pdl\cmsis/include/core_cm0plus.h **** #define CONTROL_nPRIV_Msk                  (1UL /*<< CONTROL_nPRIV_Pos*/)                 /*!< CONT
 314:Generated_Source\PSoC6\pdl\cmsis/include/core_cm0plus.h **** 
 315:Generated_Source\PSoC6\pdl\cmsis/include/core_cm0plus.h **** /*@} end of group CMSIS_CORE */
 316:Generated_Source\PSoC6\pdl\cmsis/include/core_cm0plus.h **** 
 317:Generated_Source\PSoC6\pdl\cmsis/include/core_cm0plus.h **** 
 318:Generated_Source\PSoC6\pdl\cmsis/include/core_cm0plus.h **** /**
 319:Generated_Source\PSoC6\pdl\cmsis/include/core_cm0plus.h ****   \ingroup    CMSIS_core_register
 320:Generated_Source\PSoC6\pdl\cmsis/include/core_cm0plus.h ****   \defgroup   CMSIS_NVIC  Nested Vectored Interrupt Controller (NVIC)
 321:Generated_Source\PSoC6\pdl\cmsis/include/core_cm0plus.h ****   \brief      Type definitions for the NVIC Registers
 322:Generated_Source\PSoC6\pdl\cmsis/include/core_cm0plus.h ****   @{
 323:Generated_Source\PSoC6\pdl\cmsis/include/core_cm0plus.h ****  */
 324:Generated_Source\PSoC6\pdl\cmsis/include/core_cm0plus.h **** 
 325:Generated_Source\PSoC6\pdl\cmsis/include/core_cm0plus.h **** /**
 326:Generated_Source\PSoC6\pdl\cmsis/include/core_cm0plus.h ****   \brief  Structure type to access the Nested Vectored Interrupt Controller (NVIC).
 327:Generated_Source\PSoC6\pdl\cmsis/include/core_cm0plus.h ****  */
 328:Generated_Source\PSoC6\pdl\cmsis/include/core_cm0plus.h **** typedef struct
 329:Generated_Source\PSoC6\pdl\cmsis/include/core_cm0plus.h **** {
 330:Generated_Source\PSoC6\pdl\cmsis/include/core_cm0plus.h ****   __IOM uint32_t ISER[1U];               /*!< Offset: 0x000 (R/W)  Interrupt Set Enable Register */
ARM GAS  C:\Users\ASUS\AppData\Local\Temp\ccarWmgw.s 			page 52


 331:Generated_Source\PSoC6\pdl\cmsis/include/core_cm0plus.h ****         uint32_t RESERVED0[31U];
 332:Generated_Source\PSoC6\pdl\cmsis/include/core_cm0plus.h ****   __IOM uint32_t ICER[1U];               /*!< Offset: 0x080 (R/W)  Interrupt Clear Enable Register 
 333:Generated_Source\PSoC6\pdl\cmsis/include/core_cm0plus.h ****         uint32_t RSERVED1[31U];
 334:Generated_Source\PSoC6\pdl\cmsis/include/core_cm0plus.h ****   __IOM uint32_t ISPR[1U];               /*!< Offset: 0x100 (R/W)  Interrupt Set Pending Register *
 335:Generated_Source\PSoC6\pdl\cmsis/include/core_cm0plus.h ****         uint32_t RESERVED2[31U];
 336:Generated_Source\PSoC6\pdl\cmsis/include/core_cm0plus.h ****   __IOM uint32_t ICPR[1U];               /*!< Offset: 0x180 (R/W)  Interrupt Clear Pending Register
 337:Generated_Source\PSoC6\pdl\cmsis/include/core_cm0plus.h ****         uint32_t RESERVED3[31U];
 338:Generated_Source\PSoC6\pdl\cmsis/include/core_cm0plus.h ****         uint32_t RESERVED4[64U];
 339:Generated_Source\PSoC6\pdl\cmsis/include/core_cm0plus.h ****   __IOM uint32_t IP[8U];                 /*!< Offset: 0x300 (R/W)  Interrupt Priority Register */
 340:Generated_Source\PSoC6\pdl\cmsis/include/core_cm0plus.h **** }  NVIC_Type;
 341:Generated_Source\PSoC6\pdl\cmsis/include/core_cm0plus.h **** 
 342:Generated_Source\PSoC6\pdl\cmsis/include/core_cm0plus.h **** /*@} end of group CMSIS_NVIC */
 343:Generated_Source\PSoC6\pdl\cmsis/include/core_cm0plus.h **** 
 344:Generated_Source\PSoC6\pdl\cmsis/include/core_cm0plus.h **** 
 345:Generated_Source\PSoC6\pdl\cmsis/include/core_cm0plus.h **** /**
 346:Generated_Source\PSoC6\pdl\cmsis/include/core_cm0plus.h ****   \ingroup  CMSIS_core_register
 347:Generated_Source\PSoC6\pdl\cmsis/include/core_cm0plus.h ****   \defgroup CMSIS_SCB     System Control Block (SCB)
 348:Generated_Source\PSoC6\pdl\cmsis/include/core_cm0plus.h ****   \brief    Type definitions for the System Control Block Registers
 349:Generated_Source\PSoC6\pdl\cmsis/include/core_cm0plus.h ****   @{
 350:Generated_Source\PSoC6\pdl\cmsis/include/core_cm0plus.h ****  */
 351:Generated_Source\PSoC6\pdl\cmsis/include/core_cm0plus.h **** 
 352:Generated_Source\PSoC6\pdl\cmsis/include/core_cm0plus.h **** /**
 353:Generated_Source\PSoC6\pdl\cmsis/include/core_cm0plus.h ****   \brief  Structure type to access the System Control Block (SCB).
 354:Generated_Source\PSoC6\pdl\cmsis/include/core_cm0plus.h ****  */
 355:Generated_Source\PSoC6\pdl\cmsis/include/core_cm0plus.h **** typedef struct
 356:Generated_Source\PSoC6\pdl\cmsis/include/core_cm0plus.h **** {
 357:Generated_Source\PSoC6\pdl\cmsis/include/core_cm0plus.h ****   __IM  uint32_t CPUID;                  /*!< Offset: 0x000 (R/ )  CPUID Base Register */
 358:Generated_Source\PSoC6\pdl\cmsis/include/core_cm0plus.h ****   __IOM uint32_t ICSR;                   /*!< Offset: 0x004 (R/W)  Interrupt Control and State Regi
 359:Generated_Source\PSoC6\pdl\cmsis/include/core_cm0plus.h **** #if defined (__VTOR_PRESENT) && (__VTOR_PRESENT == 1U)
 360:Generated_Source\PSoC6\pdl\cmsis/include/core_cm0plus.h ****   __IOM uint32_t VTOR;                   /*!< Offset: 0x008 (R/W)  Vector Table Offset Register */
 361:Generated_Source\PSoC6\pdl\cmsis/include/core_cm0plus.h **** #else
 362:Generated_Source\PSoC6\pdl\cmsis/include/core_cm0plus.h ****         uint32_t RESERVED0;
 363:Generated_Source\PSoC6\pdl\cmsis/include/core_cm0plus.h **** #endif
 364:Generated_Source\PSoC6\pdl\cmsis/include/core_cm0plus.h ****   __IOM uint32_t AIRCR;                  /*!< Offset: 0x00C (R/W)  Application Interrupt and Reset 
 365:Generated_Source\PSoC6\pdl\cmsis/include/core_cm0plus.h ****   __IOM uint32_t SCR;                    /*!< Offset: 0x010 (R/W)  System Control Register */
 366:Generated_Source\PSoC6\pdl\cmsis/include/core_cm0plus.h ****   __IOM uint32_t CCR;                    /*!< Offset: 0x014 (R/W)  Configuration Control Register *
 367:Generated_Source\PSoC6\pdl\cmsis/include/core_cm0plus.h ****         uint32_t RESERVED1;
 368:Generated_Source\PSoC6\pdl\cmsis/include/core_cm0plus.h ****   __IOM uint32_t SHP[2U];                /*!< Offset: 0x01C (R/W)  System Handlers Priority Registe
 369:Generated_Source\PSoC6\pdl\cmsis/include/core_cm0plus.h ****   __IOM uint32_t SHCSR;                  /*!< Offset: 0x024 (R/W)  System Handler Control and State
 370:Generated_Source\PSoC6\pdl\cmsis/include/core_cm0plus.h **** } SCB_Type;
 371:Generated_Source\PSoC6\pdl\cmsis/include/core_cm0plus.h **** 
 372:Generated_Source\PSoC6\pdl\cmsis/include/core_cm0plus.h **** /* SCB CPUID Register Definitions */
 373:Generated_Source\PSoC6\pdl\cmsis/include/core_cm0plus.h **** #define SCB_CPUID_IMPLEMENTER_Pos          24U                                            /*!< SCB 
 374:Generated_Source\PSoC6\pdl\cmsis/include/core_cm0plus.h **** #define SCB_CPUID_IMPLEMENTER_Msk          (0xFFUL << SCB_CPUID_IMPLEMENTER_Pos)          /*!< SCB 
 375:Generated_Source\PSoC6\pdl\cmsis/include/core_cm0plus.h **** 
 376:Generated_Source\PSoC6\pdl\cmsis/include/core_cm0plus.h **** #define SCB_CPUID_VARIANT_Pos              20U                                            /*!< SCB 
 377:Generated_Source\PSoC6\pdl\cmsis/include/core_cm0plus.h **** #define SCB_CPUID_VARIANT_Msk              (0xFUL << SCB_CPUID_VARIANT_Pos)               /*!< SCB 
 378:Generated_Source\PSoC6\pdl\cmsis/include/core_cm0plus.h **** 
 379:Generated_Source\PSoC6\pdl\cmsis/include/core_cm0plus.h **** #define SCB_CPUID_ARCHITECTURE_Pos         16U                                            /*!< SCB 
 380:Generated_Source\PSoC6\pdl\cmsis/include/core_cm0plus.h **** #define SCB_CPUID_ARCHITECTURE_Msk         (0xFUL << SCB_CPUID_ARCHITECTURE_Pos)          /*!< SCB 
 381:Generated_Source\PSoC6\pdl\cmsis/include/core_cm0plus.h **** 
 382:Generated_Source\PSoC6\pdl\cmsis/include/core_cm0plus.h **** #define SCB_CPUID_PARTNO_Pos                4U                                            /*!< SCB 
 383:Generated_Source\PSoC6\pdl\cmsis/include/core_cm0plus.h **** #define SCB_CPUID_PARTNO_Msk               (0xFFFUL << SCB_CPUID_PARTNO_Pos)              /*!< SCB 
 384:Generated_Source\PSoC6\pdl\cmsis/include/core_cm0plus.h **** 
 385:Generated_Source\PSoC6\pdl\cmsis/include/core_cm0plus.h **** #define SCB_CPUID_REVISION_Pos              0U                                            /*!< SCB 
 386:Generated_Source\PSoC6\pdl\cmsis/include/core_cm0plus.h **** #define SCB_CPUID_REVISION_Msk             (0xFUL /*<< SCB_CPUID_REVISION_Pos*/)          /*!< SCB 
 387:Generated_Source\PSoC6\pdl\cmsis/include/core_cm0plus.h **** 
ARM GAS  C:\Users\ASUS\AppData\Local\Temp\ccarWmgw.s 			page 53


 388:Generated_Source\PSoC6\pdl\cmsis/include/core_cm0plus.h **** /* SCB Interrupt Control State Register Definitions */
 389:Generated_Source\PSoC6\pdl\cmsis/include/core_cm0plus.h **** #define SCB_ICSR_NMIPENDSET_Pos            31U                                            /*!< SCB 
 390:Generated_Source\PSoC6\pdl\cmsis/include/core_cm0plus.h **** #define SCB_ICSR_NMIPENDSET_Msk            (1UL << SCB_ICSR_NMIPENDSET_Pos)               /*!< SCB 
 391:Generated_Source\PSoC6\pdl\cmsis/include/core_cm0plus.h **** 
 392:Generated_Source\PSoC6\pdl\cmsis/include/core_cm0plus.h **** #define SCB_ICSR_PENDSVSET_Pos             28U                                            /*!< SCB 
 393:Generated_Source\PSoC6\pdl\cmsis/include/core_cm0plus.h **** #define SCB_ICSR_PENDSVSET_Msk             (1UL << SCB_ICSR_PENDSVSET_Pos)                /*!< SCB 
 394:Generated_Source\PSoC6\pdl\cmsis/include/core_cm0plus.h **** 
 395:Generated_Source\PSoC6\pdl\cmsis/include/core_cm0plus.h **** #define SCB_ICSR_PENDSVCLR_Pos             27U                                            /*!< SCB 
 396:Generated_Source\PSoC6\pdl\cmsis/include/core_cm0plus.h **** #define SCB_ICSR_PENDSVCLR_Msk             (1UL << SCB_ICSR_PENDSVCLR_Pos)                /*!< SCB 
 397:Generated_Source\PSoC6\pdl\cmsis/include/core_cm0plus.h **** 
 398:Generated_Source\PSoC6\pdl\cmsis/include/core_cm0plus.h **** #define SCB_ICSR_PENDSTSET_Pos             26U                                            /*!< SCB 
 399:Generated_Source\PSoC6\pdl\cmsis/include/core_cm0plus.h **** #define SCB_ICSR_PENDSTSET_Msk             (1UL << SCB_ICSR_PENDSTSET_Pos)                /*!< SCB 
 400:Generated_Source\PSoC6\pdl\cmsis/include/core_cm0plus.h **** 
 401:Generated_Source\PSoC6\pdl\cmsis/include/core_cm0plus.h **** #define SCB_ICSR_PENDSTCLR_Pos             25U                                            /*!< SCB 
 402:Generated_Source\PSoC6\pdl\cmsis/include/core_cm0plus.h **** #define SCB_ICSR_PENDSTCLR_Msk             (1UL << SCB_ICSR_PENDSTCLR_Pos)                /*!< SCB 
 403:Generated_Source\PSoC6\pdl\cmsis/include/core_cm0plus.h **** 
 404:Generated_Source\PSoC6\pdl\cmsis/include/core_cm0plus.h **** #define SCB_ICSR_ISRPREEMPT_Pos            23U                                            /*!< SCB 
 405:Generated_Source\PSoC6\pdl\cmsis/include/core_cm0plus.h **** #define SCB_ICSR_ISRPREEMPT_Msk            (1UL << SCB_ICSR_ISRPREEMPT_Pos)               /*!< SCB 
 406:Generated_Source\PSoC6\pdl\cmsis/include/core_cm0plus.h **** 
 407:Generated_Source\PSoC6\pdl\cmsis/include/core_cm0plus.h **** #define SCB_ICSR_ISRPENDING_Pos            22U                                            /*!< SCB 
 408:Generated_Source\PSoC6\pdl\cmsis/include/core_cm0plus.h **** #define SCB_ICSR_ISRPENDING_Msk            (1UL << SCB_ICSR_ISRPENDING_Pos)               /*!< SCB 
 409:Generated_Source\PSoC6\pdl\cmsis/include/core_cm0plus.h **** 
 410:Generated_Source\PSoC6\pdl\cmsis/include/core_cm0plus.h **** #define SCB_ICSR_VECTPENDING_Pos           12U                                            /*!< SCB 
 411:Generated_Source\PSoC6\pdl\cmsis/include/core_cm0plus.h **** #define SCB_ICSR_VECTPENDING_Msk           (0x1FFUL << SCB_ICSR_VECTPENDING_Pos)          /*!< SCB 
 412:Generated_Source\PSoC6\pdl\cmsis/include/core_cm0plus.h **** 
 413:Generated_Source\PSoC6\pdl\cmsis/include/core_cm0plus.h **** #define SCB_ICSR_VECTACTIVE_Pos             0U                                            /*!< SCB 
 414:Generated_Source\PSoC6\pdl\cmsis/include/core_cm0plus.h **** #define SCB_ICSR_VECTACTIVE_Msk            (0x1FFUL /*<< SCB_ICSR_VECTACTIVE_Pos*/)       /*!< SCB 
 415:Generated_Source\PSoC6\pdl\cmsis/include/core_cm0plus.h **** 
 416:Generated_Source\PSoC6\pdl\cmsis/include/core_cm0plus.h **** #if defined (__VTOR_PRESENT) && (__VTOR_PRESENT == 1U)
 417:Generated_Source\PSoC6\pdl\cmsis/include/core_cm0plus.h **** /* SCB Interrupt Control State Register Definitions */
 418:Generated_Source\PSoC6\pdl\cmsis/include/core_cm0plus.h **** #define SCB_VTOR_TBLOFF_Pos                 8U                                            /*!< SCB 
 419:Generated_Source\PSoC6\pdl\cmsis/include/core_cm0plus.h **** #define SCB_VTOR_TBLOFF_Msk                (0xFFFFFFUL << SCB_VTOR_TBLOFF_Pos)            /*!< SCB 
 420:Generated_Source\PSoC6\pdl\cmsis/include/core_cm0plus.h **** #endif
 421:Generated_Source\PSoC6\pdl\cmsis/include/core_cm0plus.h **** 
 422:Generated_Source\PSoC6\pdl\cmsis/include/core_cm0plus.h **** /* SCB Application Interrupt and Reset Control Register Definitions */
 423:Generated_Source\PSoC6\pdl\cmsis/include/core_cm0plus.h **** #define SCB_AIRCR_VECTKEY_Pos              16U                                            /*!< SCB 
 424:Generated_Source\PSoC6\pdl\cmsis/include/core_cm0plus.h **** #define SCB_AIRCR_VECTKEY_Msk              (0xFFFFUL << SCB_AIRCR_VECTKEY_Pos)            /*!< SCB 
 425:Generated_Source\PSoC6\pdl\cmsis/include/core_cm0plus.h **** 
 426:Generated_Source\PSoC6\pdl\cmsis/include/core_cm0plus.h **** #define SCB_AIRCR_VECTKEYSTAT_Pos          16U                                            /*!< SCB 
 427:Generated_Source\PSoC6\pdl\cmsis/include/core_cm0plus.h **** #define SCB_AIRCR_VECTKEYSTAT_Msk          (0xFFFFUL << SCB_AIRCR_VECTKEYSTAT_Pos)        /*!< SCB 
 428:Generated_Source\PSoC6\pdl\cmsis/include/core_cm0plus.h **** 
 429:Generated_Source\PSoC6\pdl\cmsis/include/core_cm0plus.h **** #define SCB_AIRCR_ENDIANESS_Pos            15U                                            /*!< SCB 
 430:Generated_Source\PSoC6\pdl\cmsis/include/core_cm0plus.h **** #define SCB_AIRCR_ENDIANESS_Msk            (1UL << SCB_AIRCR_ENDIANESS_Pos)               /*!< SCB 
 431:Generated_Source\PSoC6\pdl\cmsis/include/core_cm0plus.h **** 
 432:Generated_Source\PSoC6\pdl\cmsis/include/core_cm0plus.h **** #define SCB_AIRCR_SYSRESETREQ_Pos           2U                                            /*!< SCB 
 433:Generated_Source\PSoC6\pdl\cmsis/include/core_cm0plus.h **** #define SCB_AIRCR_SYSRESETREQ_Msk          (1UL << SCB_AIRCR_SYSRESETREQ_Pos)             /*!< SCB 
 434:Generated_Source\PSoC6\pdl\cmsis/include/core_cm0plus.h **** 
 435:Generated_Source\PSoC6\pdl\cmsis/include/core_cm0plus.h **** #define SCB_AIRCR_VECTCLRACTIVE_Pos         1U                                            /*!< SCB 
 436:Generated_Source\PSoC6\pdl\cmsis/include/core_cm0plus.h **** #define SCB_AIRCR_VECTCLRACTIVE_Msk        (1UL << SCB_AIRCR_VECTCLRACTIVE_Pos)           /*!< SCB 
 437:Generated_Source\PSoC6\pdl\cmsis/include/core_cm0plus.h **** 
 438:Generated_Source\PSoC6\pdl\cmsis/include/core_cm0plus.h **** /* SCB System Control Register Definitions */
 439:Generated_Source\PSoC6\pdl\cmsis/include/core_cm0plus.h **** #define SCB_SCR_SEVONPEND_Pos               4U                                            /*!< SCB 
 440:Generated_Source\PSoC6\pdl\cmsis/include/core_cm0plus.h **** #define SCB_SCR_SEVONPEND_Msk              (1UL << SCB_SCR_SEVONPEND_Pos)                 /*!< SCB 
 441:Generated_Source\PSoC6\pdl\cmsis/include/core_cm0plus.h **** 
 442:Generated_Source\PSoC6\pdl\cmsis/include/core_cm0plus.h **** #define SCB_SCR_SLEEPDEEP_Pos               2U                                            /*!< SCB 
 443:Generated_Source\PSoC6\pdl\cmsis/include/core_cm0plus.h **** #define SCB_SCR_SLEEPDEEP_Msk              (1UL << SCB_SCR_SLEEPDEEP_Pos)                 /*!< SCB 
 444:Generated_Source\PSoC6\pdl\cmsis/include/core_cm0plus.h **** 
ARM GAS  C:\Users\ASUS\AppData\Local\Temp\ccarWmgw.s 			page 54


 445:Generated_Source\PSoC6\pdl\cmsis/include/core_cm0plus.h **** #define SCB_SCR_SLEEPONEXIT_Pos             1U                                            /*!< SCB 
 446:Generated_Source\PSoC6\pdl\cmsis/include/core_cm0plus.h **** #define SCB_SCR_SLEEPONEXIT_Msk            (1UL << SCB_SCR_SLEEPONEXIT_Pos)               /*!< SCB 
 447:Generated_Source\PSoC6\pdl\cmsis/include/core_cm0plus.h **** 
 448:Generated_Source\PSoC6\pdl\cmsis/include/core_cm0plus.h **** /* SCB Configuration Control Register Definitions */
 449:Generated_Source\PSoC6\pdl\cmsis/include/core_cm0plus.h **** #define SCB_CCR_STKALIGN_Pos                9U                                            /*!< SCB 
 450:Generated_Source\PSoC6\pdl\cmsis/include/core_cm0plus.h **** #define SCB_CCR_STKALIGN_Msk               (1UL << SCB_CCR_STKALIGN_Pos)                  /*!< SCB 
 451:Generated_Source\PSoC6\pdl\cmsis/include/core_cm0plus.h **** 
 452:Generated_Source\PSoC6\pdl\cmsis/include/core_cm0plus.h **** #define SCB_CCR_UNALIGN_TRP_Pos             3U                                            /*!< SCB 
 453:Generated_Source\PSoC6\pdl\cmsis/include/core_cm0plus.h **** #define SCB_CCR_UNALIGN_TRP_Msk            (1UL << SCB_CCR_UNALIGN_TRP_Pos)               /*!< SCB 
 454:Generated_Source\PSoC6\pdl\cmsis/include/core_cm0plus.h **** 
 455:Generated_Source\PSoC6\pdl\cmsis/include/core_cm0plus.h **** /* SCB System Handler Control and State Register Definitions */
 456:Generated_Source\PSoC6\pdl\cmsis/include/core_cm0plus.h **** #define SCB_SHCSR_SVCALLPENDED_Pos         15U                                            /*!< SCB 
 457:Generated_Source\PSoC6\pdl\cmsis/include/core_cm0plus.h **** #define SCB_SHCSR_SVCALLPENDED_Msk         (1UL << SCB_SHCSR_SVCALLPENDED_Pos)            /*!< SCB 
 458:Generated_Source\PSoC6\pdl\cmsis/include/core_cm0plus.h **** 
 459:Generated_Source\PSoC6\pdl\cmsis/include/core_cm0plus.h **** /*@} end of group CMSIS_SCB */
 460:Generated_Source\PSoC6\pdl\cmsis/include/core_cm0plus.h **** 
 461:Generated_Source\PSoC6\pdl\cmsis/include/core_cm0plus.h **** 
 462:Generated_Source\PSoC6\pdl\cmsis/include/core_cm0plus.h **** /**
 463:Generated_Source\PSoC6\pdl\cmsis/include/core_cm0plus.h ****   \ingroup  CMSIS_core_register
 464:Generated_Source\PSoC6\pdl\cmsis/include/core_cm0plus.h ****   \defgroup CMSIS_SysTick     System Tick Timer (SysTick)
 465:Generated_Source\PSoC6\pdl\cmsis/include/core_cm0plus.h ****   \brief    Type definitions for the System Timer Registers.
 466:Generated_Source\PSoC6\pdl\cmsis/include/core_cm0plus.h ****   @{
 467:Generated_Source\PSoC6\pdl\cmsis/include/core_cm0plus.h ****  */
 468:Generated_Source\PSoC6\pdl\cmsis/include/core_cm0plus.h **** 
 469:Generated_Source\PSoC6\pdl\cmsis/include/core_cm0plus.h **** /**
 470:Generated_Source\PSoC6\pdl\cmsis/include/core_cm0plus.h ****   \brief  Structure type to access the System Timer (SysTick).
 471:Generated_Source\PSoC6\pdl\cmsis/include/core_cm0plus.h ****  */
 472:Generated_Source\PSoC6\pdl\cmsis/include/core_cm0plus.h **** typedef struct
 473:Generated_Source\PSoC6\pdl\cmsis/include/core_cm0plus.h **** {
 474:Generated_Source\PSoC6\pdl\cmsis/include/core_cm0plus.h ****   __IOM uint32_t CTRL;                   /*!< Offset: 0x000 (R/W)  SysTick Control and Status Regis
 475:Generated_Source\PSoC6\pdl\cmsis/include/core_cm0plus.h ****   __IOM uint32_t LOAD;                   /*!< Offset: 0x004 (R/W)  SysTick Reload Value Register */
 476:Generated_Source\PSoC6\pdl\cmsis/include/core_cm0plus.h ****   __IOM uint32_t VAL;                    /*!< Offset: 0x008 (R/W)  SysTick Current Value Register *
 477:Generated_Source\PSoC6\pdl\cmsis/include/core_cm0plus.h ****   __IM  uint32_t CALIB;                  /*!< Offset: 0x00C (R/ )  SysTick Calibration Register */
 478:Generated_Source\PSoC6\pdl\cmsis/include/core_cm0plus.h **** } SysTick_Type;
 479:Generated_Source\PSoC6\pdl\cmsis/include/core_cm0plus.h **** 
 480:Generated_Source\PSoC6\pdl\cmsis/include/core_cm0plus.h **** /* SysTick Control / Status Register Definitions */
 481:Generated_Source\PSoC6\pdl\cmsis/include/core_cm0plus.h **** #define SysTick_CTRL_COUNTFLAG_Pos         16U                                            /*!< SysT
 482:Generated_Source\PSoC6\pdl\cmsis/include/core_cm0plus.h **** #define SysTick_CTRL_COUNTFLAG_Msk         (1UL << SysTick_CTRL_COUNTFLAG_Pos)            /*!< SysT
 483:Generated_Source\PSoC6\pdl\cmsis/include/core_cm0plus.h **** 
 484:Generated_Source\PSoC6\pdl\cmsis/include/core_cm0plus.h **** #define SysTick_CTRL_CLKSOURCE_Pos          2U                                            /*!< SysT
 485:Generated_Source\PSoC6\pdl\cmsis/include/core_cm0plus.h **** #define SysTick_CTRL_CLKSOURCE_Msk         (1UL << SysTick_CTRL_CLKSOURCE_Pos)            /*!< SysT
 486:Generated_Source\PSoC6\pdl\cmsis/include/core_cm0plus.h **** 
 487:Generated_Source\PSoC6\pdl\cmsis/include/core_cm0plus.h **** #define SysTick_CTRL_TICKINT_Pos            1U                                            /*!< SysT
 488:Generated_Source\PSoC6\pdl\cmsis/include/core_cm0plus.h **** #define SysTick_CTRL_TICKINT_Msk           (1UL << SysTick_CTRL_TICKINT_Pos)              /*!< SysT
 489:Generated_Source\PSoC6\pdl\cmsis/include/core_cm0plus.h **** 
 490:Generated_Source\PSoC6\pdl\cmsis/include/core_cm0plus.h **** #define SysTick_CTRL_ENABLE_Pos             0U                                            /*!< SysT
 491:Generated_Source\PSoC6\pdl\cmsis/include/core_cm0plus.h **** #define SysTick_CTRL_ENABLE_Msk            (1UL /*<< SysTick_CTRL_ENABLE_Pos*/)           /*!< SysT
 492:Generated_Source\PSoC6\pdl\cmsis/include/core_cm0plus.h **** 
 493:Generated_Source\PSoC6\pdl\cmsis/include/core_cm0plus.h **** /* SysTick Reload Register Definitions */
 494:Generated_Source\PSoC6\pdl\cmsis/include/core_cm0plus.h **** #define SysTick_LOAD_RELOAD_Pos             0U                                            /*!< SysT
 495:Generated_Source\PSoC6\pdl\cmsis/include/core_cm0plus.h **** #define SysTick_LOAD_RELOAD_Msk            (0xFFFFFFUL /*<< SysTick_LOAD_RELOAD_Pos*/)    /*!< SysT
 496:Generated_Source\PSoC6\pdl\cmsis/include/core_cm0plus.h **** 
 497:Generated_Source\PSoC6\pdl\cmsis/include/core_cm0plus.h **** /* SysTick Current Register Definitions */
 498:Generated_Source\PSoC6\pdl\cmsis/include/core_cm0plus.h **** #define SysTick_VAL_CURRENT_Pos             0U                                            /*!< SysT
 499:Generated_Source\PSoC6\pdl\cmsis/include/core_cm0plus.h **** #define SysTick_VAL_CURRENT_Msk            (0xFFFFFFUL /*<< SysTick_VAL_CURRENT_Pos*/)    /*!< SysT
 500:Generated_Source\PSoC6\pdl\cmsis/include/core_cm0plus.h **** 
 501:Generated_Source\PSoC6\pdl\cmsis/include/core_cm0plus.h **** /* SysTick Calibration Register Definitions */
ARM GAS  C:\Users\ASUS\AppData\Local\Temp\ccarWmgw.s 			page 55


 502:Generated_Source\PSoC6\pdl\cmsis/include/core_cm0plus.h **** #define SysTick_CALIB_NOREF_Pos            31U                                            /*!< SysT
 503:Generated_Source\PSoC6\pdl\cmsis/include/core_cm0plus.h **** #define SysTick_CALIB_NOREF_Msk            (1UL << SysTick_CALIB_NOREF_Pos)               /*!< SysT
 504:Generated_Source\PSoC6\pdl\cmsis/include/core_cm0plus.h **** 
 505:Generated_Source\PSoC6\pdl\cmsis/include/core_cm0plus.h **** #define SysTick_CALIB_SKEW_Pos             30U                                            /*!< SysT
 506:Generated_Source\PSoC6\pdl\cmsis/include/core_cm0plus.h **** #define SysTick_CALIB_SKEW_Msk             (1UL << SysTick_CALIB_SKEW_Pos)                /*!< SysT
 507:Generated_Source\PSoC6\pdl\cmsis/include/core_cm0plus.h **** 
 508:Generated_Source\PSoC6\pdl\cmsis/include/core_cm0plus.h **** #define SysTick_CALIB_TENMS_Pos             0U                                            /*!< SysT
 509:Generated_Source\PSoC6\pdl\cmsis/include/core_cm0plus.h **** #define SysTick_CALIB_TENMS_Msk            (0xFFFFFFUL /*<< SysTick_CALIB_TENMS_Pos*/)    /*!< SysT
 510:Generated_Source\PSoC6\pdl\cmsis/include/core_cm0plus.h **** 
 511:Generated_Source\PSoC6\pdl\cmsis/include/core_cm0plus.h **** /*@} end of group CMSIS_SysTick */
 512:Generated_Source\PSoC6\pdl\cmsis/include/core_cm0plus.h **** 
 513:Generated_Source\PSoC6\pdl\cmsis/include/core_cm0plus.h **** #if defined (__MPU_PRESENT) && (__MPU_PRESENT == 1U)
 514:Generated_Source\PSoC6\pdl\cmsis/include/core_cm0plus.h **** /**
 515:Generated_Source\PSoC6\pdl\cmsis/include/core_cm0plus.h ****   \ingroup  CMSIS_core_register
 516:Generated_Source\PSoC6\pdl\cmsis/include/core_cm0plus.h ****   \defgroup CMSIS_MPU     Memory Protection Unit (MPU)
 517:Generated_Source\PSoC6\pdl\cmsis/include/core_cm0plus.h ****   \brief    Type definitions for the Memory Protection Unit (MPU)
 518:Generated_Source\PSoC6\pdl\cmsis/include/core_cm0plus.h ****   @{
 519:Generated_Source\PSoC6\pdl\cmsis/include/core_cm0plus.h ****  */
 520:Generated_Source\PSoC6\pdl\cmsis/include/core_cm0plus.h **** 
 521:Generated_Source\PSoC6\pdl\cmsis/include/core_cm0plus.h **** /**
 522:Generated_Source\PSoC6\pdl\cmsis/include/core_cm0plus.h ****   \brief  Structure type to access the Memory Protection Unit (MPU).
 523:Generated_Source\PSoC6\pdl\cmsis/include/core_cm0plus.h ****  */
 524:Generated_Source\PSoC6\pdl\cmsis/include/core_cm0plus.h **** typedef struct
 525:Generated_Source\PSoC6\pdl\cmsis/include/core_cm0plus.h **** {
 526:Generated_Source\PSoC6\pdl\cmsis/include/core_cm0plus.h ****   __IM  uint32_t TYPE;                   /*!< Offset: 0x000 (R/ )  MPU Type Register */
 527:Generated_Source\PSoC6\pdl\cmsis/include/core_cm0plus.h ****   __IOM uint32_t CTRL;                   /*!< Offset: 0x004 (R/W)  MPU Control Register */
 528:Generated_Source\PSoC6\pdl\cmsis/include/core_cm0plus.h ****   __IOM uint32_t RNR;                    /*!< Offset: 0x008 (R/W)  MPU Region RNRber Register */
 529:Generated_Source\PSoC6\pdl\cmsis/include/core_cm0plus.h ****   __IOM uint32_t RBAR;                   /*!< Offset: 0x00C (R/W)  MPU Region Base Address Register
 530:Generated_Source\PSoC6\pdl\cmsis/include/core_cm0plus.h ****   __IOM uint32_t RASR;                   /*!< Offset: 0x010 (R/W)  MPU Region Attribute and Size Re
 531:Generated_Source\PSoC6\pdl\cmsis/include/core_cm0plus.h **** } MPU_Type;
 532:Generated_Source\PSoC6\pdl\cmsis/include/core_cm0plus.h **** 
 533:Generated_Source\PSoC6\pdl\cmsis/include/core_cm0plus.h **** #define MPU_TYPE_RALIASES                  1U
 534:Generated_Source\PSoC6\pdl\cmsis/include/core_cm0plus.h **** 
 535:Generated_Source\PSoC6\pdl\cmsis/include/core_cm0plus.h **** /* MPU Type Register Definitions */
 536:Generated_Source\PSoC6\pdl\cmsis/include/core_cm0plus.h **** #define MPU_TYPE_IREGION_Pos               16U                                            /*!< MPU 
 537:Generated_Source\PSoC6\pdl\cmsis/include/core_cm0plus.h **** #define MPU_TYPE_IREGION_Msk               (0xFFUL << MPU_TYPE_IREGION_Pos)               /*!< MPU 
 538:Generated_Source\PSoC6\pdl\cmsis/include/core_cm0plus.h **** 
 539:Generated_Source\PSoC6\pdl\cmsis/include/core_cm0plus.h **** #define MPU_TYPE_DREGION_Pos                8U                                            /*!< MPU 
 540:Generated_Source\PSoC6\pdl\cmsis/include/core_cm0plus.h **** #define MPU_TYPE_DREGION_Msk               (0xFFUL << MPU_TYPE_DREGION_Pos)               /*!< MPU 
 541:Generated_Source\PSoC6\pdl\cmsis/include/core_cm0plus.h **** 
 542:Generated_Source\PSoC6\pdl\cmsis/include/core_cm0plus.h **** #define MPU_TYPE_SEPARATE_Pos               0U                                            /*!< MPU 
 543:Generated_Source\PSoC6\pdl\cmsis/include/core_cm0plus.h **** #define MPU_TYPE_SEPARATE_Msk              (1UL /*<< MPU_TYPE_SEPARATE_Pos*/)             /*!< MPU 
 544:Generated_Source\PSoC6\pdl\cmsis/include/core_cm0plus.h **** 
 545:Generated_Source\PSoC6\pdl\cmsis/include/core_cm0plus.h **** /* MPU Control Register Definitions */
 546:Generated_Source\PSoC6\pdl\cmsis/include/core_cm0plus.h **** #define MPU_CTRL_PRIVDEFENA_Pos             2U                                            /*!< MPU 
 547:Generated_Source\PSoC6\pdl\cmsis/include/core_cm0plus.h **** #define MPU_CTRL_PRIVDEFENA_Msk            (1UL << MPU_CTRL_PRIVDEFENA_Pos)               /*!< MPU 
 548:Generated_Source\PSoC6\pdl\cmsis/include/core_cm0plus.h **** 
 549:Generated_Source\PSoC6\pdl\cmsis/include/core_cm0plus.h **** #define MPU_CTRL_HFNMIENA_Pos               1U                                            /*!< MPU 
 550:Generated_Source\PSoC6\pdl\cmsis/include/core_cm0plus.h **** #define MPU_CTRL_HFNMIENA_Msk              (1UL << MPU_CTRL_HFNMIENA_Pos)                 /*!< MPU 
 551:Generated_Source\PSoC6\pdl\cmsis/include/core_cm0plus.h **** 
 552:Generated_Source\PSoC6\pdl\cmsis/include/core_cm0plus.h **** #define MPU_CTRL_ENABLE_Pos                 0U                                            /*!< MPU 
 553:Generated_Source\PSoC6\pdl\cmsis/include/core_cm0plus.h **** #define MPU_CTRL_ENABLE_Msk                (1UL /*<< MPU_CTRL_ENABLE_Pos*/)               /*!< MPU 
 554:Generated_Source\PSoC6\pdl\cmsis/include/core_cm0plus.h **** 
 555:Generated_Source\PSoC6\pdl\cmsis/include/core_cm0plus.h **** /* MPU Region Number Register Definitions */
 556:Generated_Source\PSoC6\pdl\cmsis/include/core_cm0plus.h **** #define MPU_RNR_REGION_Pos                  0U                                            /*!< MPU 
 557:Generated_Source\PSoC6\pdl\cmsis/include/core_cm0plus.h **** #define MPU_RNR_REGION_Msk                 (0xFFUL /*<< MPU_RNR_REGION_Pos*/)             /*!< MPU 
 558:Generated_Source\PSoC6\pdl\cmsis/include/core_cm0plus.h **** 
ARM GAS  C:\Users\ASUS\AppData\Local\Temp\ccarWmgw.s 			page 56


 559:Generated_Source\PSoC6\pdl\cmsis/include/core_cm0plus.h **** /* MPU Region Base Address Register Definitions */
 560:Generated_Source\PSoC6\pdl\cmsis/include/core_cm0plus.h **** #define MPU_RBAR_ADDR_Pos                   8U                                            /*!< MPU 
 561:Generated_Source\PSoC6\pdl\cmsis/include/core_cm0plus.h **** #define MPU_RBAR_ADDR_Msk                  (0xFFFFFFUL << MPU_RBAR_ADDR_Pos)              /*!< MPU 
 562:Generated_Source\PSoC6\pdl\cmsis/include/core_cm0plus.h **** 
 563:Generated_Source\PSoC6\pdl\cmsis/include/core_cm0plus.h **** #define MPU_RBAR_VALID_Pos                  4U                                            /*!< MPU 
 564:Generated_Source\PSoC6\pdl\cmsis/include/core_cm0plus.h **** #define MPU_RBAR_VALID_Msk                 (1UL << MPU_RBAR_VALID_Pos)                    /*!< MPU 
 565:Generated_Source\PSoC6\pdl\cmsis/include/core_cm0plus.h **** 
 566:Generated_Source\PSoC6\pdl\cmsis/include/core_cm0plus.h **** #define MPU_RBAR_REGION_Pos                 0U                                            /*!< MPU 
 567:Generated_Source\PSoC6\pdl\cmsis/include/core_cm0plus.h **** #define MPU_RBAR_REGION_Msk                (0xFUL /*<< MPU_RBAR_REGION_Pos*/)             /*!< MPU 
 568:Generated_Source\PSoC6\pdl\cmsis/include/core_cm0plus.h **** 
 569:Generated_Source\PSoC6\pdl\cmsis/include/core_cm0plus.h **** /* MPU Region Attribute and Size Register Definitions */
 570:Generated_Source\PSoC6\pdl\cmsis/include/core_cm0plus.h **** #define MPU_RASR_ATTRS_Pos                 16U                                            /*!< MPU 
 571:Generated_Source\PSoC6\pdl\cmsis/include/core_cm0plus.h **** #define MPU_RASR_ATTRS_Msk                 (0xFFFFUL << MPU_RASR_ATTRS_Pos)               /*!< MPU 
 572:Generated_Source\PSoC6\pdl\cmsis/include/core_cm0plus.h **** 
 573:Generated_Source\PSoC6\pdl\cmsis/include/core_cm0plus.h **** #define MPU_RASR_XN_Pos                    28U                                            /*!< MPU 
 574:Generated_Source\PSoC6\pdl\cmsis/include/core_cm0plus.h **** #define MPU_RASR_XN_Msk                    (1UL << MPU_RASR_XN_Pos)                       /*!< MPU 
 575:Generated_Source\PSoC6\pdl\cmsis/include/core_cm0plus.h **** 
 576:Generated_Source\PSoC6\pdl\cmsis/include/core_cm0plus.h **** #define MPU_RASR_AP_Pos                    24U                                            /*!< MPU 
 577:Generated_Source\PSoC6\pdl\cmsis/include/core_cm0plus.h **** #define MPU_RASR_AP_Msk                    (0x7UL << MPU_RASR_AP_Pos)                     /*!< MPU 
 578:Generated_Source\PSoC6\pdl\cmsis/include/core_cm0plus.h **** 
 579:Generated_Source\PSoC6\pdl\cmsis/include/core_cm0plus.h **** #define MPU_RASR_TEX_Pos                   19U                                            /*!< MPU 
 580:Generated_Source\PSoC6\pdl\cmsis/include/core_cm0plus.h **** #define MPU_RASR_TEX_Msk                   (0x7UL << MPU_RASR_TEX_Pos)                    /*!< MPU 
 581:Generated_Source\PSoC6\pdl\cmsis/include/core_cm0plus.h **** 
 582:Generated_Source\PSoC6\pdl\cmsis/include/core_cm0plus.h **** #define MPU_RASR_S_Pos                     18U                                            /*!< MPU 
 583:Generated_Source\PSoC6\pdl\cmsis/include/core_cm0plus.h **** #define MPU_RASR_S_Msk                     (1UL << MPU_RASR_S_Pos)                        /*!< MPU 
 584:Generated_Source\PSoC6\pdl\cmsis/include/core_cm0plus.h **** 
 585:Generated_Source\PSoC6\pdl\cmsis/include/core_cm0plus.h **** #define MPU_RASR_C_Pos                     17U                                            /*!< MPU 
 586:Generated_Source\PSoC6\pdl\cmsis/include/core_cm0plus.h **** #define MPU_RASR_C_Msk                     (1UL << MPU_RASR_C_Pos)                        /*!< MPU 
 587:Generated_Source\PSoC6\pdl\cmsis/include/core_cm0plus.h **** 
 588:Generated_Source\PSoC6\pdl\cmsis/include/core_cm0plus.h **** #define MPU_RASR_B_Pos                     16U                                            /*!< MPU 
 589:Generated_Source\PSoC6\pdl\cmsis/include/core_cm0plus.h **** #define MPU_RASR_B_Msk                     (1UL << MPU_RASR_B_Pos)                        /*!< MPU 
 590:Generated_Source\PSoC6\pdl\cmsis/include/core_cm0plus.h **** 
 591:Generated_Source\PSoC6\pdl\cmsis/include/core_cm0plus.h **** #define MPU_RASR_SRD_Pos                    8U                                            /*!< MPU 
 592:Generated_Source\PSoC6\pdl\cmsis/include/core_cm0plus.h **** #define MPU_RASR_SRD_Msk                   (0xFFUL << MPU_RASR_SRD_Pos)                   /*!< MPU 
 593:Generated_Source\PSoC6\pdl\cmsis/include/core_cm0plus.h **** 
 594:Generated_Source\PSoC6\pdl\cmsis/include/core_cm0plus.h **** #define MPU_RASR_SIZE_Pos                   1U                                            /*!< MPU 
 595:Generated_Source\PSoC6\pdl\cmsis/include/core_cm0plus.h **** #define MPU_RASR_SIZE_Msk                  (0x1FUL << MPU_RASR_SIZE_Pos)                  /*!< MPU 
 596:Generated_Source\PSoC6\pdl\cmsis/include/core_cm0plus.h **** 
 597:Generated_Source\PSoC6\pdl\cmsis/include/core_cm0plus.h **** #define MPU_RASR_ENABLE_Pos                 0U                                            /*!< MPU 
 598:Generated_Source\PSoC6\pdl\cmsis/include/core_cm0plus.h **** #define MPU_RASR_ENABLE_Msk                (1UL /*<< MPU_RASR_ENABLE_Pos*/)               /*!< MPU 
 599:Generated_Source\PSoC6\pdl\cmsis/include/core_cm0plus.h **** 
 600:Generated_Source\PSoC6\pdl\cmsis/include/core_cm0plus.h **** /*@} end of group CMSIS_MPU */
 601:Generated_Source\PSoC6\pdl\cmsis/include/core_cm0plus.h **** #endif
 602:Generated_Source\PSoC6\pdl\cmsis/include/core_cm0plus.h **** 
 603:Generated_Source\PSoC6\pdl\cmsis/include/core_cm0plus.h **** 
 604:Generated_Source\PSoC6\pdl\cmsis/include/core_cm0plus.h **** /**
 605:Generated_Source\PSoC6\pdl\cmsis/include/core_cm0plus.h ****   \ingroup  CMSIS_core_register
 606:Generated_Source\PSoC6\pdl\cmsis/include/core_cm0plus.h ****   \defgroup CMSIS_CoreDebug       Core Debug Registers (CoreDebug)
 607:Generated_Source\PSoC6\pdl\cmsis/include/core_cm0plus.h ****   \brief    Cortex-M0+ Core Debug Registers (DCB registers, SHCSR, and DFSR) are only accessible ov
 608:Generated_Source\PSoC6\pdl\cmsis/include/core_cm0plus.h ****             Therefore they are not covered by the Cortex-M0+ header file.
 609:Generated_Source\PSoC6\pdl\cmsis/include/core_cm0plus.h ****   @{
 610:Generated_Source\PSoC6\pdl\cmsis/include/core_cm0plus.h ****  */
 611:Generated_Source\PSoC6\pdl\cmsis/include/core_cm0plus.h **** /*@} end of group CMSIS_CoreDebug */
 612:Generated_Source\PSoC6\pdl\cmsis/include/core_cm0plus.h **** 
 613:Generated_Source\PSoC6\pdl\cmsis/include/core_cm0plus.h **** 
 614:Generated_Source\PSoC6\pdl\cmsis/include/core_cm0plus.h **** /**
 615:Generated_Source\PSoC6\pdl\cmsis/include/core_cm0plus.h ****   \ingroup    CMSIS_core_register
ARM GAS  C:\Users\ASUS\AppData\Local\Temp\ccarWmgw.s 			page 57


 616:Generated_Source\PSoC6\pdl\cmsis/include/core_cm0plus.h ****   \defgroup   CMSIS_core_bitfield     Core register bit field macros
 617:Generated_Source\PSoC6\pdl\cmsis/include/core_cm0plus.h ****   \brief      Macros for use with bit field definitions (xxx_Pos, xxx_Msk).
 618:Generated_Source\PSoC6\pdl\cmsis/include/core_cm0plus.h ****   @{
 619:Generated_Source\PSoC6\pdl\cmsis/include/core_cm0plus.h ****  */
 620:Generated_Source\PSoC6\pdl\cmsis/include/core_cm0plus.h **** 
 621:Generated_Source\PSoC6\pdl\cmsis/include/core_cm0plus.h **** /**
 622:Generated_Source\PSoC6\pdl\cmsis/include/core_cm0plus.h ****   \brief   Mask and shift a bit field value for use in a register bit range.
 623:Generated_Source\PSoC6\pdl\cmsis/include/core_cm0plus.h ****   \param[in] field  Name of the register bit field.
 624:Generated_Source\PSoC6\pdl\cmsis/include/core_cm0plus.h ****   \param[in] value  Value of the bit field. This parameter is interpreted as an uint32_t type.
 625:Generated_Source\PSoC6\pdl\cmsis/include/core_cm0plus.h ****   \return           Masked and shifted value.
 626:Generated_Source\PSoC6\pdl\cmsis/include/core_cm0plus.h **** */
 627:Generated_Source\PSoC6\pdl\cmsis/include/core_cm0plus.h **** #define _VAL2FLD(field, value)    (((uint32_t)(value) << field ## _Pos) & field ## _Msk)
 628:Generated_Source\PSoC6\pdl\cmsis/include/core_cm0plus.h **** 
 629:Generated_Source\PSoC6\pdl\cmsis/include/core_cm0plus.h **** /**
 630:Generated_Source\PSoC6\pdl\cmsis/include/core_cm0plus.h ****   \brief     Mask and shift a register value to extract a bit filed value.
 631:Generated_Source\PSoC6\pdl\cmsis/include/core_cm0plus.h ****   \param[in] field  Name of the register bit field.
 632:Generated_Source\PSoC6\pdl\cmsis/include/core_cm0plus.h ****   \param[in] value  Value of register. This parameter is interpreted as an uint32_t type.
 633:Generated_Source\PSoC6\pdl\cmsis/include/core_cm0plus.h ****   \return           Masked and shifted bit field value.
 634:Generated_Source\PSoC6\pdl\cmsis/include/core_cm0plus.h **** */
 635:Generated_Source\PSoC6\pdl\cmsis/include/core_cm0plus.h **** #define _FLD2VAL(field, value)    (((uint32_t)(value) & field ## _Msk) >> field ## _Pos)
 636:Generated_Source\PSoC6\pdl\cmsis/include/core_cm0plus.h **** 
 637:Generated_Source\PSoC6\pdl\cmsis/include/core_cm0plus.h **** /*@} end of group CMSIS_core_bitfield */
 638:Generated_Source\PSoC6\pdl\cmsis/include/core_cm0plus.h **** 
 639:Generated_Source\PSoC6\pdl\cmsis/include/core_cm0plus.h **** 
 640:Generated_Source\PSoC6\pdl\cmsis/include/core_cm0plus.h **** /**
 641:Generated_Source\PSoC6\pdl\cmsis/include/core_cm0plus.h ****   \ingroup    CMSIS_core_register
 642:Generated_Source\PSoC6\pdl\cmsis/include/core_cm0plus.h ****   \defgroup   CMSIS_core_base     Core Definitions
 643:Generated_Source\PSoC6\pdl\cmsis/include/core_cm0plus.h ****   \brief      Definitions for base addresses, unions, and structures.
 644:Generated_Source\PSoC6\pdl\cmsis/include/core_cm0plus.h ****   @{
 645:Generated_Source\PSoC6\pdl\cmsis/include/core_cm0plus.h ****  */
 646:Generated_Source\PSoC6\pdl\cmsis/include/core_cm0plus.h **** 
 647:Generated_Source\PSoC6\pdl\cmsis/include/core_cm0plus.h **** /* Memory mapping of Core Hardware */
 648:Generated_Source\PSoC6\pdl\cmsis/include/core_cm0plus.h **** #define SCS_BASE            (0xE000E000UL)                            /*!< System Control Space Bas
 649:Generated_Source\PSoC6\pdl\cmsis/include/core_cm0plus.h **** #define SysTick_BASE        (SCS_BASE +  0x0010UL)                    /*!< SysTick Base Address */
 650:Generated_Source\PSoC6\pdl\cmsis/include/core_cm0plus.h **** #define NVIC_BASE           (SCS_BASE +  0x0100UL)                    /*!< NVIC Base Address */
 651:Generated_Source\PSoC6\pdl\cmsis/include/core_cm0plus.h **** #define SCB_BASE            (SCS_BASE +  0x0D00UL)                    /*!< System Control Block Bas
 652:Generated_Source\PSoC6\pdl\cmsis/include/core_cm0plus.h **** 
 653:Generated_Source\PSoC6\pdl\cmsis/include/core_cm0plus.h **** #define SCB                 ((SCB_Type       *)     SCB_BASE      )   /*!< SCB configuration struct
 654:Generated_Source\PSoC6\pdl\cmsis/include/core_cm0plus.h **** #define SysTick             ((SysTick_Type   *)     SysTick_BASE  )   /*!< SysTick configuration st
 655:Generated_Source\PSoC6\pdl\cmsis/include/core_cm0plus.h **** #define NVIC                ((NVIC_Type      *)     NVIC_BASE     )   /*!< NVIC configuration struc
 656:Generated_Source\PSoC6\pdl\cmsis/include/core_cm0plus.h **** 
 657:Generated_Source\PSoC6\pdl\cmsis/include/core_cm0plus.h **** #if defined (__MPU_PRESENT) && (__MPU_PRESENT == 1U)
 658:Generated_Source\PSoC6\pdl\cmsis/include/core_cm0plus.h ****   #define MPU_BASE          (SCS_BASE +  0x0D90UL)                    /*!< Memory Protection Unit *
 659:Generated_Source\PSoC6\pdl\cmsis/include/core_cm0plus.h ****   #define MPU               ((MPU_Type       *)     MPU_BASE      )   /*!< Memory Protection Unit *
 660:Generated_Source\PSoC6\pdl\cmsis/include/core_cm0plus.h **** #endif
 661:Generated_Source\PSoC6\pdl\cmsis/include/core_cm0plus.h **** 
 662:Generated_Source\PSoC6\pdl\cmsis/include/core_cm0plus.h **** /*@} */
 663:Generated_Source\PSoC6\pdl\cmsis/include/core_cm0plus.h **** 
 664:Generated_Source\PSoC6\pdl\cmsis/include/core_cm0plus.h **** 
 665:Generated_Source\PSoC6\pdl\cmsis/include/core_cm0plus.h **** 
 666:Generated_Source\PSoC6\pdl\cmsis/include/core_cm0plus.h **** /*******************************************************************************
 667:Generated_Source\PSoC6\pdl\cmsis/include/core_cm0plus.h ****  *                Hardware Abstraction Layer
 668:Generated_Source\PSoC6\pdl\cmsis/include/core_cm0plus.h ****   Core Function Interface contains:
 669:Generated_Source\PSoC6\pdl\cmsis/include/core_cm0plus.h ****   - Core NVIC Functions
 670:Generated_Source\PSoC6\pdl\cmsis/include/core_cm0plus.h ****   - Core SysTick Functions
 671:Generated_Source\PSoC6\pdl\cmsis/include/core_cm0plus.h ****   - Core Register Access Functions
 672:Generated_Source\PSoC6\pdl\cmsis/include/core_cm0plus.h ****  ******************************************************************************/
ARM GAS  C:\Users\ASUS\AppData\Local\Temp\ccarWmgw.s 			page 58


 673:Generated_Source\PSoC6\pdl\cmsis/include/core_cm0plus.h **** /**
 674:Generated_Source\PSoC6\pdl\cmsis/include/core_cm0plus.h ****   \defgroup CMSIS_Core_FunctionInterface Functions and Instructions Reference
 675:Generated_Source\PSoC6\pdl\cmsis/include/core_cm0plus.h **** */
 676:Generated_Source\PSoC6\pdl\cmsis/include/core_cm0plus.h **** 
 677:Generated_Source\PSoC6\pdl\cmsis/include/core_cm0plus.h **** 
 678:Generated_Source\PSoC6\pdl\cmsis/include/core_cm0plus.h **** 
 679:Generated_Source\PSoC6\pdl\cmsis/include/core_cm0plus.h **** /* ##########################   NVIC functions  #################################### */
 680:Generated_Source\PSoC6\pdl\cmsis/include/core_cm0plus.h **** /**
 681:Generated_Source\PSoC6\pdl\cmsis/include/core_cm0plus.h ****   \ingroup  CMSIS_Core_FunctionInterface
 682:Generated_Source\PSoC6\pdl\cmsis/include/core_cm0plus.h ****   \defgroup CMSIS_Core_NVICFunctions NVIC Functions
 683:Generated_Source\PSoC6\pdl\cmsis/include/core_cm0plus.h ****   \brief    Functions that manage interrupts and exceptions via the NVIC.
 684:Generated_Source\PSoC6\pdl\cmsis/include/core_cm0plus.h ****   @{
 685:Generated_Source\PSoC6\pdl\cmsis/include/core_cm0plus.h ****  */
 686:Generated_Source\PSoC6\pdl\cmsis/include/core_cm0plus.h **** 
 687:Generated_Source\PSoC6\pdl\cmsis/include/core_cm0plus.h **** #ifdef CMSIS_NVIC_VIRTUAL
 688:Generated_Source\PSoC6\pdl\cmsis/include/core_cm0plus.h ****   #ifndef CMSIS_NVIC_VIRTUAL_HEADER_FILE
 689:Generated_Source\PSoC6\pdl\cmsis/include/core_cm0plus.h ****     #define CMSIS_NVIC_VIRTUAL_HEADER_FILE "cmsis_nvic_virtual.h"
 690:Generated_Source\PSoC6\pdl\cmsis/include/core_cm0plus.h ****   #endif
 691:Generated_Source\PSoC6\pdl\cmsis/include/core_cm0plus.h ****   #include CMSIS_NVIC_VIRTUAL_HEADER_FILE
 692:Generated_Source\PSoC6\pdl\cmsis/include/core_cm0plus.h **** #else
 693:Generated_Source\PSoC6\pdl\cmsis/include/core_cm0plus.h **** /*#define NVIC_SetPriorityGrouping    __NVIC_SetPriorityGrouping   not available for Cortex-M0+ */
 694:Generated_Source\PSoC6\pdl\cmsis/include/core_cm0plus.h **** /*#define NVIC_GetPriorityGrouping    __NVIC_GetPriorityGrouping   not available for Cortex-M0+ */
 695:Generated_Source\PSoC6\pdl\cmsis/include/core_cm0plus.h ****   #define NVIC_EnableIRQ              __NVIC_EnableIRQ
 696:Generated_Source\PSoC6\pdl\cmsis/include/core_cm0plus.h ****   #define NVIC_GetEnableIRQ           __NVIC_GetEnableIRQ
 697:Generated_Source\PSoC6\pdl\cmsis/include/core_cm0plus.h ****   #define NVIC_DisableIRQ             __NVIC_DisableIRQ
 698:Generated_Source\PSoC6\pdl\cmsis/include/core_cm0plus.h ****   #define NVIC_GetPendingIRQ          __NVIC_GetPendingIRQ
 699:Generated_Source\PSoC6\pdl\cmsis/include/core_cm0plus.h ****   #define NVIC_SetPendingIRQ          __NVIC_SetPendingIRQ
 700:Generated_Source\PSoC6\pdl\cmsis/include/core_cm0plus.h ****   #define NVIC_ClearPendingIRQ        __NVIC_ClearPendingIRQ
 701:Generated_Source\PSoC6\pdl\cmsis/include/core_cm0plus.h **** /*#define NVIC_GetActive              __NVIC_GetActive             not available for Cortex-M0+ */
 702:Generated_Source\PSoC6\pdl\cmsis/include/core_cm0plus.h ****   #define NVIC_SetPriority            __NVIC_SetPriority
 703:Generated_Source\PSoC6\pdl\cmsis/include/core_cm0plus.h ****   #define NVIC_GetPriority            __NVIC_GetPriority
 704:Generated_Source\PSoC6\pdl\cmsis/include/core_cm0plus.h ****   #define NVIC_SystemReset            __NVIC_SystemReset
 705:Generated_Source\PSoC6\pdl\cmsis/include/core_cm0plus.h **** #endif /* CMSIS_NVIC_VIRTUAL */
 706:Generated_Source\PSoC6\pdl\cmsis/include/core_cm0plus.h **** 
 707:Generated_Source\PSoC6\pdl\cmsis/include/core_cm0plus.h **** #ifdef CMSIS_VECTAB_VIRTUAL
 708:Generated_Source\PSoC6\pdl\cmsis/include/core_cm0plus.h ****   #ifndef CMSIS_VECTAB_VIRTUAL_HEADER_FILE
 709:Generated_Source\PSoC6\pdl\cmsis/include/core_cm0plus.h ****     #define CMSIS_VECTAB_VIRTUAL_HEADER_FILE "cmsis_vectab_virtual.h"
 710:Generated_Source\PSoC6\pdl\cmsis/include/core_cm0plus.h ****   #endif
 711:Generated_Source\PSoC6\pdl\cmsis/include/core_cm0plus.h ****   #include CMSIS_VECTAB_VIRTUAL_HEADER_FILE
 712:Generated_Source\PSoC6\pdl\cmsis/include/core_cm0plus.h **** #else
 713:Generated_Source\PSoC6\pdl\cmsis/include/core_cm0plus.h ****   #define NVIC_SetVector              __NVIC_SetVector
 714:Generated_Source\PSoC6\pdl\cmsis/include/core_cm0plus.h ****   #define NVIC_GetVector              __NVIC_GetVector
 715:Generated_Source\PSoC6\pdl\cmsis/include/core_cm0plus.h **** #endif  /* (CMSIS_VECTAB_VIRTUAL) */
 716:Generated_Source\PSoC6\pdl\cmsis/include/core_cm0plus.h **** 
 717:Generated_Source\PSoC6\pdl\cmsis/include/core_cm0plus.h **** #define NVIC_USER_IRQ_OFFSET          16
 718:Generated_Source\PSoC6\pdl\cmsis/include/core_cm0plus.h **** 
 719:Generated_Source\PSoC6\pdl\cmsis/include/core_cm0plus.h **** 
 720:Generated_Source\PSoC6\pdl\cmsis/include/core_cm0plus.h **** /* Interrupt Priorities are WORD accessible only under Armv6-M                  */
 721:Generated_Source\PSoC6\pdl\cmsis/include/core_cm0plus.h **** /* The following MACROS handle generation of the register offset and byte masks */
 722:Generated_Source\PSoC6\pdl\cmsis/include/core_cm0plus.h **** #define _BIT_SHIFT(IRQn)         (  ((((uint32_t)(int32_t)(IRQn))         )      &  0x03UL) * 8UL)
 723:Generated_Source\PSoC6\pdl\cmsis/include/core_cm0plus.h **** #define _SHP_IDX(IRQn)           ( (((((uint32_t)(int32_t)(IRQn)) & 0x0FUL)-8UL) >>    2UL)      )
 724:Generated_Source\PSoC6\pdl\cmsis/include/core_cm0plus.h **** #define _IP_IDX(IRQn)            (   (((uint32_t)(int32_t)(IRQn))                >>    2UL)      )
 725:Generated_Source\PSoC6\pdl\cmsis/include/core_cm0plus.h **** 
 726:Generated_Source\PSoC6\pdl\cmsis/include/core_cm0plus.h **** 
 727:Generated_Source\PSoC6\pdl\cmsis/include/core_cm0plus.h **** /**
 728:Generated_Source\PSoC6\pdl\cmsis/include/core_cm0plus.h ****   \brief   Enable Interrupt
 729:Generated_Source\PSoC6\pdl\cmsis/include/core_cm0plus.h ****   \details Enables a device specific interrupt in the NVIC interrupt controller.
ARM GAS  C:\Users\ASUS\AppData\Local\Temp\ccarWmgw.s 			page 59


 730:Generated_Source\PSoC6\pdl\cmsis/include/core_cm0plus.h ****   \param [in]      IRQn  Device specific interrupt number.
 731:Generated_Source\PSoC6\pdl\cmsis/include/core_cm0plus.h ****   \note    IRQn must not be negative.
 732:Generated_Source\PSoC6\pdl\cmsis/include/core_cm0plus.h ****  */
 733:Generated_Source\PSoC6\pdl\cmsis/include/core_cm0plus.h **** __STATIC_INLINE void __NVIC_EnableIRQ(IRQn_Type IRQn)
 734:Generated_Source\PSoC6\pdl\cmsis/include/core_cm0plus.h **** {
 735:Generated_Source\PSoC6\pdl\cmsis/include/core_cm0plus.h ****   if ((int32_t)(IRQn) >= 0)
 1318              		.loc 6 735 0
 1319 003a 002A     		cmp	r2, #0
 1320 003c 05DB     		blt	.L50
 736:Generated_Source\PSoC6\pdl\cmsis/include/core_cm0plus.h ****   {
 737:Generated_Source\PSoC6\pdl\cmsis/include/core_cm0plus.h ****     NVIC->ISER[0U] = (uint32_t)(1UL << (((uint32_t)IRQn) & 0x1FUL));
 1321              		.loc 6 737 0
 1322 003e 1F23     		movs	r3, #31
 1323 0040 1A40     		ands	r2, r3
 1324              	.LVL144:
 1325 0042 1E3B     		subs	r3, r3, #30
 1326 0044 9340     		lsls	r3, r3, r2
 1327 0046 044A     		ldr	r2, .L55+12
 1328 0048 1360     		str	r3, [r2]
 1329              	.LVL145:
 1330              	.L50:
 1331              	.LBE89:
 1332              	.LBE88:
 103:RTC_Alarm.h   **** 
 1333              		.loc 2 103 0
 1334              		@ sp needed
 1335 004a 10BD     		pop	{r4, pc}
 1336              	.L56:
 1337              		.align	2
 1338              	.L55:
 1339 004c 98010000 		.word	.LC26
 1340 0050 00000000 		.word	RTC_RTC_IRQ_cfg
 1341 0054 00000000 		.word	RtcInterruptHandler
 1342 0058 00E100E0 		.word	-536813312
 1343              		.cfi_endproc
 1344              	.LFE475:
 1345              		.size	init_RTC, .-init_RTC
 1346              		.section	.text.Cy_RTC_Alarm2Interrupt,"ax",%progbits
 1347              		.align	2
 1348              		.global	Cy_RTC_Alarm2Interrupt
 1349              		.code	16
 1350              		.thumb_func
 1351              		.type	Cy_RTC_Alarm2Interrupt, %function
 1352              	Cy_RTC_Alarm2Interrupt:
 1353              	.LFB479:
 198:RTC_Alarm.h   **** 
 199:RTC_Alarm.h   **** /******************************************************************************
 200:RTC_Alarm.h   **** * Function Name: Cy_RTC_Alarm2Interrupt
 201:RTC_Alarm.h   **** *******************************************************************************
 202:RTC_Alarm.h   **** *
 203:RTC_Alarm.h   **** * Summary: 
 204:RTC_Alarm.h   **** *  The function overrides the __WEAK Cy_RTC_Alarm2Interrupt() in cy_rtc.c to 
 205:RTC_Alarm.h   **** *  handle CY_RTC_ALARM_2 interrupt.
 206:RTC_Alarm.h   **** *
 207:RTC_Alarm.h   **** * Parameters:
 208:RTC_Alarm.h   **** *  None
 209:RTC_Alarm.h   **** *
ARM GAS  C:\Users\ASUS\AppData\Local\Temp\ccarWmgw.s 			page 60


 210:RTC_Alarm.h   **** * Return:
 211:RTC_Alarm.h   **** *  None
 212:RTC_Alarm.h   **** *
 213:RTC_Alarm.h   **** ******************************************************************************/
 214:RTC_Alarm.h   **** void Cy_RTC_Alarm2Interrupt(void)
 215:RTC_Alarm.h   **** {
 1354              		.loc 2 215 0
 1355              		.cfi_startproc
 1356              		@ args = 0, pretend = 0, frame = 0
 1357              		@ frame_needed = 0, uses_anonymous_args = 0
 1358              		@ link register save eliminated.
 216:RTC_Alarm.h   ****     /* the interrupt has fired, meaning time expired and the alarm went off */
 217:RTC_Alarm.h   **** 	alarmFlag = 1u;  
 1359              		.loc 2 217 0
 1360 0000 0122     		movs	r2, #1
 1361 0002 014B     		ldr	r3, .L58
 1362 0004 5A60     		str	r2, [r3, #4]
 218:RTC_Alarm.h   **** 
 219:RTC_Alarm.h   **** }
 1363              		.loc 2 219 0
 1364              		@ sp needed
 1365 0006 7047     		bx	lr
 1366              	.L59:
 1367              		.align	2
 1368              	.L58:
 1369 0008 00000000 		.word	.LANCHOR0
 1370              		.cfi_endproc
 1371              	.LFE479:
 1372              		.size	Cy_RTC_Alarm2Interrupt, .-Cy_RTC_Alarm2Interrupt
 1373              		.global	__aeabi_uidivmod
 1374              		.section	.text.RtcStepAlarm,"ax",%progbits
 1375              		.align	2
 1376              		.global	RtcStepAlarm
 1377              		.code	16
 1378              		.thumb_func
 1379              		.type	RtcStepAlarm, %function
 1380              	RtcStepAlarm:
 1381              	.LFB480:
 220:RTC_Alarm.h   **** 
 221:RTC_Alarm.h   **** /******************************************************************************
 222:RTC_Alarm.h   **** * Function Name: RtcStepAlarm
 223:RTC_Alarm.h   **** *******************************************************************************
 224:RTC_Alarm.h   **** *
 225:RTC_Alarm.h   **** * Summary: 
 226:RTC_Alarm.h   **** *  This function sets the time for CY_RTC_ALARM_2, and configures the interrupt.
 227:RTC_Alarm.h   **** *  The available periods are one second to sixty seconds and one minute to sixty 
 228:RTC_Alarm.h   **** *  minutes. 
 229:RTC_Alarm.h   **** *
 230:RTC_Alarm.h   **** * Parameters:
 231:RTC_Alarm.h   **** *  None
 232:RTC_Alarm.h   **** *
 233:RTC_Alarm.h   **** * Return:
 234:RTC_Alarm.h   **** *  None
 235:RTC_Alarm.h   **** *
 236:RTC_Alarm.h   **** ******************************************************************************/
 237:RTC_Alarm.h   **** void RtcStepAlarm(void)
 238:RTC_Alarm.h   **** {
ARM GAS  C:\Users\ASUS\AppData\Local\Temp\ccarWmgw.s 			page 61


 1382              		.loc 2 238 0
 1383              		.cfi_startproc
 1384              		@ args = 0, pretend = 0, frame = 0
 1385              		@ frame_needed = 0, uses_anonymous_args = 0
 1386 0000 10B5     		push	{r4, lr}
 1387              		.cfi_def_cfa_offset 8
 1388              		.cfi_offset 4, -8
 1389              		.cfi_offset 14, -4
 239:RTC_Alarm.h   ****     /* Don't set next time, if the interval is one second or one minute */
 240:RTC_Alarm.h   ****     if(TICK_INTERVAL != 1u)
 241:RTC_Alarm.h   ****     {
 242:RTC_Alarm.h   ****         if (USE_MINUTES)  /* match minutes, and advance by minutes */
 243:RTC_Alarm.h   ****     	{
 244:RTC_Alarm.h   ****     		/* 
 245:RTC_Alarm.h   ****                 Enable the correct matches. This is a periodic interrupt, but 
 246:RTC_Alarm.h   ****                 happens every two or more minutes. Because we are stepping by 
 247:RTC_Alarm.h   ****                 minutes, we need to match the minutes number. We also match 
 248:RTC_Alarm.h   ****                 the seconds number so the alarm only goes off when both the 
 249:RTC_Alarm.h   ****                 seconds and minutes match. Because we are not changing the value
 250:RTC_Alarm.h   ****                 of the seconds in the alarm, the alarm happens only once when the
 251:RTC_Alarm.h   ****                 minutes match.
 252:RTC_Alarm.h   ****             */
 253:RTC_Alarm.h   ****             alarmConfig.secEn = CY_RTC_ALARM_ENABLE;
 254:RTC_Alarm.h   ****             alarmConfig.minEn = CY_RTC_ALARM_ENABLE;
 255:RTC_Alarm.h   **** 
 256:RTC_Alarm.h   ****     		/* advance the minute by the specified interval */
 257:RTC_Alarm.h   ****     		alarmConfig.min += TICK_INTERVAL;
 258:RTC_Alarm.h   **** 
 259:RTC_Alarm.h   ****             /* keep it in range, 0-59 */
 260:RTC_Alarm.h   ****             alarmConfig.min = alarmConfig.min % MINUTES_PER_HOUR;
 261:RTC_Alarm.h   ****     	}
 262:RTC_Alarm.h   ****     	else   /* USE_SECONDS, alarm when the seconds match */
 263:RTC_Alarm.h   ****     	{
 264:RTC_Alarm.h   ****     		/* 
 265:RTC_Alarm.h   ****                 Enable the correct matches. Because we are stepping by seconds, 
 266:RTC_Alarm.h   ****                 we need to match just the seconds number.
 267:RTC_Alarm.h   ****             */
 268:RTC_Alarm.h   ****             alarmConfig.secEn = CY_RTC_ALARM_ENABLE;
 1390              		.loc 2 268 0
 1391 0002 094C     		ldr	r4, .L62
 1392 0004 0123     		movs	r3, #1
 1393 0006 2371     		strb	r3, [r4, #4]
 269:RTC_Alarm.h   **** 
 270:RTC_Alarm.h   ****     		/* advance the second by the specified interval */
 271:RTC_Alarm.h   ****     		alarmConfig.sec += TICK_INTERVAL;
 1394              		.loc 2 271 0
 1395 0008 2368     		ldr	r3, [r4]
 1396 000a 581D     		adds	r0, r3, #5
 272:RTC_Alarm.h   **** 
 273:RTC_Alarm.h   ****             /* keep it in range, 0-59 */
 274:RTC_Alarm.h   ****             alarmConfig.sec = alarmConfig.sec % SECONDS_PER_MIN;
 1397              		.loc 2 274 0
 1398 000c 3C21     		movs	r1, #60
 1399 000e FFF7FEFF 		bl	__aeabi_uidivmod
 1400              	.LVL146:
 1401 0012 2160     		str	r1, [r4]
 275:RTC_Alarm.h   ****     	}
ARM GAS  C:\Users\ASUS\AppData\Local\Temp\ccarWmgw.s 			page 62


 276:RTC_Alarm.h   ****     	
 277:RTC_Alarm.h   ****     	/* update the alarm configuration */
 278:RTC_Alarm.h   ****     	if(RtcAlarmConfig() != CY_RTC_SUCCESS)
 1402              		.loc 2 278 0
 1403 0014 FFF7FEFF 		bl	RtcAlarmConfig
 1404              	.LVL147:
 1405 0018 0028     		cmp	r0, #0
 1406 001a 04D0     		beq	.L60
 279:RTC_Alarm.h   ****     	{
 280:RTC_Alarm.h   ****     	   /* If the operation fails, halt */
 281:RTC_Alarm.h   ****     	   CY_ASSERT(0u);
 1407              		.loc 2 281 0 discriminator 1
 1408 001c 1A21     		movs	r1, #26
 1409 001e FF31     		adds	r1, r1, #255
 1410 0020 0248     		ldr	r0, .L62+4
 1411 0022 FFF7FEFF 		bl	Cy_SysLib_AssertFailed
 1412              	.LVL148:
 1413              	.L60:
 282:RTC_Alarm.h   ****     	}
 283:RTC_Alarm.h   ****     }
 284:RTC_Alarm.h   **** }
 1414              		.loc 2 284 0
 1415              		@ sp needed
 1416 0026 10BD     		pop	{r4, pc}
 1417              	.L63:
 1418              		.align	2
 1419              	.L62:
 1420 0028 00000000 		.word	.LANCHOR1
 1421 002c 98010000 		.word	.LC26
 1422              		.cfi_endproc
 1423              	.LFE480:
 1424              		.size	RtcStepAlarm, .-RtcStepAlarm
 1425              		.section	.text.main,"ax",%progbits
 1426              		.align	2
 1427              		.global	main
 1428              		.code	16
 1429              		.thumb_func
 1430              		.type	main, %function
 1431              	main:
 1432              	.LFB481:
 1433              		.file 7 "main_cm0p.c"
   1:main_cm0p.c   **** /******************************************************************************
   2:main_cm0p.c   **** * File Name: main_cm0p.c
   3:main_cm0p.c   **** *
   4:main_cm0p.c   **** * Version: Beta
   5:main_cm0p.c   **** *
   6:main_cm0p.c   **** * Description: This is the main firmware file for the EasyMoo capstone project.
   7:main_cm0p.c   **** * This PSoC project is for a cow physical health monitor product, utilizing SoC
   8:main_cm0p.c   **** * circuitry, including sensors and a battery powered module.
   9:main_cm0p.c   **** *
  10:main_cm0p.c   **** * Related Document: TrueColor_LightSensor.pdf
  11:main_cm0p.c   **** * Hardware Dependency:  CY8CKIT-063-BLE PSoC 6 BLE Pioneer kit
  12:main_cm0p.c   **** *                       AS73211 True Color Sensor
  13:main_cm0p.c   **** *
  14:main_cm0p.c   **** * Author(s):
  15:main_cm0p.c   **** *	Yousef H. Akbar & and Cow Team
  16:main_cm0p.c   **** *	Dept. Electrical and Computer Engineering
ARM GAS  C:\Users\ASUS\AppData\Local\Temp\ccarWmgw.s 			page 63


  17:main_cm0p.c   **** *	University of California, Davis
  18:main_cm0p.c   **** 
  19:main_cm0p.c   **** ******************************************************************************/
  20:main_cm0p.c   **** #include "project.h"
  21:main_cm0p.c   **** #include "stdio.h"
  22:main_cm0p.c   **** 
  23:main_cm0p.c   **** /* Project Firmware Dependencies */
  24:main_cm0p.c   **** #include "BLE.h"
  25:main_cm0p.c   **** #include "Light.h"
  26:main_cm0p.c   **** #include "Accelerometer.h"
  27:main_cm0p.c   **** #include "RTC_Alarm.h"
  28:main_cm0p.c   **** 
  29:main_cm0p.c   **** /* Global Variables */
  30:main_cm0p.c   **** uint16_t xChannel, yChannel, zChannel, temperature;	// Light Sensor Vars
  31:main_cm0p.c   **** uint16_t accX, accY, accZ;				// Accelerometer
  32:main_cm0p.c   **** uint16_t gyroX, gyroY, gyroZ;				// Gyroscope
  33:main_cm0p.c   **** 
  34:main_cm0p.c   **** /* The interrupt status variable */
  35:main_cm0p.c   **** 
  36:main_cm0p.c   **** int main(void)
  37:main_cm0p.c   **** {
 1434              		.loc 7 37 0
 1435              		.cfi_startproc
 1436              		@ Volatile: function does not return.
 1437              		@ args = 0, pretend = 0, frame = 0
 1438              		@ frame_needed = 0, uses_anonymous_args = 0
 1439 0000 70B5     		push	{r4, r5, r6, lr}
 1440              		.cfi_def_cfa_offset 16
 1441              		.cfi_offset 4, -16
 1442              		.cfi_offset 5, -12
 1443              		.cfi_offset 6, -8
 1444              		.cfi_offset 14, -4
 1445              	.LBB90:
 1446              	.LBB91:
 1447              		.file 8 "Generated_Source\\PSoC6\\pdl\\cmsis/include/cmsis_gcc.h"
   1:Generated_Source\PSoC6\pdl\cmsis/include/cmsis_gcc.h **** /**************************************************************************//**
   2:Generated_Source\PSoC6\pdl\cmsis/include/cmsis_gcc.h ****  * @file     cmsis_gcc.h
   3:Generated_Source\PSoC6\pdl\cmsis/include/cmsis_gcc.h ****  * @brief    CMSIS compiler GCC header file
   4:Generated_Source\PSoC6\pdl\cmsis/include/cmsis_gcc.h ****  * @version  V5.0.3
   5:Generated_Source\PSoC6\pdl\cmsis/include/cmsis_gcc.h ****  * @date     16. January 2018
   6:Generated_Source\PSoC6\pdl\cmsis/include/cmsis_gcc.h ****  ******************************************************************************/
   7:Generated_Source\PSoC6\pdl\cmsis/include/cmsis_gcc.h **** /*
   8:Generated_Source\PSoC6\pdl\cmsis/include/cmsis_gcc.h ****  * Copyright (c) 2009-2017 ARM Limited. All rights reserved.
   9:Generated_Source\PSoC6\pdl\cmsis/include/cmsis_gcc.h ****  *
  10:Generated_Source\PSoC6\pdl\cmsis/include/cmsis_gcc.h ****  * SPDX-License-Identifier: Apache-2.0
  11:Generated_Source\PSoC6\pdl\cmsis/include/cmsis_gcc.h ****  *
  12:Generated_Source\PSoC6\pdl\cmsis/include/cmsis_gcc.h ****  * Licensed under the Apache License, Version 2.0 (the License); you may
  13:Generated_Source\PSoC6\pdl\cmsis/include/cmsis_gcc.h ****  * not use this file except in compliance with the License.
  14:Generated_Source\PSoC6\pdl\cmsis/include/cmsis_gcc.h ****  * You may obtain a copy of the License at
  15:Generated_Source\PSoC6\pdl\cmsis/include/cmsis_gcc.h ****  *
  16:Generated_Source\PSoC6\pdl\cmsis/include/cmsis_gcc.h ****  * www.apache.org/licenses/LICENSE-2.0
  17:Generated_Source\PSoC6\pdl\cmsis/include/cmsis_gcc.h ****  *
  18:Generated_Source\PSoC6\pdl\cmsis/include/cmsis_gcc.h ****  * Unless required by applicable law or agreed to in writing, software
  19:Generated_Source\PSoC6\pdl\cmsis/include/cmsis_gcc.h ****  * distributed under the License is distributed on an AS IS BASIS, WITHOUT
  20:Generated_Source\PSoC6\pdl\cmsis/include/cmsis_gcc.h ****  * WARRANTIES OR CONDITIONS OF ANY KIND, either express or implied.
  21:Generated_Source\PSoC6\pdl\cmsis/include/cmsis_gcc.h ****  * See the License for the specific language governing permissions and
  22:Generated_Source\PSoC6\pdl\cmsis/include/cmsis_gcc.h ****  * limitations under the License.
ARM GAS  C:\Users\ASUS\AppData\Local\Temp\ccarWmgw.s 			page 64


  23:Generated_Source\PSoC6\pdl\cmsis/include/cmsis_gcc.h ****  */
  24:Generated_Source\PSoC6\pdl\cmsis/include/cmsis_gcc.h **** 
  25:Generated_Source\PSoC6\pdl\cmsis/include/cmsis_gcc.h **** #ifndef __CMSIS_GCC_H
  26:Generated_Source\PSoC6\pdl\cmsis/include/cmsis_gcc.h **** #define __CMSIS_GCC_H
  27:Generated_Source\PSoC6\pdl\cmsis/include/cmsis_gcc.h **** 
  28:Generated_Source\PSoC6\pdl\cmsis/include/cmsis_gcc.h **** /* ignore some GCC warnings */
  29:Generated_Source\PSoC6\pdl\cmsis/include/cmsis_gcc.h **** #pragma GCC diagnostic push
  30:Generated_Source\PSoC6\pdl\cmsis/include/cmsis_gcc.h **** #pragma GCC diagnostic ignored "-Wsign-conversion"
  31:Generated_Source\PSoC6\pdl\cmsis/include/cmsis_gcc.h **** #pragma GCC diagnostic ignored "-Wconversion"
  32:Generated_Source\PSoC6\pdl\cmsis/include/cmsis_gcc.h **** #pragma GCC diagnostic ignored "-Wunused-parameter"
  33:Generated_Source\PSoC6\pdl\cmsis/include/cmsis_gcc.h **** 
  34:Generated_Source\PSoC6\pdl\cmsis/include/cmsis_gcc.h **** /* Fallback for __has_builtin */
  35:Generated_Source\PSoC6\pdl\cmsis/include/cmsis_gcc.h **** #ifndef __has_builtin
  36:Generated_Source\PSoC6\pdl\cmsis/include/cmsis_gcc.h ****   #define __has_builtin(x) (0)
  37:Generated_Source\PSoC6\pdl\cmsis/include/cmsis_gcc.h **** #endif
  38:Generated_Source\PSoC6\pdl\cmsis/include/cmsis_gcc.h **** 
  39:Generated_Source\PSoC6\pdl\cmsis/include/cmsis_gcc.h **** /* CMSIS compiler specific defines */
  40:Generated_Source\PSoC6\pdl\cmsis/include/cmsis_gcc.h **** #ifndef   __ASM
  41:Generated_Source\PSoC6\pdl\cmsis/include/cmsis_gcc.h ****   #define __ASM                                  __asm
  42:Generated_Source\PSoC6\pdl\cmsis/include/cmsis_gcc.h **** #endif
  43:Generated_Source\PSoC6\pdl\cmsis/include/cmsis_gcc.h **** #ifndef   __INLINE
  44:Generated_Source\PSoC6\pdl\cmsis/include/cmsis_gcc.h ****   #define __INLINE                               inline
  45:Generated_Source\PSoC6\pdl\cmsis/include/cmsis_gcc.h **** #endif
  46:Generated_Source\PSoC6\pdl\cmsis/include/cmsis_gcc.h **** #ifndef   __STATIC_INLINE
  47:Generated_Source\PSoC6\pdl\cmsis/include/cmsis_gcc.h ****   #define __STATIC_INLINE                        static inline
  48:Generated_Source\PSoC6\pdl\cmsis/include/cmsis_gcc.h **** #endif
  49:Generated_Source\PSoC6\pdl\cmsis/include/cmsis_gcc.h **** #ifndef   __STATIC_FORCEINLINE                 
  50:Generated_Source\PSoC6\pdl\cmsis/include/cmsis_gcc.h ****   #define __STATIC_FORCEINLINE                   __attribute__((always_inline)) static inline
  51:Generated_Source\PSoC6\pdl\cmsis/include/cmsis_gcc.h **** #endif                                           
  52:Generated_Source\PSoC6\pdl\cmsis/include/cmsis_gcc.h **** #ifndef   __NO_RETURN
  53:Generated_Source\PSoC6\pdl\cmsis/include/cmsis_gcc.h ****   #define __NO_RETURN                            __attribute__((__noreturn__))
  54:Generated_Source\PSoC6\pdl\cmsis/include/cmsis_gcc.h **** #endif
  55:Generated_Source\PSoC6\pdl\cmsis/include/cmsis_gcc.h **** #ifndef   __USED
  56:Generated_Source\PSoC6\pdl\cmsis/include/cmsis_gcc.h ****   #define __USED                                 __attribute__((used))
  57:Generated_Source\PSoC6\pdl\cmsis/include/cmsis_gcc.h **** #endif
  58:Generated_Source\PSoC6\pdl\cmsis/include/cmsis_gcc.h **** #ifndef   __WEAK
  59:Generated_Source\PSoC6\pdl\cmsis/include/cmsis_gcc.h ****   #define __WEAK                                 __attribute__((weak))
  60:Generated_Source\PSoC6\pdl\cmsis/include/cmsis_gcc.h **** #endif
  61:Generated_Source\PSoC6\pdl\cmsis/include/cmsis_gcc.h **** #ifndef   __PACKED
  62:Generated_Source\PSoC6\pdl\cmsis/include/cmsis_gcc.h ****   #define __PACKED                               __attribute__((packed, aligned(1)))
  63:Generated_Source\PSoC6\pdl\cmsis/include/cmsis_gcc.h **** #endif
  64:Generated_Source\PSoC6\pdl\cmsis/include/cmsis_gcc.h **** #ifndef   __PACKED_STRUCT
  65:Generated_Source\PSoC6\pdl\cmsis/include/cmsis_gcc.h ****   #define __PACKED_STRUCT                        struct __attribute__((packed, aligned(1)))
  66:Generated_Source\PSoC6\pdl\cmsis/include/cmsis_gcc.h **** #endif
  67:Generated_Source\PSoC6\pdl\cmsis/include/cmsis_gcc.h **** #ifndef   __PACKED_UNION
  68:Generated_Source\PSoC6\pdl\cmsis/include/cmsis_gcc.h ****   #define __PACKED_UNION                         union __attribute__((packed, aligned(1)))
  69:Generated_Source\PSoC6\pdl\cmsis/include/cmsis_gcc.h **** #endif
  70:Generated_Source\PSoC6\pdl\cmsis/include/cmsis_gcc.h **** #ifndef   __UNALIGNED_UINT32        /* deprecated */
  71:Generated_Source\PSoC6\pdl\cmsis/include/cmsis_gcc.h ****   #pragma GCC diagnostic push
  72:Generated_Source\PSoC6\pdl\cmsis/include/cmsis_gcc.h ****   #pragma GCC diagnostic ignored "-Wpacked"
  73:Generated_Source\PSoC6\pdl\cmsis/include/cmsis_gcc.h ****   #pragma GCC diagnostic ignored "-Wattributes"
  74:Generated_Source\PSoC6\pdl\cmsis/include/cmsis_gcc.h ****   struct __attribute__((packed)) T_UINT32 { uint32_t v; };
  75:Generated_Source\PSoC6\pdl\cmsis/include/cmsis_gcc.h ****   #pragma GCC diagnostic pop
  76:Generated_Source\PSoC6\pdl\cmsis/include/cmsis_gcc.h ****   #define __UNALIGNED_UINT32(x)                  (((struct T_UINT32 *)(x))->v)
  77:Generated_Source\PSoC6\pdl\cmsis/include/cmsis_gcc.h **** #endif
  78:Generated_Source\PSoC6\pdl\cmsis/include/cmsis_gcc.h **** #ifndef   __UNALIGNED_UINT16_WRITE
  79:Generated_Source\PSoC6\pdl\cmsis/include/cmsis_gcc.h ****   #pragma GCC diagnostic push
ARM GAS  C:\Users\ASUS\AppData\Local\Temp\ccarWmgw.s 			page 65


  80:Generated_Source\PSoC6\pdl\cmsis/include/cmsis_gcc.h ****   #pragma GCC diagnostic ignored "-Wpacked"
  81:Generated_Source\PSoC6\pdl\cmsis/include/cmsis_gcc.h ****   #pragma GCC diagnostic ignored "-Wattributes"
  82:Generated_Source\PSoC6\pdl\cmsis/include/cmsis_gcc.h ****   __PACKED_STRUCT T_UINT16_WRITE { uint16_t v; };
  83:Generated_Source\PSoC6\pdl\cmsis/include/cmsis_gcc.h ****   #pragma GCC diagnostic pop
  84:Generated_Source\PSoC6\pdl\cmsis/include/cmsis_gcc.h ****   #define __UNALIGNED_UINT16_WRITE(addr, val)    (void)((((struct T_UINT16_WRITE *)(void *)(addr))-
  85:Generated_Source\PSoC6\pdl\cmsis/include/cmsis_gcc.h **** #endif
  86:Generated_Source\PSoC6\pdl\cmsis/include/cmsis_gcc.h **** #ifndef   __UNALIGNED_UINT16_READ
  87:Generated_Source\PSoC6\pdl\cmsis/include/cmsis_gcc.h ****   #pragma GCC diagnostic push
  88:Generated_Source\PSoC6\pdl\cmsis/include/cmsis_gcc.h ****   #pragma GCC diagnostic ignored "-Wpacked"
  89:Generated_Source\PSoC6\pdl\cmsis/include/cmsis_gcc.h ****   #pragma GCC diagnostic ignored "-Wattributes"
  90:Generated_Source\PSoC6\pdl\cmsis/include/cmsis_gcc.h ****   __PACKED_STRUCT T_UINT16_READ { uint16_t v; };
  91:Generated_Source\PSoC6\pdl\cmsis/include/cmsis_gcc.h ****   #pragma GCC diagnostic pop
  92:Generated_Source\PSoC6\pdl\cmsis/include/cmsis_gcc.h ****   #define __UNALIGNED_UINT16_READ(addr)          (((const struct T_UINT16_READ *)(const void *)(add
  93:Generated_Source\PSoC6\pdl\cmsis/include/cmsis_gcc.h **** #endif
  94:Generated_Source\PSoC6\pdl\cmsis/include/cmsis_gcc.h **** #ifndef   __UNALIGNED_UINT32_WRITE
  95:Generated_Source\PSoC6\pdl\cmsis/include/cmsis_gcc.h ****   #pragma GCC diagnostic push
  96:Generated_Source\PSoC6\pdl\cmsis/include/cmsis_gcc.h ****   #pragma GCC diagnostic ignored "-Wpacked"
  97:Generated_Source\PSoC6\pdl\cmsis/include/cmsis_gcc.h ****   #pragma GCC diagnostic ignored "-Wattributes"
  98:Generated_Source\PSoC6\pdl\cmsis/include/cmsis_gcc.h ****   __PACKED_STRUCT T_UINT32_WRITE { uint32_t v; };
  99:Generated_Source\PSoC6\pdl\cmsis/include/cmsis_gcc.h ****   #pragma GCC diagnostic pop
 100:Generated_Source\PSoC6\pdl\cmsis/include/cmsis_gcc.h ****   #define __UNALIGNED_UINT32_WRITE(addr, val)    (void)((((struct T_UINT32_WRITE *)(void *)(addr))-
 101:Generated_Source\PSoC6\pdl\cmsis/include/cmsis_gcc.h **** #endif
 102:Generated_Source\PSoC6\pdl\cmsis/include/cmsis_gcc.h **** #ifndef   __UNALIGNED_UINT32_READ
 103:Generated_Source\PSoC6\pdl\cmsis/include/cmsis_gcc.h ****   #pragma GCC diagnostic push
 104:Generated_Source\PSoC6\pdl\cmsis/include/cmsis_gcc.h ****   #pragma GCC diagnostic ignored "-Wpacked"
 105:Generated_Source\PSoC6\pdl\cmsis/include/cmsis_gcc.h ****   #pragma GCC diagnostic ignored "-Wattributes"
 106:Generated_Source\PSoC6\pdl\cmsis/include/cmsis_gcc.h ****   __PACKED_STRUCT T_UINT32_READ { uint32_t v; };
 107:Generated_Source\PSoC6\pdl\cmsis/include/cmsis_gcc.h ****   #pragma GCC diagnostic pop
 108:Generated_Source\PSoC6\pdl\cmsis/include/cmsis_gcc.h ****   #define __UNALIGNED_UINT32_READ(addr)          (((const struct T_UINT32_READ *)(const void *)(add
 109:Generated_Source\PSoC6\pdl\cmsis/include/cmsis_gcc.h **** #endif
 110:Generated_Source\PSoC6\pdl\cmsis/include/cmsis_gcc.h **** #ifndef   __ALIGNED
 111:Generated_Source\PSoC6\pdl\cmsis/include/cmsis_gcc.h ****   #define __ALIGNED(x)                           __attribute__((aligned(x)))
 112:Generated_Source\PSoC6\pdl\cmsis/include/cmsis_gcc.h **** #endif
 113:Generated_Source\PSoC6\pdl\cmsis/include/cmsis_gcc.h **** #ifndef   __RESTRICT
 114:Generated_Source\PSoC6\pdl\cmsis/include/cmsis_gcc.h ****   #define __RESTRICT                             __restrict
 115:Generated_Source\PSoC6\pdl\cmsis/include/cmsis_gcc.h **** #endif
 116:Generated_Source\PSoC6\pdl\cmsis/include/cmsis_gcc.h **** 
 117:Generated_Source\PSoC6\pdl\cmsis/include/cmsis_gcc.h **** 
 118:Generated_Source\PSoC6\pdl\cmsis/include/cmsis_gcc.h **** /* ###########################  Core Function Access  ########################### */
 119:Generated_Source\PSoC6\pdl\cmsis/include/cmsis_gcc.h **** /** \ingroup  CMSIS_Core_FunctionInterface
 120:Generated_Source\PSoC6\pdl\cmsis/include/cmsis_gcc.h ****     \defgroup CMSIS_Core_RegAccFunctions CMSIS Core Register Access Functions
 121:Generated_Source\PSoC6\pdl\cmsis/include/cmsis_gcc.h ****   @{
 122:Generated_Source\PSoC6\pdl\cmsis/include/cmsis_gcc.h ****  */
 123:Generated_Source\PSoC6\pdl\cmsis/include/cmsis_gcc.h **** 
 124:Generated_Source\PSoC6\pdl\cmsis/include/cmsis_gcc.h **** /**
 125:Generated_Source\PSoC6\pdl\cmsis/include/cmsis_gcc.h ****   \brief   Enable IRQ Interrupts
 126:Generated_Source\PSoC6\pdl\cmsis/include/cmsis_gcc.h ****   \details Enables IRQ interrupts by clearing the I-bit in the CPSR.
 127:Generated_Source\PSoC6\pdl\cmsis/include/cmsis_gcc.h ****            Can only be executed in Privileged modes.
 128:Generated_Source\PSoC6\pdl\cmsis/include/cmsis_gcc.h ****  */
 129:Generated_Source\PSoC6\pdl\cmsis/include/cmsis_gcc.h **** __STATIC_FORCEINLINE void __enable_irq(void)
 130:Generated_Source\PSoC6\pdl\cmsis/include/cmsis_gcc.h **** {
 131:Generated_Source\PSoC6\pdl\cmsis/include/cmsis_gcc.h ****   __ASM volatile ("cpsie i" : : : "memory");
 1448              		.loc 8 131 0
 1449              		.syntax divided
 1450              	@ 131 "Generated_Source\PSoC6\pdl\cmsis/include/cmsis_gcc.h" 1
 1451 0002 62B6     		cpsie i
 1452              	@ 0 "" 2
ARM GAS  C:\Users\ASUS\AppData\Local\Temp\ccarWmgw.s 			page 66


 1453              		.thumb
 1454              		.syntax unified
 1455              	.LBE91:
 1456              	.LBE90:
  38:main_cm0p.c   ****     __enable_irq(); /* Enable global interrupts. */
  39:main_cm0p.c   ****     Cy_SysEnableCM4(CY_CORTEX_M4_APPL_ADDR);
 1457              		.loc 7 39 0
 1458 0004 1948     		ldr	r0, .L67
 1459 0006 FFF7FEFF 		bl	Cy_SysEnableCM4
 1460              	.LVL149:
  40:main_cm0p.c   **** 
  41:main_cm0p.c   ****     /* UART Initialization */
  42:main_cm0p.c   ****     UART_Start();
 1461              		.loc 7 42 0
 1462 000a FFF7FEFF 		bl	UART_Start
 1463              	.LVL150:
  43:main_cm0p.c   ****     setvbuf(stdin,NULL,_IONBF,0);
 1464              		.loc 7 43 0
 1465 000e 184B     		ldr	r3, .L67+4
 1466 0010 1B68     		ldr	r3, [r3]
 1467 0012 5868     		ldr	r0, [r3, #4]
 1468 0014 0023     		movs	r3, #0
 1469 0016 0222     		movs	r2, #2
 1470 0018 0021     		movs	r1, #0
 1471 001a FFF7FEFF 		bl	setvbuf
 1472              	.LVL151:
  44:main_cm0p.c   ****     
  45:main_cm0p.c   ****     /* initiate I2C */
  46:main_cm0p.c   ****     I2C_Start();
 1473              		.loc 7 46 0
 1474 001e FFF7FEFF 		bl	I2C_Start
 1475              	.LVL152:
  47:main_cm0p.c   ****     
  48:main_cm0p.c   ****     CyDelay(5000);
 1476              		.loc 7 48 0
 1477 0022 1448     		ldr	r0, .L67+8
 1478 0024 FFF7FEFF 		bl	Cy_SysLib_Delay
 1479              	.LVL153:
  49:main_cm0p.c   ****     
  50:main_cm0p.c   ****     init_RTC();
 1480              		.loc 7 50 0
 1481 0028 FFF7FEFF 		bl	init_RTC
 1482              	.LVL154:
 1483              	.L66:
  51:main_cm0p.c   ****     
  52:main_cm0p.c   ****     for(;;)
  53:main_cm0p.c   ****     {
  54:main_cm0p.c   ****         lightMeasure(&xChannel, &yChannel, &zChannel, &temperature);
 1484              		.loc 7 54 0
 1485 002c 124E     		ldr	r6, .L67+12
 1486 002e 134D     		ldr	r5, .L67+16
 1487 0030 134C     		ldr	r4, .L67+20
 1488 0032 144B     		ldr	r3, .L67+24
 1489 0034 3200     		movs	r2, r6
 1490 0036 2900     		movs	r1, r5
 1491 0038 2000     		movs	r0, r4
 1492 003a FFF7FEFF 		bl	lightMeasure
ARM GAS  C:\Users\ASUS\AppData\Local\Temp\ccarWmgw.s 			page 67


 1493              	.LVL155:
  55:main_cm0p.c   ****         lightPrint(xChannel, yChannel, zChannel);
 1494              		.loc 7 55 0
 1495 003e 3288     		ldrh	r2, [r6]
 1496 0040 2988     		ldrh	r1, [r5]
 1497 0042 2088     		ldrh	r0, [r4]
 1498 0044 FFF7FEFF 		bl	lightPrint
 1499              	.LVL156:
  56:main_cm0p.c   ****         
  57:main_cm0p.c   ****         CyDelay(1000);
 1500              		.loc 7 57 0
 1501 0048 FA20     		movs	r0, #250
 1502 004a 8000     		lsls	r0, r0, #2
 1503 004c FFF7FEFF 		bl	Cy_SysLib_Delay
 1504              	.LVL157:
  58:main_cm0p.c   ****         
  59:main_cm0p.c   ****         /* If the alarm flag is set, clear it, toggle the LED, and step */
  60:main_cm0p.c   ****         if(alarmFlag)  /* the flag is set, meaning time has expired */
 1505              		.loc 7 60 0
 1506 0050 0D4B     		ldr	r3, .L67+28
 1507 0052 5B68     		ldr	r3, [r3, #4]
 1508 0054 002B     		cmp	r3, #0
 1509 0056 04D0     		beq	.L65
  61:main_cm0p.c   ****         {
  62:main_cm0p.c   **** 			/* We have handled this alarm */
  63:main_cm0p.c   **** 			alarmFlag = 0u;	
 1510              		.loc 7 63 0
 1511 0058 0022     		movs	r2, #0
 1512 005a 0B4B     		ldr	r3, .L67+28
 1513 005c 5A60     		str	r2, [r3, #4]
  64:main_cm0p.c   ****             
  65:main_cm0p.c   ****             /* Configure the next RTC alarm, add the interval to the time
  66:main_cm0p.c   ****                for the next alarm */
  67:main_cm0p.c   ****             RtcStepAlarm();
 1514              		.loc 7 67 0
 1515 005e FFF7FEFF 		bl	RtcStepAlarm
 1516              	.LVL158:
 1517              	.L65:
  68:main_cm0p.c   ****         }
  69:main_cm0p.c   **** 
  70:main_cm0p.c   ****         /* Go to Deep Sleep mode until next interrupt  */
  71:main_cm0p.c   ****         Cy_SysPm_DeepSleep(CY_SYSPM_WAIT_FOR_INTERRUPT);
 1518              		.loc 7 71 0
 1519 0062 0020     		movs	r0, #0
 1520 0064 FFF7FEFF 		bl	Cy_SysPm_CpuEnterDeepSleep
 1521              	.LVL159:
  72:main_cm0p.c   ****     }
 1522              		.loc 7 72 0
 1523 0068 E0E7     		b	.L66
 1524              	.L68:
 1525 006a C046     		.align	2
 1526              	.L67:
 1527 006c 00000810 		.word	268959744
 1528 0070 00000000 		.word	_impure_ptr
 1529 0074 88130000 		.word	5000
 1530 0078 00000000 		.word	zChannel
 1531 007c 00000000 		.word	yChannel
ARM GAS  C:\Users\ASUS\AppData\Local\Temp\ccarWmgw.s 			page 68


 1532 0080 00000000 		.word	xChannel
 1533 0084 00000000 		.word	temperature
 1534 0088 00000000 		.word	.LANCHOR0
 1535              		.cfi_endproc
 1536              	.LFE481:
 1537              		.size	main, .-main
 1538              		.comm	gyroZ,2,2
 1539              		.comm	gyroY,2,2
 1540              		.comm	gyroX,2,2
 1541              		.comm	accZ,2,2
 1542              		.comm	accY,2,2
 1543              		.comm	accX,2,2
 1544              		.comm	zChannel,2,2
 1545              		.comm	yChannel,2,2
 1546              		.comm	xChannel,2,2
 1547              		.global	alarmConfig
 1548              		.comm	temperature,2,2
 1549              		.data
 1550              		.align	2
 1551              		.set	.LANCHOR1,. + 0
 1552              		.type	alarmConfig, %object
 1553              		.size	alarmConfig, 48
 1554              	alarmConfig:
 1555 0000 00000000 		.word	0
 1556 0004 00       		.byte	0
 1557 0005 000000   		.space	3
 1558 0008 00000000 		.word	0
 1559 000c 00       		.byte	0
 1560 000d 000000   		.space	3
 1561 0010 14000000 		.word	20
 1562 0014 00       		.byte	0
 1563 0015 000000   		.space	3
 1564 0018 01000000 		.word	1
 1565 001c 00       		.byte	0
 1566 001d 000000   		.space	3
 1567 0020 08000000 		.word	8
 1568 0024 00       		.byte	0
 1569 0025 000000   		.space	3
 1570 0028 03000000 		.word	3
 1571 002c 00       		.byte	0
 1572 002d 01       		.byte	1
 1573 002e 0000     		.space	2
 1574              		.section	.rodata.str1.4,"aMS",%progbits,1
 1575              		.align	2
 1576              	.LC4:
 1577 0000 48656C6C 		.ascii	"Hello world!\015\000"
 1577      6F20776F 
 1577      726C6421 
 1577      0D00
 1578 000e 0000     		.space	2
 1579              	.LC8:
 1580 0010 53656E64 		.ascii	"SendStart: %X,WriteByte: %X,SendReStart: %X,ReadByt"
 1580      53746172 
 1580      743A2025 
 1580      582C5772 
 1580      69746542 
 1581 0043 653A2025 		.ascii	"e: %X,ReadByte2: %XSendStop: %X\015\012\000"
ARM GAS  C:\Users\ASUS\AppData\Local\Temp\ccarWmgw.s 			page 69


 1581      582C5265 
 1581      61644279 
 1581      7465323A 
 1581      20255853 
 1582 0065 000000   		.space	3
 1583              	.LC11:
 1584 0068 53656E64 		.ascii	"SendStart: %X, WriteByte: %X,%X, SendStop: %X\015\012"
 1584      53746172 
 1584      743A2025 
 1584      582C2057 
 1584      72697465 
 1585 0097 00       		.ascii	"\000"
 1586              	.LC14:
 1587 0098 0D0A0D0A 		.ascii	"\015\012\015\012Light Sensor Data:\015\012Red Light"
 1587      4C696768 
 1587      74205365 
 1587      6E736F72 
 1587      20446174 
 1588 00b9 3A202564 		.ascii	": %d\015\012Green Light: %d\015\012Blue Light: %d\015"
 1588      0D0A4772 
 1588      65656E20 
 1588      4C696768 
 1588      743A2025 
 1589 00df 0A54656D 		.ascii	"\012Temperature: %.2f\015\012\000"
 1589      70657261 
 1589      74757265 
 1589      3A20252E 
 1589      32660D0A 
 1590              	.LC20:
 1591 00f4 0D0A0D0A 		.ascii	"\015\012\015\012Accelerometer Data:\015\012X Accele"
 1591      41636365 
 1591      6C65726F 
 1591      6D657465 
 1591      72204461 
 1592 0115 72617469 		.ascii	"ration: %d\015\012Y Acceleration: %d\015\012Z Accel"
 1592      6F6E3A20 
 1592      25640D0A 
 1592      59204163 
 1592      63656C65 
 1593 013c 65726174 		.ascii	"eration: %d\015\012\000"
 1593      696F6E3A 
 1593      2025640D 
 1593      0A00
 1594 014a 0000     		.space	2
 1595              	.LC22:
 1596 014c 0D0A0D0A 		.ascii	"\015\012\015\012Gyroscope Data:\015\012X Gyroscope:"
 1596      4779726F 
 1596      73636F70 
 1596      65204461 
 1596      74613A0D 
 1597 016d 2025640D 		.ascii	" %d\015\012Y Gyroscope: %d\015\012Z Gyroscope: %d\015"
 1597      0A592047 
 1597      79726F73 
 1597      636F7065 
 1597      3A202564 
 1598 0193 0A00     		.ascii	"\012\000"
 1599 0195 000000   		.space	3
ARM GAS  C:\Users\ASUS\AppData\Local\Temp\ccarWmgw.s 			page 70


 1600              	.LC26:
 1601 0198 5254435F 		.ascii	"RTC_Alarm.h\000"
 1601      416C6172 
 1601      6D2E6800 
 1602              		.bss
 1603              		.align	2
 1604              		.set	.LANCHOR0,. + 0
 1605              		.type	data, %object
 1606              		.size	data, 1
 1607              	data:
 1608 0000 00       		.space	1
 1609 0001 000000   		.space	3
 1610              		.type	alarmFlag, %object
 1611              		.size	alarmFlag, 4
 1612              	alarmFlag:
 1613 0004 00000000 		.space	4
 1614              		.text
 1615              	.Letext0:
 1616              		.file 9 "Generated_Source\\PSoC6\\pdl\\devices/psoc6/include/cyble_416045_02.h"
 1617              		.file 10 "d:\\program files (x86)\\cypress\\psoc creator\\4.2\\psoc creator\\import\\gnu\\arm\\5.4
 1618              		.file 11 "d:\\program files (x86)\\cypress\\psoc creator\\4.2\\psoc creator\\import\\gnu\\arm\\5.4
 1619              		.file 12 "Generated_Source\\PSoC6\\pdl\\devices/psoc6/include/ip/cyip_scb.h"
 1620              		.file 13 "Generated_Source\\PSoC6\\pdl\\devices/psoc6/include/psoc6_01_config.h"
 1621              		.file 14 "Generated_Source\\PSoC6\\pdl\\drivers/peripheral/device/cy_device.h"
 1622              		.file 15 "Generated_Source\\PSoC6\\pdl\\drivers/peripheral/syslib/cy_syslib.h"
 1623              		.file 16 "Generated_Source\\PSoC6\\pdl\\drivers/peripheral/sysint/cy_sysint.h"
 1624              		.file 17 "Generated_Source\\PSoC6\\pdl\\drivers/peripheral/syspm/cy_syspm.h"
 1625              		.file 18 "Generated_Source\\PSoC6\\pdl\\drivers/peripheral/rtc/cy_rtc.h"
 1626              		.file 19 "Generated_Source\\PSoC6\\pdl\\drivers/peripheral/scb/cy_scb_i2c.h"
 1627              		.file 20 "Generated_Source\\PSoC6\\pdl\\drivers/peripheral/scb/cy_scb_uart.h"
 1628              		.file 21 "d:\\program files (x86)\\cypress\\psoc creator\\4.2\\psoc creator\\import\\gnu\\arm\\5.4
 1629              		.file 22 "d:\\program files (x86)\\cypress\\psoc creator\\4.2\\psoc creator\\import\\gnu\\arm\\5.4
 1630              		.file 23 "d:\\program files (x86)\\cypress\\psoc creator\\4.2\\psoc creator\\import\\gnu\\arm\\5.4
 1631              		.file 24 "d:\\program files (x86)\\cypress\\psoc creator\\4.2\\psoc creator\\import\\gnu\\arm\\5.4
 1632              		.file 25 "Generated_Source\\PSoC6\\pdl\\middleware/ble/cy_ble_stack.h"
 1633              		.file 26 "Generated_Source\\PSoC6\\pdl\\middleware/ble/cy_ble_stack_host_main.h"
 1634              		.file 27 "Generated_Source\\PSoC6\\pdl\\middleware/ble/cy_ble_stack_gatt.h"
 1635              		.file 28 "Generated_Source\\PSoC6\\pdl\\middleware/ble/cy_ble_gap.h"
 1636              		.file 29 "Generated_Source\\PSoC6\\pdl\\middleware/ble/cy_ble_stack_gatt_server.h"
 1637              		.file 30 "Generated_Source\\PSoC6/cyfitter_sysint_cfg.h"
 1638              		.file 31 "Generated_Source\\PSoC6/UART.h"
 1639              		.file 32 "Generated_Source\\PSoC6/RTC.h"
 1640              		.file 33 "Generated_Source\\PSoC6\\pdl\\middleware/ble/cy_ble_gatt.h"
 1641              		.file 34 "Generated_Source\\PSoC6/BLE.h"
 1642              		.file 35 "Generated_Source\\PSoC6\\pdl\\middleware/ble/cy_ble.h"
 1643              		.file 36 "d:\\program files (x86)\\cypress\\psoc creator\\4.2\\psoc creator\\import\\gnu\\arm\\5.4
 1644              		.file 37 "./system_psoc6.h"
 1645              		.file 38 "<built-in>"
 1646              		.section	.debug_info,"",%progbits
 1647              	.Ldebug_info0:
 1648 0000 40370000 		.4byte	0x3740
 1649 0004 0400     		.2byte	0x4
 1650 0006 00000000 		.4byte	.Ldebug_abbrev0
 1651 000a 04       		.byte	0x4
 1652 000b 01       		.uleb128 0x1
 1653 000c 0D0D0000 		.4byte	.LASF836
 1654 0010 0C       		.byte	0xc
ARM GAS  C:\Users\ASUS\AppData\Local\Temp\ccarWmgw.s 			page 71


 1655 0011 9E0C0000 		.4byte	.LASF837
 1656 0015 E31E0000 		.4byte	.LASF838
 1657 0019 00000000 		.4byte	.Ldebug_ranges0+0
 1658 001d 00000000 		.4byte	0
 1659 0021 00000000 		.4byte	.Ldebug_line0
 1660 0025 02       		.uleb128 0x2
 1661 0026 02       		.byte	0x2
 1662 0027 1C010000 		.4byte	0x11c
 1663 002b 09       		.byte	0x9
 1664 002c 24       		.byte	0x24
 1665 002d 1C010000 		.4byte	0x11c
 1666 0031 03       		.uleb128 0x3
 1667 0032 4A2C0000 		.4byte	.LASF0
 1668 0036 71       		.sleb128 -15
 1669 0037 03       		.uleb128 0x3
 1670 0038 35180000 		.4byte	.LASF1
 1671 003c 72       		.sleb128 -14
 1672 003d 03       		.uleb128 0x3
 1673 003e 67040000 		.4byte	.LASF2
 1674 0042 73       		.sleb128 -13
 1675 0043 03       		.uleb128 0x3
 1676 0044 D21F0000 		.4byte	.LASF3
 1677 0048 7B       		.sleb128 -5
 1678 0049 03       		.uleb128 0x3
 1679 004a 4E1F0000 		.4byte	.LASF4
 1680 004e 7E       		.sleb128 -2
 1681 004f 03       		.uleb128 0x3
 1682 0050 F20B0000 		.4byte	.LASF5
 1683 0054 7F       		.sleb128 -1
 1684 0055 04       		.uleb128 0x4
 1685 0056 DB040000 		.4byte	.LASF6
 1686 005a 00       		.byte	0
 1687 005b 04       		.uleb128 0x4
 1688 005c 10010000 		.4byte	.LASF7
 1689 0060 01       		.byte	0x1
 1690 0061 04       		.uleb128 0x4
 1691 0062 21210000 		.4byte	.LASF8
 1692 0066 02       		.byte	0x2
 1693 0067 04       		.uleb128 0x4
 1694 0068 4F100000 		.4byte	.LASF9
 1695 006c 03       		.byte	0x3
 1696 006d 04       		.uleb128 0x4
 1697 006e 8F360000 		.4byte	.LASF10
 1698 0072 04       		.byte	0x4
 1699 0073 04       		.uleb128 0x4
 1700 0074 2A330000 		.4byte	.LASF11
 1701 0078 05       		.byte	0x5
 1702 0079 04       		.uleb128 0x4
 1703 007a 25190000 		.4byte	.LASF12
 1704 007e 06       		.byte	0x6
 1705 007f 04       		.uleb128 0x4
 1706 0080 41020000 		.4byte	.LASF13
 1707 0084 07       		.byte	0x7
 1708 0085 04       		.uleb128 0x4
 1709 0086 5D3D0000 		.4byte	.LASF14
 1710 008a 08       		.byte	0x8
 1711 008b 04       		.uleb128 0x4
ARM GAS  C:\Users\ASUS\AppData\Local\Temp\ccarWmgw.s 			page 72


 1712 008c 40240000 		.4byte	.LASF15
 1713 0090 09       		.byte	0x9
 1714 0091 04       		.uleb128 0x4
 1715 0092 0E020000 		.4byte	.LASF16
 1716 0096 0A       		.byte	0xa
 1717 0097 04       		.uleb128 0x4
 1718 0098 1B220000 		.4byte	.LASF17
 1719 009c 0B       		.byte	0xb
 1720 009d 04       		.uleb128 0x4
 1721 009e 46340000 		.4byte	.LASF18
 1722 00a2 0C       		.byte	0xc
 1723 00a3 04       		.uleb128 0x4
 1724 00a4 2C070000 		.4byte	.LASF19
 1725 00a8 0D       		.byte	0xd
 1726 00a9 04       		.uleb128 0x4
 1727 00aa A5210000 		.4byte	.LASF20
 1728 00ae 0E       		.byte	0xe
 1729 00af 04       		.uleb128 0x4
 1730 00b0 F3280000 		.4byte	.LASF21
 1731 00b4 0F       		.byte	0xf
 1732 00b5 04       		.uleb128 0x4
 1733 00b6 38120000 		.4byte	.LASF22
 1734 00ba 10       		.byte	0x10
 1735 00bb 04       		.uleb128 0x4
 1736 00bc 7C380000 		.4byte	.LASF23
 1737 00c0 11       		.byte	0x11
 1738 00c1 04       		.uleb128 0x4
 1739 00c2 A1340000 		.4byte	.LASF24
 1740 00c6 12       		.byte	0x12
 1741 00c7 04       		.uleb128 0x4
 1742 00c8 301B0000 		.4byte	.LASF25
 1743 00cc 13       		.byte	0x13
 1744 00cd 04       		.uleb128 0x4
 1745 00ce 573E0000 		.4byte	.LASF26
 1746 00d2 14       		.byte	0x14
 1747 00d3 04       		.uleb128 0x4
 1748 00d4 3E250000 		.4byte	.LASF27
 1749 00d8 15       		.byte	0x15
 1750 00d9 04       		.uleb128 0x4
 1751 00da BF260000 		.4byte	.LASF28
 1752 00de 16       		.byte	0x16
 1753 00df 04       		.uleb128 0x4
 1754 00e0 EE090000 		.4byte	.LASF29
 1755 00e4 17       		.byte	0x17
 1756 00e5 04       		.uleb128 0x4
 1757 00e6 8A310000 		.4byte	.LASF30
 1758 00ea 18       		.byte	0x18
 1759 00eb 04       		.uleb128 0x4
 1760 00ec E02C0000 		.4byte	.LASF31
 1761 00f0 19       		.byte	0x19
 1762 00f1 04       		.uleb128 0x4
 1763 00f2 6A140000 		.4byte	.LASF32
 1764 00f6 1A       		.byte	0x1a
 1765 00f7 04       		.uleb128 0x4
 1766 00f8 9C3B0000 		.4byte	.LASF33
 1767 00fc 1B       		.byte	0x1b
 1768 00fd 04       		.uleb128 0x4
ARM GAS  C:\Users\ASUS\AppData\Local\Temp\ccarWmgw.s 			page 73


 1769 00fe 89370000 		.4byte	.LASF34
 1770 0102 1C       		.byte	0x1c
 1771 0103 04       		.uleb128 0x4
 1772 0104 281F0000 		.4byte	.LASF35
 1773 0108 1D       		.byte	0x1d
 1774 0109 04       		.uleb128 0x4
 1775 010a 5E020000 		.4byte	.LASF36
 1776 010e 1E       		.byte	0x1e
 1777 010f 04       		.uleb128 0x4
 1778 0110 6B3D0000 		.4byte	.LASF37
 1779 0114 1F       		.byte	0x1f
 1780 0115 04       		.uleb128 0x4
 1781 0116 6C160000 		.4byte	.LASF38
 1782 011a F0       		.byte	0xf0
 1783 011b 00       		.byte	0
 1784 011c 05       		.uleb128 0x5
 1785 011d 02       		.byte	0x2
 1786 011e 05       		.byte	0x5
 1787 011f 6C330000 		.4byte	.LASF187
 1788 0123 06       		.uleb128 0x6
 1789 0124 C3190000 		.4byte	.LASF189
 1790 0128 09       		.byte	0x9
 1791 0129 F4       		.byte	0xf4
 1792 012a 25000000 		.4byte	0x25
 1793 012e 02       		.uleb128 0x2
 1794 012f 01       		.byte	0x1
 1795 0130 B3040000 		.4byte	0x4b3
 1796 0134 09       		.byte	0x9
 1797 0135 FD       		.byte	0xfd
 1798 0136 B3040000 		.4byte	0x4b3
 1799 013a 04       		.uleb128 0x4
 1800 013b 20110000 		.4byte	.LASF39
 1801 013f 00       		.byte	0
 1802 0140 04       		.uleb128 0x4
 1803 0141 023B0000 		.4byte	.LASF40
 1804 0145 01       		.byte	0x1
 1805 0146 04       		.uleb128 0x4
 1806 0147 D51C0000 		.4byte	.LASF41
 1807 014b 02       		.byte	0x2
 1808 014c 04       		.uleb128 0x4
 1809 014d E91D0000 		.4byte	.LASF42
 1810 0151 03       		.byte	0x3
 1811 0152 04       		.uleb128 0x4
 1812 0153 DF060000 		.4byte	.LASF43
 1813 0157 04       		.byte	0x4
 1814 0158 04       		.uleb128 0x4
 1815 0159 1D030000 		.4byte	.LASF44
 1816 015d 05       		.byte	0x5
 1817 015e 04       		.uleb128 0x4
 1818 015f D7280000 		.4byte	.LASF45
 1819 0163 06       		.byte	0x6
 1820 0164 04       		.uleb128 0x4
 1821 0165 1C120000 		.4byte	.LASF46
 1822 0169 07       		.byte	0x7
 1823 016a 04       		.uleb128 0x4
 1824 016b 590E0000 		.4byte	.LASF47
 1825 016f 08       		.byte	0x8
ARM GAS  C:\Users\ASUS\AppData\Local\Temp\ccarWmgw.s 			page 74


 1826 0170 04       		.uleb128 0x4
 1827 0171 85340000 		.4byte	.LASF48
 1828 0175 09       		.byte	0x9
 1829 0176 04       		.uleb128 0x4
 1830 0177 89350000 		.4byte	.LASF49
 1831 017b 0A       		.byte	0xa
 1832 017c 04       		.uleb128 0x4
 1833 017d 281C0000 		.4byte	.LASF50
 1834 0181 0B       		.byte	0xb
 1835 0182 04       		.uleb128 0x4
 1836 0183 15050000 		.4byte	.LASF51
 1837 0187 0C       		.byte	0xc
 1838 0188 04       		.uleb128 0x4
 1839 0189 61010000 		.4byte	.LASF52
 1840 018d 0D       		.byte	0xd
 1841 018e 04       		.uleb128 0x4
 1842 018f 12270000 		.4byte	.LASF53
 1843 0193 0E       		.byte	0xe
 1844 0194 04       		.uleb128 0x4
 1845 0195 1D250000 		.4byte	.LASF54
 1846 0199 0F       		.byte	0xf
 1847 019a 04       		.uleb128 0x4
 1848 019b F1370000 		.4byte	.LASF55
 1849 019f 10       		.byte	0x10
 1850 01a0 04       		.uleb128 0x4
 1851 01a1 EE330000 		.4byte	.LASF56
 1852 01a5 11       		.byte	0x11
 1853 01a6 04       		.uleb128 0x4
 1854 01a7 31340000 		.4byte	.LASF57
 1855 01ab 12       		.byte	0x12
 1856 01ac 04       		.uleb128 0x4
 1857 01ad EA3C0000 		.4byte	.LASF58
 1858 01b1 13       		.byte	0x13
 1859 01b2 04       		.uleb128 0x4
 1860 01b3 72270000 		.4byte	.LASF59
 1861 01b7 14       		.byte	0x14
 1862 01b8 04       		.uleb128 0x4
 1863 01b9 A83C0000 		.4byte	.LASF60
 1864 01bd 15       		.byte	0x15
 1865 01be 04       		.uleb128 0x4
 1866 01bf D6350000 		.4byte	.LASF61
 1867 01c3 16       		.byte	0x16
 1868 01c4 04       		.uleb128 0x4
 1869 01c5 04340000 		.4byte	.LASF62
 1870 01c9 17       		.byte	0x17
 1871 01ca 04       		.uleb128 0x4
 1872 01cb DC0F0000 		.4byte	.LASF63
 1873 01cf 18       		.byte	0x18
 1874 01d0 04       		.uleb128 0x4
 1875 01d1 94380000 		.4byte	.LASF64
 1876 01d5 19       		.byte	0x19
 1877 01d6 04       		.uleb128 0x4
 1878 01d7 BA360000 		.4byte	.LASF65
 1879 01db 1A       		.byte	0x1a
 1880 01dc 04       		.uleb128 0x4
 1881 01dd 891D0000 		.4byte	.LASF66
 1882 01e1 1B       		.byte	0x1b
ARM GAS  C:\Users\ASUS\AppData\Local\Temp\ccarWmgw.s 			page 75


 1883 01e2 04       		.uleb128 0x4
 1884 01e3 93060000 		.4byte	.LASF67
 1885 01e7 1C       		.byte	0x1c
 1886 01e8 04       		.uleb128 0x4
 1887 01e9 D8020000 		.4byte	.LASF68
 1888 01ed 1D       		.byte	0x1d
 1889 01ee 04       		.uleb128 0x4
 1890 01ef AC280000 		.4byte	.LASF69
 1891 01f3 1E       		.byte	0x1e
 1892 01f4 04       		.uleb128 0x4
 1893 01f5 E9110000 		.4byte	.LASF70
 1894 01f9 1F       		.byte	0x1f
 1895 01fa 04       		.uleb128 0x4
 1896 01fb E60D0000 		.4byte	.LASF71
 1897 01ff 20       		.byte	0x20
 1898 0200 04       		.uleb128 0x4
 1899 0201 55340000 		.4byte	.LASF72
 1900 0205 21       		.byte	0x21
 1901 0206 04       		.uleb128 0x4
 1902 0207 141B0000 		.4byte	.LASF73
 1903 020b 22       		.byte	0x22
 1904 020c 04       		.uleb128 0x4
 1905 020d 2A220000 		.4byte	.LASF74
 1906 0211 23       		.byte	0x23
 1907 0212 04       		.uleb128 0x4
 1908 0213 F40A0000 		.4byte	.LASF75
 1909 0217 24       		.byte	0x24
 1910 0218 04       		.uleb128 0x4
 1911 0219 4E320000 		.4byte	.LASF76
 1912 021d 25       		.byte	0x25
 1913 021e 04       		.uleb128 0x4
 1914 021f 482E0000 		.4byte	.LASF77
 1915 0223 26       		.byte	0x26
 1916 0224 04       		.uleb128 0x4
 1917 0225 26150000 		.4byte	.LASF78
 1918 0229 27       		.byte	0x27
 1919 022a 04       		.uleb128 0x4
 1920 022b 703C0000 		.4byte	.LASF79
 1921 022f 28       		.byte	0x28
 1922 0230 04       		.uleb128 0x4
 1923 0231 EA120000 		.4byte	.LASF80
 1924 0235 29       		.byte	0x29
 1925 0236 04       		.uleb128 0x4
 1926 0237 042D0000 		.4byte	.LASF81
 1927 023b 2A       		.byte	0x2a
 1928 023c 04       		.uleb128 0x4
 1929 023d AA1B0000 		.4byte	.LASF82
 1930 0241 2B       		.byte	0x2b
 1931 0242 04       		.uleb128 0x4
 1932 0243 5E120000 		.4byte	.LASF83
 1933 0247 2C       		.byte	0x2c
 1934 0248 04       		.uleb128 0x4
 1935 0249 AA260000 		.4byte	.LASF84
 1936 024d 2D       		.byte	0x2d
 1937 024e 04       		.uleb128 0x4
 1938 024f 38330000 		.4byte	.LASF85
 1939 0253 2E       		.byte	0x2e
ARM GAS  C:\Users\ASUS\AppData\Local\Temp\ccarWmgw.s 			page 76


 1940 0254 04       		.uleb128 0x4
 1941 0255 BA320000 		.4byte	.LASF86
 1942 0259 2F       		.byte	0x2f
 1943 025a 04       		.uleb128 0x4
 1944 025b 750E0000 		.4byte	.LASF87
 1945 025f 30       		.byte	0x30
 1946 0260 04       		.uleb128 0x4
 1947 0261 4B0C0000 		.4byte	.LASF88
 1948 0265 31       		.byte	0x31
 1949 0266 04       		.uleb128 0x4
 1950 0267 A9130000 		.4byte	.LASF89
 1951 026b 32       		.byte	0x32
 1952 026c 04       		.uleb128 0x4
 1953 026d 4B3A0000 		.4byte	.LASF90
 1954 0271 33       		.byte	0x33
 1955 0272 04       		.uleb128 0x4
 1956 0273 6B320000 		.4byte	.LASF91
 1957 0277 34       		.byte	0x34
 1958 0278 04       		.uleb128 0x4
 1959 0279 411D0000 		.4byte	.LASF92
 1960 027d 35       		.byte	0x35
 1961 027e 04       		.uleb128 0x4
 1962 027f 37060000 		.4byte	.LASF93
 1963 0283 36       		.byte	0x36
 1964 0284 04       		.uleb128 0x4
 1965 0285 302D0000 		.4byte	.LASF94
 1966 0289 37       		.byte	0x37
 1967 028a 04       		.uleb128 0x4
 1968 028b 54280000 		.4byte	.LASF95
 1969 028f 38       		.byte	0x38
 1970 0290 04       		.uleb128 0x4
 1971 0291 57110000 		.4byte	.LASF96
 1972 0295 39       		.byte	0x39
 1973 0296 04       		.uleb128 0x4
 1974 0297 B6370000 		.4byte	.LASF97
 1975 029b 3A       		.byte	0x3a
 1976 029c 04       		.uleb128 0x4
 1977 029d 5A1F0000 		.4byte	.LASF98
 1978 02a1 3B       		.byte	0x3b
 1979 02a2 04       		.uleb128 0x4
 1980 02a3 581C0000 		.4byte	.LASF99
 1981 02a7 3C       		.byte	0x3c
 1982 02a8 04       		.uleb128 0x4
 1983 02a9 32050000 		.4byte	.LASF100
 1984 02ad 3D       		.byte	0x3d
 1985 02ae 04       		.uleb128 0x4
 1986 02af 032C0000 		.4byte	.LASF101
 1987 02b3 3E       		.byte	0x3e
 1988 02b4 04       		.uleb128 0x4
 1989 02b5 2F270000 		.4byte	.LASF102
 1990 02b9 3F       		.byte	0x3f
 1991 02ba 04       		.uleb128 0x4
 1992 02bb 8C100000 		.4byte	.LASF103
 1993 02bf 40       		.byte	0x40
 1994 02c0 04       		.uleb128 0x4
 1995 02c1 9D360000 		.4byte	.LASF104
 1996 02c5 41       		.byte	0x41
ARM GAS  C:\Users\ASUS\AppData\Local\Temp\ccarWmgw.s 			page 77


 1997 02c6 04       		.uleb128 0x4
 1998 02c7 D53B0000 		.4byte	.LASF105
 1999 02cb 42       		.byte	0x42
 2000 02cc 04       		.uleb128 0x4
 2001 02cd D7220000 		.4byte	.LASF106
 2002 02d1 43       		.byte	0x43
 2003 02d2 04       		.uleb128 0x4
 2004 02d3 C60B0000 		.4byte	.LASF107
 2005 02d7 44       		.byte	0x44
 2006 02d8 04       		.uleb128 0x4
 2007 02d9 D2330000 		.4byte	.LASF108
 2008 02dd 45       		.byte	0x45
 2009 02de 04       		.uleb128 0x4
 2010 02df D92E0000 		.4byte	.LASF109
 2011 02e3 46       		.byte	0x46
 2012 02e4 04       		.uleb128 0x4
 2013 02e5 AD030000 		.4byte	.LASF110
 2014 02e9 47       		.byte	0x47
 2015 02ea 04       		.uleb128 0x4
 2016 02eb A9120000 		.4byte	.LASF111
 2017 02ef 48       		.byte	0x48
 2018 02f0 04       		.uleb128 0x4
 2019 02f1 06390000 		.4byte	.LASF112
 2020 02f5 49       		.byte	0x49
 2021 02f6 04       		.uleb128 0x4
 2022 02f7 B1200000 		.4byte	.LASF113
 2023 02fb 4A       		.byte	0x4a
 2024 02fc 04       		.uleb128 0x4
 2025 02fd 703B0000 		.4byte	.LASF114
 2026 0301 4B       		.byte	0x4b
 2027 0302 04       		.uleb128 0x4
 2028 0303 462B0000 		.4byte	.LASF115
 2029 0307 4C       		.byte	0x4c
 2030 0308 04       		.uleb128 0x4
 2031 0309 57130000 		.4byte	.LASF116
 2032 030d 4D       		.byte	0x4d
 2033 030e 04       		.uleb128 0x4
 2034 030f EC1F0000 		.4byte	.LASF117
 2035 0313 4E       		.byte	0x4e
 2036 0314 04       		.uleb128 0x4
 2037 0315 18360000 		.4byte	.LASF118
 2038 0319 4F       		.byte	0x4f
 2039 031a 04       		.uleb128 0x4
 2040 031b 061D0000 		.4byte	.LASF119
 2041 031f 50       		.byte	0x50
 2042 0320 04       		.uleb128 0x4
 2043 0321 D4050000 		.4byte	.LASF120
 2044 0325 51       		.byte	0x51
 2045 0326 04       		.uleb128 0x4
 2046 0327 FC2E0000 		.4byte	.LASF121
 2047 032b 52       		.byte	0x52
 2048 032c 04       		.uleb128 0x4
 2049 032d 06160000 		.4byte	.LASF122
 2050 0331 53       		.byte	0x53
 2051 0332 04       		.uleb128 0x4
 2052 0333 B82F0000 		.4byte	.LASF123
 2053 0337 54       		.byte	0x54
ARM GAS  C:\Users\ASUS\AppData\Local\Temp\ccarWmgw.s 			page 78


 2054 0338 04       		.uleb128 0x4
 2055 0339 19040000 		.4byte	.LASF124
 2056 033d 55       		.byte	0x55
 2057 033e 04       		.uleb128 0x4
 2058 033f B92E0000 		.4byte	.LASF125
 2059 0343 56       		.byte	0x56
 2060 0344 04       		.uleb128 0x4
 2061 0345 F6190000 		.4byte	.LASF126
 2062 0349 57       		.byte	0x57
 2063 034a 04       		.uleb128 0x4
 2064 034b B53B0000 		.4byte	.LASF127
 2065 034f 58       		.byte	0x58
 2066 0350 04       		.uleb128 0x4
 2067 0351 BD340000 		.4byte	.LASF128
 2068 0355 59       		.byte	0x59
 2069 0356 04       		.uleb128 0x4
 2070 0357 C8300000 		.4byte	.LASF129
 2071 035b 5A       		.byte	0x5a
 2072 035c 04       		.uleb128 0x4
 2073 035d 27020000 		.4byte	.LASF130
 2074 0361 5B       		.byte	0x5b
 2075 0362 04       		.uleb128 0x4
 2076 0363 B8170000 		.4byte	.LASF131
 2077 0367 5C       		.byte	0x5c
 2078 0368 04       		.uleb128 0x4
 2079 0369 862F0000 		.4byte	.LASF132
 2080 036d 5D       		.byte	0x5d
 2081 036e 04       		.uleb128 0x4
 2082 036f D6360000 		.4byte	.LASF133
 2083 0373 5E       		.byte	0x5e
 2084 0374 04       		.uleb128 0x4
 2085 0375 B51D0000 		.4byte	.LASF134
 2086 0379 5F       		.byte	0x5f
 2087 037a 04       		.uleb128 0x4
 2088 037b AF060000 		.4byte	.LASF135
 2089 037f 60       		.byte	0x60
 2090 0380 04       		.uleb128 0x4
 2091 0381 F4020000 		.4byte	.LASF136
 2092 0385 61       		.byte	0x61
 2093 0386 04       		.uleb128 0x4
 2094 0387 20320000 		.4byte	.LASF137
 2095 038b 62       		.byte	0x62
 2096 038c 04       		.uleb128 0x4
 2097 038d 92280000 		.4byte	.LASF138
 2098 0391 63       		.byte	0x63
 2099 0392 04       		.uleb128 0x4
 2100 0393 CF110000 		.4byte	.LASF139
 2101 0397 64       		.byte	0x64
 2102 0398 04       		.uleb128 0x4
 2103 0399 4C270000 		.4byte	.LASF140
 2104 039d 65       		.byte	0x65
 2105 039e 04       		.uleb128 0x4
 2106 039f 00000000 		.4byte	.LASF141
 2107 03a3 66       		.byte	0x66
 2108 03a4 04       		.uleb128 0x4
 2109 03a5 FA1A0000 		.4byte	.LASF142
 2110 03a9 67       		.byte	0x67
ARM GAS  C:\Users\ASUS\AppData\Local\Temp\ccarWmgw.s 			page 79


 2111 03aa 04       		.uleb128 0x4
 2112 03ab FF030000 		.4byte	.LASF143
 2113 03af 68       		.byte	0x68
 2114 03b0 04       		.uleb128 0x4
 2115 03b1 2A2A0000 		.4byte	.LASF144
 2116 03b5 69       		.byte	0x69
 2117 03b6 04       		.uleb128 0x4
 2118 03b7 DC250000 		.4byte	.LASF145
 2119 03bb 6A       		.byte	0x6a
 2120 03bc 04       		.uleb128 0x4
 2121 03bd F8300000 		.4byte	.LASF146
 2122 03c1 6B       		.byte	0x6b
 2123 03c2 04       		.uleb128 0x4
 2124 03c3 1B130000 		.4byte	.LASF147
 2125 03c7 6C       		.byte	0x6c
 2126 03c8 04       		.uleb128 0x4
 2127 03c9 49180000 		.4byte	.LASF148
 2128 03cd 6D       		.byte	0x6d
 2129 03ce 04       		.uleb128 0x4
 2130 03cf 59210000 		.4byte	.LASF149
 2131 03d3 6E       		.byte	0x6e
 2132 03d4 04       		.uleb128 0x4
 2133 03d5 27090000 		.4byte	.LASF150
 2134 03d9 6F       		.byte	0x6f
 2135 03da 04       		.uleb128 0x4
 2136 03db 8F050000 		.4byte	.LASF151
 2137 03df 70       		.byte	0x70
 2138 03e0 04       		.uleb128 0x4
 2139 03e1 EA130000 		.4byte	.LASF152
 2140 03e5 71       		.byte	0x71
 2141 03e6 04       		.uleb128 0x4
 2142 03e7 05140000 		.4byte	.LASF153
 2143 03eb 72       		.byte	0x72
 2144 03ec 04       		.uleb128 0x4
 2145 03ed CF320000 		.4byte	.LASF154
 2146 03f1 73       		.byte	0x73
 2147 03f2 04       		.uleb128 0x4
 2148 03f3 00370000 		.4byte	.LASF155
 2149 03f7 74       		.byte	0x74
 2150 03f8 04       		.uleb128 0x4
 2151 03f9 051E0000 		.4byte	.LASF156
 2152 03fd 75       		.byte	0x75
 2153 03fe 04       		.uleb128 0x4
 2154 03ff 95150000 		.4byte	.LASF157
 2155 0403 76       		.byte	0x76
 2156 0404 04       		.uleb128 0x4
 2157 0405 113D0000 		.4byte	.LASF158
 2158 0409 77       		.byte	0x77
 2159 040a 04       		.uleb128 0x4
 2160 040b E0230000 		.4byte	.LASF159
 2161 040f 78       		.byte	0x78
 2162 0410 04       		.uleb128 0x4
 2163 0411 8C200000 		.4byte	.LASF160
 2164 0415 79       		.byte	0x79
 2165 0416 04       		.uleb128 0x4
 2166 0417 67000000 		.4byte	.LASF161
 2167 041b 7A       		.byte	0x7a
ARM GAS  C:\Users\ASUS\AppData\Local\Temp\ccarWmgw.s 			page 80


 2168 041c 04       		.uleb128 0x4
 2169 041d E2300000 		.4byte	.LASF162
 2170 0421 7B       		.byte	0x7b
 2171 0422 04       		.uleb128 0x4
 2172 0423 1E170000 		.4byte	.LASF163
 2173 0427 7C       		.byte	0x7c
 2174 0428 04       		.uleb128 0x4
 2175 0429 7B080000 		.4byte	.LASF164
 2176 042d 7D       		.byte	0x7d
 2177 042e 04       		.uleb128 0x4
 2178 042f EC3A0000 		.4byte	.LASF165
 2179 0433 7E       		.byte	0x7e
 2180 0434 04       		.uleb128 0x4
 2181 0435 F3210000 		.4byte	.LASF166
 2182 0439 7F       		.byte	0x7f
 2183 043a 04       		.uleb128 0x4
 2184 043b 980A0000 		.4byte	.LASF167
 2185 043f 80       		.byte	0x80
 2186 0440 04       		.uleb128 0x4
 2187 0441 C9060000 		.4byte	.LASF168
 2188 0445 81       		.byte	0x81
 2189 0446 04       		.uleb128 0x4
 2190 0447 DC2D0000 		.4byte	.LASF169
 2191 044b 82       		.byte	0x82
 2192 044c 04       		.uleb128 0x4
 2193 044d 10150000 		.4byte	.LASF170
 2194 0451 83       		.byte	0x83
 2195 0452 04       		.uleb128 0x4
 2196 0453 DA370000 		.4byte	.LASF171
 2197 0457 84       		.byte	0x84
 2198 0458 04       		.uleb128 0x4
 2199 0459 8C1F0000 		.4byte	.LASF172
 2200 045d 85       		.byte	0x85
 2201 045e 04       		.uleb128 0x4
 2202 045f BB1A0000 		.4byte	.LASF173
 2203 0463 86       		.byte	0x86
 2204 0464 04       		.uleb128 0x4
 2205 0465 B8160000 		.4byte	.LASF174
 2206 0469 87       		.byte	0x87
 2207 046a 04       		.uleb128 0x4
 2208 046b 132A0000 		.4byte	.LASF175
 2209 046f 88       		.byte	0x88
 2210 0470 04       		.uleb128 0x4
 2211 0471 8B250000 		.4byte	.LASF176
 2212 0475 89       		.byte	0x89
 2213 0476 04       		.uleb128 0x4
 2214 0477 A9240000 		.4byte	.LASF177
 2215 047b 8A       		.byte	0x8a
 2216 047c 04       		.uleb128 0x4
 2217 047d A4300000 		.4byte	.LASF178
 2218 0481 8B       		.byte	0x8b
 2219 0482 04       		.uleb128 0x4
 2220 0483 0A290000 		.4byte	.LASF179
 2221 0487 8C       		.byte	0x8c
 2222 0488 04       		.uleb128 0x4
 2223 0489 FE040000 		.4byte	.LASF180
 2224 048d 8D       		.byte	0x8d
ARM GAS  C:\Users\ASUS\AppData\Local\Temp\ccarWmgw.s 			page 81


 2225 048e 04       		.uleb128 0x4
 2226 048f 7B050000 		.4byte	.LASF181
 2227 0493 8E       		.byte	0x8e
 2228 0494 04       		.uleb128 0x4
 2229 0495 22390000 		.4byte	.LASF182
 2230 0499 8F       		.byte	0x8f
 2231 049a 04       		.uleb128 0x4
 2232 049b 09110000 		.4byte	.LASF183
 2233 049f 90       		.byte	0x90
 2234 04a0 04       		.uleb128 0x4
 2235 04a1 A70F0000 		.4byte	.LASF184
 2236 04a5 91       		.byte	0x91
 2237 04a6 04       		.uleb128 0x4
 2238 04a7 B0150000 		.4byte	.LASF185
 2239 04ab 92       		.byte	0x92
 2240 04ac 04       		.uleb128 0x4
 2241 04ad 62050000 		.4byte	.LASF186
 2242 04b1 F0       		.byte	0xf0
 2243 04b2 00       		.byte	0
 2244 04b3 05       		.uleb128 0x5
 2245 04b4 01       		.byte	0x1
 2246 04b5 08       		.byte	0x8
 2247 04b6 C80E0000 		.4byte	.LASF188
 2248 04ba 07       		.uleb128 0x7
 2249 04bb 4C370000 		.4byte	.LASF190
 2250 04bf 09       		.byte	0x9
 2251 04c0 9201     		.2byte	0x192
 2252 04c2 2E010000 		.4byte	0x12e
 2253 04c6 05       		.uleb128 0x5
 2254 04c7 01       		.byte	0x1
 2255 04c8 06       		.byte	0x6
 2256 04c9 AA0C0000 		.4byte	.LASF191
 2257 04cd 06       		.uleb128 0x6
 2258 04ce 90070000 		.4byte	.LASF192
 2259 04d2 0A       		.byte	0xa
 2260 04d3 1D       		.byte	0x1d
 2261 04d4 B3040000 		.4byte	0x4b3
 2262 04d8 06       		.uleb128 0x6
 2263 04d9 CD190000 		.4byte	.LASF193
 2264 04dd 0A       		.byte	0xa
 2265 04de 29       		.byte	0x29
 2266 04df 1C010000 		.4byte	0x11c
 2267 04e3 06       		.uleb128 0x6
 2268 04e4 E90A0000 		.4byte	.LASF194
 2269 04e8 0A       		.byte	0xa
 2270 04e9 2B       		.byte	0x2b
 2271 04ea EE040000 		.4byte	0x4ee
 2272 04ee 05       		.uleb128 0x5
 2273 04ef 02       		.byte	0x2
 2274 04f0 07       		.byte	0x7
 2275 04f1 053A0000 		.4byte	.LASF195
 2276 04f5 06       		.uleb128 0x6
 2277 04f6 AB3B0000 		.4byte	.LASF196
 2278 04fa 0A       		.byte	0xa
 2279 04fb 3F       		.byte	0x3f
 2280 04fc 00050000 		.4byte	0x500
 2281 0500 05       		.uleb128 0x5
ARM GAS  C:\Users\ASUS\AppData\Local\Temp\ccarWmgw.s 			page 82


 2282 0501 04       		.byte	0x4
 2283 0502 05       		.byte	0x5
 2284 0503 72080000 		.4byte	.LASF197
 2285 0507 06       		.uleb128 0x6
 2286 0508 5D1D0000 		.4byte	.LASF198
 2287 050c 0A       		.byte	0xa
 2288 050d 41       		.byte	0x41
 2289 050e 12050000 		.4byte	0x512
 2290 0512 05       		.uleb128 0x5
 2291 0513 04       		.byte	0x4
 2292 0514 07       		.byte	0x7
 2293 0515 A7180000 		.4byte	.LASF199
 2294 0519 05       		.uleb128 0x5
 2295 051a 08       		.byte	0x8
 2296 051b 05       		.byte	0x5
 2297 051c 4E380000 		.4byte	.LASF200
 2298 0520 05       		.uleb128 0x5
 2299 0521 08       		.byte	0x8
 2300 0522 07       		.byte	0x7
 2301 0523 F62A0000 		.4byte	.LASF201
 2302 0527 08       		.uleb128 0x8
 2303 0528 04       		.byte	0x4
 2304 0529 05       		.byte	0x5
 2305 052a 696E7400 		.ascii	"int\000"
 2306 052e 05       		.uleb128 0x5
 2307 052f 04       		.byte	0x4
 2308 0530 07       		.byte	0x7
 2309 0531 09220000 		.4byte	.LASF202
 2310 0535 06       		.uleb128 0x6
 2311 0536 D80C0000 		.4byte	.LASF203
 2312 053a 0B       		.byte	0xb
 2313 053b 18       		.byte	0x18
 2314 053c CD040000 		.4byte	0x4cd
 2315 0540 06       		.uleb128 0x6
 2316 0541 29340000 		.4byte	.LASF204
 2317 0545 0B       		.byte	0xb
 2318 0546 20       		.byte	0x20
 2319 0547 D8040000 		.4byte	0x4d8
 2320 054b 06       		.uleb128 0x6
 2321 054c 832B0000 		.4byte	.LASF205
 2322 0550 0B       		.byte	0xb
 2323 0551 24       		.byte	0x24
 2324 0552 E3040000 		.4byte	0x4e3
 2325 0556 06       		.uleb128 0x6
 2326 0557 742E0000 		.4byte	.LASF206
 2327 055b 0B       		.byte	0xb
 2328 055c 2C       		.byte	0x2c
 2329 055d F5040000 		.4byte	0x4f5
 2330 0561 06       		.uleb128 0x6
 2331 0562 8B380000 		.4byte	.LASF207
 2332 0566 0B       		.byte	0xb
 2333 0567 30       		.byte	0x30
 2334 0568 07050000 		.4byte	0x507
 2335 056c 09       		.uleb128 0x9
 2336 056d 2003     		.2byte	0x320
 2337 056f 06       		.byte	0x6
 2338 0570 4801     		.2byte	0x148
ARM GAS  C:\Users\ASUS\AppData\Local\Temp\ccarWmgw.s 			page 83


 2339 0572 FE050000 		.4byte	0x5fe
 2340 0576 0A       		.uleb128 0xa
 2341 0577 6B3C0000 		.4byte	.LASF208
 2342 057b 06       		.byte	0x6
 2343 057c 4A01     		.2byte	0x14a
 2344 057e 1A060000 		.4byte	0x61a
 2345 0582 00       		.byte	0
 2346 0583 0A       		.uleb128 0xa
 2347 0584 B40E0000 		.4byte	.LASF209
 2348 0588 06       		.byte	0x6
 2349 0589 4B01     		.2byte	0x14b
 2350 058b 1F060000 		.4byte	0x61f
 2351 058f 04       		.byte	0x4
 2352 0590 0A       		.uleb128 0xa
 2353 0591 9D2E0000 		.4byte	.LASF210
 2354 0595 06       		.byte	0x6
 2355 0596 4C01     		.2byte	0x14c
 2356 0598 2F060000 		.4byte	0x62f
 2357 059c 80       		.byte	0x80
 2358 059d 0A       		.uleb128 0xa
 2359 059e 7D000000 		.4byte	.LASF211
 2360 05a2 06       		.byte	0x6
 2361 05a3 4D01     		.2byte	0x14d
 2362 05a5 1F060000 		.4byte	0x61f
 2363 05a9 84       		.byte	0x84
 2364 05aa 0B       		.uleb128 0xb
 2365 05ab E0130000 		.4byte	.LASF212
 2366 05af 06       		.byte	0x6
 2367 05b0 4E01     		.2byte	0x14e
 2368 05b2 34060000 		.4byte	0x634
 2369 05b6 0001     		.2byte	0x100
 2370 05b8 0B       		.uleb128 0xb
 2371 05b9 98120000 		.4byte	.LASF213
 2372 05bd 06       		.byte	0x6
 2373 05be 4F01     		.2byte	0x14f
 2374 05c0 1F060000 		.4byte	0x61f
 2375 05c4 0401     		.2byte	0x104
 2376 05c6 0B       		.uleb128 0xb
 2377 05c7 F9050000 		.4byte	.LASF214
 2378 05cb 06       		.byte	0x6
 2379 05cc 5001     		.2byte	0x150
 2380 05ce 39060000 		.4byte	0x639
 2381 05d2 8001     		.2byte	0x180
 2382 05d4 0B       		.uleb128 0xb
 2383 05d5 A9100000 		.4byte	.LASF215
 2384 05d9 06       		.byte	0x6
 2385 05da 5101     		.2byte	0x151
 2386 05dc 1F060000 		.4byte	0x61f
 2387 05e0 8401     		.2byte	0x184
 2388 05e2 0B       		.uleb128 0xb
 2389 05e3 E30E0000 		.4byte	.LASF216
 2390 05e7 06       		.byte	0x6
 2391 05e8 5201     		.2byte	0x152
 2392 05ea 3E060000 		.4byte	0x63e
 2393 05ee 0002     		.2byte	0x200
 2394 05f0 0C       		.uleb128 0xc
 2395 05f1 495000   		.ascii	"IP\000"
ARM GAS  C:\Users\ASUS\AppData\Local\Temp\ccarWmgw.s 			page 84


 2396 05f4 06       		.byte	0x6
 2397 05f5 5301     		.2byte	0x153
 2398 05f7 5E060000 		.4byte	0x65e
 2399 05fb 0003     		.2byte	0x300
 2400 05fd 00       		.byte	0
 2401 05fe 0D       		.uleb128 0xd
 2402 05ff 15060000 		.4byte	0x615
 2403 0603 0E060000 		.4byte	0x60e
 2404 0607 0E       		.uleb128 0xe
 2405 0608 0E060000 		.4byte	0x60e
 2406 060c 00       		.byte	0
 2407 060d 00       		.byte	0
 2408 060e 05       		.uleb128 0x5
 2409 060f 04       		.byte	0x4
 2410 0610 07       		.byte	0x7
 2411 0611 9B000000 		.4byte	.LASF217
 2412 0615 0F       		.uleb128 0xf
 2413 0616 61050000 		.4byte	0x561
 2414 061a 0F       		.uleb128 0xf
 2415 061b FE050000 		.4byte	0x5fe
 2416 061f 0D       		.uleb128 0xd
 2417 0620 61050000 		.4byte	0x561
 2418 0624 2F060000 		.4byte	0x62f
 2419 0628 0E       		.uleb128 0xe
 2420 0629 0E060000 		.4byte	0x60e
 2421 062d 1E       		.byte	0x1e
 2422 062e 00       		.byte	0
 2423 062f 0F       		.uleb128 0xf
 2424 0630 FE050000 		.4byte	0x5fe
 2425 0634 0F       		.uleb128 0xf
 2426 0635 FE050000 		.4byte	0x5fe
 2427 0639 0F       		.uleb128 0xf
 2428 063a FE050000 		.4byte	0x5fe
 2429 063e 0D       		.uleb128 0xd
 2430 063f 61050000 		.4byte	0x561
 2431 0643 4E060000 		.4byte	0x64e
 2432 0647 0E       		.uleb128 0xe
 2433 0648 0E060000 		.4byte	0x60e
 2434 064c 3F       		.byte	0x3f
 2435 064d 00       		.byte	0
 2436 064e 0D       		.uleb128 0xd
 2437 064f 15060000 		.4byte	0x615
 2438 0653 5E060000 		.4byte	0x65e
 2439 0657 0E       		.uleb128 0xe
 2440 0658 0E060000 		.4byte	0x60e
 2441 065c 07       		.byte	0x7
 2442 065d 00       		.byte	0
 2443 065e 0F       		.uleb128 0xf
 2444 065f 4E060000 		.4byte	0x64e
 2445 0663 07       		.uleb128 0x7
 2446 0664 F5290000 		.4byte	.LASF218
 2447 0668 06       		.byte	0x6
 2448 0669 5401     		.2byte	0x154
 2449 066b 6C050000 		.4byte	0x56c
 2450 066f 10       		.uleb128 0x10
 2451 0670 15060000 		.4byte	0x615
 2452 0674 0D       		.uleb128 0xd
ARM GAS  C:\Users\ASUS\AppData\Local\Temp\ccarWmgw.s 			page 85


 2453 0675 6F060000 		.4byte	0x66f
 2454 0679 84060000 		.4byte	0x684
 2455 067d 0E       		.uleb128 0xe
 2456 067e 0E060000 		.4byte	0x60e
 2457 0682 05       		.byte	0x5
 2458 0683 00       		.byte	0
 2459 0684 0D       		.uleb128 0xd
 2460 0685 6F060000 		.4byte	0x66f
 2461 0689 94060000 		.4byte	0x694
 2462 068d 0E       		.uleb128 0xe
 2463 068e 0E060000 		.4byte	0x60e
 2464 0692 7F       		.byte	0x7f
 2465 0693 00       		.byte	0
 2466 0694 0D       		.uleb128 0xd
 2467 0695 6F060000 		.4byte	0x66f
 2468 0699 A4060000 		.4byte	0x6a4
 2469 069d 0E       		.uleb128 0xe
 2470 069e 0E060000 		.4byte	0x60e
 2471 06a2 0C       		.byte	0xc
 2472 06a3 00       		.byte	0
 2473 06a4 0D       		.uleb128 0xd
 2474 06a5 6F060000 		.4byte	0x66f
 2475 06a9 B4060000 		.4byte	0x6b4
 2476 06ad 0E       		.uleb128 0xe
 2477 06ae 0E060000 		.4byte	0x60e
 2478 06b2 1E       		.byte	0x1e
 2479 06b3 00       		.byte	0
 2480 06b4 0D       		.uleb128 0xd
 2481 06b5 6F060000 		.4byte	0x66f
 2482 06b9 C4060000 		.4byte	0x6c4
 2483 06bd 0E       		.uleb128 0xe
 2484 06be 0E060000 		.4byte	0x60e
 2485 06c2 03       		.byte	0x3
 2486 06c3 00       		.byte	0
 2487 06c4 0D       		.uleb128 0xd
 2488 06c5 6F060000 		.4byte	0x66f
 2489 06c9 D4060000 		.4byte	0x6d4
 2490 06cd 0E       		.uleb128 0xe
 2491 06ce 0E060000 		.4byte	0x60e
 2492 06d2 3E       		.byte	0x3e
 2493 06d3 00       		.byte	0
 2494 06d4 0D       		.uleb128 0xd
 2495 06d5 6F060000 		.4byte	0x66f
 2496 06d9 E4060000 		.4byte	0x6e4
 2497 06dd 0E       		.uleb128 0xe
 2498 06de 0E060000 		.4byte	0x60e
 2499 06e2 02       		.byte	0x2
 2500 06e3 00       		.byte	0
 2501 06e4 0D       		.uleb128 0xd
 2502 06e5 6F060000 		.4byte	0x66f
 2503 06e9 F4060000 		.4byte	0x6f4
 2504 06ed 0E       		.uleb128 0xe
 2505 06ee 0E060000 		.4byte	0x60e
 2506 06f2 0B       		.byte	0xb
 2507 06f3 00       		.byte	0
 2508 06f4 0D       		.uleb128 0xd
 2509 06f5 35050000 		.4byte	0x535
ARM GAS  C:\Users\ASUS\AppData\Local\Temp\ccarWmgw.s 			page 86


 2510 06f9 04070000 		.4byte	0x704
 2511 06fd 0E       		.uleb128 0xe
 2512 06fe 0E060000 		.4byte	0x60e
 2513 0702 01       		.byte	0x1
 2514 0703 00       		.byte	0
 2515 0704 0D       		.uleb128 0xd
 2516 0705 6F060000 		.4byte	0x66f
 2517 0709 14070000 		.4byte	0x714
 2518 070d 0E       		.uleb128 0xe
 2519 070e 0E060000 		.4byte	0x60e
 2520 0712 0A       		.byte	0xa
 2521 0713 00       		.byte	0
 2522 0714 0D       		.uleb128 0xd
 2523 0715 6F060000 		.4byte	0x66f
 2524 0719 24070000 		.4byte	0x724
 2525 071d 0E       		.uleb128 0xe
 2526 071e 0E060000 		.4byte	0x60e
 2527 0722 2E       		.byte	0x2e
 2528 0723 00       		.byte	0
 2529 0724 0D       		.uleb128 0xd
 2530 0725 6F060000 		.4byte	0x66f
 2531 0729 34070000 		.4byte	0x734
 2532 072d 0E       		.uleb128 0xe
 2533 072e 0E060000 		.4byte	0x60e
 2534 0732 2D       		.byte	0x2d
 2535 0733 00       		.byte	0
 2536 0734 0D       		.uleb128 0xd
 2537 0735 15060000 		.4byte	0x615
 2538 0739 45070000 		.4byte	0x745
 2539 073d 11       		.uleb128 0x11
 2540 073e 0E060000 		.4byte	0x60e
 2541 0742 FF01     		.2byte	0x1ff
 2542 0744 00       		.byte	0
 2543 0745 12       		.uleb128 0x12
 2544 0746 D00F     		.2byte	0xfd0
 2545 0748 0C       		.byte	0xc
 2546 0749 21       		.byte	0x21
 2547 074a C90A0000 		.4byte	0xac9
 2548 074e 13       		.uleb128 0x13
 2549 074f 16220000 		.4byte	.LASF219
 2550 0753 0C       		.byte	0xc
 2551 0754 22       		.byte	0x22
 2552 0755 15060000 		.4byte	0x615
 2553 0759 00       		.byte	0
 2554 075a 13       		.uleb128 0x13
 2555 075b FF2F0000 		.4byte	.LASF220
 2556 075f 0C       		.byte	0xc
 2557 0760 23       		.byte	0x23
 2558 0761 6F060000 		.4byte	0x66f
 2559 0765 04       		.byte	0x4
 2560 0766 13       		.uleb128 0x13
 2561 0767 A60E0000 		.4byte	.LASF221
 2562 076b 0C       		.byte	0xc
 2563 076c 24       		.byte	0x24
 2564 076d 15060000 		.4byte	0x615
 2565 0771 08       		.byte	0x8
 2566 0772 13       		.uleb128 0x13
ARM GAS  C:\Users\ASUS\AppData\Local\Temp\ccarWmgw.s 			page 87


 2567 0773 AC2D0000 		.4byte	.LASF222
 2568 0777 0C       		.byte	0xc
 2569 0778 25       		.byte	0x25
 2570 0779 6F060000 		.4byte	0x66f
 2571 077d 0C       		.byte	0xc
 2572 077e 13       		.uleb128 0x13
 2573 077f C9150000 		.4byte	.LASF223
 2574 0783 0C       		.byte	0xc
 2575 0784 26       		.byte	0x26
 2576 0785 CE0A0000 		.4byte	0xace
 2577 0789 10       		.byte	0x10
 2578 078a 13       		.uleb128 0x13
 2579 078b 63090000 		.4byte	.LASF224
 2580 078f 0C       		.byte	0xc
 2581 0790 27       		.byte	0x27
 2582 0791 15060000 		.4byte	0x615
 2583 0795 20       		.byte	0x20
 2584 0796 13       		.uleb128 0x13
 2585 0797 CC210000 		.4byte	.LASF225
 2586 079b 0C       		.byte	0xc
 2587 079c 28       		.byte	0x28
 2588 079d 6F060000 		.4byte	0x66f
 2589 07a1 24       		.byte	0x24
 2590 07a2 13       		.uleb128 0x13
 2591 07a3 BE0E0000 		.4byte	.LASF226
 2592 07a7 0C       		.byte	0xc
 2593 07a8 29       		.byte	0x29
 2594 07a9 D80A0000 		.4byte	0xad8
 2595 07ad 28       		.byte	0x28
 2596 07ae 13       		.uleb128 0x13
 2597 07af 93010000 		.4byte	.LASF227
 2598 07b3 0C       		.byte	0xc
 2599 07b4 2A       		.byte	0x2a
 2600 07b5 15060000 		.4byte	0x615
 2601 07b9 40       		.byte	0x40
 2602 07ba 13       		.uleb128 0x13
 2603 07bb 0F120000 		.4byte	.LASF228
 2604 07bf 0C       		.byte	0xc
 2605 07c0 2B       		.byte	0x2b
 2606 07c1 15060000 		.4byte	0x615
 2607 07c5 44       		.byte	0x44
 2608 07c6 13       		.uleb128 0x13
 2609 07c7 5D0B0000 		.4byte	.LASF229
 2610 07cb 0C       		.byte	0xc
 2611 07cc 2C       		.byte	0x2c
 2612 07cd 15060000 		.4byte	0x615
 2613 07d1 48       		.byte	0x48
 2614 07d2 13       		.uleb128 0x13
 2615 07d3 F7150000 		.4byte	.LASF230
 2616 07d7 0C       		.byte	0xc
 2617 07d8 2D       		.byte	0x2d
 2618 07d9 6F060000 		.4byte	0x66f
 2619 07dd 4C       		.byte	0x4c
 2620 07de 13       		.uleb128 0x13
 2621 07df 4D250000 		.4byte	.LASF231
 2622 07e3 0C       		.byte	0xc
 2623 07e4 2E       		.byte	0x2e
ARM GAS  C:\Users\ASUS\AppData\Local\Temp\ccarWmgw.s 			page 88


 2624 07e5 15060000 		.4byte	0x615
 2625 07e9 50       		.byte	0x50
 2626 07ea 13       		.uleb128 0x13
 2627 07eb 98120000 		.4byte	.LASF213
 2628 07ef 0C       		.byte	0xc
 2629 07f0 2F       		.byte	0x2f
 2630 07f1 E20A0000 		.4byte	0xae2
 2631 07f5 54       		.byte	0x54
 2632 07f6 13       		.uleb128 0x13
 2633 07f7 F63D0000 		.4byte	.LASF232
 2634 07fb 0C       		.byte	0xc
 2635 07fc 30       		.byte	0x30
 2636 07fd 15060000 		.4byte	0x615
 2637 0801 60       		.byte	0x60
 2638 0802 13       		.uleb128 0x13
 2639 0803 11380000 		.4byte	.LASF233
 2640 0807 0C       		.byte	0xc
 2641 0808 31       		.byte	0x31
 2642 0809 6F060000 		.4byte	0x66f
 2643 080d 64       		.byte	0x64
 2644 080e 13       		.uleb128 0x13
 2645 080f 410C0000 		.4byte	.LASF234
 2646 0813 0C       		.byte	0xc
 2647 0814 32       		.byte	0x32
 2648 0815 15060000 		.4byte	0x615
 2649 0819 68       		.byte	0x68
 2650 081a 13       		.uleb128 0x13
 2651 081b FA100000 		.4byte	.LASF235
 2652 081f 0C       		.byte	0xc
 2653 0820 33       		.byte	0x33
 2654 0821 15060000 		.4byte	0x615
 2655 0825 6C       		.byte	0x6c
 2656 0826 13       		.uleb128 0x13
 2657 0827 0F060000 		.4byte	.LASF236
 2658 082b 0C       		.byte	0xc
 2659 082c 34       		.byte	0x34
 2660 082d 15060000 		.4byte	0x615
 2661 0831 70       		.byte	0x70
 2662 0832 13       		.uleb128 0x13
 2663 0833 A9100000 		.4byte	.LASF215
 2664 0837 0C       		.byte	0xc
 2665 0838 35       		.byte	0x35
 2666 0839 FC0A0000 		.4byte	0xafc
 2667 083d 74       		.byte	0x74
 2668 083e 14       		.uleb128 0x14
 2669 083f 82100000 		.4byte	.LASF237
 2670 0843 0C       		.byte	0xc
 2671 0844 36       		.byte	0x36
 2672 0845 15060000 		.4byte	0x615
 2673 0849 0001     		.2byte	0x100
 2674 084b 14       		.uleb128 0x14
 2675 084c E30E0000 		.4byte	.LASF216
 2676 0850 0C       		.byte	0xc
 2677 0851 37       		.byte	0x37
 2678 0852 060B0000 		.4byte	0xb06
 2679 0856 0401     		.2byte	0x104
 2680 0858 14       		.uleb128 0x14
ARM GAS  C:\Users\ASUS\AppData\Local\Temp\ccarWmgw.s 			page 89


 2681 0859 38240000 		.4byte	.LASF238
 2682 085d 0C       		.byte	0xc
 2683 085e 38       		.byte	0x38
 2684 085f 15060000 		.4byte	0x615
 2685 0863 0002     		.2byte	0x200
 2686 0865 14       		.uleb128 0x14
 2687 0866 CF2B0000 		.4byte	.LASF239
 2688 086a 0C       		.byte	0xc
 2689 086b 39       		.byte	0x39
 2690 086c 15060000 		.4byte	0x615
 2691 0870 0402     		.2byte	0x204
 2692 0872 14       		.uleb128 0x14
 2693 0873 33280000 		.4byte	.LASF240
 2694 0877 0C       		.byte	0xc
 2695 0878 3A       		.byte	0x3a
 2696 0879 6F060000 		.4byte	0x66f
 2697 087d 0802     		.2byte	0x208
 2698 087f 14       		.uleb128 0x14
 2699 0880 ED0E0000 		.4byte	.LASF241
 2700 0884 0C       		.byte	0xc
 2701 0885 3B       		.byte	0x3b
 2702 0886 100B0000 		.4byte	0xb10
 2703 088a 0C02     		.2byte	0x20c
 2704 088c 14       		.uleb128 0x14
 2705 088d 47120000 		.4byte	.LASF242
 2706 0891 0C       		.byte	0xc
 2707 0892 3C       		.byte	0x3c
 2708 0893 15060000 		.4byte	0x615
 2709 0897 4002     		.2byte	0x240
 2710 0899 14       		.uleb128 0x14
 2711 089a F70E0000 		.4byte	.LASF243
 2712 089e 0C       		.byte	0xc
 2713 089f 3D       		.byte	0x3d
 2714 08a0 1A0B0000 		.4byte	0xb1a
 2715 08a4 4402     		.2byte	0x244
 2716 08a6 14       		.uleb128 0x14
 2717 08a7 54080000 		.4byte	.LASF244
 2718 08ab 0C       		.byte	0xc
 2719 08ac 3E       		.byte	0x3e
 2720 08ad 15060000 		.4byte	0x615
 2721 08b1 0003     		.2byte	0x300
 2722 08b3 14       		.uleb128 0x14
 2723 08b4 B0340000 		.4byte	.LASF245
 2724 08b8 0C       		.byte	0xc
 2725 08b9 3F       		.byte	0x3f
 2726 08ba 15060000 		.4byte	0x615
 2727 08be 0403     		.2byte	0x304
 2728 08c0 14       		.uleb128 0x14
 2729 08c1 3B070000 		.4byte	.LASF246
 2730 08c5 0C       		.byte	0xc
 2731 08c6 40       		.byte	0x40
 2732 08c7 6F060000 		.4byte	0x66f
 2733 08cb 0803     		.2byte	0x308
 2734 08cd 14       		.uleb128 0x14
 2735 08ce B3100000 		.4byte	.LASF247
 2736 08d2 0C       		.byte	0xc
 2737 08d3 41       		.byte	0x41
ARM GAS  C:\Users\ASUS\AppData\Local\Temp\ccarWmgw.s 			page 90


 2738 08d4 6F060000 		.4byte	0x66f
 2739 08d8 0C03     		.2byte	0x30c
 2740 08da 14       		.uleb128 0x14
 2741 08db 07010000 		.4byte	.LASF248
 2742 08df 0C       		.byte	0xc
 2743 08e0 42       		.byte	0x42
 2744 08e1 15060000 		.4byte	0x615
 2745 08e5 1003     		.2byte	0x310
 2746 08e7 14       		.uleb128 0x14
 2747 08e8 BD100000 		.4byte	.LASF249
 2748 08ec 0C       		.byte	0xc
 2749 08ed 43       		.byte	0x43
 2750 08ee 240B0000 		.4byte	0xb24
 2751 08f2 1403     		.2byte	0x314
 2752 08f4 14       		.uleb128 0x14
 2753 08f5 A3320000 		.4byte	.LASF250
 2754 08f9 0C       		.byte	0xc
 2755 08fa 44       		.byte	0x44
 2756 08fb 6F060000 		.4byte	0x66f
 2757 08ff 4003     		.2byte	0x340
 2758 0901 14       		.uleb128 0x14
 2759 0902 93390000 		.4byte	.LASF251
 2760 0906 0C       		.byte	0xc
 2761 0907 45       		.byte	0x45
 2762 0908 6F060000 		.4byte	0x66f
 2763 090c 4403     		.2byte	0x344
 2764 090e 14       		.uleb128 0x14
 2765 090f 1E0F0000 		.4byte	.LASF252
 2766 0913 0C       		.byte	0xc
 2767 0914 46       		.byte	0x46
 2768 0915 2E0B0000 		.4byte	0xb2e
 2769 0919 4803     		.2byte	0x348
 2770 091b 14       		.uleb128 0x14
 2771 091c 731D0000 		.4byte	.LASF253
 2772 0920 0C       		.byte	0xc
 2773 0921 47       		.byte	0x47
 2774 0922 330B0000 		.4byte	0xb33
 2775 0926 0004     		.2byte	0x400
 2776 0928 14       		.uleb128 0x14
 2777 0929 3F2C0000 		.4byte	.LASF254
 2778 092d 0C       		.byte	0xc
 2779 092e 48       		.byte	0x48
 2780 092f 3D0B0000 		.4byte	0xb3d
 2781 0933 000C     		.2byte	0xc00
 2782 0935 14       		.uleb128 0x14
 2783 0936 88010000 		.4byte	.LASF255
 2784 093a 0C       		.byte	0xc
 2785 093b 49       		.byte	0x49
 2786 093c 6F060000 		.4byte	0x66f
 2787 0940 000E     		.2byte	0xe00
 2788 0942 14       		.uleb128 0x14
 2789 0943 BC3A0000 		.4byte	.LASF256
 2790 0947 0C       		.byte	0xc
 2791 0948 4A       		.byte	0x4a
 2792 0949 470B0000 		.4byte	0xb47
 2793 094d 040E     		.2byte	0xe04
 2794 094f 14       		.uleb128 0x14
ARM GAS  C:\Users\ASUS\AppData\Local\Temp\ccarWmgw.s 			page 91


 2795 0950 1D340000 		.4byte	.LASF257
 2796 0954 0C       		.byte	0xc
 2797 0955 4B       		.byte	0x4b
 2798 0956 15060000 		.4byte	0x615
 2799 095a 800E     		.2byte	0xe80
 2800 095c 14       		.uleb128 0x14
 2801 095d 552C0000 		.4byte	.LASF258
 2802 0961 0C       		.byte	0xc
 2803 0962 4C       		.byte	0x4c
 2804 0963 6F060000 		.4byte	0x66f
 2805 0967 840E     		.2byte	0xe84
 2806 0969 14       		.uleb128 0x14
 2807 096a 59240000 		.4byte	.LASF259
 2808 096e 0C       		.byte	0xc
 2809 096f 4D       		.byte	0x4d
 2810 0970 15060000 		.4byte	0x615
 2811 0974 880E     		.2byte	0xe88
 2812 0976 14       		.uleb128 0x14
 2813 0977 41300000 		.4byte	.LASF260
 2814 097b 0C       		.byte	0xc
 2815 097c 4E       		.byte	0x4e
 2816 097d 6F060000 		.4byte	0x66f
 2817 0981 8C0E     		.2byte	0xe8c
 2818 0983 14       		.uleb128 0x14
 2819 0984 602C0000 		.4byte	.LASF261
 2820 0988 0C       		.byte	0xc
 2821 0989 4F       		.byte	0x4f
 2822 098a 510B0000 		.4byte	0xb51
 2823 098e 900E     		.2byte	0xe90
 2824 0990 14       		.uleb128 0x14
 2825 0991 48280000 		.4byte	.LASF262
 2826 0995 0C       		.byte	0xc
 2827 0996 50       		.byte	0x50
 2828 0997 15060000 		.4byte	0x615
 2829 099b C00E     		.2byte	0xec0
 2830 099d 14       		.uleb128 0x14
 2831 099e 6B2C0000 		.4byte	.LASF263
 2832 09a2 0C       		.byte	0xc
 2833 09a3 51       		.byte	0x51
 2834 09a4 6F060000 		.4byte	0x66f
 2835 09a8 C40E     		.2byte	0xec4
 2836 09aa 14       		.uleb128 0x14
 2837 09ab CE260000 		.4byte	.LASF264
 2838 09af 0C       		.byte	0xc
 2839 09b0 52       		.byte	0x52
 2840 09b1 15060000 		.4byte	0x615
 2841 09b5 C80E     		.2byte	0xec8
 2842 09b7 14       		.uleb128 0x14
 2843 09b8 77310000 		.4byte	.LASF265
 2844 09bc 0C       		.byte	0xc
 2845 09bd 53       		.byte	0x53
 2846 09be 6F060000 		.4byte	0x66f
 2847 09c2 CC0E     		.2byte	0xecc
 2848 09c4 14       		.uleb128 0x14
 2849 09c5 762C0000 		.4byte	.LASF266
 2850 09c9 0C       		.byte	0xc
 2851 09ca 54       		.byte	0x54
ARM GAS  C:\Users\ASUS\AppData\Local\Temp\ccarWmgw.s 			page 92


 2852 09cb 5B0B0000 		.4byte	0xb5b
 2853 09cf D00E     		.2byte	0xed0
 2854 09d1 14       		.uleb128 0x14
 2855 09d2 BD040000 		.4byte	.LASF267
 2856 09d6 0C       		.byte	0xc
 2857 09d7 55       		.byte	0x55
 2858 09d8 15060000 		.4byte	0x615
 2859 09dc 000F     		.2byte	0xf00
 2860 09de 14       		.uleb128 0x14
 2861 09df 6C310000 		.4byte	.LASF268
 2862 09e3 0C       		.byte	0xc
 2863 09e4 56       		.byte	0x56
 2864 09e5 15060000 		.4byte	0x615
 2865 09e9 040F     		.2byte	0xf04
 2866 09eb 14       		.uleb128 0x14
 2867 09ec B7190000 		.4byte	.LASF269
 2868 09f0 0C       		.byte	0xc
 2869 09f1 57       		.byte	0x57
 2870 09f2 15060000 		.4byte	0x615
 2871 09f6 080F     		.2byte	0xf08
 2872 09f8 14       		.uleb128 0x14
 2873 09f9 7E1F0000 		.4byte	.LASF270
 2874 09fd 0C       		.byte	0xc
 2875 09fe 58       		.byte	0x58
 2876 09ff 6F060000 		.4byte	0x66f
 2877 0a03 0C0F     		.2byte	0xf0c
 2878 0a05 14       		.uleb128 0x14
 2879 0a06 363B0000 		.4byte	.LASF271
 2880 0a0a 0C       		.byte	0xc
 2881 0a0b 59       		.byte	0x59
 2882 0a0c 650B0000 		.4byte	0xb65
 2883 0a10 100F     		.2byte	0xf10
 2884 0a12 14       		.uleb128 0x14
 2885 0a13 E9040000 		.4byte	.LASF272
 2886 0a17 0C       		.byte	0xc
 2887 0a18 5A       		.byte	0x5a
 2888 0a19 15060000 		.4byte	0x615
 2889 0a1d 400F     		.2byte	0xf40
 2890 0a1f 14       		.uleb128 0x14
 2891 0a20 F3340000 		.4byte	.LASF273
 2892 0a24 0C       		.byte	0xc
 2893 0a25 5B       		.byte	0x5b
 2894 0a26 15060000 		.4byte	0x615
 2895 0a2a 440F     		.2byte	0xf44
 2896 0a2c 14       		.uleb128 0x14
 2897 0a2d 12310000 		.4byte	.LASF274
 2898 0a31 0C       		.byte	0xc
 2899 0a32 5C       		.byte	0x5c
 2900 0a33 15060000 		.4byte	0x615
 2901 0a37 480F     		.2byte	0xf48
 2902 0a39 14       		.uleb128 0x14
 2903 0a3a A3270000 		.4byte	.LASF275
 2904 0a3e 0C       		.byte	0xc
 2905 0a3f 5D       		.byte	0x5d
 2906 0a40 6F060000 		.4byte	0x66f
 2907 0a44 4C0F     		.2byte	0xf4c
 2908 0a46 14       		.uleb128 0x14
ARM GAS  C:\Users\ASUS\AppData\Local\Temp\ccarWmgw.s 			page 93


 2909 0a47 A22C0000 		.4byte	.LASF276
 2910 0a4b 0C       		.byte	0xc
 2911 0a4c 5E       		.byte	0x5e
 2912 0a4d 6F0B0000 		.4byte	0xb6f
 2913 0a51 500F     		.2byte	0xf50
 2914 0a53 14       		.uleb128 0x14
 2915 0a54 D2370000 		.4byte	.LASF277
 2916 0a58 0C       		.byte	0xc
 2917 0a59 5F       		.byte	0x5f
 2918 0a5a 15060000 		.4byte	0x615
 2919 0a5e 800F     		.2byte	0xf80
 2920 0a60 14       		.uleb128 0x14
 2921 0a61 F82C0000 		.4byte	.LASF278
 2922 0a65 0C       		.byte	0xc
 2923 0a66 60       		.byte	0x60
 2924 0a67 15060000 		.4byte	0x615
 2925 0a6b 840F     		.2byte	0xf84
 2926 0a6d 14       		.uleb128 0x14
 2927 0a6e D60E0000 		.4byte	.LASF279
 2928 0a72 0C       		.byte	0xc
 2929 0a73 61       		.byte	0x61
 2930 0a74 15060000 		.4byte	0x615
 2931 0a78 880F     		.2byte	0xf88
 2932 0a7a 14       		.uleb128 0x14
 2933 0a7b 630A0000 		.4byte	.LASF280
 2934 0a7f 0C       		.byte	0xc
 2935 0a80 62       		.byte	0x62
 2936 0a81 6F060000 		.4byte	0x66f
 2937 0a85 8C0F     		.2byte	0xf8c
 2938 0a87 14       		.uleb128 0x14
 2939 0a88 4C3B0000 		.4byte	.LASF281
 2940 0a8c 0C       		.byte	0xc
 2941 0a8d 63       		.byte	0x63
 2942 0a8e 790B0000 		.4byte	0xb79
 2943 0a92 900F     		.2byte	0xf90
 2944 0a94 14       		.uleb128 0x14
 2945 0a95 F1050000 		.4byte	.LASF282
 2946 0a99 0C       		.byte	0xc
 2947 0a9a 64       		.byte	0x64
 2948 0a9b 15060000 		.4byte	0x615
 2949 0a9f C00F     		.2byte	0xfc0
 2950 0aa1 14       		.uleb128 0x14
 2951 0aa2 830B0000 		.4byte	.LASF283
 2952 0aa6 0C       		.byte	0xc
 2953 0aa7 65       		.byte	0x65
 2954 0aa8 15060000 		.4byte	0x615
 2955 0aac C40F     		.2byte	0xfc4
 2956 0aae 14       		.uleb128 0x14
 2957 0aaf C5070000 		.4byte	.LASF284
 2958 0ab3 0C       		.byte	0xc
 2959 0ab4 66       		.byte	0x66
 2960 0ab5 15060000 		.4byte	0x615
 2961 0ab9 C80F     		.2byte	0xfc8
 2962 0abb 14       		.uleb128 0x14
 2963 0abc 99310000 		.4byte	.LASF285
 2964 0ac0 0C       		.byte	0xc
 2965 0ac1 67       		.byte	0x67
ARM GAS  C:\Users\ASUS\AppData\Local\Temp\ccarWmgw.s 			page 94


 2966 0ac2 6F060000 		.4byte	0x66f
 2967 0ac6 CC0F     		.2byte	0xfcc
 2968 0ac8 00       		.byte	0
 2969 0ac9 0F       		.uleb128 0xf
 2970 0aca B4060000 		.4byte	0x6b4
 2971 0ace 10       		.uleb128 0x10
 2972 0acf C90A0000 		.4byte	0xac9
 2973 0ad3 0F       		.uleb128 0xf
 2974 0ad4 74060000 		.4byte	0x674
 2975 0ad8 10       		.uleb128 0x10
 2976 0ad9 D30A0000 		.4byte	0xad3
 2977 0add 0F       		.uleb128 0xf
 2978 0ade D4060000 		.4byte	0x6d4
 2979 0ae2 10       		.uleb128 0x10
 2980 0ae3 DD0A0000 		.4byte	0xadd
 2981 0ae7 0D       		.uleb128 0xd
 2982 0ae8 6F060000 		.4byte	0x66f
 2983 0aec F70A0000 		.4byte	0xaf7
 2984 0af0 0E       		.uleb128 0xe
 2985 0af1 0E060000 		.4byte	0x60e
 2986 0af5 22       		.byte	0x22
 2987 0af6 00       		.byte	0
 2988 0af7 0F       		.uleb128 0xf
 2989 0af8 E70A0000 		.4byte	0xae7
 2990 0afc 10       		.uleb128 0x10
 2991 0afd F70A0000 		.4byte	0xaf7
 2992 0b01 0F       		.uleb128 0xf
 2993 0b02 C4060000 		.4byte	0x6c4
 2994 0b06 10       		.uleb128 0x10
 2995 0b07 010B0000 		.4byte	0xb01
 2996 0b0b 0F       		.uleb128 0xf
 2997 0b0c 94060000 		.4byte	0x694
 2998 0b10 10       		.uleb128 0x10
 2999 0b11 0B0B0000 		.4byte	0xb0b
 3000 0b15 0F       		.uleb128 0xf
 3001 0b16 14070000 		.4byte	0x714
 3002 0b1a 10       		.uleb128 0x10
 3003 0b1b 150B0000 		.4byte	0xb15
 3004 0b1f 0F       		.uleb128 0xf
 3005 0b20 04070000 		.4byte	0x704
 3006 0b24 10       		.uleb128 0x10
 3007 0b25 1F0B0000 		.4byte	0xb1f
 3008 0b29 0F       		.uleb128 0xf
 3009 0b2a 24070000 		.4byte	0x724
 3010 0b2e 10       		.uleb128 0x10
 3011 0b2f 290B0000 		.4byte	0xb29
 3012 0b33 0F       		.uleb128 0xf
 3013 0b34 34070000 		.4byte	0x734
 3014 0b38 0F       		.uleb128 0xf
 3015 0b39 84060000 		.4byte	0x684
 3016 0b3d 10       		.uleb128 0x10
 3017 0b3e 380B0000 		.4byte	0xb38
 3018 0b42 0F       		.uleb128 0xf
 3019 0b43 A4060000 		.4byte	0x6a4
 3020 0b47 10       		.uleb128 0x10
 3021 0b48 420B0000 		.4byte	0xb42
 3022 0b4c 0F       		.uleb128 0xf
ARM GAS  C:\Users\ASUS\AppData\Local\Temp\ccarWmgw.s 			page 95


 3023 0b4d E4060000 		.4byte	0x6e4
 3024 0b51 10       		.uleb128 0x10
 3025 0b52 4C0B0000 		.4byte	0xb4c
 3026 0b56 0F       		.uleb128 0xf
 3027 0b57 E4060000 		.4byte	0x6e4
 3028 0b5b 10       		.uleb128 0x10
 3029 0b5c 560B0000 		.4byte	0xb56
 3030 0b60 0F       		.uleb128 0xf
 3031 0b61 E4060000 		.4byte	0x6e4
 3032 0b65 10       		.uleb128 0x10
 3033 0b66 600B0000 		.4byte	0xb60
 3034 0b6a 0F       		.uleb128 0xf
 3035 0b6b E4060000 		.4byte	0x6e4
 3036 0b6f 10       		.uleb128 0x10
 3037 0b70 6A0B0000 		.4byte	0xb6a
 3038 0b74 0F       		.uleb128 0xf
 3039 0b75 E4060000 		.4byte	0x6e4
 3040 0b79 10       		.uleb128 0x10
 3041 0b7a 740B0000 		.4byte	0xb74
 3042 0b7e 06       		.uleb128 0x6
 3043 0b7f AD2C0000 		.4byte	.LASF286
 3044 0b83 0C       		.byte	0xc
 3045 0b84 68       		.byte	0x68
 3046 0b85 45070000 		.4byte	0x745
 3047 0b89 07       		.uleb128 0x7
 3048 0b8a 8F260000 		.4byte	.LASF287
 3049 0b8e 0D       		.byte	0xd
 3050 0b8f 4F06     		.2byte	0x64f
 3051 0b91 7E0B0000 		.4byte	0xb7e
 3052 0b95 05       		.uleb128 0x5
 3053 0b96 08       		.byte	0x8
 3054 0b97 04       		.byte	0x4
 3055 0b98 66270000 		.4byte	.LASF288
 3056 0b9c 15       		.uleb128 0x15
 3057 0b9d B8       		.byte	0xb8
 3058 0b9e 0E       		.byte	0xe
 3059 0b9f 34       		.byte	0x34
 3060 0ba0 AD0F0000 		.4byte	0xfad
 3061 0ba4 13       		.uleb128 0x13
 3062 0ba5 231D0000 		.4byte	.LASF289
 3063 0ba9 0E       		.byte	0xe
 3064 0baa 37       		.byte	0x37
 3065 0bab 61050000 		.4byte	0x561
 3066 0baf 00       		.byte	0
 3067 0bb0 13       		.uleb128 0x13
 3068 0bb1 413B0000 		.4byte	.LASF290
 3069 0bb5 0E       		.byte	0xe
 3070 0bb6 38       		.byte	0x38
 3071 0bb7 61050000 		.4byte	0x561
 3072 0bbb 04       		.byte	0x4
 3073 0bbc 13       		.uleb128 0x13
 3074 0bbd 47170000 		.4byte	.LASF291
 3075 0bc1 0E       		.byte	0xe
 3076 0bc2 39       		.byte	0x39
 3077 0bc3 61050000 		.4byte	0x561
 3078 0bc7 08       		.byte	0x8
 3079 0bc8 13       		.uleb128 0x13
ARM GAS  C:\Users\ASUS\AppData\Local\Temp\ccarWmgw.s 			page 96


 3080 0bc9 A1130000 		.4byte	.LASF292
 3081 0bcd 0E       		.byte	0xe
 3082 0bce 3A       		.byte	0x3a
 3083 0bcf 61050000 		.4byte	0x561
 3084 0bd3 0C       		.byte	0xc
 3085 0bd4 13       		.uleb128 0x13
 3086 0bd5 2D1D0000 		.4byte	.LASF293
 3087 0bd9 0E       		.byte	0xe
 3088 0bda 3B       		.byte	0x3b
 3089 0bdb 61050000 		.4byte	0x561
 3090 0bdf 10       		.byte	0x10
 3091 0be0 13       		.uleb128 0x13
 3092 0be1 1D020000 		.4byte	.LASF294
 3093 0be5 0E       		.byte	0xe
 3094 0be6 3C       		.byte	0x3c
 3095 0be7 61050000 		.4byte	0x561
 3096 0beb 14       		.byte	0x14
 3097 0bec 13       		.uleb128 0x13
 3098 0bed BF300000 		.4byte	.LASF295
 3099 0bf1 0E       		.byte	0xe
 3100 0bf2 3D       		.byte	0x3d
 3101 0bf3 61050000 		.4byte	0x561
 3102 0bf7 18       		.byte	0x18
 3103 0bf8 13       		.uleb128 0x13
 3104 0bf9 63100000 		.4byte	.LASF296
 3105 0bfd 0E       		.byte	0xe
 3106 0bfe 3E       		.byte	0x3e
 3107 0bff 61050000 		.4byte	0x561
 3108 0c03 1C       		.byte	0x1c
 3109 0c04 13       		.uleb128 0x13
 3110 0c05 79390000 		.4byte	.LASF297
 3111 0c09 0E       		.byte	0xe
 3112 0c0a 3F       		.byte	0x3f
 3113 0c0b 61050000 		.4byte	0x561
 3114 0c0f 20       		.byte	0x20
 3115 0c10 13       		.uleb128 0x13
 3116 0c11 5C000000 		.4byte	.LASF298
 3117 0c15 0E       		.byte	0xe
 3118 0c16 40       		.byte	0x40
 3119 0c17 61050000 		.4byte	0x561
 3120 0c1b 24       		.byte	0x24
 3121 0c1c 13       		.uleb128 0x13
 3122 0c1d D7190000 		.4byte	.LASF299
 3123 0c21 0E       		.byte	0xe
 3124 0c22 43       		.byte	0x43
 3125 0c23 35050000 		.4byte	0x535
 3126 0c27 28       		.byte	0x28
 3127 0c28 13       		.uleb128 0x13
 3128 0c29 DE1F0000 		.4byte	.LASF300
 3129 0c2d 0E       		.byte	0xe
 3130 0c2e 44       		.byte	0x44
 3131 0c2f 35050000 		.4byte	0x535
 3132 0c33 29       		.byte	0x29
 3133 0c34 13       		.uleb128 0x13
 3134 0c35 54300000 		.4byte	.LASF301
 3135 0c39 0E       		.byte	0xe
 3136 0c3a 45       		.byte	0x45
ARM GAS  C:\Users\ASUS\AppData\Local\Temp\ccarWmgw.s 			page 97


 3137 0c3b 35050000 		.4byte	0x535
 3138 0c3f 2A       		.byte	0x2a
 3139 0c40 13       		.uleb128 0x13
 3140 0c41 43290000 		.4byte	.LASF302
 3141 0c45 0E       		.byte	0xe
 3142 0c46 46       		.byte	0x46
 3143 0c47 35050000 		.4byte	0x535
 3144 0c4b 2B       		.byte	0x2b
 3145 0c4c 13       		.uleb128 0x13
 3146 0c4d 6F360000 		.4byte	.LASF303
 3147 0c51 0E       		.byte	0xe
 3148 0c52 47       		.byte	0x47
 3149 0c53 35050000 		.4byte	0x535
 3150 0c57 2C       		.byte	0x2c
 3151 0c58 13       		.uleb128 0x13
 3152 0c59 663E0000 		.4byte	.LASF304
 3153 0c5d 0E       		.byte	0xe
 3154 0c5e 48       		.byte	0x48
 3155 0c5f 35050000 		.4byte	0x535
 3156 0c63 2D       		.byte	0x2d
 3157 0c64 13       		.uleb128 0x13
 3158 0c65 361D0000 		.4byte	.LASF305
 3159 0c69 0E       		.byte	0xe
 3160 0c6a 49       		.byte	0x49
 3161 0c6b 35050000 		.4byte	0x535
 3162 0c6f 2E       		.byte	0x2e
 3163 0c70 13       		.uleb128 0x13
 3164 0c71 A91E0000 		.4byte	.LASF306
 3165 0c75 0E       		.byte	0xe
 3166 0c76 4A       		.byte	0x4a
 3167 0c77 35050000 		.4byte	0x535
 3168 0c7b 2F       		.byte	0x2f
 3169 0c7c 13       		.uleb128 0x13
 3170 0c7d 19330000 		.4byte	.LASF307
 3171 0c81 0E       		.byte	0xe
 3172 0c82 4B       		.byte	0x4b
 3173 0c83 35050000 		.4byte	0x535
 3174 0c87 30       		.byte	0x30
 3175 0c88 13       		.uleb128 0x13
 3176 0c89 DD210000 		.4byte	.LASF308
 3177 0c8d 0E       		.byte	0xe
 3178 0c8e 4E       		.byte	0x4e
 3179 0c8f 35050000 		.4byte	0x535
 3180 0c93 31       		.byte	0x31
 3181 0c94 13       		.uleb128 0x13
 3182 0c95 DE3A0000 		.4byte	.LASF309
 3183 0c99 0E       		.byte	0xe
 3184 0c9a 4F       		.byte	0x4f
 3185 0c9b 35050000 		.4byte	0x535
 3186 0c9f 32       		.byte	0x32
 3187 0ca0 13       		.uleb128 0x13
 3188 0ca1 7C2E0000 		.4byte	.LASF310
 3189 0ca5 0E       		.byte	0xe
 3190 0ca6 50       		.byte	0x50
 3191 0ca7 35050000 		.4byte	0x535
 3192 0cab 33       		.byte	0x33
 3193 0cac 13       		.uleb128 0x13
ARM GAS  C:\Users\ASUS\AppData\Local\Temp\ccarWmgw.s 			page 98


 3194 0cad 64180000 		.4byte	.LASF311
 3195 0cb1 0E       		.byte	0xe
 3196 0cb2 51       		.byte	0x51
 3197 0cb3 35050000 		.4byte	0x535
 3198 0cb7 34       		.byte	0x34
 3199 0cb8 13       		.uleb128 0x13
 3200 0cb9 0E130000 		.4byte	.LASF312
 3201 0cbd 0E       		.byte	0xe
 3202 0cbe 52       		.byte	0x52
 3203 0cbf 40050000 		.4byte	0x540
 3204 0cc3 36       		.byte	0x36
 3205 0cc4 13       		.uleb128 0x13
 3206 0cc5 331A0000 		.4byte	.LASF313
 3207 0cc9 0E       		.byte	0xe
 3208 0cca 53       		.byte	0x53
 3209 0ccb 40050000 		.4byte	0x540
 3210 0ccf 38       		.byte	0x38
 3211 0cd0 13       		.uleb128 0x13
 3212 0cd1 F9160000 		.4byte	.LASF314
 3213 0cd5 0E       		.byte	0xe
 3214 0cd6 54       		.byte	0x54
 3215 0cd7 40050000 		.4byte	0x540
 3216 0cdb 3A       		.byte	0x3a
 3217 0cdc 13       		.uleb128 0x13
 3218 0cdd 4F020000 		.4byte	.LASF315
 3219 0ce1 0E       		.byte	0xe
 3220 0ce2 55       		.byte	0x55
 3221 0ce3 35050000 		.4byte	0x535
 3222 0ce7 3C       		.byte	0x3c
 3223 0ce8 13       		.uleb128 0x13
 3224 0ce9 87280000 		.4byte	.LASF316
 3225 0ced 0E       		.byte	0xe
 3226 0cee 56       		.byte	0x56
 3227 0cef 35050000 		.4byte	0x535
 3228 0cf3 3D       		.byte	0x3d
 3229 0cf4 13       		.uleb128 0x13
 3230 0cf5 F0040000 		.4byte	.LASF317
 3231 0cf9 0E       		.byte	0xe
 3232 0cfa 57       		.byte	0x57
 3233 0cfb 35050000 		.4byte	0x535
 3234 0cff 3E       		.byte	0x3e
 3235 0d00 13       		.uleb128 0x13
 3236 0d01 FF3D0000 		.4byte	.LASF318
 3237 0d05 0E       		.byte	0xe
 3238 0d06 58       		.byte	0x58
 3239 0d07 35050000 		.4byte	0x535
 3240 0d0b 3F       		.byte	0x3f
 3241 0d0c 13       		.uleb128 0x13
 3242 0d0d 6A1B0000 		.4byte	.LASF319
 3243 0d11 0E       		.byte	0xe
 3244 0d12 59       		.byte	0x59
 3245 0d13 35050000 		.4byte	0x535
 3246 0d17 40       		.byte	0x40
 3247 0d18 13       		.uleb128 0x13
 3248 0d19 A51D0000 		.4byte	.LASF320
 3249 0d1d 0E       		.byte	0xe
 3250 0d1e 5A       		.byte	0x5a
ARM GAS  C:\Users\ASUS\AppData\Local\Temp\ccarWmgw.s 			page 99


 3251 0d1f 35050000 		.4byte	0x535
 3252 0d23 41       		.byte	0x41
 3253 0d24 13       		.uleb128 0x13
 3254 0d25 3B190000 		.4byte	.LASF321
 3255 0d29 0E       		.byte	0xe
 3256 0d2a 5B       		.byte	0x5b
 3257 0d2b 35050000 		.4byte	0x535
 3258 0d2f 42       		.byte	0x42
 3259 0d30 13       		.uleb128 0x13
 3260 0d31 6C090000 		.4byte	.LASF322
 3261 0d35 0E       		.byte	0xe
 3262 0d36 5C       		.byte	0x5c
 3263 0d37 35050000 		.4byte	0x535
 3264 0d3b 43       		.byte	0x43
 3265 0d3c 13       		.uleb128 0x13
 3266 0d3d 2B310000 		.4byte	.LASF323
 3267 0d41 0E       		.byte	0xe
 3268 0d42 5D       		.byte	0x5d
 3269 0d43 35050000 		.4byte	0x535
 3270 0d47 44       		.byte	0x44
 3271 0d48 13       		.uleb128 0x13
 3272 0d49 701A0000 		.4byte	.LASF324
 3273 0d4d 0E       		.byte	0xe
 3274 0d4e 5E       		.byte	0x5e
 3275 0d4f 61050000 		.4byte	0x561
 3276 0d53 48       		.byte	0x48
 3277 0d54 13       		.uleb128 0x13
 3278 0d55 C2010000 		.4byte	.LASF325
 3279 0d59 0E       		.byte	0xe
 3280 0d5a 5F       		.byte	0x5f
 3281 0d5b 61050000 		.4byte	0x561
 3282 0d5f 4C       		.byte	0x4c
 3283 0d60 13       		.uleb128 0x13
 3284 0d61 57200000 		.4byte	.LASF326
 3285 0d65 0E       		.byte	0xe
 3286 0d66 60       		.byte	0x60
 3287 0d67 35050000 		.4byte	0x535
 3288 0d6b 50       		.byte	0x50
 3289 0d6c 13       		.uleb128 0x13
 3290 0d6d FD090000 		.4byte	.LASF327
 3291 0d71 0E       		.byte	0xe
 3292 0d72 61       		.byte	0x61
 3293 0d73 35050000 		.4byte	0x535
 3294 0d77 51       		.byte	0x51
 3295 0d78 13       		.uleb128 0x13
 3296 0d79 47200000 		.4byte	.LASF328
 3297 0d7d 0E       		.byte	0xe
 3298 0d7e 62       		.byte	0x62
 3299 0d7f 35050000 		.4byte	0x535
 3300 0d83 52       		.byte	0x52
 3301 0d84 13       		.uleb128 0x13
 3302 0d85 C4350000 		.4byte	.LASF329
 3303 0d89 0E       		.byte	0xe
 3304 0d8a 63       		.byte	0x63
 3305 0d8b 35050000 		.4byte	0x535
 3306 0d8f 53       		.byte	0x53
 3307 0d90 13       		.uleb128 0x13
ARM GAS  C:\Users\ASUS\AppData\Local\Temp\ccarWmgw.s 			page 100


 3308 0d91 9A260000 		.4byte	.LASF330
 3309 0d95 0E       		.byte	0xe
 3310 0d96 64       		.byte	0x64
 3311 0d97 35050000 		.4byte	0x535
 3312 0d9b 54       		.byte	0x54
 3313 0d9c 13       		.uleb128 0x13
 3314 0d9d 0B3E0000 		.4byte	.LASF331
 3315 0da1 0E       		.byte	0xe
 3316 0da2 65       		.byte	0x65
 3317 0da3 35050000 		.4byte	0x535
 3318 0da7 55       		.byte	0x55
 3319 0da8 13       		.uleb128 0x13
 3320 0da9 71340000 		.4byte	.LASF332
 3321 0dad 0E       		.byte	0xe
 3322 0dae 66       		.byte	0x66
 3323 0daf 35050000 		.4byte	0x535
 3324 0db3 56       		.byte	0x56
 3325 0db4 13       		.uleb128 0x13
 3326 0db5 FF290000 		.4byte	.LASF333
 3327 0db9 0E       		.byte	0xe
 3328 0dba 67       		.byte	0x67
 3329 0dbb 35050000 		.4byte	0x535
 3330 0dbf 57       		.byte	0x57
 3331 0dc0 13       		.uleb128 0x13
 3332 0dc1 68200000 		.4byte	.LASF334
 3333 0dc5 0E       		.byte	0xe
 3334 0dc6 68       		.byte	0x68
 3335 0dc7 35050000 		.4byte	0x535
 3336 0dcb 58       		.byte	0x58
 3337 0dcc 13       		.uleb128 0x13
 3338 0dcd 58160000 		.4byte	.LASF335
 3339 0dd1 0E       		.byte	0xe
 3340 0dd2 69       		.byte	0x69
 3341 0dd3 35050000 		.4byte	0x535
 3342 0dd7 59       		.byte	0x59
 3343 0dd8 13       		.uleb128 0x13
 3344 0dd9 A73E0000 		.4byte	.LASF336
 3345 0ddd 0E       		.byte	0xe
 3346 0dde 6E       		.byte	0x6e
 3347 0ddf 4B050000 		.4byte	0x54b
 3348 0de3 5A       		.byte	0x5a
 3349 0de4 13       		.uleb128 0x13
 3350 0de5 961A0000 		.4byte	.LASF337
 3351 0de9 0E       		.byte	0xe
 3352 0dea 6F       		.byte	0x6f
 3353 0deb 4B050000 		.4byte	0x54b
 3354 0def 5C       		.byte	0x5c
 3355 0df0 13       		.uleb128 0x13
 3356 0df1 6A390000 		.4byte	.LASF338
 3357 0df5 0E       		.byte	0xe
 3358 0df6 70       		.byte	0x70
 3359 0df7 35050000 		.4byte	0x535
 3360 0dfb 5E       		.byte	0x5e
 3361 0dfc 13       		.uleb128 0x13
 3362 0dfd EF390000 		.4byte	.LASF339
 3363 0e01 0E       		.byte	0xe
 3364 0e02 71       		.byte	0x71
ARM GAS  C:\Users\ASUS\AppData\Local\Temp\ccarWmgw.s 			page 101


 3365 0e03 35050000 		.4byte	0x535
 3366 0e07 5F       		.byte	0x5f
 3367 0e08 13       		.uleb128 0x13
 3368 0e09 FE050000 		.4byte	.LASF340
 3369 0e0d 0E       		.byte	0xe
 3370 0e0e 72       		.byte	0x72
 3371 0e0f 35050000 		.4byte	0x535
 3372 0e13 60       		.byte	0x60
 3373 0e14 13       		.uleb128 0x13
 3374 0e15 31260000 		.4byte	.LASF341
 3375 0e19 0E       		.byte	0xe
 3376 0e1a 73       		.byte	0x73
 3377 0e1b 61050000 		.4byte	0x561
 3378 0e1f 64       		.byte	0x64
 3379 0e20 13       		.uleb128 0x13
 3380 0e21 8C3B0000 		.4byte	.LASF342
 3381 0e25 0E       		.byte	0xe
 3382 0e26 76       		.byte	0x76
 3383 0e27 4B050000 		.4byte	0x54b
 3384 0e2b 68       		.byte	0x68
 3385 0e2c 13       		.uleb128 0x13
 3386 0e2d DC090000 		.4byte	.LASF343
 3387 0e31 0E       		.byte	0xe
 3388 0e32 77       		.byte	0x77
 3389 0e33 4B050000 		.4byte	0x54b
 3390 0e37 6A       		.byte	0x6a
 3391 0e38 13       		.uleb128 0x13
 3392 0e39 5B140000 		.4byte	.LASF344
 3393 0e3d 0E       		.byte	0xe
 3394 0e3e 78       		.byte	0x78
 3395 0e3f 4B050000 		.4byte	0x54b
 3396 0e43 6C       		.byte	0x6c
 3397 0e44 13       		.uleb128 0x13
 3398 0e45 8B0A0000 		.4byte	.LASF345
 3399 0e49 0E       		.byte	0xe
 3400 0e4a 79       		.byte	0x79
 3401 0e4b 4B050000 		.4byte	0x54b
 3402 0e4f 6E       		.byte	0x6e
 3403 0e50 13       		.uleb128 0x13
 3404 0e51 06300000 		.4byte	.LASF346
 3405 0e55 0E       		.byte	0xe
 3406 0e56 7B       		.byte	0x7b
 3407 0e57 35050000 		.4byte	0x535
 3408 0e5b 70       		.byte	0x70
 3409 0e5c 13       		.uleb128 0x13
 3410 0e5d F11C0000 		.4byte	.LASF347
 3411 0e61 0E       		.byte	0xe
 3412 0e62 7C       		.byte	0x7c
 3413 0e63 35050000 		.4byte	0x535
 3414 0e67 71       		.byte	0x71
 3415 0e68 13       		.uleb128 0x13
 3416 0e69 BC0D0000 		.4byte	.LASF348
 3417 0e6d 0E       		.byte	0xe
 3418 0e6e 7D       		.byte	0x7d
 3419 0e6f 35050000 		.4byte	0x535
 3420 0e73 72       		.byte	0x72
 3421 0e74 13       		.uleb128 0x13
ARM GAS  C:\Users\ASUS\AppData\Local\Temp\ccarWmgw.s 			page 102


 3422 0e75 25290000 		.4byte	.LASF349
 3423 0e79 0E       		.byte	0xe
 3424 0e7a 7E       		.byte	0x7e
 3425 0e7b 35050000 		.4byte	0x535
 3426 0e7f 73       		.byte	0x73
 3427 0e80 13       		.uleb128 0x13
 3428 0e81 81390000 		.4byte	.LASF350
 3429 0e85 0E       		.byte	0xe
 3430 0e86 80       		.byte	0x80
 3431 0e87 4B050000 		.4byte	0x54b
 3432 0e8b 74       		.byte	0x74
 3433 0e8c 13       		.uleb128 0x13
 3434 0e8d 451C0000 		.4byte	.LASF351
 3435 0e91 0E       		.byte	0xe
 3436 0e92 81       		.byte	0x81
 3437 0e93 4B050000 		.4byte	0x54b
 3438 0e97 76       		.byte	0x76
 3439 0e98 13       		.uleb128 0x13
 3440 0e99 D6200000 		.4byte	.LASF352
 3441 0e9d 0E       		.byte	0xe
 3442 0e9e 82       		.byte	0x82
 3443 0e9f 4B050000 		.4byte	0x54b
 3444 0ea3 78       		.byte	0x78
 3445 0ea4 13       		.uleb128 0x13
 3446 0ea5 882E0000 		.4byte	.LASF353
 3447 0ea9 0E       		.byte	0xe
 3448 0eaa 83       		.byte	0x83
 3449 0eab 4B050000 		.4byte	0x54b
 3450 0eaf 7A       		.byte	0x7a
 3451 0eb0 13       		.uleb128 0x13
 3452 0eb1 84230000 		.4byte	.LASF354
 3453 0eb5 0E       		.byte	0xe
 3454 0eb6 86       		.byte	0x86
 3455 0eb7 35050000 		.4byte	0x535
 3456 0ebb 7C       		.byte	0x7c
 3457 0ebc 13       		.uleb128 0x13
 3458 0ebd A0040000 		.4byte	.LASF355
 3459 0ec1 0E       		.byte	0xe
 3460 0ec2 87       		.byte	0x87
 3461 0ec3 35050000 		.4byte	0x535
 3462 0ec7 7D       		.byte	0x7d
 3463 0ec8 13       		.uleb128 0x13
 3464 0ec9 34170000 		.4byte	.LASF356
 3465 0ecd 0E       		.byte	0xe
 3466 0ece 88       		.byte	0x88
 3467 0ecf 35050000 		.4byte	0x535
 3468 0ed3 7E       		.byte	0x7e
 3469 0ed4 13       		.uleb128 0x13
 3470 0ed5 3C110000 		.4byte	.LASF357
 3471 0ed9 0E       		.byte	0xe
 3472 0eda 89       		.byte	0x89
 3473 0edb 35050000 		.4byte	0x535
 3474 0edf 7F       		.byte	0x7f
 3475 0ee0 13       		.uleb128 0x13
 3476 0ee1 7B360000 		.4byte	.LASF358
 3477 0ee5 0E       		.byte	0xe
 3478 0ee6 8A       		.byte	0x8a
ARM GAS  C:\Users\ASUS\AppData\Local\Temp\ccarWmgw.s 			page 103


 3479 0ee7 35050000 		.4byte	0x535
 3480 0eeb 80       		.byte	0x80
 3481 0eec 13       		.uleb128 0x13
 3482 0eed 34140000 		.4byte	.LASF359
 3483 0ef1 0E       		.byte	0xe
 3484 0ef2 8D       		.byte	0x8d
 3485 0ef3 61050000 		.4byte	0x561
 3486 0ef7 84       		.byte	0x84
 3487 0ef8 13       		.uleb128 0x13
 3488 0ef9 77150000 		.4byte	.LASF360
 3489 0efd 0E       		.byte	0xe
 3490 0efe 8E       		.byte	0x8e
 3491 0eff 61050000 		.4byte	0x561
 3492 0f03 88       		.byte	0x88
 3493 0f04 13       		.uleb128 0x13
 3494 0f05 74130000 		.4byte	.LASF361
 3495 0f09 0E       		.byte	0xe
 3496 0f0a 8F       		.byte	0x8f
 3497 0f0b 61050000 		.4byte	0x561
 3498 0f0f 8C       		.byte	0x8c
 3499 0f10 13       		.uleb128 0x13
 3500 0f11 86000000 		.4byte	.LASF362
 3501 0f15 0E       		.byte	0xe
 3502 0f16 90       		.byte	0x90
 3503 0f17 61050000 		.4byte	0x561
 3504 0f1b 90       		.byte	0x90
 3505 0f1c 13       		.uleb128 0x13
 3506 0f1d D8150000 		.4byte	.LASF363
 3507 0f21 0E       		.byte	0xe
 3508 0f22 91       		.byte	0x91
 3509 0f23 61050000 		.4byte	0x561
 3510 0f27 94       		.byte	0x94
 3511 0f28 13       		.uleb128 0x13
 3512 0f29 21100000 		.4byte	.LASF364
 3513 0f2d 0E       		.byte	0xe
 3514 0f2e 92       		.byte	0x92
 3515 0f2f 61050000 		.4byte	0x561
 3516 0f33 98       		.byte	0x98
 3517 0f34 13       		.uleb128 0x13
 3518 0f35 6C100000 		.4byte	.LASF365
 3519 0f39 0E       		.byte	0xe
 3520 0f3a 93       		.byte	0x93
 3521 0f3b 61050000 		.4byte	0x561
 3522 0f3f 9C       		.byte	0x9c
 3523 0f40 13       		.uleb128 0x13
 3524 0f41 751C0000 		.4byte	.LASF366
 3525 0f45 0E       		.byte	0xe
 3526 0f46 94       		.byte	0x94
 3527 0f47 61050000 		.4byte	0x561
 3528 0f4b A0       		.byte	0xa0
 3529 0f4c 13       		.uleb128 0x13
 3530 0f4d BB290000 		.4byte	.LASF367
 3531 0f51 0E       		.byte	0xe
 3532 0f52 95       		.byte	0x95
 3533 0f53 4B050000 		.4byte	0x54b
 3534 0f57 A4       		.byte	0xa4
 3535 0f58 13       		.uleb128 0x13
ARM GAS  C:\Users\ASUS\AppData\Local\Temp\ccarWmgw.s 			page 104


 3536 0f59 74290000 		.4byte	.LASF368
 3537 0f5d 0E       		.byte	0xe
 3538 0f5e 96       		.byte	0x96
 3539 0f5f 4B050000 		.4byte	0x54b
 3540 0f63 A6       		.byte	0xa6
 3541 0f64 13       		.uleb128 0x13
 3542 0f65 DA0D0000 		.4byte	.LASF369
 3543 0f69 0E       		.byte	0xe
 3544 0f6a 97       		.byte	0x97
 3545 0f6b 4B050000 		.4byte	0x54b
 3546 0f6f A8       		.byte	0xa8
 3547 0f70 13       		.uleb128 0x13
 3548 0f71 A22E0000 		.4byte	.LASF370
 3549 0f75 0E       		.byte	0xe
 3550 0f76 98       		.byte	0x98
 3551 0f77 4B050000 		.4byte	0x54b
 3552 0f7b AA       		.byte	0xaa
 3553 0f7c 13       		.uleb128 0x13
 3554 0f7d 99230000 		.4byte	.LASF371
 3555 0f81 0E       		.byte	0xe
 3556 0f82 99       		.byte	0x99
 3557 0f83 4B050000 		.4byte	0x54b
 3558 0f87 AC       		.byte	0xac
 3559 0f88 13       		.uleb128 0x13
 3560 0f89 A9190000 		.4byte	.LASF372
 3561 0f8d 0E       		.byte	0xe
 3562 0f8e 9A       		.byte	0x9a
 3563 0f8f 4B050000 		.4byte	0x54b
 3564 0f93 AE       		.byte	0xae
 3565 0f94 13       		.uleb128 0x13
 3566 0f95 1E3B0000 		.4byte	.LASF373
 3567 0f99 0E       		.byte	0xe
 3568 0f9a 9D       		.byte	0x9d
 3569 0f9b 4B050000 		.4byte	0x54b
 3570 0f9f B0       		.byte	0xb0
 3571 0fa0 13       		.uleb128 0x13
 3572 0fa1 8A140000 		.4byte	.LASF374
 3573 0fa5 0E       		.byte	0xe
 3574 0fa6 9E       		.byte	0x9e
 3575 0fa7 61050000 		.4byte	0x561
 3576 0fab B4       		.byte	0xb4
 3577 0fac 00       		.byte	0
 3578 0fad 06       		.uleb128 0x6
 3579 0fae 371F0000 		.4byte	.LASF375
 3580 0fb2 0E       		.byte	0xe
 3581 0fb3 9F       		.byte	0x9f
 3582 0fb4 9C0B0000 		.4byte	0xb9c
 3583 0fb8 16       		.uleb128 0x16
 3584 0fb9 04       		.byte	0x4
 3585 0fba BE0F0000 		.4byte	0xfbe
 3586 0fbe 17       		.uleb128 0x17
 3587 0fbf 07       		.uleb128 0x7
 3588 0fc0 A62A0000 		.4byte	.LASF376
 3589 0fc4 0F       		.byte	0xf
 3590 0fc5 F601     		.2byte	0x1f6
 3591 0fc7 CB0F0000 		.4byte	0xfcb
 3592 0fcb 05       		.uleb128 0x5
ARM GAS  C:\Users\ASUS\AppData\Local\Temp\ccarWmgw.s 			page 105


 3593 0fcc 01       		.byte	0x1
 3594 0fcd 08       		.byte	0x8
 3595 0fce D2100000 		.4byte	.LASF377
 3596 0fd2 05       		.uleb128 0x5
 3597 0fd3 04       		.byte	0x4
 3598 0fd4 04       		.byte	0x4
 3599 0fd5 7F300000 		.4byte	.LASF378
 3600 0fd9 05       		.uleb128 0x5
 3601 0fda 08       		.byte	0x8
 3602 0fdb 04       		.byte	0x4
 3603 0fdc CB1F0000 		.4byte	.LASF379
 3604 0fe0 07       		.uleb128 0x7
 3605 0fe1 13330000 		.4byte	.LASF380
 3606 0fe5 0F       		.byte	0xf
 3607 0fe6 EA03     		.2byte	0x3ea
 3608 0fe8 35050000 		.4byte	0x535
 3609 0fec 18       		.uleb128 0x18
 3610 0fed 08       		.byte	0x8
 3611 0fee 10       		.byte	0x10
 3612 0fef 2D01     		.2byte	0x12d
 3613 0ff1 1D100000 		.4byte	0x101d
 3614 0ff5 0A       		.uleb128 0xa
 3615 0ff6 BD070000 		.4byte	.LASF381
 3616 0ffa 10       		.byte	0x10
 3617 0ffb 2E01     		.2byte	0x12e
 3618 0ffd 23010000 		.4byte	0x123
 3619 1001 00       		.byte	0
 3620 1002 0A       		.uleb128 0xa
 3621 1003 DB180000 		.4byte	.LASF382
 3622 1007 10       		.byte	0x10
 3623 1008 3001     		.2byte	0x130
 3624 100a BA040000 		.4byte	0x4ba
 3625 100e 02       		.byte	0x2
 3626 100f 0A       		.uleb128 0xa
 3627 1010 1E310000 		.4byte	.LASF383
 3628 1014 10       		.byte	0x10
 3629 1015 3201     		.2byte	0x132
 3630 1017 61050000 		.4byte	0x561
 3631 101b 04       		.byte	0x4
 3632 101c 00       		.byte	0
 3633 101d 07       		.uleb128 0x7
 3634 101e 67150000 		.4byte	.LASF384
 3635 1022 10       		.byte	0x10
 3636 1023 3301     		.2byte	0x133
 3637 1025 EC0F0000 		.4byte	0xfec
 3638 1029 19       		.uleb128 0x19
 3639 102a 01       		.byte	0x1
 3640 102b B3040000 		.4byte	0x4b3
 3641 102f 11       		.byte	0x11
 3642 1030 2305     		.2byte	0x523
 3643 1032 43100000 		.4byte	0x1043
 3644 1036 04       		.uleb128 0x4
 3645 1037 9F1A0000 		.4byte	.LASF385
 3646 103b 00       		.byte	0
 3647 103c 04       		.uleb128 0x4
 3648 103d 733E0000 		.4byte	.LASF386
 3649 1041 01       		.byte	0x1
ARM GAS  C:\Users\ASUS\AppData\Local\Temp\ccarWmgw.s 			page 106


 3650 1042 00       		.byte	0
 3651 1043 1A       		.uleb128 0x1a
 3652 1044 04       		.byte	0x4
 3653 1045 05       		.uleb128 0x5
 3654 1046 01       		.byte	0x1
 3655 1047 02       		.byte	0x2
 3656 1048 5D100000 		.4byte	.LASF387
 3657 104c 19       		.uleb128 0x19
 3658 104d 04       		.byte	0x4
 3659 104e 2E050000 		.4byte	0x52e
 3660 1052 12       		.byte	0x12
 3661 1053 4A01     		.2byte	0x14a
 3662 1055 84100000 		.4byte	0x1084
 3663 1059 04       		.uleb128 0x4
 3664 105a 1E010000 		.4byte	.LASF388
 3665 105e 00       		.byte	0
 3666 105f 1B       		.uleb128 0x1b
 3667 1060 780C0000 		.4byte	.LASF389
 3668 1064 0100A200 		.4byte	0xa20001
 3669 1068 1B       		.uleb128 0x1b
 3670 1069 223A0000 		.4byte	.LASF390
 3671 106d 0200A200 		.4byte	0xa20002
 3672 1071 1B       		.uleb128 0x1b
 3673 1072 A6290000 		.4byte	.LASF391
 3674 1076 0300A200 		.4byte	0xa20003
 3675 107a 1B       		.uleb128 0x1b
 3676 107b 42260000 		.4byte	.LASF392
 3677 107f FF00A200 		.4byte	0xa200ff
 3678 1083 00       		.byte	0
 3679 1084 07       		.uleb128 0x7
 3680 1085 0B230000 		.4byte	.LASF393
 3681 1089 12       		.byte	0x12
 3682 108a 5001     		.2byte	0x150
 3683 108c 4C100000 		.4byte	0x104c
 3684 1090 1C       		.uleb128 0x1c
 3685 1091 F22D0000 		.4byte	.LASF839
 3686 1095 01       		.byte	0x1
 3687 1096 B3040000 		.4byte	0x4b3
 3688 109a 12       		.byte	0x12
 3689 109b 5B01     		.2byte	0x15b
 3690 109d AE100000 		.4byte	0x10ae
 3691 10a1 04       		.uleb128 0x4
 3692 10a2 0F0A0000 		.4byte	.LASF394
 3693 10a6 00       		.byte	0
 3694 10a7 04       		.uleb128 0x4
 3695 10a8 1E0A0000 		.4byte	.LASF395
 3696 10ac 01       		.byte	0x1
 3697 10ad 00       		.byte	0
 3698 10ae 19       		.uleb128 0x19
 3699 10af 01       		.byte	0x1
 3700 10b0 B3040000 		.4byte	0x4b3
 3701 10b4 12       		.byte	0x12
 3702 10b5 6301     		.2byte	0x163
 3703 10b7 C8100000 		.4byte	0x10c8
 3704 10bb 04       		.uleb128 0x4
 3705 10bc EF030000 		.4byte	.LASF396
 3706 10c0 00       		.byte	0
ARM GAS  C:\Users\ASUS\AppData\Local\Temp\ccarWmgw.s 			page 107


 3707 10c1 04       		.uleb128 0x4
 3708 10c2 4B140000 		.4byte	.LASF397
 3709 10c6 01       		.byte	0x1
 3710 10c7 00       		.byte	0
 3711 10c8 07       		.uleb128 0x7
 3712 10c9 FE250000 		.4byte	.LASF398
 3713 10cd 12       		.byte	0x12
 3714 10ce 6601     		.2byte	0x166
 3715 10d0 AE100000 		.4byte	0x10ae
 3716 10d4 19       		.uleb128 0x19
 3717 10d5 01       		.byte	0x1
 3718 10d6 B3040000 		.4byte	0x4b3
 3719 10da 12       		.byte	0x12
 3720 10db 7101     		.2byte	0x171
 3721 10dd EE100000 		.4byte	0x10ee
 3722 10e1 04       		.uleb128 0x4
 3723 10e2 19080000 		.4byte	.LASF399
 3724 10e6 00       		.byte	0
 3725 10e7 04       		.uleb128 0x4
 3726 10e8 36130000 		.4byte	.LASF400
 3727 10ec 01       		.byte	0x1
 3728 10ed 00       		.byte	0
 3729 10ee 07       		.uleb128 0x7
 3730 10ef 01360000 		.4byte	.LASF401
 3731 10f3 12       		.byte	0x12
 3732 10f4 7401     		.2byte	0x174
 3733 10f6 D4100000 		.4byte	0x10d4
 3734 10fa 19       		.uleb128 0x19
 3735 10fb 01       		.byte	0x1
 3736 10fc B3040000 		.4byte	0x4b3
 3737 1100 12       		.byte	0x12
 3738 1101 7801     		.2byte	0x178
 3739 1103 14110000 		.4byte	0x1114
 3740 1107 04       		.uleb128 0x4
 3741 1108 ED150000 		.4byte	.LASF402
 3742 110c 00       		.byte	0
 3743 110d 04       		.uleb128 0x4
 3744 110e 92220000 		.4byte	.LASF403
 3745 1112 01       		.byte	0x1
 3746 1113 00       		.byte	0
 3747 1114 07       		.uleb128 0x7
 3748 1115 EA350000 		.4byte	.LASF404
 3749 1119 12       		.byte	0x12
 3750 111a 7B01     		.2byte	0x17b
 3751 111c FA100000 		.4byte	0x10fa
 3752 1120 19       		.uleb128 0x19
 3753 1121 01       		.byte	0x1
 3754 1122 B3040000 		.4byte	0x4b3
 3755 1126 12       		.byte	0x12
 3756 1127 7F01     		.2byte	0x17f
 3757 1129 3A110000 		.4byte	0x113a
 3758 112d 04       		.uleb128 0x4
 3759 112e 423E0000 		.4byte	.LASF405
 3760 1132 00       		.byte	0
 3761 1133 04       		.uleb128 0x4
 3762 1134 010F0000 		.4byte	.LASF406
 3763 1138 01       		.byte	0x1
ARM GAS  C:\Users\ASUS\AppData\Local\Temp\ccarWmgw.s 			page 108


 3764 1139 00       		.byte	0
 3765 113a 07       		.uleb128 0x7
 3766 113b 450A0000 		.4byte	.LASF407
 3767 113f 12       		.byte	0x12
 3768 1140 8201     		.2byte	0x182
 3769 1142 20110000 		.4byte	0x1120
 3770 1146 1D       		.uleb128 0x1d
 3771 1147 2F370000 		.4byte	.LASF416
 3772 114b 20       		.byte	0x20
 3773 114c 12       		.byte	0x12
 3774 114d 9301     		.2byte	0x193
 3775 114f C9110000 		.4byte	0x11c9
 3776 1153 1E       		.uleb128 0x1e
 3777 1154 73656300 		.ascii	"sec\000"
 3778 1158 12       		.byte	0x12
 3779 1159 9601     		.2byte	0x196
 3780 115b 61050000 		.4byte	0x561
 3781 115f 00       		.byte	0
 3782 1160 1E       		.uleb128 0x1e
 3783 1161 6D696E00 		.ascii	"min\000"
 3784 1165 12       		.byte	0x12
 3785 1166 9701     		.2byte	0x197
 3786 1168 61050000 		.4byte	0x561
 3787 116c 04       		.byte	0x4
 3788 116d 0A       		.uleb128 0xa
 3789 116e FC350000 		.4byte	.LASF408
 3790 1172 12       		.byte	0x12
 3791 1173 9801     		.2byte	0x198
 3792 1175 61050000 		.4byte	0x561
 3793 1179 08       		.byte	0x8
 3794 117a 0A       		.uleb128 0xa
 3795 117b CA2B0000 		.4byte	.LASF409
 3796 117f 12       		.byte	0x12
 3797 1180 9B01     		.2byte	0x19b
 3798 1182 14110000 		.4byte	0x1114
 3799 1186 0C       		.byte	0xc
 3800 1187 0A       		.uleb128 0xa
 3801 1188 BA1C0000 		.4byte	.LASF410
 3802 118c 12       		.byte	0x12
 3803 118d 9E01     		.2byte	0x19e
 3804 118f C8100000 		.4byte	0x10c8
 3805 1193 0D       		.byte	0xd
 3806 1194 0A       		.uleb128 0xa
 3807 1195 003C0000 		.4byte	.LASF411
 3808 1199 12       		.byte	0x12
 3809 119a 9F01     		.2byte	0x19f
 3810 119c 61050000 		.4byte	0x561
 3811 11a0 10       		.byte	0x10
 3812 11a1 0A       		.uleb128 0xa
 3813 11a2 E20B0000 		.4byte	.LASF412
 3814 11a6 12       		.byte	0x12
 3815 11a7 A201     		.2byte	0x1a2
 3816 11a9 61050000 		.4byte	0x561
 3817 11ad 14       		.byte	0x14
 3818 11ae 0A       		.uleb128 0xa
 3819 11af 66310000 		.4byte	.LASF413
 3820 11b3 12       		.byte	0x12
ARM GAS  C:\Users\ASUS\AppData\Local\Temp\ccarWmgw.s 			page 109


 3821 11b4 A301     		.2byte	0x1a3
 3822 11b6 61050000 		.4byte	0x561
 3823 11ba 18       		.byte	0x18
 3824 11bb 0A       		.uleb128 0xa
 3825 11bc E5130000 		.4byte	.LASF414
 3826 11c0 12       		.byte	0x12
 3827 11c1 A401     		.2byte	0x1a4
 3828 11c3 61050000 		.4byte	0x561
 3829 11c7 1C       		.byte	0x1c
 3830 11c8 00       		.byte	0
 3831 11c9 07       		.uleb128 0x7
 3832 11ca BF1B0000 		.4byte	.LASF415
 3833 11ce 12       		.byte	0x12
 3834 11cf A501     		.2byte	0x1a5
 3835 11d1 46110000 		.4byte	0x1146
 3836 11d5 1D       		.uleb128 0x1d
 3837 11d6 FA220000 		.4byte	.LASF417
 3838 11da 30       		.byte	0x30
 3839 11db 12       		.byte	0x12
 3840 11dc A801     		.2byte	0x1a8
 3841 11de 8C120000 		.4byte	0x128c
 3842 11e2 1E       		.uleb128 0x1e
 3843 11e3 73656300 		.ascii	"sec\000"
 3844 11e7 12       		.byte	0x12
 3845 11e8 AB01     		.2byte	0x1ab
 3846 11ea 61050000 		.4byte	0x561
 3847 11ee 00       		.byte	0
 3848 11ef 0A       		.uleb128 0xa
 3849 11f0 D2150000 		.4byte	.LASF418
 3850 11f4 12       		.byte	0x12
 3851 11f5 AE01     		.2byte	0x1ae
 3852 11f7 3A110000 		.4byte	0x113a
 3853 11fb 04       		.byte	0x4
 3854 11fc 1E       		.uleb128 0x1e
 3855 11fd 6D696E00 		.ascii	"min\000"
 3856 1201 12       		.byte	0x12
 3857 1202 B001     		.2byte	0x1b0
 3858 1204 61050000 		.4byte	0x561
 3859 1208 08       		.byte	0x8
 3860 1209 0A       		.uleb128 0xa
 3861 120a 43230000 		.4byte	.LASF419
 3862 120e 12       		.byte	0x12
 3863 120f B301     		.2byte	0x1b3
 3864 1211 3A110000 		.4byte	0x113a
 3865 1215 0C       		.byte	0xc
 3866 1216 0A       		.uleb128 0xa
 3867 1217 FC350000 		.4byte	.LASF408
 3868 121b 12       		.byte	0x12
 3869 121c B501     		.2byte	0x1b5
 3870 121e 61050000 		.4byte	0x561
 3871 1222 10       		.byte	0x10
 3872 1223 0A       		.uleb128 0xa
 3873 1224 F3220000 		.4byte	.LASF420
 3874 1228 12       		.byte	0x12
 3875 1229 B801     		.2byte	0x1b8
 3876 122b 3A110000 		.4byte	0x113a
 3877 122f 14       		.byte	0x14
ARM GAS  C:\Users\ASUS\AppData\Local\Temp\ccarWmgw.s 			page 110


 3878 1230 0A       		.uleb128 0xa
 3879 1231 003C0000 		.4byte	.LASF411
 3880 1235 12       		.byte	0x12
 3881 1236 BA01     		.2byte	0x1ba
 3882 1238 61050000 		.4byte	0x561
 3883 123c 18       		.byte	0x18
 3884 123d 0A       		.uleb128 0xa
 3885 123e 0D2B0000 		.4byte	.LASF421
 3886 1242 12       		.byte	0x12
 3887 1243 BD01     		.2byte	0x1bd
 3888 1245 3A110000 		.4byte	0x113a
 3889 1249 1C       		.byte	0x1c
 3890 124a 0A       		.uleb128 0xa
 3891 124b E20B0000 		.4byte	.LASF412
 3892 124f 12       		.byte	0x12
 3893 1250 C101     		.2byte	0x1c1
 3894 1252 61050000 		.4byte	0x561
 3895 1256 20       		.byte	0x20
 3896 1257 0A       		.uleb128 0xa
 3897 1258 471F0000 		.4byte	.LASF422
 3898 125c 12       		.byte	0x12
 3899 125d C401     		.2byte	0x1c4
 3900 125f 3A110000 		.4byte	0x113a
 3901 1263 24       		.byte	0x24
 3902 1264 0A       		.uleb128 0xa
 3903 1265 66310000 		.4byte	.LASF413
 3904 1269 12       		.byte	0x12
 3905 126a C601     		.2byte	0x1c6
 3906 126c 61050000 		.4byte	0x561
 3907 1270 28       		.byte	0x28
 3908 1271 0A       		.uleb128 0xa
 3909 1272 01240000 		.4byte	.LASF423
 3910 1276 12       		.byte	0x12
 3911 1277 C901     		.2byte	0x1c9
 3912 1279 3A110000 		.4byte	0x113a
 3913 127d 2C       		.byte	0x2c
 3914 127e 0A       		.uleb128 0xa
 3915 127f CF160000 		.4byte	.LASF424
 3916 1283 12       		.byte	0x12
 3917 1284 CB01     		.2byte	0x1cb
 3918 1286 3A110000 		.4byte	0x113a
 3919 128a 2D       		.byte	0x2d
 3920 128b 00       		.byte	0
 3921 128c 07       		.uleb128 0x7
 3922 128d 22180000 		.4byte	.LASF425
 3923 1291 12       		.byte	0x12
 3924 1292 CE01     		.2byte	0x1ce
 3925 1294 D5110000 		.4byte	0x11d5
 3926 1298 18       		.uleb128 0x18
 3927 1299 18       		.byte	0x18
 3928 129a 12       		.byte	0x12
 3929 129b D501     		.2byte	0x1d5
 3930 129d F0120000 		.4byte	0x12f0
 3931 12a1 0A       		.uleb128 0xa
 3932 12a2 E3180000 		.4byte	.LASF426
 3933 12a6 12       		.byte	0x12
 3934 12a7 D701     		.2byte	0x1d7
ARM GAS  C:\Users\ASUS\AppData\Local\Temp\ccarWmgw.s 			page 111


 3935 12a9 EE100000 		.4byte	0x10ee
 3936 12ad 00       		.byte	0
 3937 12ae 0A       		.uleb128 0xa
 3938 12af FC350000 		.4byte	.LASF408
 3939 12b3 12       		.byte	0x12
 3940 12b4 DA01     		.2byte	0x1da
 3941 12b6 61050000 		.4byte	0x561
 3942 12ba 04       		.byte	0x4
 3943 12bb 0A       		.uleb128 0xa
 3944 12bc E70B0000 		.4byte	.LASF427
 3945 12c0 12       		.byte	0x12
 3946 12c1 DC01     		.2byte	0x1dc
 3947 12c3 61050000 		.4byte	0x561
 3948 12c7 08       		.byte	0x8
 3949 12c8 0A       		.uleb128 0xa
 3950 12c9 35360000 		.4byte	.LASF428
 3951 12cd 12       		.byte	0x12
 3952 12ce DF01     		.2byte	0x1df
 3953 12d0 61050000 		.4byte	0x561
 3954 12d4 0C       		.byte	0xc
 3955 12d5 0A       		.uleb128 0xa
 3956 12d6 003C0000 		.4byte	.LASF411
 3957 12da 12       		.byte	0x12
 3958 12db E301     		.2byte	0x1e3
 3959 12dd 61050000 		.4byte	0x561
 3960 12e1 10       		.byte	0x10
 3961 12e2 0A       		.uleb128 0xa
 3962 12e3 66310000 		.4byte	.LASF413
 3963 12e7 12       		.byte	0x12
 3964 12e8 E701     		.2byte	0x1e7
 3965 12ea 61050000 		.4byte	0x561
 3966 12ee 14       		.byte	0x14
 3967 12ef 00       		.byte	0
 3968 12f0 07       		.uleb128 0x7
 3969 12f1 F6010000 		.4byte	.LASF429
 3970 12f5 12       		.byte	0x12
 3971 12f6 E901     		.2byte	0x1e9
 3972 12f8 98120000 		.4byte	0x1298
 3973 12fc 18       		.uleb128 0x18
 3974 12fd 30       		.byte	0x30
 3975 12fe 12       		.byte	0x12
 3976 12ff EC01     		.2byte	0x1ec
 3977 1301 20130000 		.4byte	0x1320
 3978 1305 0A       		.uleb128 0xa
 3979 1306 4E130000 		.4byte	.LASF430
 3980 130a 12       		.byte	0x12
 3981 130b EE01     		.2byte	0x1ee
 3982 130d F0120000 		.4byte	0x12f0
 3983 1311 00       		.byte	0
 3984 1312 0A       		.uleb128 0xa
 3985 1313 31040000 		.4byte	.LASF431
 3986 1317 12       		.byte	0x12
 3987 1318 EF01     		.2byte	0x1ef
 3988 131a F0120000 		.4byte	0x12f0
 3989 131e 18       		.byte	0x18
 3990 131f 00       		.byte	0
 3991 1320 07       		.uleb128 0x7
ARM GAS  C:\Users\ASUS\AppData\Local\Temp\ccarWmgw.s 			page 112


 3992 1321 A6350000 		.4byte	.LASF432
 3993 1325 12       		.byte	0x12
 3994 1326 F001     		.2byte	0x1f0
 3995 1328 FC120000 		.4byte	0x12fc
 3996 132c 19       		.uleb128 0x19
 3997 132d 04       		.byte	0x4
 3998 132e 2E050000 		.4byte	0x52e
 3999 1332 13       		.byte	0x13
 4000 1333 DF01     		.2byte	0x1df
 4001 1335 88130000 		.4byte	0x1388
 4002 1339 04       		.uleb128 0x4
 4003 133a 151F0000 		.4byte	.LASF433
 4004 133e 00       		.byte	0
 4005 133f 1B       		.uleb128 0x1b
 4006 1340 8E270000 		.4byte	.LASF434
 4007 1344 0120AA00 		.4byte	0xaa2001
 4008 1348 1B       		.uleb128 0x1b
 4009 1349 C0250000 		.4byte	.LASF435
 4010 134d 0220AA00 		.4byte	0xaa2002
 4011 1351 1B       		.uleb128 0x1b
 4012 1352 1E350000 		.4byte	.LASF436
 4013 1356 0320AA00 		.4byte	0xaa2003
 4014 135a 1B       		.uleb128 0x1b
 4015 135b 252F0000 		.4byte	.LASF437
 4016 135f 0420AA00 		.4byte	0xaa2004
 4017 1363 1B       		.uleb128 0x1b
 4018 1364 682D0000 		.4byte	.LASF438
 4019 1368 0520AA00 		.4byte	0xaa2005
 4020 136c 1B       		.uleb128 0x1b
 4021 136d EF170000 		.4byte	.LASF439
 4022 1371 0620AA00 		.4byte	0xaa2006
 4023 1375 1B       		.uleb128 0x1b
 4024 1376 673A0000 		.4byte	.LASF440
 4025 137a 0720AA00 		.4byte	0xaa2007
 4026 137e 1B       		.uleb128 0x1b
 4027 137f 77090000 		.4byte	.LASF441
 4028 1383 0820AA00 		.4byte	0xaa2008
 4029 1387 00       		.byte	0
 4030 1388 07       		.uleb128 0x7
 4031 1389 45000000 		.4byte	.LASF442
 4032 138d 13       		.byte	0x13
 4033 138e 1102     		.2byte	0x211
 4034 1390 2C130000 		.4byte	0x132c
 4035 1394 19       		.uleb128 0x19
 4036 1395 01       		.byte	0x1
 4037 1396 B3040000 		.4byte	0x4b3
 4038 139a 13       		.byte	0x13
 4039 139b 1D02     		.2byte	0x21d
 4040 139d AE130000 		.4byte	0x13ae
 4041 13a1 04       		.uleb128 0x4
 4042 13a2 AE0A0000 		.4byte	.LASF443
 4043 13a6 00       		.byte	0
 4044 13a7 04       		.uleb128 0x4
 4045 13a8 64300000 		.4byte	.LASF444
 4046 13ac 01       		.byte	0x1
 4047 13ad 00       		.byte	0
 4048 13ae 07       		.uleb128 0x7
ARM GAS  C:\Users\ASUS\AppData\Local\Temp\ccarWmgw.s 			page 113


 4049 13af 17260000 		.4byte	.LASF445
 4050 13b3 13       		.byte	0x13
 4051 13b4 2002     		.2byte	0x220
 4052 13b6 94130000 		.4byte	0x1394
 4053 13ba 19       		.uleb128 0x19
 4054 13bb 01       		.byte	0x1
 4055 13bc B3040000 		.4byte	0x4b3
 4056 13c0 13       		.byte	0x13
 4057 13c1 2402     		.2byte	0x224
 4058 13c3 D4130000 		.4byte	0x13d4
 4059 13c7 04       		.uleb128 0x4
 4060 13c8 35160000 		.4byte	.LASF446
 4061 13cc 00       		.byte	0
 4062 13cd 04       		.uleb128 0x4
 4063 13ce 5B390000 		.4byte	.LASF447
 4064 13d2 01       		.byte	0x1
 4065 13d3 00       		.byte	0
 4066 13d4 07       		.uleb128 0x7
 4067 13d5 72190000 		.4byte	.LASF448
 4068 13d9 13       		.byte	0x13
 4069 13da 2702     		.2byte	0x227
 4070 13dc BA130000 		.4byte	0x13ba
 4071 13e0 07       		.uleb128 0x7
 4072 13e1 A2250000 		.4byte	.LASF449
 4073 13e5 13       		.byte	0x13
 4074 13e6 3902     		.2byte	0x239
 4075 13e8 EC130000 		.4byte	0x13ec
 4076 13ec 16       		.uleb128 0x16
 4077 13ed 04       		.byte	0x4
 4078 13ee F2130000 		.4byte	0x13f2
 4079 13f2 1F       		.uleb128 0x1f
 4080 13f3 FD130000 		.4byte	0x13fd
 4081 13f7 20       		.uleb128 0x20
 4082 13f8 61050000 		.4byte	0x561
 4083 13fc 00       		.byte	0
 4084 13fd 07       		.uleb128 0x7
 4085 13fe 8B3E0000 		.4byte	.LASF450
 4086 1402 13       		.byte	0x13
 4087 1403 4402     		.2byte	0x244
 4088 1405 09140000 		.4byte	0x1409
 4089 1409 16       		.uleb128 0x16
 4090 140a 04       		.byte	0x4
 4091 140b 0F140000 		.4byte	0x140f
 4092 140f 21       		.uleb128 0x21
 4093 1410 D4130000 		.4byte	0x13d4
 4094 1414 1E140000 		.4byte	0x141e
 4095 1418 20       		.uleb128 0x20
 4096 1419 61050000 		.4byte	0x561
 4097 141d 00       		.byte	0
 4098 141e 1D       		.uleb128 0x1d
 4099 141f 363D0000 		.4byte	.LASF451
 4100 1423 4C       		.byte	0x4c
 4101 1424 13       		.byte	0x13
 4102 1425 C302     		.2byte	0x2c3
 4103 1427 3D150000 		.4byte	0x153d
 4104 142b 0A       		.uleb128 0xa
 4105 142c ED070000 		.4byte	.LASF452
ARM GAS  C:\Users\ASUS\AppData\Local\Temp\ccarWmgw.s 			page 114


 4106 1430 13       		.byte	0x13
 4107 1431 C602     		.2byte	0x2c6
 4108 1433 45100000 		.4byte	0x1045
 4109 1437 00       		.byte	0
 4110 1438 0A       		.uleb128 0xa
 4111 1439 892A0000 		.4byte	.LASF453
 4112 143d 13       		.byte	0x13
 4113 143e C702     		.2byte	0x2c7
 4114 1440 45100000 		.4byte	0x1045
 4115 1444 01       		.byte	0x1
 4116 1445 0A       		.uleb128 0xa
 4117 1446 61040000 		.4byte	.LASF454
 4118 144a 13       		.byte	0x13
 4119 144b C902     		.2byte	0x2c9
 4120 144d 15060000 		.4byte	0x615
 4121 1451 04       		.byte	0x4
 4122 1452 0A       		.uleb128 0xa
 4123 1453 B7350000 		.4byte	.LASF455
 4124 1457 13       		.byte	0x13
 4125 1458 CB02     		.2byte	0x2cb
 4126 145a 15060000 		.4byte	0x615
 4127 145e 08       		.byte	0x8
 4128 145f 0A       		.uleb128 0xa
 4129 1460 FA380000 		.4byte	.LASF456
 4130 1464 13       		.byte	0x13
 4131 1465 CC02     		.2byte	0x2cc
 4132 1467 45100000 		.4byte	0x1045
 4133 146b 0C       		.byte	0xc
 4134 146c 0A       		.uleb128 0xa
 4135 146d 38390000 		.4byte	.LASF457
 4136 1471 13       		.byte	0x13
 4137 1472 CD02     		.2byte	0x2cd
 4138 1474 45100000 		.4byte	0x1045
 4139 1478 0D       		.byte	0xd
 4140 1479 0A       		.uleb128 0xa
 4141 147a 3A320000 		.4byte	.LASF458
 4142 147e 13       		.byte	0x13
 4143 147f CF02     		.2byte	0x2cf
 4144 1481 3D150000 		.4byte	0x153d
 4145 1485 10       		.byte	0x10
 4146 1486 0A       		.uleb128 0xa
 4147 1487 11180000 		.4byte	.LASF459
 4148 148b 13       		.byte	0x13
 4149 148c D002     		.2byte	0x2d0
 4150 148e 61050000 		.4byte	0x561
 4151 1492 14       		.byte	0x14
 4152 1493 0A       		.uleb128 0xa
 4153 1494 5E350000 		.4byte	.LASF460
 4154 1498 13       		.byte	0x13
 4155 1499 D102     		.2byte	0x2d1
 4156 149b 15060000 		.4byte	0x615
 4157 149f 18       		.byte	0x18
 4158 14a0 0A       		.uleb128 0xa
 4159 14a1 B51E0000 		.4byte	.LASF461
 4160 14a5 13       		.byte	0x13
 4161 14a6 D202     		.2byte	0x2d2
 4162 14a8 15060000 		.4byte	0x615
ARM GAS  C:\Users\ASUS\AppData\Local\Temp\ccarWmgw.s 			page 115


 4163 14ac 1C       		.byte	0x1c
 4164 14ad 0A       		.uleb128 0xa
 4165 14ae 3E1A0000 		.4byte	.LASF462
 4166 14b2 13       		.byte	0x13
 4167 14b3 D402     		.2byte	0x2d4
 4168 14b5 15060000 		.4byte	0x615
 4169 14b9 20       		.byte	0x20
 4170 14ba 0A       		.uleb128 0xa
 4171 14bb 89130000 		.4byte	.LASF463
 4172 14bf 13       		.byte	0x13
 4173 14c0 D502     		.2byte	0x2d5
 4174 14c2 43150000 		.4byte	0x1543
 4175 14c6 24       		.byte	0x24
 4176 14c7 0A       		.uleb128 0xa
 4177 14c8 40380000 		.4byte	.LASF464
 4178 14cc 13       		.byte	0x13
 4179 14cd D702     		.2byte	0x2d7
 4180 14cf 3D150000 		.4byte	0x153d
 4181 14d3 28       		.byte	0x28
 4182 14d4 0A       		.uleb128 0xa
 4183 14d5 C31C0000 		.4byte	.LASF465
 4184 14d9 13       		.byte	0x13
 4185 14da D802     		.2byte	0x2d8
 4186 14dc 61050000 		.4byte	0x561
 4187 14e0 2C       		.byte	0x2c
 4188 14e1 0A       		.uleb128 0xa
 4189 14e2 020E0000 		.4byte	.LASF466
 4190 14e6 13       		.byte	0x13
 4191 14e7 D902     		.2byte	0x2d9
 4192 14e9 15060000 		.4byte	0x615
 4193 14ed 30       		.byte	0x30
 4194 14ee 0A       		.uleb128 0xa
 4195 14ef 79140000 		.4byte	.LASF467
 4196 14f3 13       		.byte	0x13
 4197 14f4 DA02     		.2byte	0x2da
 4198 14f6 15060000 		.4byte	0x615
 4199 14fa 34       		.byte	0x34
 4200 14fb 0A       		.uleb128 0xa
 4201 14fc 980E0000 		.4byte	.LASF468
 4202 1500 13       		.byte	0x13
 4203 1501 DC02     		.2byte	0x2dc
 4204 1503 3D150000 		.4byte	0x153d
 4205 1507 38       		.byte	0x38
 4206 1508 0A       		.uleb128 0xa
 4207 1509 5C250000 		.4byte	.LASF469
 4208 150d 13       		.byte	0x13
 4209 150e DD02     		.2byte	0x2dd
 4210 1510 61050000 		.4byte	0x561
 4211 1514 3C       		.byte	0x3c
 4212 1515 0A       		.uleb128 0xa
 4213 1516 AB3A0000 		.4byte	.LASF470
 4214 151a 13       		.byte	0x13
 4215 151b DE02     		.2byte	0x2de
 4216 151d 15060000 		.4byte	0x615
 4217 1521 40       		.byte	0x40
 4218 1522 0A       		.uleb128 0xa
 4219 1523 81180000 		.4byte	.LASF471
ARM GAS  C:\Users\ASUS\AppData\Local\Temp\ccarWmgw.s 			page 116


 4220 1527 13       		.byte	0x13
 4221 1528 E402     		.2byte	0x2e4
 4222 152a E0130000 		.4byte	0x13e0
 4223 152e 44       		.byte	0x44
 4224 152f 0A       		.uleb128 0xa
 4225 1530 47320000 		.4byte	.LASF472
 4226 1534 13       		.byte	0x13
 4227 1535 EB02     		.2byte	0x2eb
 4228 1537 FD130000 		.4byte	0x13fd
 4229 153b 48       		.byte	0x48
 4230 153c 00       		.byte	0
 4231 153d 16       		.uleb128 0x16
 4232 153e 04       		.byte	0x4
 4233 153f 35050000 		.4byte	0x535
 4234 1543 0F       		.uleb128 0xf
 4235 1544 45100000 		.4byte	0x1045
 4236 1548 07       		.uleb128 0x7
 4237 1549 280F0000 		.4byte	.LASF473
 4238 154d 13       		.byte	0x13
 4239 154e EE02     		.2byte	0x2ee
 4240 1550 1E140000 		.4byte	0x141e
 4241 1554 07       		.uleb128 0x7
 4242 1555 D0270000 		.4byte	.LASF474
 4243 1559 14       		.byte	0x14
 4244 155a D901     		.2byte	0x1d9
 4245 155c EC130000 		.4byte	0x13ec
 4246 1560 1D       		.uleb128 0x1d
 4247 1561 33010000 		.4byte	.LASF475
 4248 1565 38       		.byte	0x38
 4249 1566 14       		.byte	0x14
 4250 1567 7502     		.2byte	0x275
 4251 1569 24160000 		.4byte	0x1624
 4252 156d 0A       		.uleb128 0xa
 4253 156e C9030000 		.4byte	.LASF476
 4254 1572 14       		.byte	0x14
 4255 1573 7802     		.2byte	0x278
 4256 1575 15060000 		.4byte	0x615
 4257 1579 00       		.byte	0
 4258 157a 0A       		.uleb128 0xa
 4259 157b 17320000 		.4byte	.LASF477
 4260 157f 14       		.byte	0x14
 4261 1580 7902     		.2byte	0x279
 4262 1582 15060000 		.4byte	0x615
 4263 1586 04       		.byte	0x4
 4264 1587 0A       		.uleb128 0xa
 4265 1588 2C3D0000 		.4byte	.LASF478
 4266 158c 14       		.byte	0x14
 4267 158d 7B02     		.2byte	0x27b
 4268 158f 43100000 		.4byte	0x1043
 4269 1593 08       		.byte	0x8
 4270 1594 0A       		.uleb128 0xa
 4271 1595 81260000 		.4byte	.LASF479
 4272 1599 14       		.byte	0x14
 4273 159a 7C02     		.2byte	0x27c
 4274 159c 61050000 		.4byte	0x561
 4275 15a0 0C       		.byte	0xc
 4276 15a1 0A       		.uleb128 0xa
ARM GAS  C:\Users\ASUS\AppData\Local\Temp\ccarWmgw.s 			page 117


 4277 15a2 8A0E0000 		.4byte	.LASF480
 4278 15a6 14       		.byte	0x14
 4279 15a7 7D02     		.2byte	0x27d
 4280 15a9 15060000 		.4byte	0x615
 4281 15ad 10       		.byte	0x10
 4282 15ae 0A       		.uleb128 0xa
 4283 15af 9A3C0000 		.4byte	.LASF481
 4284 15b3 14       		.byte	0x14
 4285 15b4 7E02     		.2byte	0x27e
 4286 15b6 15060000 		.4byte	0x615
 4287 15ba 14       		.byte	0x14
 4288 15bb 0A       		.uleb128 0xa
 4289 15bc 9D010000 		.4byte	.LASF482
 4290 15c0 14       		.byte	0x14
 4291 15c1 8002     		.2byte	0x280
 4292 15c3 43100000 		.4byte	0x1043
 4293 15c7 18       		.byte	0x18
 4294 15c8 0A       		.uleb128 0xa
 4295 15c9 05120000 		.4byte	.LASF483
 4296 15cd 14       		.byte	0x14
 4297 15ce 8102     		.2byte	0x281
 4298 15d0 61050000 		.4byte	0x561
 4299 15d4 1C       		.byte	0x1c
 4300 15d5 0A       		.uleb128 0xa
 4301 15d6 CD200000 		.4byte	.LASF484
 4302 15da 14       		.byte	0x14
 4303 15db 8202     		.2byte	0x282
 4304 15dd 15060000 		.4byte	0x615
 4305 15e1 20       		.byte	0x20
 4306 15e2 0A       		.uleb128 0xa
 4307 15e3 4C2D0000 		.4byte	.LASF485
 4308 15e7 14       		.byte	0x14
 4309 15e8 8402     		.2byte	0x284
 4310 15ea 43100000 		.4byte	0x1043
 4311 15ee 24       		.byte	0x24
 4312 15ef 0A       		.uleb128 0xa
 4313 15f0 2D080000 		.4byte	.LASF486
 4314 15f4 14       		.byte	0x14
 4315 15f5 8502     		.2byte	0x285
 4316 15f7 61050000 		.4byte	0x561
 4317 15fb 28       		.byte	0x28
 4318 15fc 0A       		.uleb128 0xa
 4319 15fd 76280000 		.4byte	.LASF487
 4320 1601 14       		.byte	0x14
 4321 1602 8602     		.2byte	0x286
 4322 1604 15060000 		.4byte	0x615
 4323 1608 2C       		.byte	0x2c
 4324 1609 0A       		.uleb128 0xa
 4325 160a 81180000 		.4byte	.LASF471
 4326 160e 14       		.byte	0x14
 4327 160f 8B02     		.2byte	0x28b
 4328 1611 54150000 		.4byte	0x1554
 4329 1615 30       		.byte	0x30
 4330 1616 0A       		.uleb128 0xa
 4331 1617 57330000 		.4byte	.LASF488
 4332 161b 14       		.byte	0x14
 4333 161c 8E02     		.2byte	0x28e
ARM GAS  C:\Users\ASUS\AppData\Local\Temp\ccarWmgw.s 			page 118


 4334 161e 61050000 		.4byte	0x561
 4335 1622 34       		.byte	0x34
 4336 1623 00       		.byte	0
 4337 1624 07       		.uleb128 0x7
 4338 1625 5E0C0000 		.4byte	.LASF489
 4339 1629 14       		.byte	0x14
 4340 162a 9102     		.2byte	0x291
 4341 162c 60150000 		.4byte	0x1560
 4342 1630 06       		.uleb128 0x6
 4343 1631 E4190000 		.4byte	.LASF490
 4344 1635 15       		.byte	0x15
 4345 1636 07       		.byte	0x7
 4346 1637 27050000 		.4byte	0x527
 4347 163b 06       		.uleb128 0x6
 4348 163c 54390000 		.4byte	.LASF491
 4349 1640 16       		.byte	0x16
 4350 1641 2C       		.byte	0x2c
 4351 1642 00050000 		.4byte	0x500
 4352 1646 06       		.uleb128 0x6
 4353 1647 02290000 		.4byte	.LASF492
 4354 164b 16       		.byte	0x16
 4355 164c 72       		.byte	0x72
 4356 164d 00050000 		.4byte	0x500
 4357 1651 07       		.uleb128 0x7
 4358 1652 F82F0000 		.4byte	.LASF493
 4359 1656 17       		.byte	0x17
 4360 1657 6501     		.2byte	0x165
 4361 1659 2E050000 		.4byte	0x52e
 4362 165d 22       		.uleb128 0x22
 4363 165e 04       		.byte	0x4
 4364 165f 16       		.byte	0x16
 4365 1660 A6       		.byte	0xa6
 4366 1661 7C160000 		.4byte	0x167c
 4367 1665 23       		.uleb128 0x23
 4368 1666 7C070000 		.4byte	.LASF494
 4369 166a 16       		.byte	0x16
 4370 166b A8       		.byte	0xa8
 4371 166c 51160000 		.4byte	0x1651
 4372 1670 23       		.uleb128 0x23
 4373 1671 3C290000 		.4byte	.LASF495
 4374 1675 16       		.byte	0x16
 4375 1676 A9       		.byte	0xa9
 4376 1677 7C160000 		.4byte	0x167c
 4377 167b 00       		.byte	0
 4378 167c 0D       		.uleb128 0xd
 4379 167d B3040000 		.4byte	0x4b3
 4380 1681 8C160000 		.4byte	0x168c
 4381 1685 0E       		.uleb128 0xe
 4382 1686 0E060000 		.4byte	0x60e
 4383 168a 03       		.byte	0x3
 4384 168b 00       		.byte	0
 4385 168c 15       		.uleb128 0x15
 4386 168d 08       		.byte	0x8
 4387 168e 16       		.byte	0x16
 4388 168f A3       		.byte	0xa3
 4389 1690 AD160000 		.4byte	0x16ad
 4390 1694 13       		.uleb128 0x13
ARM GAS  C:\Users\ASUS\AppData\Local\Temp\ccarWmgw.s 			page 119


 4391 1695 F6250000 		.4byte	.LASF496
 4392 1699 16       		.byte	0x16
 4393 169a A5       		.byte	0xa5
 4394 169b 27050000 		.4byte	0x527
 4395 169f 00       		.byte	0
 4396 16a0 13       		.uleb128 0x13
 4397 16a1 D6000000 		.4byte	.LASF497
 4398 16a5 16       		.byte	0x16
 4399 16a6 AA       		.byte	0xaa
 4400 16a7 5D160000 		.4byte	0x165d
 4401 16ab 04       		.byte	0x4
 4402 16ac 00       		.byte	0
 4403 16ad 06       		.uleb128 0x6
 4404 16ae 472F0000 		.4byte	.LASF498
 4405 16b2 16       		.byte	0x16
 4406 16b3 AB       		.byte	0xab
 4407 16b4 8C160000 		.4byte	0x168c
 4408 16b8 06       		.uleb128 0x6
 4409 16b9 B02E0000 		.4byte	.LASF499
 4410 16bd 16       		.byte	0x16
 4411 16be AF       		.byte	0xaf
 4412 16bf 30160000 		.4byte	0x1630
 4413 16c3 16       		.uleb128 0x16
 4414 16c4 04       		.byte	0x4
 4415 16c5 CB0F0000 		.4byte	0xfcb
 4416 16c9 06       		.uleb128 0x6
 4417 16ca 09380000 		.4byte	.LASF500
 4418 16ce 18       		.byte	0x18
 4419 16cf 16       		.byte	0x16
 4420 16d0 12050000 		.4byte	0x512
 4421 16d4 24       		.uleb128 0x24
 4422 16d5 771B0000 		.4byte	.LASF501
 4423 16d9 18       		.byte	0x18
 4424 16da 18       		.byte	0x18
 4425 16db 2D       		.byte	0x2d
 4426 16dc 27170000 		.4byte	0x1727
 4427 16e0 13       		.uleb128 0x13
 4428 16e1 5E300000 		.4byte	.LASF502
 4429 16e5 18       		.byte	0x18
 4430 16e6 2F       		.byte	0x2f
 4431 16e7 27170000 		.4byte	0x1727
 4432 16eb 00       		.byte	0
 4433 16ec 25       		.uleb128 0x25
 4434 16ed 5F6B00   		.ascii	"_k\000"
 4435 16f0 18       		.byte	0x18
 4436 16f1 30       		.byte	0x30
 4437 16f2 27050000 		.4byte	0x527
 4438 16f6 04       		.byte	0x4
 4439 16f7 13       		.uleb128 0x13
 4440 16f8 FD1B0000 		.4byte	.LASF503
 4441 16fc 18       		.byte	0x18
 4442 16fd 30       		.byte	0x30
 4443 16fe 27050000 		.4byte	0x527
 4444 1702 08       		.byte	0x8
 4445 1703 13       		.uleb128 0x13
 4446 1704 2F210000 		.4byte	.LASF504
 4447 1708 18       		.byte	0x18
ARM GAS  C:\Users\ASUS\AppData\Local\Temp\ccarWmgw.s 			page 120


 4448 1709 30       		.byte	0x30
 4449 170a 27050000 		.4byte	0x527
 4450 170e 0C       		.byte	0xc
 4451 170f 13       		.uleb128 0x13
 4452 1710 44160000 		.4byte	.LASF505
 4453 1714 18       		.byte	0x18
 4454 1715 30       		.byte	0x30
 4455 1716 27050000 		.4byte	0x527
 4456 171a 10       		.byte	0x10
 4457 171b 25       		.uleb128 0x25
 4458 171c 5F7800   		.ascii	"_x\000"
 4459 171f 18       		.byte	0x18
 4460 1720 31       		.byte	0x31
 4461 1721 2D170000 		.4byte	0x172d
 4462 1725 14       		.byte	0x14
 4463 1726 00       		.byte	0
 4464 1727 16       		.uleb128 0x16
 4465 1728 04       		.byte	0x4
 4466 1729 D4160000 		.4byte	0x16d4
 4467 172d 0D       		.uleb128 0xd
 4468 172e C9160000 		.4byte	0x16c9
 4469 1732 3D170000 		.4byte	0x173d
 4470 1736 0E       		.uleb128 0xe
 4471 1737 0E060000 		.4byte	0x60e
 4472 173b 00       		.byte	0
 4473 173c 00       		.byte	0
 4474 173d 24       		.uleb128 0x24
 4475 173e 41030000 		.4byte	.LASF506
 4476 1742 24       		.byte	0x24
 4477 1743 18       		.byte	0x18
 4478 1744 35       		.byte	0x35
 4479 1745 B6170000 		.4byte	0x17b6
 4480 1749 13       		.uleb128 0x13
 4481 174a 66030000 		.4byte	.LASF507
 4482 174e 18       		.byte	0x18
 4483 174f 37       		.byte	0x37
 4484 1750 27050000 		.4byte	0x527
 4485 1754 00       		.byte	0
 4486 1755 13       		.uleb128 0x13
 4487 1756 A53D0000 		.4byte	.LASF508
 4488 175a 18       		.byte	0x18
 4489 175b 38       		.byte	0x38
 4490 175c 27050000 		.4byte	0x527
 4491 1760 04       		.byte	0x4
 4492 1761 13       		.uleb128 0x13
 4493 1762 183A0000 		.4byte	.LASF509
 4494 1766 18       		.byte	0x18
 4495 1767 39       		.byte	0x39
 4496 1768 27050000 		.4byte	0x527
 4497 176c 08       		.byte	0x8
 4498 176d 13       		.uleb128 0x13
 4499 176e A7230000 		.4byte	.LASF510
 4500 1772 18       		.byte	0x18
 4501 1773 3A       		.byte	0x3a
 4502 1774 27050000 		.4byte	0x527
 4503 1778 0C       		.byte	0xc
 4504 1779 13       		.uleb128 0x13
ARM GAS  C:\Users\ASUS\AppData\Local\Temp\ccarWmgw.s 			page 121


 4505 177a 2F0B0000 		.4byte	.LASF511
 4506 177e 18       		.byte	0x18
 4507 177f 3B       		.byte	0x3b
 4508 1780 27050000 		.4byte	0x527
 4509 1784 10       		.byte	0x10
 4510 1785 13       		.uleb128 0x13
 4511 1786 DD340000 		.4byte	.LASF512
 4512 178a 18       		.byte	0x18
 4513 178b 3C       		.byte	0x3c
 4514 178c 27050000 		.4byte	0x527
 4515 1790 14       		.byte	0x14
 4516 1791 13       		.uleb128 0x13
 4517 1792 DF260000 		.4byte	.LASF513
 4518 1796 18       		.byte	0x18
 4519 1797 3D       		.byte	0x3d
 4520 1798 27050000 		.4byte	0x527
 4521 179c 18       		.byte	0x18
 4522 179d 13       		.uleb128 0x13
 4523 179e 17100000 		.4byte	.LASF514
 4524 17a2 18       		.byte	0x18
 4525 17a3 3E       		.byte	0x3e
 4526 17a4 27050000 		.4byte	0x527
 4527 17a8 1C       		.byte	0x1c
 4528 17a9 13       		.uleb128 0x13
 4529 17aa 063D0000 		.4byte	.LASF515
 4530 17ae 18       		.byte	0x18
 4531 17af 3F       		.byte	0x3f
 4532 17b0 27050000 		.4byte	0x527
 4533 17b4 20       		.byte	0x20
 4534 17b5 00       		.byte	0
 4535 17b6 26       		.uleb128 0x26
 4536 17b7 DF070000 		.4byte	.LASF516
 4537 17bb 0801     		.2byte	0x108
 4538 17bd 18       		.byte	0x18
 4539 17be 48       		.byte	0x48
 4540 17bf F6170000 		.4byte	0x17f6
 4541 17c3 13       		.uleb128 0x13
 4542 17c4 C33C0000 		.4byte	.LASF517
 4543 17c8 18       		.byte	0x18
 4544 17c9 49       		.byte	0x49
 4545 17ca F6170000 		.4byte	0x17f6
 4546 17ce 00       		.byte	0
 4547 17cf 13       		.uleb128 0x13
 4548 17d0 BE2B0000 		.4byte	.LASF518
 4549 17d4 18       		.byte	0x18
 4550 17d5 4A       		.byte	0x4a
 4551 17d6 F6170000 		.4byte	0x17f6
 4552 17da 80       		.byte	0x80
 4553 17db 14       		.uleb128 0x14
 4554 17dc 7D0A0000 		.4byte	.LASF519
 4555 17e0 18       		.byte	0x18
 4556 17e1 4C       		.byte	0x4c
 4557 17e2 C9160000 		.4byte	0x16c9
 4558 17e6 0001     		.2byte	0x100
 4559 17e8 14       		.uleb128 0x14
 4560 17e9 99130000 		.4byte	.LASF520
 4561 17ed 18       		.byte	0x18
ARM GAS  C:\Users\ASUS\AppData\Local\Temp\ccarWmgw.s 			page 122


 4562 17ee 4F       		.byte	0x4f
 4563 17ef C9160000 		.4byte	0x16c9
 4564 17f3 0401     		.2byte	0x104
 4565 17f5 00       		.byte	0
 4566 17f6 0D       		.uleb128 0xd
 4567 17f7 43100000 		.4byte	0x1043
 4568 17fb 06180000 		.4byte	0x1806
 4569 17ff 0E       		.uleb128 0xe
 4570 1800 0E060000 		.4byte	0x60e
 4571 1804 1F       		.byte	0x1f
 4572 1805 00       		.byte	0
 4573 1806 26       		.uleb128 0x26
 4574 1807 36250000 		.4byte	.LASF521
 4575 180b 9001     		.2byte	0x190
 4576 180d 18       		.byte	0x18
 4577 180e 5B       		.byte	0x5b
 4578 180f 44180000 		.4byte	0x1844
 4579 1813 13       		.uleb128 0x13
 4580 1814 5E300000 		.4byte	.LASF502
 4581 1818 18       		.byte	0x18
 4582 1819 5C       		.byte	0x5c
 4583 181a 44180000 		.4byte	0x1844
 4584 181e 00       		.byte	0
 4585 181f 13       		.uleb128 0x13
 4586 1820 6A360000 		.4byte	.LASF522
 4587 1824 18       		.byte	0x18
 4588 1825 5D       		.byte	0x5d
 4589 1826 27050000 		.4byte	0x527
 4590 182a 04       		.byte	0x4
 4591 182b 13       		.uleb128 0x13
 4592 182c 04110000 		.4byte	.LASF523
 4593 1830 18       		.byte	0x18
 4594 1831 5F       		.byte	0x5f
 4595 1832 4A180000 		.4byte	0x184a
 4596 1836 08       		.byte	0x8
 4597 1837 13       		.uleb128 0x13
 4598 1838 DF070000 		.4byte	.LASF516
 4599 183c 18       		.byte	0x18
 4600 183d 60       		.byte	0x60
 4601 183e B6170000 		.4byte	0x17b6
 4602 1842 88       		.byte	0x88
 4603 1843 00       		.byte	0
 4604 1844 16       		.uleb128 0x16
 4605 1845 04       		.byte	0x4
 4606 1846 06180000 		.4byte	0x1806
 4607 184a 0D       		.uleb128 0xd
 4608 184b B80F0000 		.4byte	0xfb8
 4609 184f 5A180000 		.4byte	0x185a
 4610 1853 0E       		.uleb128 0xe
 4611 1854 0E060000 		.4byte	0x60e
 4612 1858 1F       		.byte	0x1f
 4613 1859 00       		.byte	0
 4614 185a 24       		.uleb128 0x24
 4615 185b 47130000 		.4byte	.LASF524
 4616 185f 08       		.byte	0x8
 4617 1860 18       		.byte	0x18
 4618 1861 73       		.byte	0x73
ARM GAS  C:\Users\ASUS\AppData\Local\Temp\ccarWmgw.s 			page 123


 4619 1862 7F180000 		.4byte	0x187f
 4620 1866 13       		.uleb128 0x13
 4621 1867 A62D0000 		.4byte	.LASF525
 4622 186b 18       		.byte	0x18
 4623 186c 74       		.byte	0x74
 4624 186d 7F180000 		.4byte	0x187f
 4625 1871 00       		.byte	0
 4626 1872 13       		.uleb128 0x13
 4627 1873 21090000 		.4byte	.LASF526
 4628 1877 18       		.byte	0x18
 4629 1878 75       		.byte	0x75
 4630 1879 27050000 		.4byte	0x527
 4631 187d 04       		.byte	0x4
 4632 187e 00       		.byte	0
 4633 187f 16       		.uleb128 0x16
 4634 1880 04       		.byte	0x4
 4635 1881 B3040000 		.4byte	0x4b3
 4636 1885 24       		.uleb128 0x24
 4637 1886 0A190000 		.4byte	.LASF527
 4638 188a 68       		.byte	0x68
 4639 188b 18       		.byte	0x18
 4640 188c B3       		.byte	0xb3
 4641 188d AF190000 		.4byte	0x19af
 4642 1891 25       		.uleb128 0x25
 4643 1892 5F7000   		.ascii	"_p\000"
 4644 1895 18       		.byte	0x18
 4645 1896 B4       		.byte	0xb4
 4646 1897 7F180000 		.4byte	0x187f
 4647 189b 00       		.byte	0
 4648 189c 25       		.uleb128 0x25
 4649 189d 5F7200   		.ascii	"_r\000"
 4650 18a0 18       		.byte	0x18
 4651 18a1 B5       		.byte	0xb5
 4652 18a2 27050000 		.4byte	0x527
 4653 18a6 04       		.byte	0x4
 4654 18a7 25       		.uleb128 0x25
 4655 18a8 5F7700   		.ascii	"_w\000"
 4656 18ab 18       		.byte	0x18
 4657 18ac B6       		.byte	0xb6
 4658 18ad 27050000 		.4byte	0x527
 4659 18b1 08       		.byte	0x8
 4660 18b2 13       		.uleb128 0x13
 4661 18b3 A2240000 		.4byte	.LASF528
 4662 18b7 18       		.byte	0x18
 4663 18b8 B7       		.byte	0xb7
 4664 18b9 1C010000 		.4byte	0x11c
 4665 18bd 0C       		.byte	0xc
 4666 18be 13       		.uleb128 0x13
 4667 18bf D2070000 		.4byte	.LASF529
 4668 18c3 18       		.byte	0x18
 4669 18c4 B8       		.byte	0xb8
 4670 18c5 1C010000 		.4byte	0x11c
 4671 18c9 0E       		.byte	0xe
 4672 18ca 25       		.uleb128 0x25
 4673 18cb 5F626600 		.ascii	"_bf\000"
 4674 18cf 18       		.byte	0x18
 4675 18d0 B9       		.byte	0xb9
ARM GAS  C:\Users\ASUS\AppData\Local\Temp\ccarWmgw.s 			page 124


 4676 18d1 5A180000 		.4byte	0x185a
 4677 18d5 10       		.byte	0x10
 4678 18d6 13       		.uleb128 0x13
 4679 18d7 5C360000 		.4byte	.LASF530
 4680 18db 18       		.byte	0x18
 4681 18dc BA       		.byte	0xba
 4682 18dd 27050000 		.4byte	0x527
 4683 18e1 18       		.byte	0x18
 4684 18e2 13       		.uleb128 0x13
 4685 18e3 24160000 		.4byte	.LASF531
 4686 18e7 18       		.byte	0x18
 4687 18e8 C1       		.byte	0xc1
 4688 18e9 43100000 		.4byte	0x1043
 4689 18ed 1C       		.byte	0x1c
 4690 18ee 13       		.uleb128 0x13
 4691 18ef 2D010000 		.4byte	.LASF532
 4692 18f3 18       		.byte	0x18
 4693 18f4 C3       		.byte	0xc3
 4694 18f5 051B0000 		.4byte	0x1b05
 4695 18f9 20       		.byte	0x20
 4696 18fa 13       		.uleb128 0x13
 4697 18fb B1040000 		.4byte	.LASF533
 4698 18ff 18       		.byte	0x18
 4699 1900 C5       		.byte	0xc5
 4700 1901 341B0000 		.4byte	0x1b34
 4701 1905 24       		.byte	0x24
 4702 1906 13       		.uleb128 0x13
 4703 1907 70280000 		.4byte	.LASF534
 4704 190b 18       		.byte	0x18
 4705 190c C8       		.byte	0xc8
 4706 190d 581B0000 		.4byte	0x1b58
 4707 1911 28       		.byte	0x28
 4708 1912 13       		.uleb128 0x13
 4709 1913 50110000 		.4byte	.LASF535
 4710 1917 18       		.byte	0x18
 4711 1918 C9       		.byte	0xc9
 4712 1919 721B0000 		.4byte	0x1b72
 4713 191d 2C       		.byte	0x2c
 4714 191e 25       		.uleb128 0x25
 4715 191f 5F756200 		.ascii	"_ub\000"
 4716 1923 18       		.byte	0x18
 4717 1924 CC       		.byte	0xcc
 4718 1925 5A180000 		.4byte	0x185a
 4719 1929 30       		.byte	0x30
 4720 192a 25       		.uleb128 0x25
 4721 192b 5F757000 		.ascii	"_up\000"
 4722 192f 18       		.byte	0x18
 4723 1930 CD       		.byte	0xcd
 4724 1931 7F180000 		.4byte	0x187f
 4725 1935 38       		.byte	0x38
 4726 1936 25       		.uleb128 0x25
 4727 1937 5F757200 		.ascii	"_ur\000"
 4728 193b 18       		.byte	0x18
 4729 193c CE       		.byte	0xce
 4730 193d 27050000 		.4byte	0x527
 4731 1941 3C       		.byte	0x3c
 4732 1942 13       		.uleb128 0x13
ARM GAS  C:\Users\ASUS\AppData\Local\Temp\ccarWmgw.s 			page 125


 4733 1943 FB230000 		.4byte	.LASF536
 4734 1947 18       		.byte	0x18
 4735 1948 D1       		.byte	0xd1
 4736 1949 781B0000 		.4byte	0x1b78
 4737 194d 40       		.byte	0x40
 4738 194e 13       		.uleb128 0x13
 4739 194f 60030000 		.4byte	.LASF537
 4740 1953 18       		.byte	0x18
 4741 1954 D2       		.byte	0xd2
 4742 1955 881B0000 		.4byte	0x1b88
 4743 1959 43       		.byte	0x43
 4744 195a 25       		.uleb128 0x25
 4745 195b 5F6C6200 		.ascii	"_lb\000"
 4746 195f 18       		.byte	0x18
 4747 1960 D5       		.byte	0xd5
 4748 1961 5A180000 		.4byte	0x185a
 4749 1965 44       		.byte	0x44
 4750 1966 13       		.uleb128 0x13
 4751 1967 EF2C0000 		.4byte	.LASF538
 4752 196b 18       		.byte	0x18
 4753 196c D8       		.byte	0xd8
 4754 196d 27050000 		.4byte	0x527
 4755 1971 4C       		.byte	0x4c
 4756 1972 13       		.uleb128 0x13
 4757 1973 0E170000 		.4byte	.LASF539
 4758 1977 18       		.byte	0x18
 4759 1978 D9       		.byte	0xd9
 4760 1979 3B160000 		.4byte	0x163b
 4761 197d 50       		.byte	0x50
 4762 197e 13       		.uleb128 0x13
 4763 197f 79300000 		.4byte	.LASF540
 4764 1983 18       		.byte	0x18
 4765 1984 DC       		.byte	0xdc
 4766 1985 CD190000 		.4byte	0x19cd
 4767 1989 54       		.byte	0x54
 4768 198a 13       		.uleb128 0x13
 4769 198b 76040000 		.4byte	.LASF541
 4770 198f 18       		.byte	0x18
 4771 1990 E0       		.byte	0xe0
 4772 1991 B8160000 		.4byte	0x16b8
 4773 1995 58       		.byte	0x58
 4774 1996 13       		.uleb128 0x13
 4775 1997 6A240000 		.4byte	.LASF542
 4776 199b 18       		.byte	0x18
 4777 199c E2       		.byte	0xe2
 4778 199d AD160000 		.4byte	0x16ad
 4779 19a1 5C       		.byte	0x5c
 4780 19a2 13       		.uleb128 0x13
 4781 19a3 1D190000 		.4byte	.LASF543
 4782 19a7 18       		.byte	0x18
 4783 19a8 E3       		.byte	0xe3
 4784 19a9 27050000 		.4byte	0x527
 4785 19ad 64       		.byte	0x64
 4786 19ae 00       		.byte	0
 4787 19af 21       		.uleb128 0x21
 4788 19b0 27050000 		.4byte	0x527
 4789 19b4 CD190000 		.4byte	0x19cd
ARM GAS  C:\Users\ASUS\AppData\Local\Temp\ccarWmgw.s 			page 126


 4790 19b8 20       		.uleb128 0x20
 4791 19b9 CD190000 		.4byte	0x19cd
 4792 19bd 20       		.uleb128 0x20
 4793 19be 43100000 		.4byte	0x1043
 4794 19c2 20       		.uleb128 0x20
 4795 19c3 C3160000 		.4byte	0x16c3
 4796 19c7 20       		.uleb128 0x20
 4797 19c8 27050000 		.4byte	0x527
 4798 19cc 00       		.byte	0
 4799 19cd 16       		.uleb128 0x16
 4800 19ce 04       		.byte	0x4
 4801 19cf D3190000 		.4byte	0x19d3
 4802 19d3 27       		.uleb128 0x27
 4803 19d4 74050000 		.4byte	.LASF544
 4804 19d8 2804     		.2byte	0x428
 4805 19da 18       		.byte	0x18
 4806 19db 3802     		.2byte	0x238
 4807 19dd 051B0000 		.4byte	0x1b05
 4808 19e1 0A       		.uleb128 0xa
 4809 19e2 691A0000 		.4byte	.LASF545
 4810 19e6 18       		.byte	0x18
 4811 19e7 3A02     		.2byte	0x23a
 4812 19e9 27050000 		.4byte	0x527
 4813 19ed 00       		.byte	0
 4814 19ee 0A       		.uleb128 0xa
 4815 19ef A2120000 		.4byte	.LASF546
 4816 19f3 18       		.byte	0x18
 4817 19f4 3F02     		.2byte	0x23f
 4818 19f6 DF1B0000 		.4byte	0x1bdf
 4819 19fa 04       		.byte	0x4
 4820 19fb 0A       		.uleb128 0xa
 4821 19fc D20D0000 		.4byte	.LASF547
 4822 1a00 18       		.byte	0x18
 4823 1a01 3F02     		.2byte	0x23f
 4824 1a03 DF1B0000 		.4byte	0x1bdf
 4825 1a07 08       		.byte	0x8
 4826 1a08 0A       		.uleb128 0xa
 4827 1a09 633C0000 		.4byte	.LASF548
 4828 1a0d 18       		.byte	0x18
 4829 1a0e 3F02     		.2byte	0x23f
 4830 1a10 DF1B0000 		.4byte	0x1bdf
 4831 1a14 0C       		.byte	0xc
 4832 1a15 0A       		.uleb128 0xa
 4833 1a16 65360000 		.4byte	.LASF549
 4834 1a1a 18       		.byte	0x18
 4835 1a1b 4102     		.2byte	0x241
 4836 1a1d 27050000 		.4byte	0x527
 4837 1a21 10       		.byte	0x10
 4838 1a22 0A       		.uleb128 0xa
 4839 1a23 681D0000 		.4byte	.LASF550
 4840 1a27 18       		.byte	0x18
 4841 1a28 4202     		.2byte	0x242
 4842 1a2a C11D0000 		.4byte	0x1dc1
 4843 1a2e 14       		.byte	0x14
 4844 1a2f 0A       		.uleb128 0xa
 4845 1a30 FF0B0000 		.4byte	.LASF551
 4846 1a34 18       		.byte	0x18
ARM GAS  C:\Users\ASUS\AppData\Local\Temp\ccarWmgw.s 			page 127


 4847 1a35 4402     		.2byte	0x244
 4848 1a37 27050000 		.4byte	0x527
 4849 1a3b 30       		.byte	0x30
 4850 1a3c 0A       		.uleb128 0xa
 4851 1a3d 7C200000 		.4byte	.LASF552
 4852 1a41 18       		.byte	0x18
 4853 1a42 4502     		.2byte	0x245
 4854 1a44 291B0000 		.4byte	0x1b29
 4855 1a48 34       		.byte	0x34
 4856 1a49 0A       		.uleb128 0xa
 4857 1a4a 12190000 		.4byte	.LASF553
 4858 1a4e 18       		.byte	0x18
 4859 1a4f 4702     		.2byte	0x247
 4860 1a51 27050000 		.4byte	0x527
 4861 1a55 38       		.byte	0x38
 4862 1a56 0A       		.uleb128 0xa
 4863 1a57 7E010000 		.4byte	.LASF554
 4864 1a5b 18       		.byte	0x18
 4865 1a5c 4902     		.2byte	0x249
 4866 1a5e DC1D0000 		.4byte	0x1ddc
 4867 1a62 3C       		.byte	0x3c
 4868 1a63 0A       		.uleb128 0xa
 4869 1a64 B5070000 		.4byte	.LASF555
 4870 1a68 18       		.byte	0x18
 4871 1a69 4C02     		.2byte	0x24c
 4872 1a6b 27170000 		.4byte	0x1727
 4873 1a6f 40       		.byte	0x40
 4874 1a70 0A       		.uleb128 0xa
 4875 1a71 6E350000 		.4byte	.LASF556
 4876 1a75 18       		.byte	0x18
 4877 1a76 4D02     		.2byte	0x24d
 4878 1a78 27050000 		.4byte	0x527
 4879 1a7c 44       		.byte	0x44
 4880 1a7d 0A       		.uleb128 0xa
 4881 1a7e A2180000 		.4byte	.LASF557
 4882 1a82 18       		.byte	0x18
 4883 1a83 4E02     		.2byte	0x24e
 4884 1a85 27170000 		.4byte	0x1727
 4885 1a89 48       		.byte	0x48
 4886 1a8a 0A       		.uleb128 0xa
 4887 1a8b A7200000 		.4byte	.LASF558
 4888 1a8f 18       		.byte	0x18
 4889 1a90 4F02     		.2byte	0x24f
 4890 1a92 E21D0000 		.4byte	0x1de2
 4891 1a96 4C       		.byte	0x4c
 4892 1a97 0A       		.uleb128 0xa
 4893 1a98 EE010000 		.4byte	.LASF559
 4894 1a9c 18       		.byte	0x18
 4895 1a9d 5202     		.2byte	0x252
 4896 1a9f 27050000 		.4byte	0x527
 4897 1aa3 50       		.byte	0x50
 4898 1aa4 0A       		.uleb128 0xa
 4899 1aa5 16170000 		.4byte	.LASF560
 4900 1aa9 18       		.byte	0x18
 4901 1aaa 5302     		.2byte	0x253
 4902 1aac C3160000 		.4byte	0x16c3
 4903 1ab0 54       		.byte	0x54
ARM GAS  C:\Users\ASUS\AppData\Local\Temp\ccarWmgw.s 			page 128


 4904 1ab1 0A       		.uleb128 0xa
 4905 1ab2 DB230000 		.4byte	.LASF561
 4906 1ab6 18       		.byte	0x18
 4907 1ab7 7602     		.2byte	0x276
 4908 1ab9 9F1D0000 		.4byte	0x1d9f
 4909 1abd 58       		.byte	0x58
 4910 1abe 0B       		.uleb128 0xb
 4911 1abf 36250000 		.4byte	.LASF521
 4912 1ac3 18       		.byte	0x18
 4913 1ac4 7A02     		.2byte	0x27a
 4914 1ac6 44180000 		.4byte	0x1844
 4915 1aca 4801     		.2byte	0x148
 4916 1acc 0B       		.uleb128 0xb
 4917 1acd B11C0000 		.4byte	.LASF562
 4918 1ad1 18       		.byte	0x18
 4919 1ad2 7B02     		.2byte	0x27b
 4920 1ad4 06180000 		.4byte	0x1806
 4921 1ad8 4C01     		.2byte	0x14c
 4922 1ada 0B       		.uleb128 0xb
 4923 1adb 6F030000 		.4byte	.LASF563
 4924 1adf 18       		.byte	0x18
 4925 1ae0 7F02     		.2byte	0x27f
 4926 1ae2 F31D0000 		.4byte	0x1df3
 4927 1ae6 DC02     		.2byte	0x2dc
 4928 1ae8 0B       		.uleb128 0xb
 4929 1ae9 761F0000 		.4byte	.LASF564
 4930 1aed 18       		.byte	0x18
 4931 1aee 8402     		.2byte	0x284
 4932 1af0 A41B0000 		.4byte	0x1ba4
 4933 1af4 E002     		.2byte	0x2e0
 4934 1af6 0B       		.uleb128 0xb
 4935 1af7 02010000 		.4byte	.LASF565
 4936 1afb 18       		.byte	0x18
 4937 1afc 8502     		.2byte	0x285
 4938 1afe FF1D0000 		.4byte	0x1dff
 4939 1b02 EC02     		.2byte	0x2ec
 4940 1b04 00       		.byte	0
 4941 1b05 16       		.uleb128 0x16
 4942 1b06 04       		.byte	0x4
 4943 1b07 AF190000 		.4byte	0x19af
 4944 1b0b 21       		.uleb128 0x21
 4945 1b0c 27050000 		.4byte	0x527
 4946 1b10 291B0000 		.4byte	0x1b29
 4947 1b14 20       		.uleb128 0x20
 4948 1b15 CD190000 		.4byte	0x19cd
 4949 1b19 20       		.uleb128 0x20
 4950 1b1a 43100000 		.4byte	0x1043
 4951 1b1e 20       		.uleb128 0x20
 4952 1b1f 291B0000 		.4byte	0x1b29
 4953 1b23 20       		.uleb128 0x20
 4954 1b24 27050000 		.4byte	0x527
 4955 1b28 00       		.byte	0
 4956 1b29 16       		.uleb128 0x16
 4957 1b2a 04       		.byte	0x4
 4958 1b2b 2F1B0000 		.4byte	0x1b2f
 4959 1b2f 10       		.uleb128 0x10
 4960 1b30 CB0F0000 		.4byte	0xfcb
ARM GAS  C:\Users\ASUS\AppData\Local\Temp\ccarWmgw.s 			page 129


 4961 1b34 16       		.uleb128 0x16
 4962 1b35 04       		.byte	0x4
 4963 1b36 0B1B0000 		.4byte	0x1b0b
 4964 1b3a 21       		.uleb128 0x21
 4965 1b3b 46160000 		.4byte	0x1646
 4966 1b3f 581B0000 		.4byte	0x1b58
 4967 1b43 20       		.uleb128 0x20
 4968 1b44 CD190000 		.4byte	0x19cd
 4969 1b48 20       		.uleb128 0x20
 4970 1b49 43100000 		.4byte	0x1043
 4971 1b4d 20       		.uleb128 0x20
 4972 1b4e 46160000 		.4byte	0x1646
 4973 1b52 20       		.uleb128 0x20
 4974 1b53 27050000 		.4byte	0x527
 4975 1b57 00       		.byte	0
 4976 1b58 16       		.uleb128 0x16
 4977 1b59 04       		.byte	0x4
 4978 1b5a 3A1B0000 		.4byte	0x1b3a
 4979 1b5e 21       		.uleb128 0x21
 4980 1b5f 27050000 		.4byte	0x527
 4981 1b63 721B0000 		.4byte	0x1b72
 4982 1b67 20       		.uleb128 0x20
 4983 1b68 CD190000 		.4byte	0x19cd
 4984 1b6c 20       		.uleb128 0x20
 4985 1b6d 43100000 		.4byte	0x1043
 4986 1b71 00       		.byte	0
 4987 1b72 16       		.uleb128 0x16
 4988 1b73 04       		.byte	0x4
 4989 1b74 5E1B0000 		.4byte	0x1b5e
 4990 1b78 0D       		.uleb128 0xd
 4991 1b79 B3040000 		.4byte	0x4b3
 4992 1b7d 881B0000 		.4byte	0x1b88
 4993 1b81 0E       		.uleb128 0xe
 4994 1b82 0E060000 		.4byte	0x60e
 4995 1b86 02       		.byte	0x2
 4996 1b87 00       		.byte	0
 4997 1b88 0D       		.uleb128 0xd
 4998 1b89 B3040000 		.4byte	0x4b3
 4999 1b8d 981B0000 		.4byte	0x1b98
 5000 1b91 0E       		.uleb128 0xe
 5001 1b92 0E060000 		.4byte	0x60e
 5002 1b96 00       		.byte	0
 5003 1b97 00       		.byte	0
 5004 1b98 07       		.uleb128 0x7
 5005 1b99 F52E0000 		.4byte	.LASF566
 5006 1b9d 18       		.byte	0x18
 5007 1b9e 1D01     		.2byte	0x11d
 5008 1ba0 85180000 		.4byte	0x1885
 5009 1ba4 1D       		.uleb128 0x1d
 5010 1ba5 F1200000 		.4byte	.LASF567
 5011 1ba9 0C       		.byte	0xc
 5012 1baa 18       		.byte	0x18
 5013 1bab 2101     		.2byte	0x121
 5014 1bad D91B0000 		.4byte	0x1bd9
 5015 1bb1 0A       		.uleb128 0xa
 5016 1bb2 5E300000 		.4byte	.LASF502
 5017 1bb6 18       		.byte	0x18
ARM GAS  C:\Users\ASUS\AppData\Local\Temp\ccarWmgw.s 			page 130


 5018 1bb7 2301     		.2byte	0x123
 5019 1bb9 D91B0000 		.4byte	0x1bd9
 5020 1bbd 00       		.byte	0
 5021 1bbe 0A       		.uleb128 0xa
 5022 1bbf 0E1F0000 		.4byte	.LASF568
 5023 1bc3 18       		.byte	0x18
 5024 1bc4 2401     		.2byte	0x124
 5025 1bc6 27050000 		.4byte	0x527
 5026 1bca 04       		.byte	0x4
 5027 1bcb 0A       		.uleb128 0xa
 5028 1bcc EB200000 		.4byte	.LASF569
 5029 1bd0 18       		.byte	0x18
 5030 1bd1 2501     		.2byte	0x125
 5031 1bd3 DF1B0000 		.4byte	0x1bdf
 5032 1bd7 08       		.byte	0x8
 5033 1bd8 00       		.byte	0
 5034 1bd9 16       		.uleb128 0x16
 5035 1bda 04       		.byte	0x4
 5036 1bdb A41B0000 		.4byte	0x1ba4
 5037 1bdf 16       		.uleb128 0x16
 5038 1be0 04       		.byte	0x4
 5039 1be1 981B0000 		.4byte	0x1b98
 5040 1be5 1D       		.uleb128 0x1d
 5041 1be6 5C080000 		.4byte	.LASF570
 5042 1bea 0E       		.byte	0xe
 5043 1beb 18       		.byte	0x18
 5044 1bec 3D01     		.2byte	0x13d
 5045 1bee 1A1C0000 		.4byte	0x1c1a
 5046 1bf2 0A       		.uleb128 0xa
 5047 1bf3 42280000 		.4byte	.LASF571
 5048 1bf7 18       		.byte	0x18
 5049 1bf8 3E01     		.2byte	0x13e
 5050 1bfa 1A1C0000 		.4byte	0x1c1a
 5051 1bfe 00       		.byte	0
 5052 1bff 0A       		.uleb128 0xa
 5053 1c00 5C050000 		.4byte	.LASF572
 5054 1c04 18       		.byte	0x18
 5055 1c05 3F01     		.2byte	0x13f
 5056 1c07 1A1C0000 		.4byte	0x1c1a
 5057 1c0b 06       		.byte	0x6
 5058 1c0c 0A       		.uleb128 0xa
 5059 1c0d A5390000 		.4byte	.LASF573
 5060 1c11 18       		.byte	0x18
 5061 1c12 4001     		.2byte	0x140
 5062 1c14 EE040000 		.4byte	0x4ee
 5063 1c18 0C       		.byte	0xc
 5064 1c19 00       		.byte	0
 5065 1c1a 0D       		.uleb128 0xd
 5066 1c1b EE040000 		.4byte	0x4ee
 5067 1c1f 2A1C0000 		.4byte	0x1c2a
 5068 1c23 0E       		.uleb128 0xe
 5069 1c24 0E060000 		.4byte	0x60e
 5070 1c28 02       		.byte	0x2
 5071 1c29 00       		.byte	0
 5072 1c2a 18       		.uleb128 0x18
 5073 1c2b D0       		.byte	0xd0
 5074 1c2c 18       		.byte	0x18
ARM GAS  C:\Users\ASUS\AppData\Local\Temp\ccarWmgw.s 			page 131


 5075 1c2d 5702     		.2byte	0x257
 5076 1c2f 2B1D0000 		.4byte	0x1d2b
 5077 1c33 0A       		.uleb128 0xa
 5078 1c34 890C0000 		.4byte	.LASF574
 5079 1c38 18       		.byte	0x18
 5080 1c39 5902     		.2byte	0x259
 5081 1c3b 2E050000 		.4byte	0x52e
 5082 1c3f 00       		.byte	0
 5083 1c40 0A       		.uleb128 0xa
 5084 1c41 162E0000 		.4byte	.LASF575
 5085 1c45 18       		.byte	0x18
 5086 1c46 5A02     		.2byte	0x25a
 5087 1c48 C3160000 		.4byte	0x16c3
 5088 1c4c 04       		.byte	0x4
 5089 1c4d 0A       		.uleb128 0xa
 5090 1c4e E1010000 		.4byte	.LASF576
 5091 1c52 18       		.byte	0x18
 5092 1c53 5B02     		.2byte	0x25b
 5093 1c55 2B1D0000 		.4byte	0x1d2b
 5094 1c59 08       		.byte	0x8
 5095 1c5a 0A       		.uleb128 0xa
 5096 1c5b 9C090000 		.4byte	.LASF577
 5097 1c5f 18       		.byte	0x18
 5098 1c60 5C02     		.2byte	0x25c
 5099 1c62 3D170000 		.4byte	0x173d
 5100 1c66 24       		.byte	0x24
 5101 1c67 0A       		.uleb128 0xa
 5102 1c68 0E030000 		.4byte	.LASF578
 5103 1c6c 18       		.byte	0x18
 5104 1c6d 5D02     		.2byte	0x25d
 5105 1c6f 27050000 		.4byte	0x527
 5106 1c73 48       		.byte	0x48
 5107 1c74 0A       		.uleb128 0xa
 5108 1c75 C7100000 		.4byte	.LASF579
 5109 1c79 18       		.byte	0x18
 5110 1c7a 5E02     		.2byte	0x25e
 5111 1c7c 20050000 		.4byte	0x520
 5112 1c80 50       		.byte	0x50
 5113 1c81 0A       		.uleb128 0xa
 5114 1c82 B32F0000 		.4byte	.LASF580
 5115 1c86 18       		.byte	0x18
 5116 1c87 5F02     		.2byte	0x25f
 5117 1c89 E51B0000 		.4byte	0x1be5
 5118 1c8d 58       		.byte	0x58
 5119 1c8e 0A       		.uleb128 0xa
 5120 1c8f 5F330000 		.4byte	.LASF581
 5121 1c93 18       		.byte	0x18
 5122 1c94 6002     		.2byte	0x260
 5123 1c96 AD160000 		.4byte	0x16ad
 5124 1c9a 68       		.byte	0x68
 5125 1c9b 0A       		.uleb128 0xa
 5126 1c9c 7B1D0000 		.4byte	.LASF582
 5127 1ca0 18       		.byte	0x18
 5128 1ca1 6102     		.2byte	0x261
 5129 1ca3 AD160000 		.4byte	0x16ad
 5130 1ca7 70       		.byte	0x70
 5131 1ca8 0A       		.uleb128 0xa
ARM GAS  C:\Users\ASUS\AppData\Local\Temp\ccarWmgw.s 			page 132


 5132 1ca9 8C2B0000 		.4byte	.LASF583
 5133 1cad 18       		.byte	0x18
 5134 1cae 6202     		.2byte	0x262
 5135 1cb0 AD160000 		.4byte	0x16ad
 5136 1cb4 78       		.byte	0x78
 5137 1cb5 0A       		.uleb128 0xa
 5138 1cb6 79030000 		.4byte	.LASF584
 5139 1cba 18       		.byte	0x18
 5140 1cbb 6302     		.2byte	0x263
 5141 1cbd 3B1D0000 		.4byte	0x1d3b
 5142 1cc1 80       		.byte	0x80
 5143 1cc2 0A       		.uleb128 0xa
 5144 1cc3 39000000 		.4byte	.LASF585
 5145 1cc7 18       		.byte	0x18
 5146 1cc8 6402     		.2byte	0x264
 5147 1cca 4B1D0000 		.4byte	0x1d4b
 5148 1cce 88       		.byte	0x88
 5149 1ccf 0A       		.uleb128 0xa
 5150 1cd0 4F050000 		.4byte	.LASF586
 5151 1cd4 18       		.byte	0x18
 5152 1cd5 6502     		.2byte	0x265
 5153 1cd7 27050000 		.4byte	0x527
 5154 1cdb A0       		.byte	0xa0
 5155 1cdc 0A       		.uleb128 0xa
 5156 1cdd 64080000 		.4byte	.LASF587
 5157 1ce1 18       		.byte	0x18
 5158 1ce2 6602     		.2byte	0x266
 5159 1ce4 AD160000 		.4byte	0x16ad
 5160 1ce8 A4       		.byte	0xa4
 5161 1ce9 0A       		.uleb128 0xa
 5162 1cea 652E0000 		.4byte	.LASF588
 5163 1cee 18       		.byte	0x18
 5164 1cef 6702     		.2byte	0x267
 5165 1cf1 AD160000 		.4byte	0x16ad
 5166 1cf5 AC       		.byte	0xac
 5167 1cf6 0A       		.uleb128 0xa
 5168 1cf7 A01C0000 		.4byte	.LASF589
 5169 1cfb 18       		.byte	0x18
 5170 1cfc 6802     		.2byte	0x268
 5171 1cfe AD160000 		.4byte	0x16ad
 5172 1d02 B4       		.byte	0xb4
 5173 1d03 0A       		.uleb128 0xa
 5174 1d04 75230000 		.4byte	.LASF590
 5175 1d08 18       		.byte	0x18
 5176 1d09 6902     		.2byte	0x269
 5177 1d0b AD160000 		.4byte	0x16ad
 5178 1d0f BC       		.byte	0xbc
 5179 1d10 0A       		.uleb128 0xa
 5180 1d11 D0010000 		.4byte	.LASF591
 5181 1d15 18       		.byte	0x18
 5182 1d16 6A02     		.2byte	0x26a
 5183 1d18 AD160000 		.4byte	0x16ad
 5184 1d1c C4       		.byte	0xc4
 5185 1d1d 0A       		.uleb128 0xa
 5186 1d1e AF220000 		.4byte	.LASF592
 5187 1d22 18       		.byte	0x18
 5188 1d23 6B02     		.2byte	0x26b
ARM GAS  C:\Users\ASUS\AppData\Local\Temp\ccarWmgw.s 			page 133


 5189 1d25 27050000 		.4byte	0x527
 5190 1d29 CC       		.byte	0xcc
 5191 1d2a 00       		.byte	0
 5192 1d2b 0D       		.uleb128 0xd
 5193 1d2c CB0F0000 		.4byte	0xfcb
 5194 1d30 3B1D0000 		.4byte	0x1d3b
 5195 1d34 0E       		.uleb128 0xe
 5196 1d35 0E060000 		.4byte	0x60e
 5197 1d39 19       		.byte	0x19
 5198 1d3a 00       		.byte	0
 5199 1d3b 0D       		.uleb128 0xd
 5200 1d3c CB0F0000 		.4byte	0xfcb
 5201 1d40 4B1D0000 		.4byte	0x1d4b
 5202 1d44 0E       		.uleb128 0xe
 5203 1d45 0E060000 		.4byte	0x60e
 5204 1d49 07       		.byte	0x7
 5205 1d4a 00       		.byte	0
 5206 1d4b 0D       		.uleb128 0xd
 5207 1d4c CB0F0000 		.4byte	0xfcb
 5208 1d50 5B1D0000 		.4byte	0x1d5b
 5209 1d54 0E       		.uleb128 0xe
 5210 1d55 0E060000 		.4byte	0x60e
 5211 1d59 17       		.byte	0x17
 5212 1d5a 00       		.byte	0
 5213 1d5b 18       		.uleb128 0x18
 5214 1d5c F0       		.byte	0xf0
 5215 1d5d 18       		.byte	0x18
 5216 1d5e 7002     		.2byte	0x270
 5217 1d60 7F1D0000 		.4byte	0x1d7f
 5218 1d64 0A       		.uleb128 0xa
 5219 1d65 1B370000 		.4byte	.LASF593
 5220 1d69 18       		.byte	0x18
 5221 1d6a 7302     		.2byte	0x273
 5222 1d6c 7F1D0000 		.4byte	0x1d7f
 5223 1d70 00       		.byte	0
 5224 1d71 0A       		.uleb128 0xa
 5225 1d72 A31F0000 		.4byte	.LASF594
 5226 1d76 18       		.byte	0x18
 5227 1d77 7402     		.2byte	0x274
 5228 1d79 8F1D0000 		.4byte	0x1d8f
 5229 1d7d 78       		.byte	0x78
 5230 1d7e 00       		.byte	0
 5231 1d7f 0D       		.uleb128 0xd
 5232 1d80 7F180000 		.4byte	0x187f
 5233 1d84 8F1D0000 		.4byte	0x1d8f
 5234 1d88 0E       		.uleb128 0xe
 5235 1d89 0E060000 		.4byte	0x60e
 5236 1d8d 1D       		.byte	0x1d
 5237 1d8e 00       		.byte	0
 5238 1d8f 0D       		.uleb128 0xd
 5239 1d90 2E050000 		.4byte	0x52e
 5240 1d94 9F1D0000 		.4byte	0x1d9f
 5241 1d98 0E       		.uleb128 0xe
 5242 1d99 0E060000 		.4byte	0x60e
 5243 1d9d 1D       		.byte	0x1d
 5244 1d9e 00       		.byte	0
 5245 1d9f 28       		.uleb128 0x28
ARM GAS  C:\Users\ASUS\AppData\Local\Temp\ccarWmgw.s 			page 134


 5246 1da0 F0       		.byte	0xf0
 5247 1da1 18       		.byte	0x18
 5248 1da2 5502     		.2byte	0x255
 5249 1da4 C11D0000 		.4byte	0x1dc1
 5250 1da8 29       		.uleb128 0x29
 5251 1da9 74050000 		.4byte	.LASF544
 5252 1dad 18       		.byte	0x18
 5253 1dae 6C02     		.2byte	0x26c
 5254 1db0 2A1C0000 		.4byte	0x1c2a
 5255 1db4 29       		.uleb128 0x29
 5256 1db5 39030000 		.4byte	.LASF595
 5257 1db9 18       		.byte	0x18
 5258 1dba 7502     		.2byte	0x275
 5259 1dbc 5B1D0000 		.4byte	0x1d5b
 5260 1dc0 00       		.byte	0
 5261 1dc1 0D       		.uleb128 0xd
 5262 1dc2 CB0F0000 		.4byte	0xfcb
 5263 1dc6 D11D0000 		.4byte	0x1dd1
 5264 1dca 0E       		.uleb128 0xe
 5265 1dcb 0E060000 		.4byte	0x60e
 5266 1dcf 18       		.byte	0x18
 5267 1dd0 00       		.byte	0
 5268 1dd1 1F       		.uleb128 0x1f
 5269 1dd2 DC1D0000 		.4byte	0x1ddc
 5270 1dd6 20       		.uleb128 0x20
 5271 1dd7 CD190000 		.4byte	0x19cd
 5272 1ddb 00       		.byte	0
 5273 1ddc 16       		.uleb128 0x16
 5274 1ddd 04       		.byte	0x4
 5275 1dde D11D0000 		.4byte	0x1dd1
 5276 1de2 16       		.uleb128 0x16
 5277 1de3 04       		.byte	0x4
 5278 1de4 27170000 		.4byte	0x1727
 5279 1de8 1F       		.uleb128 0x1f
 5280 1de9 F31D0000 		.4byte	0x1df3
 5281 1ded 20       		.uleb128 0x20
 5282 1dee 27050000 		.4byte	0x527
 5283 1df2 00       		.byte	0
 5284 1df3 16       		.uleb128 0x16
 5285 1df4 04       		.byte	0x4
 5286 1df5 F91D0000 		.4byte	0x1df9
 5287 1df9 16       		.uleb128 0x16
 5288 1dfa 04       		.byte	0x4
 5289 1dfb E81D0000 		.4byte	0x1de8
 5290 1dff 0D       		.uleb128 0xd
 5291 1e00 981B0000 		.4byte	0x1b98
 5292 1e04 0F1E0000 		.4byte	0x1e0f
 5293 1e08 0E       		.uleb128 0xe
 5294 1e09 0E060000 		.4byte	0x60e
 5295 1e0d 02       		.byte	0x2
 5296 1e0e 00       		.byte	0
 5297 1e0f 19       		.uleb128 0x19
 5298 1e10 02       		.byte	0x2
 5299 1e11 EE040000 		.4byte	0x4ee
 5300 1e15 19       		.byte	0x19
 5301 1e16 4D01     		.2byte	0x14d
 5302 1e18 48210000 		.4byte	0x2148
ARM GAS  C:\Users\ASUS\AppData\Local\Temp\ccarWmgw.s 			page 135


 5303 1e1c 04       		.uleb128 0x4
 5304 1e1d 09240000 		.4byte	.LASF596
 5305 1e21 00       		.byte	0
 5306 1e22 2A       		.uleb128 0x2a
 5307 1e23 022E0000 		.4byte	.LASF597
 5308 1e27 0010     		.2byte	0x1000
 5309 1e29 2A       		.uleb128 0x2a
 5310 1e2a B30B0000 		.4byte	.LASF598
 5311 1e2e 0110     		.2byte	0x1001
 5312 1e30 2A       		.uleb128 0x2a
 5313 1e31 37080000 		.4byte	.LASF599
 5314 1e35 0210     		.2byte	0x1002
 5315 1e37 2A       		.uleb128 0x2a
 5316 1e38 F30C0000 		.4byte	.LASF600
 5317 1e3c 0310     		.2byte	0x1003
 5318 1e3e 2A       		.uleb128 0x2a
 5319 1e3f 1A000000 		.4byte	.LASF601
 5320 1e43 0410     		.2byte	0x1004
 5321 1e45 2A       		.uleb128 0x2a
 5322 1e46 573B0000 		.4byte	.LASF602
 5323 1e4a 0510     		.2byte	0x1005
 5324 1e4c 2A       		.uleb128 0x2a
 5325 1e4d 46030000 		.4byte	.LASF603
 5326 1e51 0020     		.2byte	0x2000
 5327 1e53 2A       		.uleb128 0x2a
 5328 1e54 83030000 		.4byte	.LASF604
 5329 1e58 0120     		.2byte	0x2001
 5330 1e5a 2A       		.uleb128 0x2a
 5331 1e5b EA320000 		.4byte	.LASF605
 5332 1e5f 0220     		.2byte	0x2002
 5333 1e61 2A       		.uleb128 0x2a
 5334 1e62 49230000 		.4byte	.LASF606
 5335 1e66 0320     		.2byte	0x2003
 5336 1e68 2A       		.uleb128 0x2a
 5337 1e69 F10F0000 		.4byte	.LASF607
 5338 1e6d 0420     		.2byte	0x2004
 5339 1e6f 2A       		.uleb128 0x2a
 5340 1e70 632B0000 		.4byte	.LASF608
 5341 1e74 0520     		.2byte	0x2005
 5342 1e76 2A       		.uleb128 0x2a
 5343 1e77 EF270000 		.4byte	.LASF609
 5344 1e7b 0620     		.2byte	0x2006
 5345 1e7d 2A       		.uleb128 0x2a
 5346 1e7e AE3D0000 		.4byte	.LASF610
 5347 1e82 0720     		.2byte	0x2007
 5348 1e84 2A       		.uleb128 0x2a
 5349 1e85 35210000 		.4byte	.LASF611
 5350 1e89 0820     		.2byte	0x2008
 5351 1e8b 2A       		.uleb128 0x2a
 5352 1e8c 98370000 		.4byte	.LASF612
 5353 1e90 0920     		.2byte	0x2009
 5354 1e92 2A       		.uleb128 0x2a
 5355 1e93 812C0000 		.4byte	.LASF613
 5356 1e97 0A20     		.2byte	0x200a
 5357 1e99 2A       		.uleb128 0x2a
 5358 1e9a 0A3C0000 		.4byte	.LASF614
 5359 1e9e 0B20     		.2byte	0x200b
ARM GAS  C:\Users\ASUS\AppData\Local\Temp\ccarWmgw.s 			page 136


 5360 1ea0 2A       		.uleb128 0x2a
 5361 1ea1 8A190000 		.4byte	.LASF615
 5362 1ea5 0C20     		.2byte	0x200c
 5363 1ea7 2A       		.uleb128 0x2a
 5364 1ea8 51290000 		.4byte	.LASF616
 5365 1eac 0D20     		.2byte	0x200d
 5366 1eae 2A       		.uleb128 0x2a
 5367 1eaf 380B0000 		.4byte	.LASF617
 5368 1eb3 0E20     		.2byte	0x200e
 5369 1eb5 2A       		.uleb128 0x2a
 5370 1eb6 7A3D0000 		.4byte	.LASF618
 5371 1eba 0F20     		.2byte	0x200f
 5372 1ebc 2A       		.uleb128 0x2a
 5373 1ebd 110C0000 		.4byte	.LASF619
 5374 1ec1 1020     		.2byte	0x2010
 5375 1ec3 2A       		.uleb128 0x2a
 5376 1ec4 192B0000 		.4byte	.LASF620
 5377 1ec8 1120     		.2byte	0x2011
 5378 1eca 2A       		.uleb128 0x2a
 5379 1ecb 201E0000 		.4byte	.LASF621
 5380 1ecf 1220     		.2byte	0x2012
 5381 1ed1 2A       		.uleb128 0x2a
 5382 1ed2 73110000 		.4byte	.LASF622
 5383 1ed6 1320     		.2byte	0x2013
 5384 1ed8 2A       		.uleb128 0x2a
 5385 1ed9 43150000 		.4byte	.LASF623
 5386 1edd 1420     		.2byte	0x2014
 5387 1edf 2A       		.uleb128 0x2a
 5388 1ee0 8F110000 		.4byte	.LASF624
 5389 1ee4 1520     		.2byte	0x2015
 5390 1ee6 2A       		.uleb128 0x2a
 5391 1ee7 AC1F0000 		.4byte	.LASF625
 5392 1eeb 1620     		.2byte	0x2016
 5393 1eed 2A       		.uleb128 0x2a
 5394 1eee C40A0000 		.4byte	.LASF626
 5395 1ef2 1720     		.2byte	0x2017
 5396 1ef4 2A       		.uleb128 0x2a
 5397 1ef5 AA050000 		.4byte	.LASF627
 5398 1ef9 0030     		.2byte	0x3000
 5399 1efb 2A       		.uleb128 0x2a
 5400 1efc A3010000 		.4byte	.LASF628
 5401 1f00 0130     		.2byte	0x3001
 5402 1f02 2A       		.uleb128 0x2a
 5403 1f03 DE000000 		.4byte	.LASF629
 5404 1f07 0230     		.2byte	0x3002
 5405 1f09 2A       		.uleb128 0x2a
 5406 1f0a 1C380000 		.4byte	.LASF630
 5407 1f0e 0330     		.2byte	0x3003
 5408 1f10 2A       		.uleb128 0x2a
 5409 1f11 D2170000 		.4byte	.LASF631
 5410 1f15 0430     		.2byte	0x3004
 5411 1f17 2A       		.uleb128 0x2a
 5412 1f18 A7330000 		.4byte	.LASF632
 5413 1f1c 0530     		.2byte	0x3005
 5414 1f1e 2A       		.uleb128 0x2a
 5415 1f1f CB3C0000 		.4byte	.LASF633
 5416 1f23 0630     		.2byte	0x3006
ARM GAS  C:\Users\ASUS\AppData\Local\Temp\ccarWmgw.s 			page 137


 5417 1f25 2A       		.uleb128 0x2a
 5418 1f26 6D020000 		.4byte	.LASF634
 5419 1f2a 0730     		.2byte	0x3007
 5420 1f2c 2A       		.uleb128 0x2a
 5421 1f2d 1F3E0000 		.4byte	.LASF635
 5422 1f31 0830     		.2byte	0x3008
 5423 1f33 2A       		.uleb128 0x2a
 5424 1f34 051C0000 		.4byte	.LASF636
 5425 1f38 0930     		.2byte	0x3009
 5426 1f3a 2A       		.uleb128 0x2a
 5427 1f3b 5C380000 		.4byte	.LASF637
 5428 1f3f 0A30     		.2byte	0x300a
 5429 1f41 2A       		.uleb128 0x2a
 5430 1f42 9A2B0000 		.4byte	.LASF638
 5431 1f46 0B30     		.2byte	0x300b
 5432 1f48 2A       		.uleb128 0x2a
 5433 1f49 AB110000 		.4byte	.LASF639
 5434 1f4d 0C30     		.2byte	0x300c
 5435 1f4f 2A       		.uleb128 0x2a
 5436 1f50 7F1B0000 		.4byte	.LASF640
 5437 1f54 1130     		.2byte	0x3011
 5438 1f56 2A       		.uleb128 0x2a
 5439 1f57 76330000 		.4byte	.LASF641
 5440 1f5b 1230     		.2byte	0x3012
 5441 1f5d 2A       		.uleb128 0x2a
 5442 1f5e 6E250000 		.4byte	.LASF642
 5443 1f62 1330     		.2byte	0x3013
 5444 1f64 2A       		.uleb128 0x2a
 5445 1f65 3F350000 		.4byte	.LASF643
 5446 1f69 1430     		.2byte	0x3014
 5447 1f6b 2A       		.uleb128 0x2a
 5448 1f6c 59370000 		.4byte	.LASF644
 5449 1f70 1530     		.2byte	0x3015
 5450 1f72 2A       		.uleb128 0x2a
 5451 1f73 BC080000 		.4byte	.LASF645
 5452 1f77 1630     		.2byte	0x3016
 5453 1f79 2A       		.uleb128 0x2a
 5454 1f7a 5F260000 		.4byte	.LASF646
 5455 1f7e 1730     		.2byte	0x3017
 5456 1f80 2A       		.uleb128 0x2a
 5457 1f81 EA140000 		.4byte	.LASF647
 5458 1f85 1830     		.2byte	0x3018
 5459 1f87 2A       		.uleb128 0x2a
 5460 1f88 73120000 		.4byte	.LASF648
 5461 1f8c 0040     		.2byte	0x4000
 5462 1f8e 2A       		.uleb128 0x2a
 5463 1f8f B4210000 		.4byte	.LASF649
 5464 1f93 0140     		.2byte	0x4001
 5465 1f95 2A       		.uleb128 0x2a
 5466 1f96 BB2C0000 		.4byte	.LASF650
 5467 1f9a 0240     		.2byte	0x4002
 5468 1f9c 2A       		.uleb128 0x2a
 5469 1f9d CF2A0000 		.4byte	.LASF651
 5470 1fa1 0340     		.2byte	0x4003
 5471 1fa3 2A       		.uleb128 0x2a
 5472 1fa4 E9260000 		.4byte	.LASF652
 5473 1fa8 0440     		.2byte	0x4004
ARM GAS  C:\Users\ASUS\AppData\Local\Temp\ccarWmgw.s 			page 138


 5474 1faa 2A       		.uleb128 0x2a
 5475 1fab 9A070000 		.4byte	.LASF653
 5476 1faf 0540     		.2byte	0x4005
 5477 1fb1 2A       		.uleb128 0x2a
 5478 1fb2 EE310000 		.4byte	.LASF654
 5479 1fb6 0640     		.2byte	0x4006
 5480 1fb8 2A       		.uleb128 0x2a
 5481 1fb9 FE340000 		.4byte	.LASF655
 5482 1fbd 0740     		.2byte	0x4007
 5483 1fbf 2A       		.uleb128 0x2a
 5484 1fc0 883A0000 		.4byte	.LASF656
 5485 1fc4 0840     		.2byte	0x4008
 5486 1fc6 2A       		.uleb128 0x2a
 5487 1fc7 110B0000 		.4byte	.LASF657
 5488 1fcb 0940     		.2byte	0x4009
 5489 1fcd 2A       		.uleb128 0x2a
 5490 1fce 5F2A0000 		.4byte	.LASF658
 5491 1fd2 0A40     		.2byte	0x400a
 5492 1fd4 2A       		.uleb128 0x2a
 5493 1fd5 EA180000 		.4byte	.LASF659
 5494 1fd9 0B40     		.2byte	0x400b
 5495 1fdb 2A       		.uleb128 0x2a
 5496 1fdc D0290000 		.4byte	.LASF660
 5497 1fe0 0C40     		.2byte	0x400c
 5498 1fe2 2A       		.uleb128 0x2a
 5499 1fe3 F7200000 		.4byte	.LASF661
 5500 1fe7 0D40     		.2byte	0x400d
 5501 1fe9 2A       		.uleb128 0x2a
 5502 1fea 1E230000 		.4byte	.LASF662
 5503 1fee 0E40     		.2byte	0x400e
 5504 1ff0 2A       		.uleb128 0x2a
 5505 1ff1 C0140000 		.4byte	.LASF663
 5506 1ff5 0F40     		.2byte	0x400f
 5507 1ff7 2A       		.uleb128 0x2a
 5508 1ff8 C5120000 		.4byte	.LASF664
 5509 1ffc 1040     		.2byte	0x4010
 5510 1ffe 2A       		.uleb128 0x2a
 5511 1fff B60C0000 		.4byte	.LASF665
 5512 2003 1140     		.2byte	0x4011
 5513 2005 2A       		.uleb128 0x2a
 5514 2006 5E2F0000 		.4byte	.LASF666
 5515 200a 1240     		.2byte	0x4012
 5516 200c 2A       		.uleb128 0x2a
 5517 200d 550F0000 		.4byte	.LASF667
 5518 2011 1340     		.2byte	0x4013
 5519 2013 2A       		.uleb128 0x2a
 5520 2014 852D0000 		.4byte	.LASF668
 5521 2018 1440     		.2byte	0x4014
 5522 201a 2A       		.uleb128 0x2a
 5523 201b DC2B0000 		.4byte	.LASF669
 5524 201f 1540     		.2byte	0x4015
 5525 2021 2A       		.uleb128 0x2a
 5526 2022 63060000 		.4byte	.LASF670
 5527 2026 1640     		.2byte	0x4016
 5528 2028 2A       		.uleb128 0x2a
 5529 2029 47190000 		.4byte	.LASF671
 5530 202d 1740     		.2byte	0x4017
ARM GAS  C:\Users\ASUS\AppData\Local\Temp\ccarWmgw.s 			page 139


 5531 202f 2A       		.uleb128 0x2a
 5532 2030 8C210000 		.4byte	.LASF672
 5533 2034 1840     		.2byte	0x4018
 5534 2036 2A       		.uleb128 0x2a
 5535 2037 353C0000 		.4byte	.LASF673
 5536 203b 1940     		.2byte	0x4019
 5537 203d 2A       		.uleb128 0x2a
 5538 203e 522D0000 		.4byte	.LASF674
 5539 2042 1A40     		.2byte	0x401a
 5540 2044 2A       		.uleb128 0x2a
 5541 2045 7D160000 		.4byte	.LASF675
 5542 2049 0050     		.2byte	0x5000
 5543 204b 2A       		.uleb128 0x2a
 5544 204c 1C240000 		.4byte	.LASF676
 5545 2050 0150     		.2byte	0x5001
 5546 2052 2A       		.uleb128 0x2a
 5547 2053 4A1A0000 		.4byte	.LASF677
 5548 2057 0250     		.2byte	0x5002
 5549 2059 2A       		.uleb128 0x2a
 5550 205a 91080000 		.4byte	.LASF678
 5551 205e 0350     		.2byte	0x5003
 5552 2060 2A       		.uleb128 0x2a
 5553 2061 202C0000 		.4byte	.LASF679
 5554 2065 0450     		.2byte	0x5004
 5555 2067 2A       		.uleb128 0x2a
 5556 2068 39040000 		.4byte	.LASF680
 5557 206c 0550     		.2byte	0x5005
 5558 206e 2A       		.uleb128 0x2a
 5559 206f B9180000 		.4byte	.LASF681
 5560 2073 0650     		.2byte	0x5006
 5561 2075 2A       		.uleb128 0x2a
 5562 2076 BD0F0000 		.4byte	.LASF682
 5563 207a 0750     		.2byte	0x5007
 5564 207c 2A       		.uleb128 0x2a
 5565 207d D21A0000 		.4byte	.LASF683
 5566 2081 0850     		.2byte	0x5008
 5567 2083 2A       		.uleb128 0x2a
 5568 2084 501B0000 		.4byte	.LASF684
 5569 2088 0950     		.2byte	0x5009
 5570 208a 2A       		.uleb128 0x2a
 5571 208b 85300000 		.4byte	.LASF685
 5572 208f 0A50     		.2byte	0x500a
 5573 2091 2A       		.uleb128 0x2a
 5574 2092 521E0000 		.4byte	.LASF686
 5575 2096 0B50     		.2byte	0x500b
 5576 2098 2A       		.uleb128 0x2a
 5577 2099 42090000 		.4byte	.LASF687
 5578 209d 0C50     		.2byte	0x500c
 5579 209f 2A       		.uleb128 0x2a
 5580 20a0 C5130000 		.4byte	.LASF688
 5581 20a4 0D50     		.2byte	0x500d
 5582 20a6 2A       		.uleb128 0x2a
 5583 20a7 B1270000 		.4byte	.LASF689
 5584 20ab 0E50     		.2byte	0x500e
 5585 20ad 2A       		.uleb128 0x2a
 5586 20ae 98160000 		.4byte	.LASF690
 5587 20b2 0F50     		.2byte	0x500f
ARM GAS  C:\Users\ASUS\AppData\Local\Temp\ccarWmgw.s 			page 140


 5588 20b4 2A       		.uleb128 0x2a
 5589 20b5 13280000 		.4byte	.LASF691
 5590 20b9 1050     		.2byte	0x5010
 5591 20bb 2A       		.uleb128 0x2a
 5592 20bc 17060000 		.4byte	.LASF692
 5593 20c0 1150     		.2byte	0x5011
 5594 20c2 2A       		.uleb128 0x2a
 5595 20c3 9E140000 		.4byte	.LASF693
 5596 20c7 1250     		.2byte	0x5012
 5597 20c9 2A       		.uleb128 0x2a
 5598 20ca F7070000 		.4byte	.LASF694
 5599 20ce 1350     		.2byte	0x5013
 5600 20d0 2A       		.uleb128 0x2a
 5601 20d1 370E0000 		.4byte	.LASF695
 5602 20d5 1450     		.2byte	0x5014
 5603 20d7 2A       		.uleb128 0x2a
 5604 20d8 B1000000 		.4byte	.LASF696
 5605 20dc 1550     		.2byte	0x5015
 5606 20de 2A       		.uleb128 0x2a
 5607 20df D7100000 		.4byte	.LASF697
 5608 20e3 1650     		.2byte	0x5016
 5609 20e5 2A       		.uleb128 0x2a
 5610 20e6 3C310000 		.4byte	.LASF698
 5611 20ea 1750     		.2byte	0x5017
 5612 20ec 2A       		.uleb128 0x2a
 5613 20ed 08070000 		.4byte	.LASF699
 5614 20f1 1850     		.2byte	0x5018
 5615 20f3 2A       		.uleb128 0x2a
 5616 20f4 B5090000 		.4byte	.LASF700
 5617 20f8 0060     		.2byte	0x6000
 5618 20fa 2A       		.uleb128 0x2a
 5619 20fb 1A300000 		.4byte	.LASF701
 5620 20ff 0160     		.2byte	0x6001
 5621 2101 2A       		.uleb128 0x2a
 5622 2102 161A0000 		.4byte	.LASF702
 5623 2106 0260     		.2byte	0x6002
 5624 2108 2A       		.uleb128 0x2a
 5625 2109 50170000 		.4byte	.LASF703
 5626 210d 0360     		.2byte	0x6003
 5627 210f 2A       		.uleb128 0x2a
 5628 2110 4A070000 		.4byte	.LASF704
 5629 2114 0460     		.2byte	0x6004
 5630 2116 2A       		.uleb128 0x2a
 5631 2117 AD2A0000 		.4byte	.LASF705
 5632 211b 0560     		.2byte	0x6005
 5633 211d 2A       		.uleb128 0x2a
 5634 211e 871E0000 		.4byte	.LASF706
 5635 2122 0660     		.2byte	0x6006
 5636 2124 2A       		.uleb128 0x2a
 5637 2125 09200000 		.4byte	.LASF707
 5638 2129 0760     		.2byte	0x6007
 5639 212b 2A       		.uleb128 0x2a
 5640 212c 130E0000 		.4byte	.LASF708
 5641 2130 0860     		.2byte	0x6008
 5642 2132 2A       		.uleb128 0x2a
 5643 2133 D5160000 		.4byte	.LASF709
 5644 2137 0960     		.2byte	0x6009
ARM GAS  C:\Users\ASUS\AppData\Local\Temp\ccarWmgw.s 			page 141


 5645 2139 2A       		.uleb128 0x2a
 5646 213a 232E0000 		.4byte	.LASF710
 5647 213e 0A60     		.2byte	0x600a
 5648 2140 2A       		.uleb128 0x2a
 5649 2141 D2030000 		.4byte	.LASF711
 5650 2145 FFFF     		.2byte	0xffff
 5651 2147 00       		.byte	0
 5652 2148 10       		.uleb128 0x10
 5653 2149 35050000 		.4byte	0x535
 5654 214d 18       		.uleb128 0x18
 5655 214e 02       		.byte	0x2
 5656 214f 1A       		.byte	0x1a
 5657 2150 6001     		.2byte	0x160
 5658 2152 71210000 		.4byte	0x2171
 5659 2156 0A       		.uleb128 0xa
 5660 2157 69070000 		.4byte	.LASF712
 5661 215b 1A       		.byte	0x1a
 5662 215c 6A01     		.2byte	0x16a
 5663 215e 35050000 		.4byte	0x535
 5664 2162 00       		.byte	0
 5665 2163 0A       		.uleb128 0xa
 5666 2164 49100000 		.4byte	.LASF713
 5667 2168 1A       		.byte	0x1a
 5668 2169 6E01     		.2byte	0x16e
 5669 216b 35050000 		.4byte	0x535
 5670 216f 01       		.byte	0x1
 5671 2170 00       		.byte	0
 5672 2171 07       		.uleb128 0x7
 5673 2172 BF310000 		.4byte	.LASF714
 5674 2176 1A       		.byte	0x1a
 5675 2177 7001     		.2byte	0x170
 5676 2179 4D210000 		.4byte	0x214d
 5677 217d 07       		.uleb128 0x7
 5678 217e 9F0D0000 		.4byte	.LASF715
 5679 2182 1B       		.byte	0x1b
 5680 2183 7F01     		.2byte	0x17f
 5681 2185 4B050000 		.4byte	0x54b
 5682 2189 18       		.uleb128 0x18
 5683 218a 08       		.byte	0x8
 5684 218b 1B       		.byte	0x1b
 5685 218c 9401     		.2byte	0x194
 5686 218e BA210000 		.4byte	0x21ba
 5687 2192 1E       		.uleb128 0x1e
 5688 2193 76616C00 		.ascii	"val\000"
 5689 2197 1B       		.byte	0x1b
 5690 2198 9701     		.2byte	0x197
 5691 219a 3D150000 		.4byte	0x153d
 5692 219e 00       		.byte	0
 5693 219f 1E       		.uleb128 0x1e
 5694 21a0 6C656E00 		.ascii	"len\000"
 5695 21a4 1B       		.byte	0x1b
 5696 21a5 9A01     		.2byte	0x19a
 5697 21a7 4B050000 		.4byte	0x54b
 5698 21ab 04       		.byte	0x4
 5699 21ac 0A       		.uleb128 0xa
 5700 21ad 2C3B0000 		.4byte	.LASF716
 5701 21b1 1B       		.byte	0x1b
ARM GAS  C:\Users\ASUS\AppData\Local\Temp\ccarWmgw.s 			page 142


 5702 21b2 A101     		.2byte	0x1a1
 5703 21b4 4B050000 		.4byte	0x54b
 5704 21b8 06       		.byte	0x6
 5705 21b9 00       		.byte	0
 5706 21ba 07       		.uleb128 0x7
 5707 21bb 2D0A0000 		.4byte	.LASF717
 5708 21bf 1B       		.byte	0x1b
 5709 21c0 A301     		.2byte	0x1a3
 5710 21c2 89210000 		.4byte	0x2189
 5711 21c6 18       		.uleb128 0x18
 5712 21c7 0C       		.byte	0xc
 5713 21c8 1B       		.byte	0x1b
 5714 21c9 A601     		.2byte	0x1a6
 5715 21cb EA210000 		.4byte	0x21ea
 5716 21cf 0A       		.uleb128 0xa
 5717 21d0 5D090000 		.4byte	.LASF718
 5718 21d4 1B       		.byte	0x1b
 5719 21d5 A901     		.2byte	0x1a9
 5720 21d7 BA210000 		.4byte	0x21ba
 5721 21db 00       		.byte	0
 5722 21dc 0A       		.uleb128 0xa
 5723 21dd E8210000 		.4byte	.LASF719
 5724 21e1 1B       		.byte	0x1b
 5725 21e2 AC01     		.2byte	0x1ac
 5726 21e4 7D210000 		.4byte	0x217d
 5727 21e8 08       		.byte	0x8
 5728 21e9 00       		.byte	0
 5729 21ea 07       		.uleb128 0x7
 5730 21eb 7C040000 		.4byte	.LASF720
 5731 21ef 1B       		.byte	0x1b
 5732 21f0 AE01     		.2byte	0x1ae
 5733 21f2 C6210000 		.4byte	0x21c6
 5734 21f6 18       		.uleb128 0x18
 5735 21f7 10       		.byte	0x10
 5736 21f8 1B       		.byte	0x1b
 5737 21f9 D201     		.2byte	0x1d2
 5738 21fb 1A220000 		.4byte	0x221a
 5739 21ff 0A       		.uleb128 0xa
 5740 2200 99330000 		.4byte	.LASF721
 5741 2204 1B       		.byte	0x1b
 5742 2205 D501     		.2byte	0x1d5
 5743 2207 EA210000 		.4byte	0x21ea
 5744 220b 00       		.byte	0
 5745 220c 0A       		.uleb128 0xa
 5746 220d 1A2F0000 		.4byte	.LASF722
 5747 2211 1B       		.byte	0x1b
 5748 2212 D801     		.2byte	0x1d8
 5749 2214 71210000 		.4byte	0x2171
 5750 2218 0C       		.byte	0xc
 5751 2219 00       		.byte	0
 5752 221a 07       		.uleb128 0x7
 5753 221b 29200000 		.4byte	.LASF723
 5754 221f 1B       		.byte	0x1b
 5755 2220 DA01     		.2byte	0x1da
 5756 2222 F6210000 		.4byte	0x21f6
 5757 2226 02       		.uleb128 0x2
 5758 2227 01       		.byte	0x1
ARM GAS  C:\Users\ASUS\AppData\Local\Temp\ccarWmgw.s 			page 143


 5759 2228 B3040000 		.4byte	0x4b3
 5760 222c 1C       		.byte	0x1c
 5761 222d 69       		.byte	0x69
 5762 222e 45220000 		.4byte	0x2245
 5763 2232 04       		.uleb128 0x4
 5764 2233 721E0000 		.4byte	.LASF724
 5765 2237 00       		.byte	0
 5766 2238 04       		.uleb128 0x4
 5767 2239 DC3D0000 		.4byte	.LASF725
 5768 223d 01       		.byte	0x1
 5769 223e 04       		.uleb128 0x4
 5770 223f 53060000 		.4byte	.LASF726
 5771 2243 02       		.byte	0x2
 5772 2244 00       		.byte	0
 5773 2245 06       		.uleb128 0x6
 5774 2246 393A0000 		.4byte	.LASF727
 5775 224a 1C       		.byte	0x1c
 5776 224b 70       		.byte	0x70
 5777 224c 26220000 		.4byte	0x2226
 5778 2250 02       		.uleb128 0x2
 5779 2251 01       		.byte	0x1
 5780 2252 B3040000 		.4byte	0x4b3
 5781 2256 1C       		.byte	0x1c
 5782 2257 7E       		.byte	0x7e
 5783 2258 75220000 		.4byte	0x2275
 5784 225c 04       		.uleb128 0x4
 5785 225d 89240000 		.4byte	.LASF728
 5786 2261 00       		.byte	0
 5787 2262 04       		.uleb128 0x4
 5788 2263 940B0000 		.4byte	.LASF729
 5789 2267 01       		.byte	0x1
 5790 2268 04       		.uleb128 0x4
 5791 2269 BB020000 		.4byte	.LASF730
 5792 226d 02       		.byte	0x2
 5793 226e 04       		.uleb128 0x4
 5794 226f BC2D0000 		.4byte	.LASF731
 5795 2273 03       		.byte	0x3
 5796 2274 00       		.byte	0
 5797 2275 06       		.uleb128 0x6
 5798 2276 07250000 		.4byte	.LASF732
 5799 227a 1C       		.byte	0x1c
 5800 227b 83       		.byte	0x83
 5801 227c 50220000 		.4byte	0x2250
 5802 2280 02       		.uleb128 0x2
 5803 2281 01       		.byte	0x1
 5804 2282 B3040000 		.4byte	0x4b3
 5805 2286 1C       		.byte	0x1c
 5806 2287 87       		.byte	0x87
 5807 2288 BD220000 		.4byte	0x22bd
 5808 228c 04       		.uleb128 0x4
 5809 228d B8220000 		.4byte	.LASF733
 5810 2291 00       		.byte	0
 5811 2292 04       		.uleb128 0x4
 5812 2293 47220000 		.4byte	.LASF734
 5813 2297 01       		.byte	0x1
 5814 2298 04       		.uleb128 0x4
 5815 2299 87320000 		.4byte	.LASF735
ARM GAS  C:\Users\ASUS\AppData\Local\Temp\ccarWmgw.s 			page 144


 5816 229d 02       		.byte	0x2
 5817 229e 04       		.uleb128 0x4
 5818 229f D31B0000 		.4byte	.LASF736
 5819 22a3 03       		.byte	0x3
 5820 22a4 04       		.uleb128 0x4
 5821 22a5 B1230000 		.4byte	.LASF737
 5822 22a9 04       		.byte	0x4
 5823 22aa 04       		.uleb128 0x4
 5824 22ab 7D0F0000 		.4byte	.LASF738
 5825 22af 05       		.byte	0x5
 5826 22b0 04       		.uleb128 0x4
 5827 22b1 90020000 		.4byte	.LASF739
 5828 22b5 06       		.byte	0x6
 5829 22b6 04       		.uleb128 0x4
 5830 22b7 DF080000 		.4byte	.LASF740
 5831 22bb 07       		.byte	0x7
 5832 22bc 00       		.byte	0
 5833 22bd 06       		.uleb128 0x6
 5834 22be 192D0000 		.4byte	.LASF741
 5835 22c2 1C       		.byte	0x1c
 5836 22c3 90       		.byte	0x90
 5837 22c4 80220000 		.4byte	0x2280
 5838 22c8 06       		.uleb128 0x6
 5839 22c9 D3380000 		.4byte	.LASF742
 5840 22cd 1D       		.byte	0x1d
 5841 22ce 74       		.byte	0x74
 5842 22cf 1A220000 		.4byte	0x221a
 5843 22d3 16       		.uleb128 0x16
 5844 22d4 04       		.byte	0x4
 5845 22d5 4B050000 		.4byte	0x54b
 5846 22d9 10       		.uleb128 0x10
 5847 22da 1D100000 		.4byte	0x101d
 5848 22de 2B       		.uleb128 0x2b
 5849 22df 9C220000 		.4byte	.LASF743
 5850 22e3 04       		.byte	0x4
 5851 22e4 5202     		.2byte	0x252
 5852 22e6 88130000 		.4byte	0x1388
 5853 22ea 03       		.byte	0x3
 5854 22eb FC220000 		.4byte	0x22fc
 5855 22ef 2C       		.uleb128 0x2c
 5856 22f0 72070000 		.4byte	.LASF745
 5857 22f4 04       		.byte	0x4
 5858 22f5 5202     		.2byte	0x252
 5859 22f7 61050000 		.4byte	0x561
 5860 22fb 00       		.byte	0
 5861 22fc 2B       		.uleb128 0x2b
 5862 22fd E00C0000 		.4byte	.LASF744
 5863 2301 04       		.byte	0x4
 5864 2302 5F02     		.2byte	0x25f
 5865 2304 88130000 		.4byte	0x1388
 5866 2308 03       		.byte	0x3
 5867 2309 32230000 		.4byte	0x2332
 5868 230d 2C       		.uleb128 0x2c
 5869 230e 960C0000 		.4byte	.LASF746
 5870 2312 04       		.byte	0x4
 5871 2313 5F02     		.2byte	0x25f
 5872 2315 D4130000 		.4byte	0x13d4
ARM GAS  C:\Users\ASUS\AppData\Local\Temp\ccarWmgw.s 			page 145


 5873 2319 2C       		.uleb128 0x2c
 5874 231a 25330000 		.4byte	.LASF747
 5875 231e 04       		.byte	0x4
 5876 231f 5F02     		.2byte	0x25f
 5877 2321 3D150000 		.4byte	0x153d
 5878 2325 2C       		.uleb128 0x2c
 5879 2326 72070000 		.4byte	.LASF745
 5880 232a 04       		.byte	0x4
 5881 232b 5F02     		.2byte	0x25f
 5882 232d 61050000 		.4byte	0x561
 5883 2331 00       		.byte	0
 5884 2332 2B       		.uleb128 0x2b
 5885 2333 D8310000 		.4byte	.LASF748
 5886 2337 04       		.byte	0x4
 5887 2338 4502     		.2byte	0x245
 5888 233a 88130000 		.4byte	0x1388
 5889 233e 03       		.byte	0x3
 5890 233f 68230000 		.4byte	0x2368
 5891 2343 2C       		.uleb128 0x2c
 5892 2344 33190000 		.4byte	.LASF749
 5893 2348 04       		.byte	0x4
 5894 2349 4502     		.2byte	0x245
 5895 234b 61050000 		.4byte	0x561
 5896 234f 2C       		.uleb128 0x2c
 5897 2350 74210000 		.4byte	.LASF750
 5898 2354 04       		.byte	0x4
 5899 2355 4502     		.2byte	0x245
 5900 2357 AE130000 		.4byte	0x13ae
 5901 235b 2C       		.uleb128 0x2c
 5902 235c 72070000 		.4byte	.LASF745
 5903 2360 04       		.byte	0x4
 5904 2361 4502     		.2byte	0x245
 5905 2363 61050000 		.4byte	0x561
 5906 2367 00       		.byte	0
 5907 2368 2B       		.uleb128 0x2b
 5908 2369 821A0000 		.4byte	.LASF751
 5909 236d 04       		.byte	0x4
 5910 236e 6C02     		.2byte	0x26c
 5911 2370 88130000 		.4byte	0x1388
 5912 2374 03       		.byte	0x3
 5913 2375 92230000 		.4byte	0x2392
 5914 2379 2C       		.uleb128 0x2c
 5915 237a 25330000 		.4byte	.LASF747
 5916 237e 04       		.byte	0x4
 5917 237f 6C02     		.2byte	0x26c
 5918 2381 35050000 		.4byte	0x535
 5919 2385 2C       		.uleb128 0x2c
 5920 2386 72070000 		.4byte	.LASF745
 5921 238a 04       		.byte	0x4
 5922 238b 6C02     		.2byte	0x26c
 5923 238d 61050000 		.4byte	0x561
 5924 2391 00       		.byte	0
 5925 2392 2B       		.uleb128 0x2b
 5926 2393 20140000 		.4byte	.LASF752
 5927 2397 04       		.byte	0x4
 5928 2398 3802     		.2byte	0x238
 5929 239a 88130000 		.4byte	0x1388
ARM GAS  C:\Users\ASUS\AppData\Local\Temp\ccarWmgw.s 			page 146


 5930 239e 03       		.byte	0x3
 5931 239f C8230000 		.4byte	0x23c8
 5932 23a3 2C       		.uleb128 0x2c
 5933 23a4 33190000 		.4byte	.LASF749
 5934 23a8 04       		.byte	0x4
 5935 23a9 3802     		.2byte	0x238
 5936 23ab 61050000 		.4byte	0x561
 5937 23af 2C       		.uleb128 0x2c
 5938 23b0 74210000 		.4byte	.LASF750
 5939 23b4 04       		.byte	0x4
 5940 23b5 3802     		.2byte	0x238
 5941 23b7 AE130000 		.4byte	0x13ae
 5942 23bb 2C       		.uleb128 0x2c
 5943 23bc 72070000 		.4byte	.LASF745
 5944 23c0 04       		.byte	0x4
 5945 23c1 3802     		.2byte	0x238
 5946 23c3 61050000 		.4byte	0x561
 5947 23c7 00       		.byte	0
 5948 23c8 2D       		.uleb128 0x2d
 5949 23c9 7B210000 		.4byte	.LASF840
 5950 23cd 06       		.byte	0x6
 5951 23ce DD02     		.2byte	0x2dd
 5952 23d0 03       		.byte	0x3
 5953 23d1 E2230000 		.4byte	0x23e2
 5954 23d5 2C       		.uleb128 0x2c
 5955 23d6 860A0000 		.4byte	.LASF753
 5956 23da 06       		.byte	0x6
 5957 23db DD02     		.2byte	0x2dd
 5958 23dd 23010000 		.4byte	0x123
 5959 23e1 00       		.byte	0
 5960 23e2 2E       		.uleb128 0x2e
 5961 23e3 22370000 		.4byte	.LASF841
 5962 23e7 08       		.byte	0x8
 5963 23e8 81       		.byte	0x81
 5964 23e9 03       		.byte	0x3
 5965 23ea 2F       		.uleb128 0x2f
 5966 23eb A4170000 		.4byte	.LASF756
 5967 23ef 01       		.byte	0x1
 5968 23f0 11       		.byte	0x11
 5969 23f1 00000000 		.4byte	.LFB462
 5970 23f5 44000000 		.4byte	.LFE462-.LFB462
 5971 23f9 01       		.uleb128 0x1
 5972 23fa 9C       		.byte	0x9c
 5973 23fb 58240000 		.4byte	0x2458
 5974 23ff 30       		.uleb128 0x30
 5975 2400 D7210000 		.4byte	.LASF754
 5976 2404 01       		.byte	0x1
 5977 2405 11       		.byte	0x11
 5978 2406 61050000 		.4byte	0x561
 5979 240a 00000000 		.4byte	.LLST0
 5980 240e 30       		.uleb128 0x30
 5981 240f 49160000 		.4byte	.LASF755
 5982 2413 01       		.byte	0x1
 5983 2414 11       		.byte	0x11
 5984 2415 43100000 		.4byte	0x1043
 5985 2419 3A000000 		.4byte	.LLST1
 5986 241d 31       		.uleb128 0x31
ARM GAS  C:\Users\ASUS\AppData\Local\Temp\ccarWmgw.s 			page 147


 5987 241e 20000000 		.4byte	.LBB46
 5988 2422 14000000 		.4byte	.LBE46-.LBB46
 5989 2426 43240000 		.4byte	0x2443
 5990 242a 32       		.uleb128 0x32
 5991 242b 81170000 		.4byte	.LASF759
 5992 242f 01       		.byte	0x1
 5993 2430 21       		.byte	0x21
 5994 2431 58240000 		.4byte	0x2458
 5995 2435 74000000 		.4byte	.LLST2
 5996 2439 33       		.uleb128 0x33
 5997 243a 34000000 		.4byte	.LVL6
 5998 243e 1A360000 		.4byte	0x361a
 5999 2442 00       		.byte	0
 6000 2443 34       		.uleb128 0x34
 6001 2444 1E000000 		.4byte	.LVL3
 6002 2448 26360000 		.4byte	0x3626
 6003 244c 35       		.uleb128 0x35
 6004 244d 01       		.uleb128 0x1
 6005 244e 50       		.byte	0x50
 6006 244f 01       		.uleb128 0x1
 6007 2450 30       		.byte	0x30
 6008 2451 35       		.uleb128 0x35
 6009 2452 01       		.uleb128 0x1
 6010 2453 51       		.byte	0x51
 6011 2454 01       		.uleb128 0x1
 6012 2455 30       		.byte	0x30
 6013 2456 00       		.byte	0
 6014 2457 00       		.byte	0
 6015 2458 16       		.uleb128 0x16
 6016 2459 04       		.byte	0x4
 6017 245a C8220000 		.4byte	0x22c8
 6018 245e 36       		.uleb128 0x36
 6019 245f 932A0000 		.4byte	.LASF842
 6020 2463 01       		.byte	0x1
 6021 2464 2C       		.byte	0x2c
 6022 2465 00000000 		.4byte	.LFB463
 6023 2469 08000000 		.4byte	.LFE463-.LFB463
 6024 246d 01       		.uleb128 0x1
 6025 246e 9C       		.byte	0x9c
 6026 246f 7D240000 		.4byte	0x247d
 6027 2473 33       		.uleb128 0x33
 6028 2474 06000000 		.4byte	.LVL7
 6029 2478 32360000 		.4byte	0x3632
 6030 247c 00       		.byte	0
 6031 247d 2F       		.uleb128 0x2f
 6032 247e F3240000 		.4byte	.LASF757
 6033 2482 02       		.byte	0x2
 6034 2483 C1       		.byte	0xc1
 6035 2484 00000000 		.4byte	.LFB478
 6036 2488 0C000000 		.4byte	.LFE478-.LFB478
 6037 248c 01       		.uleb128 0x1
 6038 248d 9C       		.byte	0x9c
 6039 248e A7240000 		.4byte	0x24a7
 6040 2492 34       		.uleb128 0x34
 6041 2493 0A000000 		.4byte	.LVL8
 6042 2497 3E360000 		.4byte	0x363e
 6043 249b 35       		.uleb128 0x35
ARM GAS  C:\Users\ASUS\AppData\Local\Temp\ccarWmgw.s 			page 148


 6044 249c 01       		.uleb128 0x1
 6045 249d 50       		.byte	0x50
 6046 249e 01       		.uleb128 0x1
 6047 249f 30       		.byte	0x30
 6048 24a0 35       		.uleb128 0x35
 6049 24a1 01       		.uleb128 0x1
 6050 24a2 51       		.byte	0x51
 6051 24a3 01       		.uleb128 0x1
 6052 24a4 30       		.byte	0x30
 6053 24a5 00       		.byte	0
 6054 24a6 00       		.byte	0
 6055 24a7 2F       		.uleb128 0x2f
 6056 24a8 B2310000 		.4byte	.LASF758
 6057 24ac 01       		.byte	0x1
 6058 24ad 30       		.byte	0x30
 6059 24ae 00000000 		.4byte	.LFB464
 6060 24b2 68000000 		.4byte	.LFE464-.LFB464
 6061 24b6 01       		.uleb128 0x1
 6062 24b7 9C       		.byte	0x9c
 6063 24b8 63250000 		.4byte	0x2563
 6064 24bc 37       		.uleb128 0x37
 6065 24bd 6900     		.ascii	"i\000"
 6066 24bf 01       		.byte	0x1
 6067 24c0 32       		.byte	0x32
 6068 24c1 27050000 		.4byte	0x527
 6069 24c5 95000000 		.4byte	.LLST3
 6070 24c9 31       		.uleb128 0x31
 6071 24ca 20000000 		.4byte	.LBB47
 6072 24ce 30000000 		.4byte	.LBE47-.LBB47
 6073 24d2 2F250000 		.4byte	0x252f
 6074 24d6 38       		.uleb128 0x38
 6075 24d7 82070000 		.4byte	.LASF760
 6076 24db 01       		.byte	0x1
 6077 24dc 41       		.byte	0x41
 6078 24dd EA210000 		.4byte	0x21ea
 6079 24e1 02       		.uleb128 0x2
 6080 24e2 91       		.byte	0x91
 6081 24e3 64       		.sleb128 -28
 6082 24e4 38       		.uleb128 0x38
 6083 24e5 C6330000 		.4byte	.LASF761
 6084 24e9 01       		.byte	0x1
 6085 24ea 42       		.byte	0x42
 6086 24eb BA210000 		.4byte	0x21ba
 6087 24ef 02       		.uleb128 0x2
 6088 24f0 91       		.byte	0x91
 6089 24f1 5C       		.sleb128 -36
 6090 24f2 39       		.uleb128 0x39
 6091 24f3 28000000 		.4byte	.LVL15
 6092 24f7 4A360000 		.4byte	0x364a
 6093 24fb 09250000 		.4byte	0x2509
 6094 24ff 35       		.uleb128 0x35
 6095 2500 01       		.uleb128 0x1
 6096 2501 50       		.byte	0x50
 6097 2502 05       		.uleb128 0x5
 6098 2503 03       		.byte	0x3
 6099 2504 00000000 		.4byte	.LC4
 6100 2508 00       		.byte	0
ARM GAS  C:\Users\ASUS\AppData\Local\Temp\ccarWmgw.s 			page 149


 6101 2509 39       		.uleb128 0x39
 6102 250a 42000000 		.4byte	.LVL16
 6103 250e 59360000 		.4byte	0x3659
 6104 2512 1D250000 		.4byte	0x251d
 6105 2516 35       		.uleb128 0x35
 6106 2517 01       		.uleb128 0x1
 6107 2518 50       		.byte	0x50
 6108 2519 02       		.uleb128 0x2
 6109 251a 91       		.byte	0x91
 6110 251b 64       		.sleb128 -28
 6111 251c 00       		.byte	0
 6112 251d 34       		.uleb128 0x34
 6113 251e 4C000000 		.4byte	.LVL17
 6114 2522 64360000 		.4byte	0x3664
 6115 2526 35       		.uleb128 0x35
 6116 2527 01       		.uleb128 0x1
 6117 2528 50       		.byte	0x50
 6118 2529 03       		.uleb128 0x3
 6119 252a 0A       		.byte	0xa
 6120 252b E803     		.2byte	0x3e8
 6121 252d 00       		.byte	0
 6122 252e 00       		.byte	0
 6123 252f 39       		.uleb128 0x39
 6124 2530 0A000000 		.4byte	.LVL10
 6125 2534 70360000 		.4byte	0x3670
 6126 2538 46250000 		.4byte	0x2546
 6127 253c 35       		.uleb128 0x35
 6128 253d 01       		.uleb128 0x1
 6129 253e 50       		.byte	0x50
 6130 253f 05       		.uleb128 0x5
 6131 2540 03       		.byte	0x3
 6132 2541 00000000 		.4byte	genericEventHandler
 6133 2545 00       		.byte	0
 6134 2546 33       		.uleb128 0x33
 6135 2547 10000000 		.4byte	.LVL11
 6136 254b 32360000 		.4byte	0x3632
 6137 254f 34       		.uleb128 0x34
 6138 2550 1E000000 		.4byte	.LVL12
 6139 2554 7B360000 		.4byte	0x367b
 6140 2558 35       		.uleb128 0x35
 6141 2559 01       		.uleb128 0x1
 6142 255a 50       		.byte	0x50
 6143 255b 05       		.uleb128 0x5
 6144 255c 03       		.byte	0x3
 6145 255d 00000000 		.4byte	bleInterruptNotify
 6146 2561 00       		.byte	0
 6147 2562 00       		.byte	0
 6148 2563 3A       		.uleb128 0x3a
 6149 2564 A4000000 		.4byte	.LASF776
 6150 2568 03       		.byte	0x3
 6151 2569 41       		.byte	0x41
 6152 256a 4B050000 		.4byte	0x54b
 6153 256e 00000000 		.4byte	.LFB465
 6154 2572 C8000000 		.4byte	.LFE465-.LFB465
 6155 2576 01       		.uleb128 0x1
 6156 2577 9C       		.byte	0x9c
 6157 2578 50280000 		.4byte	0x2850
ARM GAS  C:\Users\ASUS\AppData\Local\Temp\ccarWmgw.s 			page 150


 6158 257c 3B       		.uleb128 0x3b
 6159 257d 72656700 		.ascii	"reg\000"
 6160 2581 03       		.byte	0x3
 6161 2582 41       		.byte	0x41
 6162 2583 35050000 		.4byte	0x535
 6163 2587 B4000000 		.4byte	.LLST4
 6164 258b 38       		.uleb128 0x38
 6165 258c 03090000 		.4byte	.LASF762
 6166 2590 03       		.byte	0x3
 6167 2591 43       		.byte	0x43
 6168 2592 50280000 		.4byte	0x2850
 6169 2596 02       		.uleb128 0x2
 6170 2597 91       		.byte	0x91
 6171 2598 64       		.sleb128 -28
 6172 2599 38       		.uleb128 0x38
 6173 259a 08090000 		.4byte	.LASF763
 6174 259e 03       		.byte	0x3
 6175 259f 44       		.byte	0x44
 6176 25a0 50280000 		.4byte	0x2850
 6177 25a4 02       		.uleb128 0x2
 6178 25a5 91       		.byte	0x91
 6179 25a6 60       		.sleb128 -32
 6180 25a7 38       		.uleb128 0x38
 6181 25a8 0D090000 		.4byte	.LASF764
 6182 25ac 03       		.byte	0x3
 6183 25ad 45       		.byte	0x45
 6184 25ae 50280000 		.4byte	0x2850
 6185 25b2 02       		.uleb128 0x2
 6186 25b3 91       		.byte	0x91
 6187 25b4 5C       		.sleb128 -36
 6188 25b5 38       		.uleb128 0x38
 6189 25b6 12090000 		.4byte	.LASF765
 6190 25ba 03       		.byte	0x3
 6191 25bb 46       		.byte	0x46
 6192 25bc 50280000 		.4byte	0x2850
 6193 25c0 02       		.uleb128 0x2
 6194 25c1 91       		.byte	0x91
 6195 25c2 58       		.sleb128 -40
 6196 25c3 38       		.uleb128 0x38
 6197 25c4 17090000 		.4byte	.LASF766
 6198 25c8 03       		.byte	0x3
 6199 25c9 47       		.byte	0x47
 6200 25ca 50280000 		.4byte	0x2850
 6201 25ce 02       		.uleb128 0x2
 6202 25cf 91       		.byte	0x91
 6203 25d0 54       		.sleb128 -44
 6204 25d1 38       		.uleb128 0x38
 6205 25d2 1C090000 		.4byte	.LASF767
 6206 25d6 03       		.byte	0x3
 6207 25d7 48       		.byte	0x48
 6208 25d8 50280000 		.4byte	0x2850
 6209 25dc 02       		.uleb128 0x2
 6210 25dd 91       		.byte	0x91
 6211 25de 50       		.sleb128 -48
 6212 25df 38       		.uleb128 0x38
 6213 25e0 313A0000 		.4byte	.LASF768
 6214 25e4 03       		.byte	0x3
ARM GAS  C:\Users\ASUS\AppData\Local\Temp\ccarWmgw.s 			page 151


 6215 25e5 49       		.byte	0x49
 6216 25e6 F4060000 		.4byte	0x6f4
 6217 25ea 02       		.uleb128 0x2
 6218 25eb 91       		.byte	0x91
 6219 25ec 4C       		.sleb128 -52
 6220 25ed 3C       		.uleb128 0x3c
 6221 25ee 92230000 		.4byte	0x2392
 6222 25f2 1A000000 		.4byte	.LBB48
 6223 25f6 12000000 		.4byte	.LBE48-.LBB48
 6224 25fa 03       		.byte	0x3
 6225 25fb 4C       		.byte	0x4c
 6226 25fc 49260000 		.4byte	0x2649
 6227 2600 3D       		.uleb128 0x3d
 6228 2601 BB230000 		.4byte	0x23bb
 6229 2605 D5000000 		.4byte	.LLST5
 6230 2609 3D       		.uleb128 0x3d
 6231 260a AF230000 		.4byte	0x23af
 6232 260e EA000000 		.4byte	.LLST6
 6233 2612 3D       		.uleb128 0x3d
 6234 2613 A3230000 		.4byte	0x23a3
 6235 2617 FE000000 		.4byte	.LLST7
 6236 261b 34       		.uleb128 0x34
 6237 261c 2C000000 		.4byte	.LVL22
 6238 2620 87360000 		.4byte	0x3687
 6239 2624 35       		.uleb128 0x35
 6240 2625 01       		.uleb128 0x1
 6241 2626 50       		.byte	0x50
 6242 2627 02       		.uleb128 0x2
 6243 2628 74       		.byte	0x74
 6244 2629 00       		.sleb128 0
 6245 262a 35       		.uleb128 0x35
 6246 262b 01       		.uleb128 0x1
 6247 262c 51       		.byte	0x51
 6248 262d 02       		.uleb128 0x2
 6249 262e 08       		.byte	0x8
 6250 262f 74       		.byte	0x74
 6251 2630 35       		.uleb128 0x35
 6252 2631 01       		.uleb128 0x1
 6253 2632 52       		.byte	0x52
 6254 2633 03       		.uleb128 0x3
 6255 2634 91       		.byte	0x91
 6256 2635 50       		.sleb128 -48
 6257 2636 06       		.byte	0x6
 6258 2637 35       		.uleb128 0x35
 6259 2638 01       		.uleb128 0x1
 6260 2639 53       		.byte	0x53
 6261 263a 05       		.uleb128 0x5
 6262 263b 91       		.byte	0x91
 6263 263c 50       		.sleb128 -48
 6264 263d 06       		.byte	0x6
 6265 263e 23       		.byte	0x23
 6266 263f 64       		.uleb128 0x64
 6267 2640 35       		.uleb128 0x35
 6268 2641 02       		.uleb128 0x2
 6269 2642 7D       		.byte	0x7d
 6270 2643 00       		.sleb128 0
 6271 2644 02       		.uleb128 0x2
ARM GAS  C:\Users\ASUS\AppData\Local\Temp\ccarWmgw.s 			page 152


 6272 2645 77       		.byte	0x77
 6273 2646 00       		.sleb128 0
 6274 2647 00       		.byte	0
 6275 2648 00       		.byte	0
 6276 2649 3C       		.uleb128 0x3c
 6277 264a 68230000 		.4byte	0x2368
 6278 264e 34000000 		.4byte	.LBB50
 6279 2652 0C000000 		.4byte	.LBE50-.LBB50
 6280 2656 03       		.byte	0x3
 6281 2657 4F       		.byte	0x4f
 6282 2658 91260000 		.4byte	0x2691
 6283 265c 3D       		.uleb128 0x3d
 6284 265d 85230000 		.4byte	0x2385
 6285 2661 13010000 		.4byte	.LLST8
 6286 2665 3D       		.uleb128 0x3d
 6287 2666 79230000 		.4byte	0x2379
 6288 266a 28010000 		.4byte	.LLST9
 6289 266e 34       		.uleb128 0x34
 6290 266f 40000000 		.4byte	.LVL24
 6291 2673 93360000 		.4byte	0x3693
 6292 2677 35       		.uleb128 0x35
 6293 2678 01       		.uleb128 0x1
 6294 2679 50       		.byte	0x50
 6295 267a 02       		.uleb128 0x2
 6296 267b 74       		.byte	0x74
 6297 267c 00       		.sleb128 0
 6298 267d 35       		.uleb128 0x35
 6299 267e 01       		.uleb128 0x1
 6300 267f 51       		.byte	0x51
 6301 2680 02       		.uleb128 0x2
 6302 2681 76       		.byte	0x76
 6303 2682 00       		.sleb128 0
 6304 2683 35       		.uleb128 0x35
 6305 2684 01       		.uleb128 0x1
 6306 2685 52       		.byte	0x52
 6307 2686 02       		.uleb128 0x2
 6308 2687 08       		.byte	0x8
 6309 2688 64       		.byte	0x64
 6310 2689 35       		.uleb128 0x35
 6311 268a 01       		.uleb128 0x1
 6312 268b 53       		.byte	0x53
 6313 268c 02       		.uleb128 0x2
 6314 268d 77       		.byte	0x77
 6315 268e 00       		.sleb128 0
 6316 268f 00       		.byte	0
 6317 2690 00       		.byte	0
 6318 2691 3C       		.uleb128 0x3c
 6319 2692 32230000 		.4byte	0x2332
 6320 2696 48000000 		.4byte	.LBB52
 6321 269a 0E000000 		.4byte	.LBE52-.LBB52
 6322 269e 03       		.byte	0x3
 6323 269f 52       		.byte	0x52
 6324 26a0 E8260000 		.4byte	0x26e8
 6325 26a4 3D       		.uleb128 0x3d
 6326 26a5 5B230000 		.4byte	0x235b
 6327 26a9 3B010000 		.4byte	.LLST10
 6328 26ad 3D       		.uleb128 0x3d
ARM GAS  C:\Users\ASUS\AppData\Local\Temp\ccarWmgw.s 			page 153


 6329 26ae 4F230000 		.4byte	0x234f
 6330 26b2 50010000 		.4byte	.LLST11
 6331 26b6 3D       		.uleb128 0x3d
 6332 26b7 43230000 		.4byte	0x2343
 6333 26bb 64010000 		.4byte	.LLST12
 6334 26bf 34       		.uleb128 0x34
 6335 26c0 56000000 		.4byte	.LVL26
 6336 26c4 9F360000 		.4byte	0x369f
 6337 26c8 35       		.uleb128 0x35
 6338 26c9 01       		.uleb128 0x1
 6339 26ca 50       		.byte	0x50
 6340 26cb 02       		.uleb128 0x2
 6341 26cc 74       		.byte	0x74
 6342 26cd 00       		.sleb128 0
 6343 26ce 35       		.uleb128 0x35
 6344 26cf 01       		.uleb128 0x1
 6345 26d0 51       		.byte	0x51
 6346 26d1 02       		.uleb128 0x2
 6347 26d2 08       		.byte	0x8
 6348 26d3 74       		.byte	0x74
 6349 26d4 35       		.uleb128 0x35
 6350 26d5 01       		.uleb128 0x1
 6351 26d6 52       		.byte	0x52
 6352 26d7 01       		.uleb128 0x1
 6353 26d8 31       		.byte	0x31
 6354 26d9 35       		.uleb128 0x35
 6355 26da 01       		.uleb128 0x1
 6356 26db 53       		.byte	0x53
 6357 26dc 02       		.uleb128 0x2
 6358 26dd 08       		.byte	0x8
 6359 26de 64       		.byte	0x64
 6360 26df 35       		.uleb128 0x35
 6361 26e0 02       		.uleb128 0x2
 6362 26e1 7D       		.byte	0x7d
 6363 26e2 00       		.sleb128 0
 6364 26e3 02       		.uleb128 0x2
 6365 26e4 77       		.byte	0x77
 6366 26e5 00       		.sleb128 0
 6367 26e6 00       		.byte	0
 6368 26e7 00       		.byte	0
 6369 26e8 3C       		.uleb128 0x3c
 6370 26e9 FC220000 		.4byte	0x22fc
 6371 26ed 5E000000 		.4byte	.LBB54
 6372 26f1 0E000000 		.4byte	.LBE54-.LBB54
 6373 26f5 03       		.byte	0x3
 6374 26f6 55       		.byte	0x55
 6375 26f7 3F270000 		.4byte	0x273f
 6376 26fb 3D       		.uleb128 0x3d
 6377 26fc 25230000 		.4byte	0x2325
 6378 2700 79010000 		.4byte	.LLST13
 6379 2704 3D       		.uleb128 0x3d
 6380 2705 19230000 		.4byte	0x2319
 6381 2709 8E010000 		.4byte	.LLST14
 6382 270d 3D       		.uleb128 0x3d
 6383 270e 0D230000 		.4byte	0x230d
 6384 2712 A1010000 		.4byte	.LLST15
 6385 2716 34       		.uleb128 0x34
ARM GAS  C:\Users\ASUS\AppData\Local\Temp\ccarWmgw.s 			page 154


 6386 2717 6C000000 		.4byte	.LVL28
 6387 271b AB360000 		.4byte	0x36ab
 6388 271f 35       		.uleb128 0x35
 6389 2720 01       		.uleb128 0x1
 6390 2721 50       		.byte	0x50
 6391 2722 02       		.uleb128 0x2
 6392 2723 74       		.byte	0x74
 6393 2724 00       		.sleb128 0
 6394 2725 35       		.uleb128 0x35
 6395 2726 01       		.uleb128 0x1
 6396 2727 51       		.byte	0x51
 6397 2728 01       		.uleb128 0x1
 6398 2729 30       		.byte	0x30
 6399 272a 35       		.uleb128 0x35
 6400 272b 01       		.uleb128 0x1
 6401 272c 52       		.byte	0x52
 6402 272d 02       		.uleb128 0x2
 6403 272e 75       		.byte	0x75
 6404 272f 00       		.sleb128 0
 6405 2730 35       		.uleb128 0x35
 6406 2731 01       		.uleb128 0x1
 6407 2732 53       		.byte	0x53
 6408 2733 02       		.uleb128 0x2
 6409 2734 08       		.byte	0x8
 6410 2735 64       		.byte	0x64
 6411 2736 35       		.uleb128 0x35
 6412 2737 02       		.uleb128 0x2
 6413 2738 7D       		.byte	0x7d
 6414 2739 00       		.sleb128 0
 6415 273a 02       		.uleb128 0x2
 6416 273b 77       		.byte	0x77
 6417 273c 00       		.sleb128 0
 6418 273d 00       		.byte	0
 6419 273e 00       		.byte	0
 6420 273f 3C       		.uleb128 0x3c
 6421 2740 FC220000 		.4byte	0x22fc
 6422 2744 74000000 		.4byte	.LBB56
 6423 2748 10000000 		.4byte	.LBE56-.LBB56
 6424 274c 03       		.byte	0x3
 6425 274d 57       		.byte	0x57
 6426 274e 96270000 		.4byte	0x2796
 6427 2752 3D       		.uleb128 0x3d
 6428 2753 25230000 		.4byte	0x2325
 6429 2757 B5010000 		.4byte	.LLST16
 6430 275b 3D       		.uleb128 0x3d
 6431 275c 19230000 		.4byte	0x2319
 6432 2760 CA010000 		.4byte	.LLST17
 6433 2764 3D       		.uleb128 0x3d
 6434 2765 0D230000 		.4byte	0x230d
 6435 2769 DF010000 		.4byte	.LLST18
 6436 276d 34       		.uleb128 0x34
 6437 276e 84000000 		.4byte	.LVL30
 6438 2772 AB360000 		.4byte	0x36ab
 6439 2776 35       		.uleb128 0x35
 6440 2777 01       		.uleb128 0x1
 6441 2778 50       		.byte	0x50
 6442 2779 02       		.uleb128 0x2
ARM GAS  C:\Users\ASUS\AppData\Local\Temp\ccarWmgw.s 			page 155


 6443 277a 74       		.byte	0x74
 6444 277b 00       		.sleb128 0
 6445 277c 35       		.uleb128 0x35
 6446 277d 01       		.uleb128 0x1
 6447 277e 51       		.byte	0x51
 6448 277f 01       		.uleb128 0x1
 6449 2780 31       		.byte	0x31
 6450 2781 35       		.uleb128 0x35
 6451 2782 01       		.uleb128 0x1
 6452 2783 52       		.byte	0x52
 6453 2784 02       		.uleb128 0x2
 6454 2785 91       		.byte	0x91
 6455 2786 4D       		.sleb128 -51
 6456 2787 35       		.uleb128 0x35
 6457 2788 01       		.uleb128 0x1
 6458 2789 53       		.byte	0x53
 6459 278a 02       		.uleb128 0x2
 6460 278b 08       		.byte	0x8
 6461 278c 64       		.byte	0x64
 6462 278d 35       		.uleb128 0x35
 6463 278e 02       		.uleb128 0x2
 6464 278f 7D       		.byte	0x7d
 6465 2790 00       		.sleb128 0
 6466 2791 02       		.uleb128 0x2
 6467 2792 77       		.byte	0x77
 6468 2793 00       		.sleb128 0
 6469 2794 00       		.byte	0
 6470 2795 00       		.byte	0
 6471 2796 3C       		.uleb128 0x3c
 6472 2797 DE220000 		.4byte	0x22de
 6473 279b 8C000000 		.4byte	.LBB58
 6474 279f 0A000000 		.4byte	.LBE58-.LBB58
 6475 27a3 03       		.byte	0x3
 6476 27a4 5A       		.byte	0x5a
 6477 27a5 CF270000 		.4byte	0x27cf
 6478 27a9 3D       		.uleb128 0x3d
 6479 27aa EF220000 		.4byte	0x22ef
 6480 27ae F3010000 		.4byte	.LLST19
 6481 27b2 34       		.uleb128 0x34
 6482 27b3 96000000 		.4byte	.LVL32
 6483 27b7 B7360000 		.4byte	0x36b7
 6484 27bb 35       		.uleb128 0x35
 6485 27bc 01       		.uleb128 0x1
 6486 27bd 50       		.byte	0x50
 6487 27be 02       		.uleb128 0x2
 6488 27bf 74       		.byte	0x74
 6489 27c0 00       		.sleb128 0
 6490 27c1 35       		.uleb128 0x35
 6491 27c2 01       		.uleb128 0x1
 6492 27c3 51       		.byte	0x51
 6493 27c4 02       		.uleb128 0x2
 6494 27c5 08       		.byte	0x8
 6495 27c6 64       		.byte	0x64
 6496 27c7 35       		.uleb128 0x35
 6497 27c8 01       		.uleb128 0x1
 6498 27c9 52       		.byte	0x52
 6499 27ca 02       		.uleb128 0x2
ARM GAS  C:\Users\ASUS\AppData\Local\Temp\ccarWmgw.s 			page 156


 6500 27cb 77       		.byte	0x77
 6501 27cc 00       		.sleb128 0
 6502 27cd 00       		.byte	0
 6503 27ce 00       		.byte	0
 6504 27cf 39       		.uleb128 0x39
 6505 27d0 34000000 		.4byte	.LVL23
 6506 27d4 64360000 		.4byte	0x3664
 6507 27d8 E2270000 		.4byte	0x27e2
 6508 27dc 35       		.uleb128 0x35
 6509 27dd 01       		.uleb128 0x1
 6510 27de 50       		.byte	0x50
 6511 27df 01       		.uleb128 0x1
 6512 27e0 31       		.byte	0x31
 6513 27e1 00       		.byte	0
 6514 27e2 39       		.uleb128 0x39
 6515 27e3 48000000 		.4byte	.LVL25
 6516 27e7 64360000 		.4byte	0x3664
 6517 27eb F5270000 		.4byte	0x27f5
 6518 27ef 35       		.uleb128 0x35
 6519 27f0 01       		.uleb128 0x1
 6520 27f1 50       		.byte	0x50
 6521 27f2 01       		.uleb128 0x1
 6522 27f3 31       		.byte	0x31
 6523 27f4 00       		.byte	0
 6524 27f5 39       		.uleb128 0x39
 6525 27f6 5E000000 		.4byte	.LVL27
 6526 27fa 64360000 		.4byte	0x3664
 6527 27fe 08280000 		.4byte	0x2808
 6528 2802 35       		.uleb128 0x35
 6529 2803 01       		.uleb128 0x1
 6530 2804 50       		.byte	0x50
 6531 2805 01       		.uleb128 0x1
 6532 2806 31       		.byte	0x31
 6533 2807 00       		.byte	0
 6534 2808 39       		.uleb128 0x39
 6535 2809 74000000 		.4byte	.LVL29
 6536 280d 64360000 		.4byte	0x3664
 6537 2811 1B280000 		.4byte	0x281b
 6538 2815 35       		.uleb128 0x35
 6539 2816 01       		.uleb128 0x1
 6540 2817 50       		.byte	0x50
 6541 2818 01       		.uleb128 0x1
 6542 2819 31       		.byte	0x31
 6543 281a 00       		.byte	0
 6544 281b 39       		.uleb128 0x39
 6545 281c 8C000000 		.4byte	.LVL31
 6546 2820 64360000 		.4byte	0x3664
 6547 2824 2E280000 		.4byte	0x282e
 6548 2828 35       		.uleb128 0x35
 6549 2829 01       		.uleb128 0x1
 6550 282a 50       		.byte	0x50
 6551 282b 01       		.uleb128 0x1
 6552 282c 31       		.byte	0x31
 6553 282d 00       		.byte	0
 6554 282e 34       		.uleb128 0x34
 6555 282f B0000000 		.4byte	.LVL33
 6556 2833 C3360000 		.4byte	0x36c3
ARM GAS  C:\Users\ASUS\AppData\Local\Temp\ccarWmgw.s 			page 157


 6557 2837 35       		.uleb128 0x35
 6558 2838 01       		.uleb128 0x1
 6559 2839 50       		.byte	0x50
 6560 283a 05       		.uleb128 0x5
 6561 283b 03       		.byte	0x3
 6562 283c 10000000 		.4byte	.LC8
 6563 2840 35       		.uleb128 0x35
 6564 2841 02       		.uleb128 0x2
 6565 2842 7D       		.byte	0x7d
 6566 2843 04       		.sleb128 4
 6567 2844 02       		.uleb128 0x2
 6568 2845 74       		.byte	0x74
 6569 2846 00       		.sleb128 0
 6570 2847 35       		.uleb128 0x35
 6571 2848 02       		.uleb128 0x2
 6572 2849 7D       		.byte	0x7d
 6573 284a 08       		.sleb128 8
 6574 284b 02       		.uleb128 0x2
 6575 284c 76       		.byte	0x76
 6576 284d 00       		.sleb128 0
 6577 284e 00       		.byte	0
 6578 284f 00       		.byte	0
 6579 2850 0F       		.uleb128 0xf
 6580 2851 88130000 		.4byte	0x1388
 6581 2855 2F       		.uleb128 0x2f
 6582 2856 51260000 		.4byte	.LASF769
 6583 285a 03       		.byte	0x3
 6584 285b 74       		.byte	0x74
 6585 285c 00000000 		.4byte	.LFB466
 6586 2860 7C000000 		.4byte	.LFE466-.LFB466
 6587 2864 01       		.uleb128 0x1
 6588 2865 9C       		.byte	0x9c
 6589 2866 1F2A0000 		.4byte	0x2a1f
 6590 286a 3B       		.uleb128 0x3b
 6591 286b 72656700 		.ascii	"reg\000"
 6592 286f 03       		.byte	0x3
 6593 2870 74       		.byte	0x74
 6594 2871 35050000 		.4byte	0x535
 6595 2875 08020000 		.4byte	.LLST20
 6596 2879 30       		.uleb128 0x30
 6597 287a 5D090000 		.4byte	.LASF718
 6598 287e 03       		.byte	0x3
 6599 287f 74       		.byte	0x74
 6600 2880 35050000 		.4byte	0x535
 6601 2884 29020000 		.4byte	.LLST21
 6602 2888 38       		.uleb128 0x38
 6603 2889 03090000 		.4byte	.LASF762
 6604 288d 03       		.byte	0x3
 6605 288e 76       		.byte	0x76
 6606 288f 50280000 		.4byte	0x2850
 6607 2893 02       		.uleb128 0x2
 6608 2894 91       		.byte	0x91
 6609 2895 64       		.sleb128 -28
 6610 2896 38       		.uleb128 0x38
 6611 2897 08090000 		.4byte	.LASF763
 6612 289b 03       		.byte	0x3
 6613 289c 77       		.byte	0x77
ARM GAS  C:\Users\ASUS\AppData\Local\Temp\ccarWmgw.s 			page 158


 6614 289d 50280000 		.4byte	0x2850
 6615 28a1 02       		.uleb128 0x2
 6616 28a2 91       		.byte	0x91
 6617 28a3 60       		.sleb128 -32
 6618 28a4 38       		.uleb128 0x38
 6619 28a5 0D090000 		.4byte	.LASF764
 6620 28a9 03       		.byte	0x3
 6621 28aa 78       		.byte	0x78
 6622 28ab 50280000 		.4byte	0x2850
 6623 28af 02       		.uleb128 0x2
 6624 28b0 91       		.byte	0x91
 6625 28b1 5C       		.sleb128 -36
 6626 28b2 38       		.uleb128 0x38
 6627 28b3 12090000 		.4byte	.LASF765
 6628 28b7 03       		.byte	0x3
 6629 28b8 79       		.byte	0x79
 6630 28b9 50280000 		.4byte	0x2850
 6631 28bd 02       		.uleb128 0x2
 6632 28be 91       		.byte	0x91
 6633 28bf 58       		.sleb128 -40
 6634 28c0 3C       		.uleb128 0x3c
 6635 28c1 92230000 		.4byte	0x2392
 6636 28c5 12000000 		.4byte	.LBB60
 6637 28c9 12000000 		.4byte	.LBE60-.LBB60
 6638 28cd 03       		.byte	0x3
 6639 28ce 7C       		.byte	0x7c
 6640 28cf 1C290000 		.4byte	0x291c
 6641 28d3 3D       		.uleb128 0x3d
 6642 28d4 BB230000 		.4byte	0x23bb
 6643 28d8 4A020000 		.4byte	.LLST22
 6644 28dc 3D       		.uleb128 0x3d
 6645 28dd AF230000 		.4byte	0x23af
 6646 28e1 5F020000 		.4byte	.LLST23
 6647 28e5 3D       		.uleb128 0x3d
 6648 28e6 A3230000 		.4byte	0x23a3
 6649 28ea 73020000 		.4byte	.LLST24
 6650 28ee 34       		.uleb128 0x34
 6651 28ef 24000000 		.4byte	.LVL38
 6652 28f3 87360000 		.4byte	0x3687
 6653 28f7 35       		.uleb128 0x35
 6654 28f8 01       		.uleb128 0x1
 6655 28f9 50       		.byte	0x50
 6656 28fa 02       		.uleb128 0x2
 6657 28fb 74       		.byte	0x74
 6658 28fc 00       		.sleb128 0
 6659 28fd 35       		.uleb128 0x35
 6660 28fe 01       		.uleb128 0x1
 6661 28ff 51       		.byte	0x51
 6662 2900 02       		.uleb128 0x2
 6663 2901 08       		.byte	0x8
 6664 2902 74       		.byte	0x74
 6665 2903 35       		.uleb128 0x35
 6666 2904 01       		.uleb128 0x1
 6667 2905 52       		.byte	0x52
 6668 2906 03       		.uleb128 0x3
 6669 2907 91       		.byte	0x91
 6670 2908 58       		.sleb128 -40
ARM GAS  C:\Users\ASUS\AppData\Local\Temp\ccarWmgw.s 			page 159


 6671 2909 06       		.byte	0x6
 6672 290a 35       		.uleb128 0x35
 6673 290b 01       		.uleb128 0x1
 6674 290c 53       		.byte	0x53
 6675 290d 05       		.uleb128 0x5
 6676 290e 91       		.byte	0x91
 6677 290f 58       		.sleb128 -40
 6678 2910 06       		.byte	0x6
 6679 2911 23       		.byte	0x23
 6680 2912 64       		.uleb128 0x64
 6681 2913 35       		.uleb128 0x35
 6682 2914 02       		.uleb128 0x2
 6683 2915 7D       		.byte	0x7d
 6684 2916 00       		.sleb128 0
 6685 2917 02       		.uleb128 0x2
 6686 2918 75       		.byte	0x75
 6687 2919 00       		.sleb128 0
 6688 291a 00       		.byte	0
 6689 291b 00       		.byte	0
 6690 291c 3C       		.uleb128 0x3c
 6691 291d 68230000 		.4byte	0x2368
 6692 2921 2C000000 		.4byte	.LBB62
 6693 2925 0C000000 		.4byte	.LBE62-.LBB62
 6694 2929 03       		.byte	0x3
 6695 292a 7F       		.byte	0x7f
 6696 292b 64290000 		.4byte	0x2964
 6697 292f 3D       		.uleb128 0x3d
 6698 2930 85230000 		.4byte	0x2385
 6699 2934 88020000 		.4byte	.LLST25
 6700 2938 3D       		.uleb128 0x3d
 6701 2939 79230000 		.4byte	0x2379
 6702 293d 9D020000 		.4byte	.LLST26
 6703 2941 34       		.uleb128 0x34
 6704 2942 38000000 		.4byte	.LVL40
 6705 2946 93360000 		.4byte	0x3693
 6706 294a 35       		.uleb128 0x35
 6707 294b 01       		.uleb128 0x1
 6708 294c 50       		.byte	0x50
 6709 294d 02       		.uleb128 0x2
 6710 294e 74       		.byte	0x74
 6711 294f 00       		.sleb128 0
 6712 2950 35       		.uleb128 0x35
 6713 2951 01       		.uleb128 0x1
 6714 2952 51       		.byte	0x51
 6715 2953 02       		.uleb128 0x2
 6716 2954 77       		.byte	0x77
 6717 2955 00       		.sleb128 0
 6718 2956 35       		.uleb128 0x35
 6719 2957 01       		.uleb128 0x1
 6720 2958 52       		.byte	0x52
 6721 2959 02       		.uleb128 0x2
 6722 295a 08       		.byte	0x8
 6723 295b 64       		.byte	0x64
 6724 295c 35       		.uleb128 0x35
 6725 295d 01       		.uleb128 0x1
 6726 295e 53       		.byte	0x53
 6727 295f 02       		.uleb128 0x2
ARM GAS  C:\Users\ASUS\AppData\Local\Temp\ccarWmgw.s 			page 160


 6728 2960 75       		.byte	0x75
 6729 2961 00       		.sleb128 0
 6730 2962 00       		.byte	0
 6731 2963 00       		.byte	0
 6732 2964 3C       		.uleb128 0x3c
 6733 2965 68230000 		.4byte	0x2368
 6734 2969 3A000000 		.4byte	.LBB64
 6735 296d 0C000000 		.4byte	.LBE64-.LBB64
 6736 2971 03       		.byte	0x3
 6737 2972 80       		.byte	0x80
 6738 2973 AC290000 		.4byte	0x29ac
 6739 2977 3D       		.uleb128 0x3d
 6740 2978 85230000 		.4byte	0x2385
 6741 297c B0020000 		.4byte	.LLST27
 6742 2980 3D       		.uleb128 0x3d
 6743 2981 79230000 		.4byte	0x2379
 6744 2985 C5020000 		.4byte	.LLST28
 6745 2989 34       		.uleb128 0x34
 6746 298a 46000000 		.4byte	.LVL42
 6747 298e 93360000 		.4byte	0x3693
 6748 2992 35       		.uleb128 0x35
 6749 2993 01       		.uleb128 0x1
 6750 2994 50       		.byte	0x50
 6751 2995 02       		.uleb128 0x2
 6752 2996 74       		.byte	0x74
 6753 2997 00       		.sleb128 0
 6754 2998 35       		.uleb128 0x35
 6755 2999 01       		.uleb128 0x1
 6756 299a 51       		.byte	0x51
 6757 299b 02       		.uleb128 0x2
 6758 299c 76       		.byte	0x76
 6759 299d 00       		.sleb128 0
 6760 299e 35       		.uleb128 0x35
 6761 299f 01       		.uleb128 0x1
 6762 29a0 52       		.byte	0x52
 6763 29a1 02       		.uleb128 0x2
 6764 29a2 08       		.byte	0x8
 6765 29a3 64       		.byte	0x64
 6766 29a4 35       		.uleb128 0x35
 6767 29a5 01       		.uleb128 0x1
 6768 29a6 53       		.byte	0x53
 6769 29a7 02       		.uleb128 0x2
 6770 29a8 75       		.byte	0x75
 6771 29a9 00       		.sleb128 0
 6772 29aa 00       		.byte	0
 6773 29ab 00       		.byte	0
 6774 29ac 3C       		.uleb128 0x3c
 6775 29ad DE220000 		.4byte	0x22de
 6776 29b1 4E000000 		.4byte	.LBB66
 6777 29b5 0A000000 		.4byte	.LBE66-.LBB66
 6778 29b9 03       		.byte	0x3
 6779 29ba 83       		.byte	0x83
 6780 29bb E5290000 		.4byte	0x29e5
 6781 29bf 3D       		.uleb128 0x3d
 6782 29c0 EF220000 		.4byte	0x22ef
 6783 29c4 D8020000 		.4byte	.LLST29
 6784 29c8 34       		.uleb128 0x34
ARM GAS  C:\Users\ASUS\AppData\Local\Temp\ccarWmgw.s 			page 161


 6785 29c9 58000000 		.4byte	.LVL44
 6786 29cd B7360000 		.4byte	0x36b7
 6787 29d1 35       		.uleb128 0x35
 6788 29d2 01       		.uleb128 0x1
 6789 29d3 50       		.byte	0x50
 6790 29d4 02       		.uleb128 0x2
 6791 29d5 74       		.byte	0x74
 6792 29d6 00       		.sleb128 0
 6793 29d7 35       		.uleb128 0x35
 6794 29d8 01       		.uleb128 0x1
 6795 29d9 51       		.byte	0x51
 6796 29da 02       		.uleb128 0x2
 6797 29db 08       		.byte	0x8
 6798 29dc 64       		.byte	0x64
 6799 29dd 35       		.uleb128 0x35
 6800 29de 01       		.uleb128 0x1
 6801 29df 52       		.byte	0x52
 6802 29e0 02       		.uleb128 0x2
 6803 29e1 75       		.byte	0x75
 6804 29e2 00       		.sleb128 0
 6805 29e3 00       		.byte	0
 6806 29e4 00       		.byte	0
 6807 29e5 39       		.uleb128 0x39
 6808 29e6 2C000000 		.4byte	.LVL39
 6809 29ea 64360000 		.4byte	0x3664
 6810 29ee F8290000 		.4byte	0x29f8
 6811 29f2 35       		.uleb128 0x35
 6812 29f3 01       		.uleb128 0x1
 6813 29f4 50       		.byte	0x50
 6814 29f5 01       		.uleb128 0x1
 6815 29f6 31       		.byte	0x31
 6816 29f7 00       		.byte	0
 6817 29f8 39       		.uleb128 0x39
 6818 29f9 4E000000 		.4byte	.LVL43
 6819 29fd 64360000 		.4byte	0x3664
 6820 2a01 0B2A0000 		.4byte	0x2a0b
 6821 2a05 35       		.uleb128 0x35
 6822 2a06 01       		.uleb128 0x1
 6823 2a07 50       		.byte	0x50
 6824 2a08 01       		.uleb128 0x1
 6825 2a09 31       		.byte	0x31
 6826 2a0a 00       		.byte	0
 6827 2a0b 34       		.uleb128 0x34
 6828 2a0c 6A000000 		.4byte	.LVL45
 6829 2a10 C3360000 		.4byte	0x36c3
 6830 2a14 35       		.uleb128 0x35
 6831 2a15 01       		.uleb128 0x1
 6832 2a16 50       		.byte	0x50
 6833 2a17 05       		.uleb128 0x5
 6834 2a18 03       		.byte	0x3
 6835 2a19 68000000 		.4byte	.LC11
 6836 2a1d 00       		.byte	0
 6837 2a1e 00       		.byte	0
 6838 2a1f 2F       		.uleb128 0x2f
 6839 2a20 73240000 		.4byte	.LASF770
 6840 2a24 03       		.byte	0x3
 6841 2a25 98       		.byte	0x98
ARM GAS  C:\Users\ASUS\AppData\Local\Temp\ccarWmgw.s 			page 162


 6842 2a26 00000000 		.4byte	.LFB467
 6843 2a2a 42000000 		.4byte	.LFE467-.LFB467
 6844 2a2e 01       		.uleb128 0x1
 6845 2a2f 9C       		.byte	0x9c
 6846 2a30 FF2A0000 		.4byte	0x2aff
 6847 2a34 30       		.uleb128 0x30
 6848 2a35 2C3C0000 		.4byte	.LASF771
 6849 2a39 03       		.byte	0x3
 6850 2a3a 98       		.byte	0x98
 6851 2a3b D3220000 		.4byte	0x22d3
 6852 2a3f ED020000 		.4byte	.LLST30
 6853 2a43 30       		.uleb128 0x30
 6854 2a44 80240000 		.4byte	.LASF772
 6855 2a48 03       		.byte	0x3
 6856 2a49 98       		.byte	0x98
 6857 2a4a D3220000 		.4byte	0x22d3
 6858 2a4e 19030000 		.4byte	.LLST31
 6859 2a52 30       		.uleb128 0x30
 6860 2a53 410F0000 		.4byte	.LASF773
 6861 2a57 03       		.byte	0x3
 6862 2a58 98       		.byte	0x98
 6863 2a59 D3220000 		.4byte	0x22d3
 6864 2a5d 45030000 		.4byte	.LLST32
 6865 2a61 30       		.uleb128 0x30
 6866 2a62 522F0000 		.4byte	.LASF774
 6867 2a66 03       		.byte	0x3
 6868 2a67 99       		.byte	0x99
 6869 2a68 D3220000 		.4byte	0x22d3
 6870 2a6c 71030000 		.4byte	.LLST33
 6871 2a70 39       		.uleb128 0x39
 6872 2a71 12000000 		.4byte	.LVL49
 6873 2a75 55280000 		.4byte	0x2855
 6874 2a79 892A0000 		.4byte	0x2a89
 6875 2a7d 35       		.uleb128 0x35
 6876 2a7e 01       		.uleb128 0x1
 6877 2a7f 50       		.byte	0x50
 6878 2a80 01       		.uleb128 0x1
 6879 2a81 30       		.byte	0x30
 6880 2a82 35       		.uleb128 0x35
 6881 2a83 01       		.uleb128 0x1
 6882 2a84 51       		.byte	0x51
 6883 2a85 02       		.uleb128 0x2
 6884 2a86 09       		.byte	0x9
 6885 2a87 83       		.byte	0x83
 6886 2a88 00       		.byte	0
 6887 2a89 39       		.uleb128 0x39
 6888 2a8a 18000000 		.4byte	.LVL50
 6889 2a8e 64360000 		.4byte	0x3664
 6890 2a92 9D2A0000 		.4byte	0x2a9d
 6891 2a96 35       		.uleb128 0x35
 6892 2a97 01       		.uleb128 0x1
 6893 2a98 50       		.byte	0x50
 6894 2a99 02       		.uleb128 0x2
 6895 2a9a 08       		.byte	0x8
 6896 2a9b 40       		.byte	0x40
 6897 2a9c 00       		.byte	0
 6898 2a9d 39       		.uleb128 0x39
ARM GAS  C:\Users\ASUS\AppData\Local\Temp\ccarWmgw.s 			page 163


 6899 2a9e 1E000000 		.4byte	.LVL51
 6900 2aa2 63250000 		.4byte	0x2563
 6901 2aa6 B02A0000 		.4byte	0x2ab0
 6902 2aaa 35       		.uleb128 0x35
 6903 2aab 01       		.uleb128 0x1
 6904 2aac 50       		.byte	0x50
 6905 2aad 01       		.uleb128 0x1
 6906 2aae 31       		.byte	0x31
 6907 2aaf 00       		.byte	0
 6908 2ab0 39       		.uleb128 0x39
 6909 2ab1 26000000 		.4byte	.LVL52
 6910 2ab5 63250000 		.4byte	0x2563
 6911 2ab9 C32A0000 		.4byte	0x2ac3
 6912 2abd 35       		.uleb128 0x35
 6913 2abe 01       		.uleb128 0x1
 6914 2abf 50       		.byte	0x50
 6915 2ac0 01       		.uleb128 0x1
 6916 2ac1 32       		.byte	0x32
 6917 2ac2 00       		.byte	0
 6918 2ac3 39       		.uleb128 0x39
 6919 2ac4 2E000000 		.4byte	.LVL53
 6920 2ac8 63250000 		.4byte	0x2563
 6921 2acc D62A0000 		.4byte	0x2ad6
 6922 2ad0 35       		.uleb128 0x35
 6923 2ad1 01       		.uleb128 0x1
 6924 2ad2 50       		.byte	0x50
 6925 2ad3 01       		.uleb128 0x1
 6926 2ad4 33       		.byte	0x33
 6927 2ad5 00       		.byte	0
 6928 2ad6 39       		.uleb128 0x39
 6929 2ad7 36000000 		.4byte	.LVL54
 6930 2adb 63250000 		.4byte	0x2563
 6931 2adf E92A0000 		.4byte	0x2ae9
 6932 2ae3 35       		.uleb128 0x35
 6933 2ae4 01       		.uleb128 0x1
 6934 2ae5 50       		.byte	0x50
 6935 2ae6 01       		.uleb128 0x1
 6936 2ae7 34       		.byte	0x34
 6937 2ae8 00       		.byte	0
 6938 2ae9 34       		.uleb128 0x34
 6939 2aea 40000000 		.4byte	.LVL55
 6940 2aee 55280000 		.4byte	0x2855
 6941 2af2 35       		.uleb128 0x35
 6942 2af3 01       		.uleb128 0x1
 6943 2af4 50       		.byte	0x50
 6944 2af5 01       		.uleb128 0x1
 6945 2af6 30       		.byte	0x30
 6946 2af7 35       		.uleb128 0x35
 6947 2af8 01       		.uleb128 0x1
 6948 2af9 51       		.byte	0x51
 6949 2afa 02       		.uleb128 0x2
 6950 2afb 08       		.byte	0x8
 6951 2afc 42       		.byte	0x42
 6952 2afd 00       		.byte	0
 6953 2afe 00       		.byte	0
 6954 2aff 3E       		.uleb128 0x3e
 6955 2b00 4E240000 		.4byte	.LASF775
ARM GAS  C:\Users\ASUS\AppData\Local\Temp\ccarWmgw.s 			page 164


 6956 2b04 03       		.byte	0x3
 6957 2b05 BA       		.byte	0xba
 6958 2b06 00000000 		.4byte	.LFB468
 6959 2b0a 4C000000 		.4byte	.LFE468-.LFB468
 6960 2b0e 01       		.uleb128 0x1
 6961 2b0f 9C       		.byte	0x9c
 6962 2b10 612B0000 		.4byte	0x2b61
 6963 2b14 3B       		.uleb128 0x3b
 6964 2b15 7800     		.ascii	"x\000"
 6965 2b17 03       		.byte	0x3
 6966 2b18 BA       		.byte	0xba
 6967 2b19 4B050000 		.4byte	0x54b
 6968 2b1d 9D030000 		.4byte	.LLST34
 6969 2b21 3B       		.uleb128 0x3b
 6970 2b22 7900     		.ascii	"y\000"
 6971 2b24 03       		.byte	0x3
 6972 2b25 BA       		.byte	0xba
 6973 2b26 4B050000 		.4byte	0x54b
 6974 2b2a BE030000 		.4byte	.LLST35
 6975 2b2e 3B       		.uleb128 0x3b
 6976 2b2f 7A00     		.ascii	"z\000"
 6977 2b31 03       		.byte	0x3
 6978 2b32 BA       		.byte	0xba
 6979 2b33 4B050000 		.4byte	0x54b
 6980 2b37 DF030000 		.4byte	.LLST36
 6981 2b3b 34       		.uleb128 0x34
 6982 2b3c 32000000 		.4byte	.LVL65
 6983 2b40 C3360000 		.4byte	0x36c3
 6984 2b44 35       		.uleb128 0x35
 6985 2b45 01       		.uleb128 0x1
 6986 2b46 50       		.byte	0x50
 6987 2b47 05       		.uleb128 0x5
 6988 2b48 03       		.byte	0x3
 6989 2b49 98000000 		.4byte	.LC14
 6990 2b4d 35       		.uleb128 0x35
 6991 2b4e 01       		.uleb128 0x1
 6992 2b4f 51       		.byte	0x51
 6993 2b50 02       		.uleb128 0x2
 6994 2b51 74       		.byte	0x74
 6995 2b52 00       		.sleb128 0
 6996 2b53 35       		.uleb128 0x35
 6997 2b54 01       		.uleb128 0x1
 6998 2b55 52       		.byte	0x52
 6999 2b56 02       		.uleb128 0x2
 7000 2b57 75       		.byte	0x75
 7001 2b58 00       		.sleb128 0
 7002 2b59 35       		.uleb128 0x35
 7003 2b5a 01       		.uleb128 0x1
 7004 2b5b 53       		.byte	0x53
 7005 2b5c 02       		.uleb128 0x2
 7006 2b5d 76       		.byte	0x76
 7007 2b5e 00       		.sleb128 0
 7008 2b5f 00       		.byte	0
 7009 2b60 00       		.byte	0
 7010 2b61 3A       		.uleb128 0x3a
 7011 2b62 720A0000 		.4byte	.LASF777
 7012 2b66 05       		.byte	0x5
ARM GAS  C:\Users\ASUS\AppData\Local\Temp\ccarWmgw.s 			page 165


 7013 2b67 25       		.byte	0x25
 7014 2b68 4B050000 		.4byte	0x54b
 7015 2b6c 00000000 		.4byte	.LFB469
 7016 2b70 C8000000 		.4byte	.LFE469-.LFB469
 7017 2b74 01       		.uleb128 0x1
 7018 2b75 9C       		.byte	0x9c
 7019 2b76 4E2E0000 		.4byte	0x2e4e
 7020 2b7a 3B       		.uleb128 0x3b
 7021 2b7b 72656700 		.ascii	"reg\000"
 7022 2b7f 05       		.byte	0x5
 7023 2b80 25       		.byte	0x25
 7024 2b81 35050000 		.4byte	0x535
 7025 2b85 00040000 		.4byte	.LLST37
 7026 2b89 38       		.uleb128 0x38
 7027 2b8a 03090000 		.4byte	.LASF762
 7028 2b8e 05       		.byte	0x5
 7029 2b8f 27       		.byte	0x27
 7030 2b90 50280000 		.4byte	0x2850
 7031 2b94 02       		.uleb128 0x2
 7032 2b95 91       		.byte	0x91
 7033 2b96 64       		.sleb128 -28
 7034 2b97 38       		.uleb128 0x38
 7035 2b98 08090000 		.4byte	.LASF763
 7036 2b9c 05       		.byte	0x5
 7037 2b9d 28       		.byte	0x28
 7038 2b9e 50280000 		.4byte	0x2850
 7039 2ba2 02       		.uleb128 0x2
 7040 2ba3 91       		.byte	0x91
 7041 2ba4 60       		.sleb128 -32
 7042 2ba5 38       		.uleb128 0x38
 7043 2ba6 0D090000 		.4byte	.LASF764
 7044 2baa 05       		.byte	0x5
 7045 2bab 29       		.byte	0x29
 7046 2bac 50280000 		.4byte	0x2850
 7047 2bb0 02       		.uleb128 0x2
 7048 2bb1 91       		.byte	0x91
 7049 2bb2 5C       		.sleb128 -36
 7050 2bb3 38       		.uleb128 0x38
 7051 2bb4 12090000 		.4byte	.LASF765
 7052 2bb8 05       		.byte	0x5
 7053 2bb9 2A       		.byte	0x2a
 7054 2bba 50280000 		.4byte	0x2850
 7055 2bbe 02       		.uleb128 0x2
 7056 2bbf 91       		.byte	0x91
 7057 2bc0 58       		.sleb128 -40
 7058 2bc1 38       		.uleb128 0x38
 7059 2bc2 17090000 		.4byte	.LASF766
 7060 2bc6 05       		.byte	0x5
 7061 2bc7 2B       		.byte	0x2b
 7062 2bc8 50280000 		.4byte	0x2850
 7063 2bcc 02       		.uleb128 0x2
 7064 2bcd 91       		.byte	0x91
 7065 2bce 54       		.sleb128 -44
 7066 2bcf 38       		.uleb128 0x38
 7067 2bd0 1C090000 		.4byte	.LASF767
 7068 2bd4 05       		.byte	0x5
 7069 2bd5 2C       		.byte	0x2c
ARM GAS  C:\Users\ASUS\AppData\Local\Temp\ccarWmgw.s 			page 166


 7070 2bd6 50280000 		.4byte	0x2850
 7071 2bda 02       		.uleb128 0x2
 7072 2bdb 91       		.byte	0x91
 7073 2bdc 50       		.sleb128 -48
 7074 2bdd 38       		.uleb128 0x38
 7075 2bde 313A0000 		.4byte	.LASF768
 7076 2be2 05       		.byte	0x5
 7077 2be3 2D       		.byte	0x2d
 7078 2be4 F4060000 		.4byte	0x6f4
 7079 2be8 02       		.uleb128 0x2
 7080 2be9 91       		.byte	0x91
 7081 2bea 4C       		.sleb128 -52
 7082 2beb 3C       		.uleb128 0x3c
 7083 2bec 92230000 		.4byte	0x2392
 7084 2bf0 1A000000 		.4byte	.LBB68
 7085 2bf4 12000000 		.4byte	.LBE68-.LBB68
 7086 2bf8 05       		.byte	0x5
 7087 2bf9 30       		.byte	0x30
 7088 2bfa 472C0000 		.4byte	0x2c47
 7089 2bfe 3D       		.uleb128 0x3d
 7090 2bff BB230000 		.4byte	0x23bb
 7091 2c03 21040000 		.4byte	.LLST38
 7092 2c07 3D       		.uleb128 0x3d
 7093 2c08 AF230000 		.4byte	0x23af
 7094 2c0c 36040000 		.4byte	.LLST39
 7095 2c10 3D       		.uleb128 0x3d
 7096 2c11 A3230000 		.4byte	0x23a3
 7097 2c15 4A040000 		.4byte	.LLST40
 7098 2c19 34       		.uleb128 0x34
 7099 2c1a 2C000000 		.4byte	.LVL69
 7100 2c1e 87360000 		.4byte	0x3687
 7101 2c22 35       		.uleb128 0x35
 7102 2c23 01       		.uleb128 0x1
 7103 2c24 50       		.byte	0x50
 7104 2c25 02       		.uleb128 0x2
 7105 2c26 74       		.byte	0x74
 7106 2c27 00       		.sleb128 0
 7107 2c28 35       		.uleb128 0x35
 7108 2c29 01       		.uleb128 0x1
 7109 2c2a 51       		.byte	0x51
 7110 2c2b 02       		.uleb128 0x2
 7111 2c2c 08       		.byte	0x8
 7112 2c2d 68       		.byte	0x68
 7113 2c2e 35       		.uleb128 0x35
 7114 2c2f 01       		.uleb128 0x1
 7115 2c30 52       		.byte	0x52
 7116 2c31 03       		.uleb128 0x3
 7117 2c32 91       		.byte	0x91
 7118 2c33 50       		.sleb128 -48
 7119 2c34 06       		.byte	0x6
 7120 2c35 35       		.uleb128 0x35
 7121 2c36 01       		.uleb128 0x1
 7122 2c37 53       		.byte	0x53
 7123 2c38 05       		.uleb128 0x5
 7124 2c39 91       		.byte	0x91
 7125 2c3a 50       		.sleb128 -48
 7126 2c3b 06       		.byte	0x6
ARM GAS  C:\Users\ASUS\AppData\Local\Temp\ccarWmgw.s 			page 167


 7127 2c3c 23       		.byte	0x23
 7128 2c3d 64       		.uleb128 0x64
 7129 2c3e 35       		.uleb128 0x35
 7130 2c3f 02       		.uleb128 0x2
 7131 2c40 7D       		.byte	0x7d
 7132 2c41 00       		.sleb128 0
 7133 2c42 02       		.uleb128 0x2
 7134 2c43 77       		.byte	0x77
 7135 2c44 00       		.sleb128 0
 7136 2c45 00       		.byte	0
 7137 2c46 00       		.byte	0
 7138 2c47 3C       		.uleb128 0x3c
 7139 2c48 68230000 		.4byte	0x2368
 7140 2c4c 34000000 		.4byte	.LBB70
 7141 2c50 0C000000 		.4byte	.LBE70-.LBB70
 7142 2c54 05       		.byte	0x5
 7143 2c55 33       		.byte	0x33
 7144 2c56 8F2C0000 		.4byte	0x2c8f
 7145 2c5a 3D       		.uleb128 0x3d
 7146 2c5b 85230000 		.4byte	0x2385
 7147 2c5f 5F040000 		.4byte	.LLST41
 7148 2c63 3D       		.uleb128 0x3d
 7149 2c64 79230000 		.4byte	0x2379
 7150 2c68 74040000 		.4byte	.LLST42
 7151 2c6c 34       		.uleb128 0x34
 7152 2c6d 40000000 		.4byte	.LVL71
 7153 2c71 93360000 		.4byte	0x3693
 7154 2c75 35       		.uleb128 0x35
 7155 2c76 01       		.uleb128 0x1
 7156 2c77 50       		.byte	0x50
 7157 2c78 02       		.uleb128 0x2
 7158 2c79 74       		.byte	0x74
 7159 2c7a 00       		.sleb128 0
 7160 2c7b 35       		.uleb128 0x35
 7161 2c7c 01       		.uleb128 0x1
 7162 2c7d 51       		.byte	0x51
 7163 2c7e 02       		.uleb128 0x2
 7164 2c7f 76       		.byte	0x76
 7165 2c80 00       		.sleb128 0
 7166 2c81 35       		.uleb128 0x35
 7167 2c82 01       		.uleb128 0x1
 7168 2c83 52       		.byte	0x52
 7169 2c84 02       		.uleb128 0x2
 7170 2c85 08       		.byte	0x8
 7171 2c86 64       		.byte	0x64
 7172 2c87 35       		.uleb128 0x35
 7173 2c88 01       		.uleb128 0x1
 7174 2c89 53       		.byte	0x53
 7175 2c8a 02       		.uleb128 0x2
 7176 2c8b 77       		.byte	0x77
 7177 2c8c 00       		.sleb128 0
 7178 2c8d 00       		.byte	0
 7179 2c8e 00       		.byte	0
 7180 2c8f 3C       		.uleb128 0x3c
 7181 2c90 32230000 		.4byte	0x2332
 7182 2c94 48000000 		.4byte	.LBB72
 7183 2c98 0E000000 		.4byte	.LBE72-.LBB72
ARM GAS  C:\Users\ASUS\AppData\Local\Temp\ccarWmgw.s 			page 168


 7184 2c9c 05       		.byte	0x5
 7185 2c9d 36       		.byte	0x36
 7186 2c9e E62C0000 		.4byte	0x2ce6
 7187 2ca2 3D       		.uleb128 0x3d
 7188 2ca3 5B230000 		.4byte	0x235b
 7189 2ca7 87040000 		.4byte	.LLST43
 7190 2cab 3D       		.uleb128 0x3d
 7191 2cac 4F230000 		.4byte	0x234f
 7192 2cb0 9C040000 		.4byte	.LLST44
 7193 2cb4 3D       		.uleb128 0x3d
 7194 2cb5 43230000 		.4byte	0x2343
 7195 2cb9 B0040000 		.4byte	.LLST45
 7196 2cbd 34       		.uleb128 0x34
 7197 2cbe 56000000 		.4byte	.LVL73
 7198 2cc2 9F360000 		.4byte	0x369f
 7199 2cc6 35       		.uleb128 0x35
 7200 2cc7 01       		.uleb128 0x1
 7201 2cc8 50       		.byte	0x50
 7202 2cc9 02       		.uleb128 0x2
 7203 2cca 74       		.byte	0x74
 7204 2ccb 00       		.sleb128 0
 7205 2ccc 35       		.uleb128 0x35
 7206 2ccd 01       		.uleb128 0x1
 7207 2cce 51       		.byte	0x51
 7208 2ccf 02       		.uleb128 0x2
 7209 2cd0 08       		.byte	0x8
 7210 2cd1 68       		.byte	0x68
 7211 2cd2 35       		.uleb128 0x35
 7212 2cd3 01       		.uleb128 0x1
 7213 2cd4 52       		.byte	0x52
 7214 2cd5 01       		.uleb128 0x1
 7215 2cd6 31       		.byte	0x31
 7216 2cd7 35       		.uleb128 0x35
 7217 2cd8 01       		.uleb128 0x1
 7218 2cd9 53       		.byte	0x53
 7219 2cda 02       		.uleb128 0x2
 7220 2cdb 08       		.byte	0x8
 7221 2cdc 64       		.byte	0x64
 7222 2cdd 35       		.uleb128 0x35
 7223 2cde 02       		.uleb128 0x2
 7224 2cdf 7D       		.byte	0x7d
 7225 2ce0 00       		.sleb128 0
 7226 2ce1 02       		.uleb128 0x2
 7227 2ce2 77       		.byte	0x77
 7228 2ce3 00       		.sleb128 0
 7229 2ce4 00       		.byte	0
 7230 2ce5 00       		.byte	0
 7231 2ce6 3C       		.uleb128 0x3c
 7232 2ce7 FC220000 		.4byte	0x22fc
 7233 2ceb 5E000000 		.4byte	.LBB74
 7234 2cef 10000000 		.4byte	.LBE74-.LBB74
 7235 2cf3 05       		.byte	0x5
 7236 2cf4 39       		.byte	0x39
 7237 2cf5 3D2D0000 		.4byte	0x2d3d
 7238 2cf9 3D       		.uleb128 0x3d
 7239 2cfa 25230000 		.4byte	0x2325
 7240 2cfe C5040000 		.4byte	.LLST46
ARM GAS  C:\Users\ASUS\AppData\Local\Temp\ccarWmgw.s 			page 169


 7241 2d02 3D       		.uleb128 0x3d
 7242 2d03 19230000 		.4byte	0x2319
 7243 2d07 DA040000 		.4byte	.LLST47
 7244 2d0b 3D       		.uleb128 0x3d
 7245 2d0c 0D230000 		.4byte	0x230d
 7246 2d10 EF040000 		.4byte	.LLST48
 7247 2d14 34       		.uleb128 0x34
 7248 2d15 6E000000 		.4byte	.LVL75
 7249 2d19 AB360000 		.4byte	0x36ab
 7250 2d1d 35       		.uleb128 0x35
 7251 2d1e 01       		.uleb128 0x1
 7252 2d1f 50       		.byte	0x50
 7253 2d20 02       		.uleb128 0x2
 7254 2d21 74       		.byte	0x74
 7255 2d22 00       		.sleb128 0
 7256 2d23 35       		.uleb128 0x35
 7257 2d24 01       		.uleb128 0x1
 7258 2d25 51       		.byte	0x51
 7259 2d26 01       		.uleb128 0x1
 7260 2d27 30       		.byte	0x30
 7261 2d28 35       		.uleb128 0x35
 7262 2d29 01       		.uleb128 0x1
 7263 2d2a 52       		.byte	0x52
 7264 2d2b 02       		.uleb128 0x2
 7265 2d2c 91       		.byte	0x91
 7266 2d2d 4D       		.sleb128 -51
 7267 2d2e 35       		.uleb128 0x35
 7268 2d2f 01       		.uleb128 0x1
 7269 2d30 53       		.byte	0x53
 7270 2d31 02       		.uleb128 0x2
 7271 2d32 08       		.byte	0x8
 7272 2d33 64       		.byte	0x64
 7273 2d34 35       		.uleb128 0x35
 7274 2d35 02       		.uleb128 0x2
 7275 2d36 7D       		.byte	0x7d
 7276 2d37 00       		.sleb128 0
 7277 2d38 02       		.uleb128 0x2
 7278 2d39 77       		.byte	0x77
 7279 2d3a 00       		.sleb128 0
 7280 2d3b 00       		.byte	0
 7281 2d3c 00       		.byte	0
 7282 2d3d 3C       		.uleb128 0x3c
 7283 2d3e FC220000 		.4byte	0x22fc
 7284 2d42 76000000 		.4byte	.LBB76
 7285 2d46 0E000000 		.4byte	.LBE76-.LBB76
 7286 2d4a 05       		.byte	0x5
 7287 2d4b 3B       		.byte	0x3b
 7288 2d4c 942D0000 		.4byte	0x2d94
 7289 2d50 3D       		.uleb128 0x3d
 7290 2d51 25230000 		.4byte	0x2325
 7291 2d55 03050000 		.4byte	.LLST49
 7292 2d59 3D       		.uleb128 0x3d
 7293 2d5a 19230000 		.4byte	0x2319
 7294 2d5e 18050000 		.4byte	.LLST50
 7295 2d62 3D       		.uleb128 0x3d
 7296 2d63 0D230000 		.4byte	0x230d
 7297 2d67 2B050000 		.4byte	.LLST51
ARM GAS  C:\Users\ASUS\AppData\Local\Temp\ccarWmgw.s 			page 170


 7298 2d6b 34       		.uleb128 0x34
 7299 2d6c 84000000 		.4byte	.LVL77
 7300 2d70 AB360000 		.4byte	0x36ab
 7301 2d74 35       		.uleb128 0x35
 7302 2d75 01       		.uleb128 0x1
 7303 2d76 50       		.byte	0x50
 7304 2d77 02       		.uleb128 0x2
 7305 2d78 74       		.byte	0x74
 7306 2d79 00       		.sleb128 0
 7307 2d7a 35       		.uleb128 0x35
 7308 2d7b 01       		.uleb128 0x1
 7309 2d7c 51       		.byte	0x51
 7310 2d7d 01       		.uleb128 0x1
 7311 2d7e 31       		.byte	0x31
 7312 2d7f 35       		.uleb128 0x35
 7313 2d80 01       		.uleb128 0x1
 7314 2d81 52       		.byte	0x52
 7315 2d82 02       		.uleb128 0x2
 7316 2d83 75       		.byte	0x75
 7317 2d84 00       		.sleb128 0
 7318 2d85 35       		.uleb128 0x35
 7319 2d86 01       		.uleb128 0x1
 7320 2d87 53       		.byte	0x53
 7321 2d88 02       		.uleb128 0x2
 7322 2d89 08       		.byte	0x8
 7323 2d8a 64       		.byte	0x64
 7324 2d8b 35       		.uleb128 0x35
 7325 2d8c 02       		.uleb128 0x2
 7326 2d8d 7D       		.byte	0x7d
 7327 2d8e 00       		.sleb128 0
 7328 2d8f 02       		.uleb128 0x2
 7329 2d90 77       		.byte	0x77
 7330 2d91 00       		.sleb128 0
 7331 2d92 00       		.byte	0
 7332 2d93 00       		.byte	0
 7333 2d94 3C       		.uleb128 0x3c
 7334 2d95 DE220000 		.4byte	0x22de
 7335 2d99 8C000000 		.4byte	.LBB78
 7336 2d9d 0A000000 		.4byte	.LBE78-.LBB78
 7337 2da1 05       		.byte	0x5
 7338 2da2 3E       		.byte	0x3e
 7339 2da3 CD2D0000 		.4byte	0x2dcd
 7340 2da7 3D       		.uleb128 0x3d
 7341 2da8 EF220000 		.4byte	0x22ef
 7342 2dac 3F050000 		.4byte	.LLST52
 7343 2db0 34       		.uleb128 0x34
 7344 2db1 96000000 		.4byte	.LVL79
 7345 2db5 B7360000 		.4byte	0x36b7
 7346 2db9 35       		.uleb128 0x35
 7347 2dba 01       		.uleb128 0x1
 7348 2dbb 50       		.byte	0x50
 7349 2dbc 02       		.uleb128 0x2
 7350 2dbd 74       		.byte	0x74
 7351 2dbe 00       		.sleb128 0
 7352 2dbf 35       		.uleb128 0x35
 7353 2dc0 01       		.uleb128 0x1
 7354 2dc1 51       		.byte	0x51
ARM GAS  C:\Users\ASUS\AppData\Local\Temp\ccarWmgw.s 			page 171


 7355 2dc2 02       		.uleb128 0x2
 7356 2dc3 08       		.byte	0x8
 7357 2dc4 64       		.byte	0x64
 7358 2dc5 35       		.uleb128 0x35
 7359 2dc6 01       		.uleb128 0x1
 7360 2dc7 52       		.byte	0x52
 7361 2dc8 02       		.uleb128 0x2
 7362 2dc9 77       		.byte	0x77
 7363 2dca 00       		.sleb128 0
 7364 2dcb 00       		.byte	0
 7365 2dcc 00       		.byte	0
 7366 2dcd 39       		.uleb128 0x39
 7367 2dce 34000000 		.4byte	.LVL70
 7368 2dd2 64360000 		.4byte	0x3664
 7369 2dd6 E02D0000 		.4byte	0x2de0
 7370 2dda 35       		.uleb128 0x35
 7371 2ddb 01       		.uleb128 0x1
 7372 2ddc 50       		.byte	0x50
 7373 2ddd 01       		.uleb128 0x1
 7374 2dde 31       		.byte	0x31
 7375 2ddf 00       		.byte	0
 7376 2de0 39       		.uleb128 0x39
 7377 2de1 48000000 		.4byte	.LVL72
 7378 2de5 64360000 		.4byte	0x3664
 7379 2de9 F32D0000 		.4byte	0x2df3
 7380 2ded 35       		.uleb128 0x35
 7381 2dee 01       		.uleb128 0x1
 7382 2def 50       		.byte	0x50
 7383 2df0 01       		.uleb128 0x1
 7384 2df1 31       		.byte	0x31
 7385 2df2 00       		.byte	0
 7386 2df3 39       		.uleb128 0x39
 7387 2df4 5E000000 		.4byte	.LVL74
 7388 2df8 64360000 		.4byte	0x3664
 7389 2dfc 062E0000 		.4byte	0x2e06
 7390 2e00 35       		.uleb128 0x35
 7391 2e01 01       		.uleb128 0x1
 7392 2e02 50       		.byte	0x50
 7393 2e03 01       		.uleb128 0x1
 7394 2e04 31       		.byte	0x31
 7395 2e05 00       		.byte	0
 7396 2e06 39       		.uleb128 0x39
 7397 2e07 76000000 		.4byte	.LVL76
 7398 2e0b 64360000 		.4byte	0x3664
 7399 2e0f 192E0000 		.4byte	0x2e19
 7400 2e13 35       		.uleb128 0x35
 7401 2e14 01       		.uleb128 0x1
 7402 2e15 50       		.byte	0x50
 7403 2e16 01       		.uleb128 0x1
 7404 2e17 31       		.byte	0x31
 7405 2e18 00       		.byte	0
 7406 2e19 39       		.uleb128 0x39
 7407 2e1a 8C000000 		.4byte	.LVL78
 7408 2e1e 64360000 		.4byte	0x3664
 7409 2e22 2C2E0000 		.4byte	0x2e2c
 7410 2e26 35       		.uleb128 0x35
 7411 2e27 01       		.uleb128 0x1
ARM GAS  C:\Users\ASUS\AppData\Local\Temp\ccarWmgw.s 			page 172


 7412 2e28 50       		.byte	0x50
 7413 2e29 01       		.uleb128 0x1
 7414 2e2a 31       		.byte	0x31
 7415 2e2b 00       		.byte	0
 7416 2e2c 34       		.uleb128 0x34
 7417 2e2d B0000000 		.4byte	.LVL80
 7418 2e31 C3360000 		.4byte	0x36c3
 7419 2e35 35       		.uleb128 0x35
 7420 2e36 01       		.uleb128 0x1
 7421 2e37 50       		.byte	0x50
 7422 2e38 05       		.uleb128 0x5
 7423 2e39 03       		.byte	0x3
 7424 2e3a 10000000 		.4byte	.LC8
 7425 2e3e 35       		.uleb128 0x35
 7426 2e3f 02       		.uleb128 0x2
 7427 2e40 7D       		.byte	0x7d
 7428 2e41 04       		.sleb128 4
 7429 2e42 02       		.uleb128 0x2
 7430 2e43 74       		.byte	0x74
 7431 2e44 00       		.sleb128 0
 7432 2e45 35       		.uleb128 0x35
 7433 2e46 02       		.uleb128 0x2
 7434 2e47 7D       		.byte	0x7d
 7435 2e48 08       		.sleb128 8
 7436 2e49 02       		.uleb128 0x2
 7437 2e4a 76       		.byte	0x76
 7438 2e4b 00       		.sleb128 0
 7439 2e4c 00       		.byte	0
 7440 2e4d 00       		.byte	0
 7441 2e4e 2F       		.uleb128 0x2f
 7442 2e4f AE320000 		.4byte	.LASF778
 7443 2e53 05       		.byte	0x5
 7444 2e54 4B       		.byte	0x4b
 7445 2e55 00000000 		.4byte	.LFB470
 7446 2e59 7C000000 		.4byte	.LFE470-.LFB470
 7447 2e5d 01       		.uleb128 0x1
 7448 2e5e 9C       		.byte	0x9c
 7449 2e5f 18300000 		.4byte	0x3018
 7450 2e63 3B       		.uleb128 0x3b
 7451 2e64 72656700 		.ascii	"reg\000"
 7452 2e68 05       		.byte	0x5
 7453 2e69 4B       		.byte	0x4b
 7454 2e6a 35050000 		.4byte	0x535
 7455 2e6e 54050000 		.4byte	.LLST53
 7456 2e72 30       		.uleb128 0x30
 7457 2e73 5D090000 		.4byte	.LASF718
 7458 2e77 05       		.byte	0x5
 7459 2e78 4B       		.byte	0x4b
 7460 2e79 35050000 		.4byte	0x535
 7461 2e7d 75050000 		.4byte	.LLST54
 7462 2e81 38       		.uleb128 0x38
 7463 2e82 03090000 		.4byte	.LASF762
 7464 2e86 05       		.byte	0x5
 7465 2e87 4D       		.byte	0x4d
 7466 2e88 50280000 		.4byte	0x2850
 7467 2e8c 02       		.uleb128 0x2
 7468 2e8d 91       		.byte	0x91
ARM GAS  C:\Users\ASUS\AppData\Local\Temp\ccarWmgw.s 			page 173


 7469 2e8e 64       		.sleb128 -28
 7470 2e8f 38       		.uleb128 0x38
 7471 2e90 08090000 		.4byte	.LASF763
 7472 2e94 05       		.byte	0x5
 7473 2e95 4E       		.byte	0x4e
 7474 2e96 50280000 		.4byte	0x2850
 7475 2e9a 02       		.uleb128 0x2
 7476 2e9b 91       		.byte	0x91
 7477 2e9c 60       		.sleb128 -32
 7478 2e9d 38       		.uleb128 0x38
 7479 2e9e 0D090000 		.4byte	.LASF764
 7480 2ea2 05       		.byte	0x5
 7481 2ea3 4F       		.byte	0x4f
 7482 2ea4 50280000 		.4byte	0x2850
 7483 2ea8 02       		.uleb128 0x2
 7484 2ea9 91       		.byte	0x91
 7485 2eaa 5C       		.sleb128 -36
 7486 2eab 38       		.uleb128 0x38
 7487 2eac 12090000 		.4byte	.LASF765
 7488 2eb0 05       		.byte	0x5
 7489 2eb1 50       		.byte	0x50
 7490 2eb2 50280000 		.4byte	0x2850
 7491 2eb6 02       		.uleb128 0x2
 7492 2eb7 91       		.byte	0x91
 7493 2eb8 58       		.sleb128 -40
 7494 2eb9 3C       		.uleb128 0x3c
 7495 2eba 92230000 		.4byte	0x2392
 7496 2ebe 12000000 		.4byte	.LBB80
 7497 2ec2 12000000 		.4byte	.LBE80-.LBB80
 7498 2ec6 05       		.byte	0x5
 7499 2ec7 53       		.byte	0x53
 7500 2ec8 152F0000 		.4byte	0x2f15
 7501 2ecc 3D       		.uleb128 0x3d
 7502 2ecd BB230000 		.4byte	0x23bb
 7503 2ed1 96050000 		.4byte	.LLST55
 7504 2ed5 3D       		.uleb128 0x3d
 7505 2ed6 AF230000 		.4byte	0x23af
 7506 2eda AB050000 		.4byte	.LLST56
 7507 2ede 3D       		.uleb128 0x3d
 7508 2edf A3230000 		.4byte	0x23a3
 7509 2ee3 BF050000 		.4byte	.LLST57
 7510 2ee7 34       		.uleb128 0x34
 7511 2ee8 24000000 		.4byte	.LVL85
 7512 2eec 87360000 		.4byte	0x3687
 7513 2ef0 35       		.uleb128 0x35
 7514 2ef1 01       		.uleb128 0x1
 7515 2ef2 50       		.byte	0x50
 7516 2ef3 02       		.uleb128 0x2
 7517 2ef4 74       		.byte	0x74
 7518 2ef5 00       		.sleb128 0
 7519 2ef6 35       		.uleb128 0x35
 7520 2ef7 01       		.uleb128 0x1
 7521 2ef8 51       		.byte	0x51
 7522 2ef9 02       		.uleb128 0x2
 7523 2efa 08       		.byte	0x8
 7524 2efb 68       		.byte	0x68
 7525 2efc 35       		.uleb128 0x35
ARM GAS  C:\Users\ASUS\AppData\Local\Temp\ccarWmgw.s 			page 174


 7526 2efd 01       		.uleb128 0x1
 7527 2efe 52       		.byte	0x52
 7528 2eff 03       		.uleb128 0x3
 7529 2f00 91       		.byte	0x91
 7530 2f01 58       		.sleb128 -40
 7531 2f02 06       		.byte	0x6
 7532 2f03 35       		.uleb128 0x35
 7533 2f04 01       		.uleb128 0x1
 7534 2f05 53       		.byte	0x53
 7535 2f06 05       		.uleb128 0x5
 7536 2f07 91       		.byte	0x91
 7537 2f08 58       		.sleb128 -40
 7538 2f09 06       		.byte	0x6
 7539 2f0a 23       		.byte	0x23
 7540 2f0b 64       		.uleb128 0x64
 7541 2f0c 35       		.uleb128 0x35
 7542 2f0d 02       		.uleb128 0x2
 7543 2f0e 7D       		.byte	0x7d
 7544 2f0f 00       		.sleb128 0
 7545 2f10 02       		.uleb128 0x2
 7546 2f11 75       		.byte	0x75
 7547 2f12 00       		.sleb128 0
 7548 2f13 00       		.byte	0
 7549 2f14 00       		.byte	0
 7550 2f15 3C       		.uleb128 0x3c
 7551 2f16 68230000 		.4byte	0x2368
 7552 2f1a 2C000000 		.4byte	.LBB82
 7553 2f1e 0C000000 		.4byte	.LBE82-.LBB82
 7554 2f22 05       		.byte	0x5
 7555 2f23 56       		.byte	0x56
 7556 2f24 5D2F0000 		.4byte	0x2f5d
 7557 2f28 3D       		.uleb128 0x3d
 7558 2f29 85230000 		.4byte	0x2385
 7559 2f2d D4050000 		.4byte	.LLST58
 7560 2f31 3D       		.uleb128 0x3d
 7561 2f32 79230000 		.4byte	0x2379
 7562 2f36 E9050000 		.4byte	.LLST59
 7563 2f3a 34       		.uleb128 0x34
 7564 2f3b 38000000 		.4byte	.LVL87
 7565 2f3f 93360000 		.4byte	0x3693
 7566 2f43 35       		.uleb128 0x35
 7567 2f44 01       		.uleb128 0x1
 7568 2f45 50       		.byte	0x50
 7569 2f46 02       		.uleb128 0x2
 7570 2f47 74       		.byte	0x74
 7571 2f48 00       		.sleb128 0
 7572 2f49 35       		.uleb128 0x35
 7573 2f4a 01       		.uleb128 0x1
 7574 2f4b 51       		.byte	0x51
 7575 2f4c 02       		.uleb128 0x2
 7576 2f4d 77       		.byte	0x77
 7577 2f4e 00       		.sleb128 0
 7578 2f4f 35       		.uleb128 0x35
 7579 2f50 01       		.uleb128 0x1
 7580 2f51 52       		.byte	0x52
 7581 2f52 02       		.uleb128 0x2
 7582 2f53 08       		.byte	0x8
ARM GAS  C:\Users\ASUS\AppData\Local\Temp\ccarWmgw.s 			page 175


 7583 2f54 64       		.byte	0x64
 7584 2f55 35       		.uleb128 0x35
 7585 2f56 01       		.uleb128 0x1
 7586 2f57 53       		.byte	0x53
 7587 2f58 02       		.uleb128 0x2
 7588 2f59 75       		.byte	0x75
 7589 2f5a 00       		.sleb128 0
 7590 2f5b 00       		.byte	0
 7591 2f5c 00       		.byte	0
 7592 2f5d 3C       		.uleb128 0x3c
 7593 2f5e 68230000 		.4byte	0x2368
 7594 2f62 3A000000 		.4byte	.LBB84
 7595 2f66 0C000000 		.4byte	.LBE84-.LBB84
 7596 2f6a 05       		.byte	0x5
 7597 2f6b 57       		.byte	0x57
 7598 2f6c A52F0000 		.4byte	0x2fa5
 7599 2f70 3D       		.uleb128 0x3d
 7600 2f71 85230000 		.4byte	0x2385
 7601 2f75 FC050000 		.4byte	.LLST60
 7602 2f79 3D       		.uleb128 0x3d
 7603 2f7a 79230000 		.4byte	0x2379
 7604 2f7e 11060000 		.4byte	.LLST61
 7605 2f82 34       		.uleb128 0x34
 7606 2f83 46000000 		.4byte	.LVL89
 7607 2f87 93360000 		.4byte	0x3693
 7608 2f8b 35       		.uleb128 0x35
 7609 2f8c 01       		.uleb128 0x1
 7610 2f8d 50       		.byte	0x50
 7611 2f8e 02       		.uleb128 0x2
 7612 2f8f 74       		.byte	0x74
 7613 2f90 00       		.sleb128 0
 7614 2f91 35       		.uleb128 0x35
 7615 2f92 01       		.uleb128 0x1
 7616 2f93 51       		.byte	0x51
 7617 2f94 02       		.uleb128 0x2
 7618 2f95 76       		.byte	0x76
 7619 2f96 00       		.sleb128 0
 7620 2f97 35       		.uleb128 0x35
 7621 2f98 01       		.uleb128 0x1
 7622 2f99 52       		.byte	0x52
 7623 2f9a 02       		.uleb128 0x2
 7624 2f9b 08       		.byte	0x8
 7625 2f9c 64       		.byte	0x64
 7626 2f9d 35       		.uleb128 0x35
 7627 2f9e 01       		.uleb128 0x1
 7628 2f9f 53       		.byte	0x53
 7629 2fa0 02       		.uleb128 0x2
 7630 2fa1 75       		.byte	0x75
 7631 2fa2 00       		.sleb128 0
 7632 2fa3 00       		.byte	0
 7633 2fa4 00       		.byte	0
 7634 2fa5 3C       		.uleb128 0x3c
 7635 2fa6 DE220000 		.4byte	0x22de
 7636 2faa 4E000000 		.4byte	.LBB86
 7637 2fae 0A000000 		.4byte	.LBE86-.LBB86
 7638 2fb2 05       		.byte	0x5
 7639 2fb3 5A       		.byte	0x5a
ARM GAS  C:\Users\ASUS\AppData\Local\Temp\ccarWmgw.s 			page 176


 7640 2fb4 DE2F0000 		.4byte	0x2fde
 7641 2fb8 3D       		.uleb128 0x3d
 7642 2fb9 EF220000 		.4byte	0x22ef
 7643 2fbd 24060000 		.4byte	.LLST62
 7644 2fc1 34       		.uleb128 0x34
 7645 2fc2 58000000 		.4byte	.LVL91
 7646 2fc6 B7360000 		.4byte	0x36b7
 7647 2fca 35       		.uleb128 0x35
 7648 2fcb 01       		.uleb128 0x1
 7649 2fcc 50       		.byte	0x50
 7650 2fcd 02       		.uleb128 0x2
 7651 2fce 74       		.byte	0x74
 7652 2fcf 00       		.sleb128 0
 7653 2fd0 35       		.uleb128 0x35
 7654 2fd1 01       		.uleb128 0x1
 7655 2fd2 51       		.byte	0x51
 7656 2fd3 02       		.uleb128 0x2
 7657 2fd4 08       		.byte	0x8
 7658 2fd5 64       		.byte	0x64
 7659 2fd6 35       		.uleb128 0x35
 7660 2fd7 01       		.uleb128 0x1
 7661 2fd8 52       		.byte	0x52
 7662 2fd9 02       		.uleb128 0x2
 7663 2fda 75       		.byte	0x75
 7664 2fdb 00       		.sleb128 0
 7665 2fdc 00       		.byte	0
 7666 2fdd 00       		.byte	0
 7667 2fde 39       		.uleb128 0x39
 7668 2fdf 2C000000 		.4byte	.LVL86
 7669 2fe3 64360000 		.4byte	0x3664
 7670 2fe7 F12F0000 		.4byte	0x2ff1
 7671 2feb 35       		.uleb128 0x35
 7672 2fec 01       		.uleb128 0x1
 7673 2fed 50       		.byte	0x50
 7674 2fee 01       		.uleb128 0x1
 7675 2fef 31       		.byte	0x31
 7676 2ff0 00       		.byte	0
 7677 2ff1 39       		.uleb128 0x39
 7678 2ff2 4E000000 		.4byte	.LVL90
 7679 2ff6 64360000 		.4byte	0x3664
 7680 2ffa 04300000 		.4byte	0x3004
 7681 2ffe 35       		.uleb128 0x35
 7682 2fff 01       		.uleb128 0x1
 7683 3000 50       		.byte	0x50
 7684 3001 01       		.uleb128 0x1
 7685 3002 31       		.byte	0x31
 7686 3003 00       		.byte	0
 7687 3004 34       		.uleb128 0x34
 7688 3005 6A000000 		.4byte	.LVL92
 7689 3009 C3360000 		.4byte	0x36c3
 7690 300d 35       		.uleb128 0x35
 7691 300e 01       		.uleb128 0x1
 7692 300f 50       		.byte	0x50
 7693 3010 05       		.uleb128 0x5
 7694 3011 03       		.byte	0x3
 7695 3012 68000000 		.4byte	.LC11
 7696 3016 00       		.byte	0
ARM GAS  C:\Users\ASUS\AppData\Local\Temp\ccarWmgw.s 			page 177


 7697 3017 00       		.byte	0
 7698 3018 2F       		.uleb128 0x2f
 7699 3019 A82F0000 		.4byte	.LASF779
 7700 301d 05       		.byte	0x5
 7701 301e 60       		.byte	0x60
 7702 301f 00000000 		.4byte	.LFB471
 7703 3023 22000000 		.4byte	.LFE471-.LFB471
 7704 3027 01       		.uleb128 0x1
 7705 3028 9C       		.byte	0x9c
 7706 3029 93300000 		.4byte	0x3093
 7707 302d 30       		.uleb128 0x30
 7708 302e FF120000 		.4byte	.LASF780
 7709 3032 05       		.byte	0x5
 7710 3033 60       		.byte	0x60
 7711 3034 D3220000 		.4byte	0x22d3
 7712 3038 39060000 		.4byte	.LLST63
 7713 303c 30       		.uleb128 0x30
 7714 303d 04130000 		.4byte	.LASF781
 7715 3041 05       		.byte	0x5
 7716 3042 60       		.byte	0x60
 7717 3043 D3220000 		.4byte	0x22d3
 7718 3047 65060000 		.4byte	.LLST64
 7719 304b 30       		.uleb128 0x30
 7720 304c 09130000 		.4byte	.LASF782
 7721 3050 05       		.byte	0x5
 7722 3051 60       		.byte	0x60
 7723 3052 D3220000 		.4byte	0x22d3
 7724 3056 91060000 		.4byte	.LLST65
 7725 305a 39       		.uleb128 0x39
 7726 305b 0E000000 		.4byte	.LVL95
 7727 305f 612B0000 		.4byte	0x2b61
 7728 3063 6E300000 		.4byte	0x306e
 7729 3067 35       		.uleb128 0x35
 7730 3068 01       		.uleb128 0x1
 7731 3069 50       		.byte	0x50
 7732 306a 02       		.uleb128 0x2
 7733 306b 08       		.byte	0x8
 7734 306c 2D       		.byte	0x2d
 7735 306d 00       		.byte	0
 7736 306e 39       		.uleb128 0x39
 7737 306f 16000000 		.4byte	.LVL96
 7738 3073 612B0000 		.4byte	0x2b61
 7739 3077 82300000 		.4byte	0x3082
 7740 307b 35       		.uleb128 0x35
 7741 307c 01       		.uleb128 0x1
 7742 307d 50       		.byte	0x50
 7743 307e 02       		.uleb128 0x2
 7744 307f 08       		.byte	0x8
 7745 3080 2F       		.byte	0x2f
 7746 3081 00       		.byte	0
 7747 3082 34       		.uleb128 0x34
 7748 3083 1E000000 		.4byte	.LVL97
 7749 3087 612B0000 		.4byte	0x2b61
 7750 308b 35       		.uleb128 0x35
 7751 308c 01       		.uleb128 0x1
 7752 308d 50       		.byte	0x50
 7753 308e 02       		.uleb128 0x2
ARM GAS  C:\Users\ASUS\AppData\Local\Temp\ccarWmgw.s 			page 178


 7754 308f 08       		.byte	0x8
 7755 3090 31       		.byte	0x31
 7756 3091 00       		.byte	0
 7757 3092 00       		.byte	0
 7758 3093 2F       		.uleb128 0x2f
 7759 3094 52120000 		.4byte	.LASF783
 7760 3098 05       		.byte	0x5
 7761 3099 68       		.byte	0x68
 7762 309a 00000000 		.4byte	.LFB472
 7763 309e 22000000 		.4byte	.LFE472-.LFB472
 7764 30a2 01       		.uleb128 0x1
 7765 30a3 9C       		.byte	0x9c
 7766 30a4 0E310000 		.4byte	0x310e
 7767 30a8 30       		.uleb128 0x30
 7768 30a9 6F170000 		.4byte	.LASF784
 7769 30ad 05       		.byte	0x5
 7770 30ae 68       		.byte	0x68
 7771 30af D3220000 		.4byte	0x22d3
 7772 30b3 BD060000 		.4byte	.LLST66
 7773 30b7 30       		.uleb128 0x30
 7774 30b8 75170000 		.4byte	.LASF785
 7775 30bc 05       		.byte	0x5
 7776 30bd 68       		.byte	0x68
 7777 30be D3220000 		.4byte	0x22d3
 7778 30c2 E9060000 		.4byte	.LLST67
 7779 30c6 30       		.uleb128 0x30
 7780 30c7 7B170000 		.4byte	.LASF786
 7781 30cb 05       		.byte	0x5
 7782 30cc 68       		.byte	0x68
 7783 30cd D3220000 		.4byte	0x22d3
 7784 30d1 15070000 		.4byte	.LLST68
 7785 30d5 39       		.uleb128 0x39
 7786 30d6 0E000000 		.4byte	.LVL103
 7787 30da 612B0000 		.4byte	0x2b61
 7788 30de E9300000 		.4byte	0x30e9
 7789 30e2 35       		.uleb128 0x35
 7790 30e3 01       		.uleb128 0x1
 7791 30e4 50       		.byte	0x50
 7792 30e5 02       		.uleb128 0x2
 7793 30e6 08       		.byte	0x8
 7794 30e7 33       		.byte	0x33
 7795 30e8 00       		.byte	0
 7796 30e9 39       		.uleb128 0x39
 7797 30ea 16000000 		.4byte	.LVL104
 7798 30ee 612B0000 		.4byte	0x2b61
 7799 30f2 FD300000 		.4byte	0x30fd
 7800 30f6 35       		.uleb128 0x35
 7801 30f7 01       		.uleb128 0x1
 7802 30f8 50       		.byte	0x50
 7803 30f9 02       		.uleb128 0x2
 7804 30fa 08       		.byte	0x8
 7805 30fb 35       		.byte	0x35
 7806 30fc 00       		.byte	0
 7807 30fd 34       		.uleb128 0x34
 7808 30fe 1E000000 		.4byte	.LVL105
 7809 3102 612B0000 		.4byte	0x2b61
 7810 3106 35       		.uleb128 0x35
ARM GAS  C:\Users\ASUS\AppData\Local\Temp\ccarWmgw.s 			page 179


 7811 3107 01       		.uleb128 0x1
 7812 3108 50       		.byte	0x50
 7813 3109 02       		.uleb128 0x2
 7814 310a 08       		.byte	0x8
 7815 310b 37       		.byte	0x37
 7816 310c 00       		.byte	0
 7817 310d 00       		.byte	0
 7818 310e 2F       		.uleb128 0x2f
 7819 310f 2C160000 		.4byte	.LASF787
 7820 3113 05       		.byte	0x5
 7821 3114 70       		.byte	0x70
 7822 3115 00000000 		.4byte	.LFB473
 7823 3119 14000000 		.4byte	.LFE473-.LFB473
 7824 311d 01       		.uleb128 0x1
 7825 311e 9C       		.byte	0x9c
 7826 311f 5E310000 		.4byte	0x315e
 7827 3123 3B       		.uleb128 0x3b
 7828 3124 7800     		.ascii	"x\000"
 7829 3126 05       		.byte	0x5
 7830 3127 70       		.byte	0x70
 7831 3128 4B050000 		.4byte	0x54b
 7832 312c 41070000 		.4byte	.LLST69
 7833 3130 3B       		.uleb128 0x3b
 7834 3131 7900     		.ascii	"y\000"
 7835 3133 05       		.byte	0x5
 7836 3134 70       		.byte	0x70
 7837 3135 4B050000 		.4byte	0x54b
 7838 3139 62070000 		.4byte	.LLST70
 7839 313d 3B       		.uleb128 0x3b
 7840 313e 7A00     		.ascii	"z\000"
 7841 3140 05       		.byte	0x5
 7842 3141 70       		.byte	0x70
 7843 3142 4B050000 		.4byte	0x54b
 7844 3146 83070000 		.4byte	.LLST71
 7845 314a 34       		.uleb128 0x34
 7846 314b 0E000000 		.4byte	.LVL113
 7847 314f C3360000 		.4byte	0x36c3
 7848 3153 35       		.uleb128 0x35
 7849 3154 01       		.uleb128 0x1
 7850 3155 50       		.byte	0x50
 7851 3156 05       		.uleb128 0x5
 7852 3157 03       		.byte	0x3
 7853 3158 F4000000 		.4byte	.LC20
 7854 315c 00       		.byte	0
 7855 315d 00       		.byte	0
 7856 315e 2F       		.uleb128 0x2f
 7857 315f E9240000 		.4byte	.LASF788
 7858 3163 05       		.byte	0x5
 7859 3164 78       		.byte	0x78
 7860 3165 00000000 		.4byte	.LFB474
 7861 3169 14000000 		.4byte	.LFE474-.LFB474
 7862 316d 01       		.uleb128 0x1
 7863 316e 9C       		.byte	0x9c
 7864 316f AE310000 		.4byte	0x31ae
 7865 3173 3B       		.uleb128 0x3b
 7866 3174 7800     		.ascii	"x\000"
 7867 3176 05       		.byte	0x5
ARM GAS  C:\Users\ASUS\AppData\Local\Temp\ccarWmgw.s 			page 180


 7868 3177 78       		.byte	0x78
 7869 3178 4B050000 		.4byte	0x54b
 7870 317c A4070000 		.4byte	.LLST72
 7871 3180 3B       		.uleb128 0x3b
 7872 3181 7900     		.ascii	"y\000"
 7873 3183 05       		.byte	0x5
 7874 3184 78       		.byte	0x78
 7875 3185 4B050000 		.4byte	0x54b
 7876 3189 C5070000 		.4byte	.LLST73
 7877 318d 3B       		.uleb128 0x3b
 7878 318e 7A00     		.ascii	"z\000"
 7879 3190 05       		.byte	0x5
 7880 3191 78       		.byte	0x78
 7881 3192 4B050000 		.4byte	0x54b
 7882 3196 E6070000 		.4byte	.LLST74
 7883 319a 34       		.uleb128 0x34
 7884 319b 0E000000 		.4byte	.LVL118
 7885 319f C3360000 		.4byte	0x36c3
 7886 31a3 35       		.uleb128 0x35
 7887 31a4 01       		.uleb128 0x1
 7888 31a5 50       		.byte	0x50
 7889 31a6 05       		.uleb128 0x5
 7890 31a7 03       		.byte	0x3
 7891 31a8 4C010000 		.4byte	.LC22
 7892 31ac 00       		.byte	0
 7893 31ad 00       		.byte	0
 7894 31ae 3A       		.uleb128 0x3a
 7895 31af A02F0000 		.4byte	.LASF789
 7896 31b3 02       		.byte	0x2
 7897 31b4 7A       		.byte	0x7a
 7898 31b5 84100000 		.4byte	0x1084
 7899 31b9 00000000 		.4byte	.LFB476
 7900 31bd 28000000 		.4byte	.LFE476-.LFB476
 7901 31c1 01       		.uleb128 0x1
 7902 31c2 9C       		.byte	0x9c
 7903 31c3 FE310000 		.4byte	0x31fe
 7904 31c7 32       		.uleb128 0x32
 7905 31c8 150F0000 		.4byte	.LASF790
 7906 31cc 02       		.byte	0x2
 7907 31cd 7C       		.byte	0x7c
 7908 31ce 61050000 		.4byte	0x561
 7909 31d2 07080000 		.4byte	.LLST75
 7910 31d6 32       		.uleb128 0x32
 7911 31d7 D8070000 		.4byte	.LASF791
 7912 31db 02       		.byte	0x2
 7913 31dc 7D       		.byte	0x7d
 7914 31dd 84100000 		.4byte	0x1084
 7915 31e1 28080000 		.4byte	.LLST76
 7916 31e5 33       		.uleb128 0x33
 7917 31e6 0C000000 		.4byte	.LVL121
 7918 31ea CE360000 		.4byte	0x36ce
 7919 31ee 34       		.uleb128 0x34
 7920 31ef 16000000 		.4byte	.LVL125
 7921 31f3 64360000 		.4byte	0x3664
 7922 31f7 35       		.uleb128 0x35
 7923 31f8 01       		.uleb128 0x1
 7924 31f9 50       		.byte	0x50
ARM GAS  C:\Users\ASUS\AppData\Local\Temp\ccarWmgw.s 			page 181


 7925 31fa 01       		.uleb128 0x1
 7926 31fb 35       		.byte	0x35
 7927 31fc 00       		.byte	0
 7928 31fd 00       		.byte	0
 7929 31fe 3A       		.uleb128 0x3a
 7930 31ff 7A370000 		.4byte	.LASF792
 7931 3203 02       		.byte	0x2
 7932 3204 9E       		.byte	0x9e
 7933 3205 84100000 		.4byte	0x1084
 7934 3209 00000000 		.4byte	.LFB477
 7935 320d 28000000 		.4byte	.LFE477-.LFB477
 7936 3211 01       		.uleb128 0x1
 7937 3212 9C       		.byte	0x9c
 7938 3213 61320000 		.4byte	0x3261
 7939 3217 32       		.uleb128 0x32
 7940 3218 150F0000 		.4byte	.LASF790
 7941 321c 02       		.byte	0x2
 7942 321d A0       		.byte	0xa0
 7943 321e 61050000 		.4byte	0x561
 7944 3222 51080000 		.4byte	.LLST77
 7945 3226 32       		.uleb128 0x32
 7946 3227 D8070000 		.4byte	.LASF791
 7947 322b 02       		.byte	0x2
 7948 322c A1       		.byte	0xa1
 7949 322d 84100000 		.4byte	0x1084
 7950 3231 72080000 		.4byte	.LLST78
 7951 3235 39       		.uleb128 0x39
 7952 3236 0E000000 		.4byte	.LVL130
 7953 323a DA360000 		.4byte	0x36da
 7954 323e 51320000 		.4byte	0x3251
 7955 3242 35       		.uleb128 0x35
 7956 3243 01       		.uleb128 0x1
 7957 3244 50       		.byte	0x50
 7958 3245 05       		.uleb128 0x5
 7959 3246 03       		.byte	0x3
 7960 3247 00000000 		.4byte	.LANCHOR1
 7961 324b 35       		.uleb128 0x35
 7962 324c 01       		.uleb128 0x1
 7963 324d 51       		.byte	0x51
 7964 324e 01       		.uleb128 0x1
 7965 324f 31       		.byte	0x31
 7966 3250 00       		.byte	0
 7967 3251 34       		.uleb128 0x34
 7968 3252 18000000 		.4byte	.LVL134
 7969 3256 64360000 		.4byte	0x3664
 7970 325a 35       		.uleb128 0x35
 7971 325b 01       		.uleb128 0x1
 7972 325c 50       		.byte	0x50
 7973 325d 01       		.uleb128 0x1
 7974 325e 35       		.byte	0x35
 7975 325f 00       		.byte	0
 7976 3260 00       		.byte	0
 7977 3261 2F       		.uleb128 0x2f
 7978 3262 EF2F0000 		.4byte	.LASF793
 7979 3266 02       		.byte	0x2
 7980 3267 42       		.byte	0x42
 7981 3268 00000000 		.4byte	.LFB475
ARM GAS  C:\Users\ASUS\AppData\Local\Temp\ccarWmgw.s 			page 182


 7982 326c 5C000000 		.4byte	.LFE475-.LFB475
 7983 3270 01       		.uleb128 0x1
 7984 3271 9C       		.byte	0x9c
 7985 3272 0C330000 		.4byte	0x330c
 7986 3276 3C       		.uleb128 0x3c
 7987 3277 C8230000 		.4byte	0x23c8
 7988 327b 3A000000 		.4byte	.LBB88
 7989 327f 10000000 		.4byte	.LBE88-.LBB88
 7990 3283 02       		.byte	0x2
 7991 3284 66       		.byte	0x66
 7992 3285 93320000 		.4byte	0x3293
 7993 3289 3D       		.uleb128 0x3d
 7994 328a D5230000 		.4byte	0x23d5
 7995 328e 9B080000 		.4byte	.LLST79
 7996 3292 00       		.byte	0
 7997 3293 33       		.uleb128 0x33
 7998 3294 06000000 		.4byte	.LVL137
 7999 3298 AE310000 		.4byte	0x31ae
 8000 329c 39       		.uleb128 0x39
 8001 329d 12000000 		.4byte	.LVL138
 8002 32a1 E6360000 		.4byte	0x36e6
 8003 32a5 B9320000 		.4byte	0x32b9
 8004 32a9 35       		.uleb128 0x35
 8005 32aa 01       		.uleb128 0x1
 8006 32ab 50       		.byte	0x50
 8007 32ac 05       		.uleb128 0x5
 8008 32ad 03       		.byte	0x3
 8009 32ae 98010000 		.4byte	.LC26
 8010 32b2 35       		.uleb128 0x35
 8011 32b3 01       		.uleb128 0x1
 8012 32b4 51       		.byte	0x51
 8013 32b5 02       		.uleb128 0x2
 8014 32b6 08       		.byte	0x8
 8015 32b7 48       		.byte	0x48
 8016 32b8 00       		.byte	0
 8017 32b9 33       		.uleb128 0x33
 8018 32ba 18000000 		.4byte	.LVL139
 8019 32be FE310000 		.4byte	0x31fe
 8020 32c2 39       		.uleb128 0x39
 8021 32c3 24000000 		.4byte	.LVL140
 8022 32c7 E6360000 		.4byte	0x36e6
 8023 32cb DF320000 		.4byte	0x32df
 8024 32cf 35       		.uleb128 0x35
 8025 32d0 01       		.uleb128 0x1
 8026 32d1 50       		.byte	0x50
 8027 32d2 05       		.uleb128 0x5
 8028 32d3 03       		.byte	0x3
 8029 32d4 98010000 		.4byte	.LC26
 8030 32d8 35       		.uleb128 0x35
 8031 32d9 01       		.uleb128 0x1
 8032 32da 51       		.byte	0x51
 8033 32db 02       		.uleb128 0x2
 8034 32dc 08       		.byte	0x8
 8035 32dd 5B       		.byte	0x5b
 8036 32de 00       		.byte	0
 8037 32df 39       		.uleb128 0x39
 8038 32e0 2C000000 		.4byte	.LVL141
ARM GAS  C:\Users\ASUS\AppData\Local\Temp\ccarWmgw.s 			page 183


 8039 32e4 F2360000 		.4byte	0x36f2
 8040 32e8 F2320000 		.4byte	0x32f2
 8041 32ec 35       		.uleb128 0x35
 8042 32ed 01       		.uleb128 0x1
 8043 32ee 50       		.byte	0x50
 8044 32ef 01       		.uleb128 0x1
 8045 32f0 32       		.byte	0x32
 8046 32f1 00       		.byte	0
 8047 32f2 34       		.uleb128 0x34
 8048 32f3 36000000 		.4byte	.LVL142
 8049 32f7 FE360000 		.4byte	0x36fe
 8050 32fb 35       		.uleb128 0x35
 8051 32fc 01       		.uleb128 0x1
 8052 32fd 50       		.byte	0x50
 8053 32fe 02       		.uleb128 0x2
 8054 32ff 74       		.byte	0x74
 8055 3300 00       		.sleb128 0
 8056 3301 35       		.uleb128 0x35
 8057 3302 01       		.uleb128 0x1
 8058 3303 51       		.byte	0x51
 8059 3304 05       		.uleb128 0x5
 8060 3305 03       		.byte	0x3
 8061 3306 00000000 		.4byte	RtcInterruptHandler
 8062 330a 00       		.byte	0
 8063 330b 00       		.byte	0
 8064 330c 3F       		.uleb128 0x3f
 8065 330d C4040000 		.4byte	.LASF843
 8066 3311 02       		.byte	0x2
 8067 3312 D6       		.byte	0xd6
 8068 3313 00000000 		.4byte	.LFB479
 8069 3317 0C000000 		.4byte	.LFE479-.LFB479
 8070 331b 01       		.uleb128 0x1
 8071 331c 9C       		.byte	0x9c
 8072 331d 3E       		.uleb128 0x3e
 8073 331e FB060000 		.4byte	.LASF794
 8074 3322 02       		.byte	0x2
 8075 3323 ED       		.byte	0xed
 8076 3324 00000000 		.4byte	.LFB480
 8077 3328 30000000 		.4byte	.LFE480-.LFB480
 8078 332c 01       		.uleb128 0x1
 8079 332d 9C       		.byte	0x9c
 8080 332e 56330000 		.4byte	0x3356
 8081 3332 33       		.uleb128 0x33
 8082 3333 18000000 		.4byte	.LVL147
 8083 3337 FE310000 		.4byte	0x31fe
 8084 333b 34       		.uleb128 0x34
 8085 333c 26000000 		.4byte	.LVL148
 8086 3340 E6360000 		.4byte	0x36e6
 8087 3344 35       		.uleb128 0x35
 8088 3345 01       		.uleb128 0x1
 8089 3346 50       		.byte	0x50
 8090 3347 05       		.uleb128 0x5
 8091 3348 03       		.byte	0x3
 8092 3349 98010000 		.4byte	.LC26
 8093 334d 35       		.uleb128 0x35
 8094 334e 01       		.uleb128 0x1
 8095 334f 51       		.byte	0x51
ARM GAS  C:\Users\ASUS\AppData\Local\Temp\ccarWmgw.s 			page 184


 8096 3350 03       		.uleb128 0x3
 8097 3351 0A       		.byte	0xa
 8098 3352 1901     		.2byte	0x119
 8099 3354 00       		.byte	0
 8100 3355 00       		.byte	0
 8101 3356 40       		.uleb128 0x40
 8102 3357 5E0A0000 		.4byte	.LASF844
 8103 335b 07       		.byte	0x7
 8104 335c 24       		.byte	0x24
 8105 335d 27050000 		.4byte	0x527
 8106 3361 00000000 		.4byte	.LFB481
 8107 3365 8C000000 		.4byte	.LFE481-.LFB481
 8108 3369 01       		.uleb128 0x1
 8109 336a 9C       		.byte	0x9c
 8110 336b 42340000 		.4byte	0x3442
 8111 336f 41       		.uleb128 0x41
 8112 3370 E2230000 		.4byte	0x23e2
 8113 3374 02000000 		.4byte	.LBB90
 8114 3378 02000000 		.4byte	.LBE90-.LBB90
 8115 337c 07       		.byte	0x7
 8116 337d 26       		.byte	0x26
 8117 337e 39       		.uleb128 0x39
 8118 337f 0A000000 		.4byte	.LVL149
 8119 3383 0A370000 		.4byte	0x370a
 8120 3387 95330000 		.4byte	0x3395
 8121 338b 35       		.uleb128 0x35
 8122 338c 01       		.uleb128 0x1
 8123 338d 50       		.byte	0x50
 8124 338e 05       		.uleb128 0x5
 8125 338f 0C       		.byte	0xc
 8126 3390 00000810 		.4byte	0x10080000
 8127 3394 00       		.byte	0
 8128 3395 33       		.uleb128 0x33
 8129 3396 0E000000 		.4byte	.LVL150
 8130 339a 16370000 		.4byte	0x3716
 8131 339e 39       		.uleb128 0x39
 8132 339f 1E000000 		.4byte	.LVL151
 8133 33a3 21370000 		.4byte	0x3721
 8134 33a7 BB330000 		.4byte	0x33bb
 8135 33ab 35       		.uleb128 0x35
 8136 33ac 01       		.uleb128 0x1
 8137 33ad 51       		.byte	0x51
 8138 33ae 01       		.uleb128 0x1
 8139 33af 30       		.byte	0x30
 8140 33b0 35       		.uleb128 0x35
 8141 33b1 01       		.uleb128 0x1
 8142 33b2 52       		.byte	0x52
 8143 33b3 01       		.uleb128 0x1
 8144 33b4 32       		.byte	0x32
 8145 33b5 35       		.uleb128 0x35
 8146 33b6 01       		.uleb128 0x1
 8147 33b7 53       		.byte	0x53
 8148 33b8 01       		.uleb128 0x1
 8149 33b9 30       		.byte	0x30
 8150 33ba 00       		.byte	0
 8151 33bb 33       		.uleb128 0x33
 8152 33bc 22000000 		.4byte	.LVL152
ARM GAS  C:\Users\ASUS\AppData\Local\Temp\ccarWmgw.s 			page 185


 8153 33c0 2C370000 		.4byte	0x372c
 8154 33c4 39       		.uleb128 0x39
 8155 33c5 28000000 		.4byte	.LVL153
 8156 33c9 64360000 		.4byte	0x3664
 8157 33cd D9330000 		.4byte	0x33d9
 8158 33d1 35       		.uleb128 0x35
 8159 33d2 01       		.uleb128 0x1
 8160 33d3 50       		.byte	0x50
 8161 33d4 03       		.uleb128 0x3
 8162 33d5 0A       		.byte	0xa
 8163 33d6 8813     		.2byte	0x1388
 8164 33d8 00       		.byte	0
 8165 33d9 33       		.uleb128 0x33
 8166 33da 2C000000 		.4byte	.LVL154
 8167 33de 61320000 		.4byte	0x3261
 8168 33e2 39       		.uleb128 0x39
 8169 33e3 3E000000 		.4byte	.LVL155
 8170 33e7 1F2A0000 		.4byte	0x2a1f
 8171 33eb 0B340000 		.4byte	0x340b
 8172 33ef 35       		.uleb128 0x35
 8173 33f0 01       		.uleb128 0x1
 8174 33f1 50       		.byte	0x50
 8175 33f2 02       		.uleb128 0x2
 8176 33f3 74       		.byte	0x74
 8177 33f4 00       		.sleb128 0
 8178 33f5 35       		.uleb128 0x35
 8179 33f6 01       		.uleb128 0x1
 8180 33f7 51       		.byte	0x51
 8181 33f8 02       		.uleb128 0x2
 8182 33f9 75       		.byte	0x75
 8183 33fa 00       		.sleb128 0
 8184 33fb 35       		.uleb128 0x35
 8185 33fc 01       		.uleb128 0x1
 8186 33fd 52       		.byte	0x52
 8187 33fe 02       		.uleb128 0x2
 8188 33ff 76       		.byte	0x76
 8189 3400 00       		.sleb128 0
 8190 3401 35       		.uleb128 0x35
 8191 3402 01       		.uleb128 0x1
 8192 3403 53       		.byte	0x53
 8193 3404 05       		.uleb128 0x5
 8194 3405 03       		.byte	0x3
 8195 3406 00000000 		.4byte	temperature
 8196 340a 00       		.byte	0
 8197 340b 33       		.uleb128 0x33
 8198 340c 48000000 		.4byte	.LVL156
 8199 3410 FF2A0000 		.4byte	0x2aff
 8200 3414 39       		.uleb128 0x39
 8201 3415 50000000 		.4byte	.LVL157
 8202 3419 64360000 		.4byte	0x3664
 8203 341d 29340000 		.4byte	0x3429
 8204 3421 35       		.uleb128 0x35
 8205 3422 01       		.uleb128 0x1
 8206 3423 50       		.byte	0x50
 8207 3424 03       		.uleb128 0x3
 8208 3425 0A       		.byte	0xa
 8209 3426 E803     		.2byte	0x3e8
ARM GAS  C:\Users\ASUS\AppData\Local\Temp\ccarWmgw.s 			page 186


 8210 3428 00       		.byte	0
 8211 3429 33       		.uleb128 0x33
 8212 342a 62000000 		.4byte	.LVL158
 8213 342e 1D330000 		.4byte	0x331d
 8214 3432 34       		.uleb128 0x34
 8215 3433 68000000 		.4byte	.LVL159
 8216 3437 37370000 		.4byte	0x3737
 8217 343b 35       		.uleb128 0x35
 8218 343c 01       		.uleb128 0x1
 8219 343d 50       		.byte	0x50
 8220 343e 01       		.uleb128 0x1
 8221 343f 30       		.byte	0x30
 8222 3440 00       		.byte	0
 8223 3441 00       		.byte	0
 8224 3442 0D       		.uleb128 0xd
 8225 3443 E00F0000 		.4byte	0xfe0
 8226 3447 52340000 		.4byte	0x3452
 8227 344b 0E       		.uleb128 0xe
 8228 344c 0E060000 		.4byte	0x60e
 8229 3450 00       		.byte	0
 8230 3451 00       		.byte	0
 8231 3452 38       		.uleb128 0x38
 8232 3453 8F0B0000 		.4byte	.LASF795
 8233 3457 01       		.byte	0x1
 8234 3458 0F       		.byte	0xf
 8235 3459 42340000 		.4byte	0x3442
 8236 345d 05       		.uleb128 0x5
 8237 345e 03       		.byte	0x3
 8238 345f 00000000 		.4byte	data
 8239 3463 38       		.uleb128 0x38
 8240 3464 4D330000 		.4byte	.LASF796
 8241 3468 02       		.byte	0x2
 8242 3469 0F       		.byte	0xf
 8243 346a 61050000 		.4byte	0x561
 8244 346e 05       		.uleb128 0x5
 8245 346f 03       		.byte	0x3
 8246 3470 04000000 		.4byte	alarmFlag
 8247 3474 42       		.uleb128 0x42
 8248 3475 A8310000 		.4byte	.LASF797
 8249 3479 0E       		.byte	0xe
 8250 347a A7       		.byte	0xa7
 8251 347b 7F340000 		.4byte	0x347f
 8252 347f 16       		.uleb128 0x16
 8253 3480 04       		.byte	0x4
 8254 3481 85340000 		.4byte	0x3485
 8255 3485 10       		.uleb128 0x10
 8256 3486 AD0F0000 		.4byte	0xfad
 8257 348a 0D       		.uleb128 0xd
 8258 348b 48210000 		.4byte	0x2148
 8259 348f 9A340000 		.4byte	0x349a
 8260 3493 0E       		.uleb128 0xe
 8261 3494 0E060000 		.4byte	0x60e
 8262 3498 0B       		.byte	0xb
 8263 3499 00       		.byte	0
 8264 349a 43       		.uleb128 0x43
 8265 349b BD380000 		.4byte	.LASF798
 8266 349f 12       		.byte	0x12
ARM GAS  C:\Users\ASUS\AppData\Local\Temp\ccarWmgw.s 			page 187


 8267 34a0 0303     		.2byte	0x303
 8268 34a2 A6340000 		.4byte	0x34a6
 8269 34a6 10       		.uleb128 0x10
 8270 34a7 8A340000 		.4byte	0x348a
 8271 34ab 43       		.uleb128 0x43
 8272 34ac B0080000 		.4byte	.LASF799
 8273 34b0 18       		.byte	0x18
 8274 34b1 FD02     		.2byte	0x2fd
 8275 34b3 CD190000 		.4byte	0x19cd
 8276 34b7 43       		.uleb128 0x43
 8277 34b8 C1240000 		.4byte	.LASF800
 8278 34bc 1C       		.byte	0x1c
 8279 34bd 1B02     		.2byte	0x21b
 8280 34bf 45220000 		.4byte	0x2245
 8281 34c3 43       		.uleb128 0x43
 8282 34c4 F0360000 		.4byte	.LASF801
 8283 34c8 1C       		.byte	0x1c
 8284 34c9 2202     		.2byte	0x222
 8285 34cb 75220000 		.4byte	0x2275
 8286 34cf 0D       		.uleb128 0xd
 8287 34d0 71210000 		.4byte	0x2171
 8288 34d4 DF340000 		.4byte	0x34df
 8289 34d8 0E       		.uleb128 0xe
 8290 34d9 0E060000 		.4byte	0x60e
 8291 34dd 00       		.byte	0
 8292 34de 00       		.byte	0
 8293 34df 43       		.uleb128 0x43
 8294 34e0 37100000 		.4byte	.LASF802
 8295 34e4 1C       		.byte	0x1c
 8296 34e5 2C02     		.2byte	0x22c
 8297 34e7 CF340000 		.4byte	0x34cf
 8298 34eb 0D       		.uleb128 0xd
 8299 34ec BD220000 		.4byte	0x22bd
 8300 34f0 FB340000 		.4byte	0x34fb
 8301 34f4 0E       		.uleb128 0xe
 8302 34f5 0E060000 		.4byte	0x60e
 8303 34f9 00       		.byte	0
 8304 34fa 00       		.byte	0
 8305 34fb 43       		.uleb128 0x43
 8306 34fc 78350000 		.4byte	.LASF803
 8307 3500 1C       		.byte	0x1c
 8308 3501 2D02     		.2byte	0x22d
 8309 3503 EB340000 		.4byte	0x34eb
 8310 3507 43       		.uleb128 0x43
 8311 3508 6A0B0000 		.4byte	.LASF804
 8312 350c 1C       		.byte	0x1c
 8313 350d 5202     		.2byte	0x252
 8314 350f 35050000 		.4byte	0x535
 8315 3513 42       		.uleb128 0x42
 8316 3514 4D3D0000 		.4byte	.LASF805
 8317 3518 1E       		.byte	0x1e
 8318 3519 19       		.byte	0x19
 8319 351a D9220000 		.4byte	0x22d9
 8320 351e 42       		.uleb128 0x42
 8321 351f B0380000 		.4byte	.LASF806
 8322 3523 1F       		.byte	0x1f
 8323 3524 87       		.byte	0x87
ARM GAS  C:\Users\ASUS\AppData\Local\Temp\ccarWmgw.s 			page 188


 8324 3525 24160000 		.4byte	0x1624
 8325 3529 42       		.uleb128 0x42
 8326 352a E7340000 		.4byte	.LASF807
 8327 352e 04       		.byte	0x4
 8328 352f 7F       		.byte	0x7f
 8329 3530 48150000 		.4byte	0x1548
 8330 3534 42       		.uleb128 0x42
 8331 3535 3F1B0000 		.4byte	.LASF808
 8332 3539 20       		.byte	0x20
 8333 353a 7C       		.byte	0x7c
 8334 353b 45100000 		.4byte	0x1045
 8335 353f 42       		.uleb128 0x42
 8336 3540 E1030000 		.4byte	.LASF809
 8337 3544 20       		.byte	0x20
 8338 3545 7D       		.byte	0x7d
 8339 3546 4A350000 		.4byte	0x354a
 8340 354a 10       		.uleb128 0x10
 8341 354b 20130000 		.4byte	0x1320
 8342 354f 42       		.uleb128 0x42
 8343 3550 41370000 		.4byte	.LASF810
 8344 3554 20       		.byte	0x20
 8345 3555 7E       		.byte	0x7e
 8346 3556 5A350000 		.4byte	0x355a
 8347 355a 10       		.uleb128 0x10
 8348 355b C9110000 		.4byte	0x11c9
 8349 355f 44       		.uleb128 0x44
 8350 3560 522F0000 		.4byte	.LASF774
 8351 3564 07       		.byte	0x7
 8352 3565 1E       		.byte	0x1e
 8353 3566 4B050000 		.4byte	0x54b
 8354 356a 05       		.uleb128 0x5
 8355 356b 03       		.byte	0x3
 8356 356c 00000000 		.4byte	temperature
 8357 3570 44       		.uleb128 0x44
 8358 3571 06270000 		.4byte	.LASF811
 8359 3575 02       		.byte	0x2
 8360 3576 18       		.byte	0x18
 8361 3577 8C120000 		.4byte	0x128c
 8362 357b 05       		.uleb128 0x5
 8363 357c 03       		.byte	0x3
 8364 357d 00000000 		.4byte	alarmConfig
 8365 3581 44       		.uleb128 0x44
 8366 3582 2C3C0000 		.4byte	.LASF771
 8367 3586 07       		.byte	0x7
 8368 3587 1E       		.byte	0x1e
 8369 3588 4B050000 		.4byte	0x54b
 8370 358c 05       		.uleb128 0x5
 8371 358d 03       		.byte	0x3
 8372 358e 00000000 		.4byte	xChannel
 8373 3592 44       		.uleb128 0x44
 8374 3593 80240000 		.4byte	.LASF772
 8375 3597 07       		.byte	0x7
 8376 3598 1E       		.byte	0x1e
 8377 3599 4B050000 		.4byte	0x54b
 8378 359d 05       		.uleb128 0x5
 8379 359e 03       		.byte	0x3
 8380 359f 00000000 		.4byte	yChannel
ARM GAS  C:\Users\ASUS\AppData\Local\Temp\ccarWmgw.s 			page 189


 8381 35a3 44       		.uleb128 0x44
 8382 35a4 410F0000 		.4byte	.LASF773
 8383 35a8 07       		.byte	0x7
 8384 35a9 1E       		.byte	0x1e
 8385 35aa 4B050000 		.4byte	0x54b
 8386 35ae 05       		.uleb128 0x5
 8387 35af 03       		.byte	0x3
 8388 35b0 00000000 		.4byte	zChannel
 8389 35b4 44       		.uleb128 0x44
 8390 35b5 FF120000 		.4byte	.LASF780
 8391 35b9 07       		.byte	0x7
 8392 35ba 1F       		.byte	0x1f
 8393 35bb 4B050000 		.4byte	0x54b
 8394 35bf 05       		.uleb128 0x5
 8395 35c0 03       		.byte	0x3
 8396 35c1 00000000 		.4byte	accX
 8397 35c5 44       		.uleb128 0x44
 8398 35c6 04130000 		.4byte	.LASF781
 8399 35ca 07       		.byte	0x7
 8400 35cb 1F       		.byte	0x1f
 8401 35cc 4B050000 		.4byte	0x54b
 8402 35d0 05       		.uleb128 0x5
 8403 35d1 03       		.byte	0x3
 8404 35d2 00000000 		.4byte	accY
 8405 35d6 44       		.uleb128 0x44
 8406 35d7 09130000 		.4byte	.LASF782
 8407 35db 07       		.byte	0x7
 8408 35dc 1F       		.byte	0x1f
 8409 35dd 4B050000 		.4byte	0x54b
 8410 35e1 05       		.uleb128 0x5
 8411 35e2 03       		.byte	0x3
 8412 35e3 00000000 		.4byte	accZ
 8413 35e7 44       		.uleb128 0x44
 8414 35e8 6F170000 		.4byte	.LASF784
 8415 35ec 07       		.byte	0x7
 8416 35ed 20       		.byte	0x20
 8417 35ee 4B050000 		.4byte	0x54b
 8418 35f2 05       		.uleb128 0x5
 8419 35f3 03       		.byte	0x3
 8420 35f4 00000000 		.4byte	gyroX
 8421 35f8 44       		.uleb128 0x44
 8422 35f9 75170000 		.4byte	.LASF785
 8423 35fd 07       		.byte	0x7
 8424 35fe 20       		.byte	0x20
 8425 35ff 4B050000 		.4byte	0x54b
 8426 3603 05       		.uleb128 0x5
 8427 3604 03       		.byte	0x3
 8428 3605 00000000 		.4byte	gyroY
 8429 3609 44       		.uleb128 0x44
 8430 360a 7B170000 		.4byte	.LASF786
 8431 360e 07       		.byte	0x7
 8432 360f 20       		.byte	0x20
 8433 3610 4B050000 		.4byte	0x54b
 8434 3614 05       		.uleb128 0x5
 8435 3615 03       		.byte	0x3
 8436 3616 00000000 		.4byte	gyroZ
 8437 361a 45       		.uleb128 0x45
ARM GAS  C:\Users\ASUS\AppData\Local\Temp\ccarWmgw.s 			page 190


 8438 361b 4B010000 		.4byte	.LASF812
 8439 361f 4B010000 		.4byte	.LASF812
 8440 3623 1D       		.byte	0x1d
 8441 3624 5F01     		.2byte	0x15f
 8442 3626 45       		.uleb128 0x45
 8443 3627 C41E0000 		.4byte	.LASF813
 8444 362b C41E0000 		.4byte	.LASF813
 8445 362f 1C       		.byte	0x1c
 8446 3630 F901     		.2byte	0x1f9
 8447 3632 45       		.uleb128 0x45
 8448 3633 8B1C0000 		.4byte	.LASF814
 8449 3637 8B1C0000 		.4byte	.LASF814
 8450 363b 19       		.byte	0x19
 8451 363c F207     		.2byte	0x7f2
 8452 363e 45       		.uleb128 0x45
 8453 363f 93170000 		.4byte	.LASF815
 8454 3643 93170000 		.4byte	.LASF815
 8455 3647 12       		.byte	0x12
 8456 3648 2202     		.2byte	0x222
 8457 364a 46       		.uleb128 0x46
 8458 364b B8040000 		.4byte	.LASF845
 8459 364f C8280000 		.4byte	.LASF846
 8460 3653 26       		.byte	0x26
 8461 3654 00       		.byte	0
 8462 3655 B8040000 		.4byte	.LASF845
 8463 3659 47       		.uleb128 0x47
 8464 365a AA390000 		.4byte	.LASF816
 8465 365e AA390000 		.4byte	.LASF816
 8466 3662 21       		.byte	0x21
 8467 3663 D5       		.byte	0xd5
 8468 3664 45       		.uleb128 0x45
 8469 3665 B23E0000 		.4byte	.LASF817
 8470 3669 B23E0000 		.4byte	.LASF817
 8471 366d 0F       		.byte	0xf
 8472 366e 8903     		.2byte	0x389
 8473 3670 47       		.uleb128 0x47
 8474 3671 8D3C0000 		.4byte	.LASF818
 8475 3675 8D3C0000 		.4byte	.LASF818
 8476 3679 22       		.byte	0x22
 8477 367a 24       		.byte	0x24
 8478 367b 45       		.uleb128 0x45
 8479 367c D0390000 		.4byte	.LASF819
 8480 3680 D0390000 		.4byte	.LASF819
 8481 3684 23       		.byte	0x23
 8482 3685 7702     		.2byte	0x277
 8483 3687 45       		.uleb128 0x45
 8484 3688 D42F0000 		.4byte	.LASF820
 8485 368c D42F0000 		.4byte	.LASF820
 8486 3690 13       		.byte	0x13
 8487 3691 5303     		.2byte	0x353
 8488 3693 45       		.uleb128 0x45
 8489 3694 CE240000 		.4byte	.LASF821
 8490 3698 CE240000 		.4byte	.LASF821
 8491 369c 13       		.byte	0x13
 8492 369d 5A03     		.2byte	0x35a
 8493 369f 45       		.uleb128 0x45
 8494 36a0 89290000 		.4byte	.LASF822
ARM GAS  C:\Users\ASUS\AppData\Local\Temp\ccarWmgw.s 			page 191


 8495 36a4 89290000 		.4byte	.LASF822
 8496 36a8 13       		.byte	0x13
 8497 36a9 5503     		.2byte	0x355
 8498 36ab 45       		.uleb128 0x45
 8499 36ac CF1D0000 		.4byte	.LASF823
 8500 36b0 CF1D0000 		.4byte	.LASF823
 8501 36b4 13       		.byte	0x13
 8502 36b5 5803     		.2byte	0x358
 8503 36b7 45       		.uleb128 0x45
 8504 36b8 78220000 		.4byte	.LASF824
 8505 36bc 78220000 		.4byte	.LASF824
 8506 36c0 13       		.byte	0x13
 8507 36c1 5703     		.2byte	0x357
 8508 36c3 47       		.uleb128 0x47
 8509 36c4 8E150000 		.4byte	.LASF825
 8510 36c8 8E150000 		.4byte	.LASF825
 8511 36cc 24       		.byte	0x24
 8512 36cd BB       		.byte	0xbb
 8513 36ce 45       		.uleb128 0x45
 8514 36cf 75180000 		.4byte	.LASF826
 8515 36d3 75180000 		.4byte	.LASF826
 8516 36d7 12       		.byte	0x12
 8517 36d8 0202     		.2byte	0x202
 8518 36da 45       		.uleb128 0x45
 8519 36db 442A0000 		.4byte	.LASF827
 8520 36df 442A0000 		.4byte	.LASF827
 8521 36e3 12       		.byte	0x12
 8522 36e4 0F02     		.2byte	0x20f
 8523 36e6 45       		.uleb128 0x45
 8524 36e7 C73A0000 		.4byte	.LASF828
 8525 36eb C73A0000 		.4byte	.LASF828
 8526 36ef 0F       		.byte	0xf
 8527 36f0 9203     		.2byte	0x392
 8528 36f2 45       		.uleb128 0x45
 8529 36f3 8A180000 		.4byte	.LASF829
 8530 36f7 8A180000 		.4byte	.LASF829
 8531 36fb 12       		.byte	0x12
 8532 36fc 2C02     		.2byte	0x22c
 8533 36fe 45       		.uleb128 0x45
 8534 36ff F13B0000 		.4byte	.LASF830
 8535 3703 F13B0000 		.4byte	.LASF830
 8536 3707 10       		.byte	0x10
 8537 3708 6601     		.2byte	0x166
 8538 370a 45       		.uleb128 0x45
 8539 370b 44390000 		.4byte	.LASF831
 8540 370f 44390000 		.4byte	.LASF831
 8541 3713 25       		.byte	0x25
 8542 3714 1802     		.2byte	0x218
 8543 3716 47       		.uleb128 0x47
 8544 3717 4A0F0000 		.4byte	.LASF832
 8545 371b 4A0F0000 		.4byte	.LASF832
 8546 371f 1F       		.byte	0x1f
 8547 3720 31       		.byte	0x31
 8548 3721 47       		.uleb128 0x47
 8549 3722 6D230000 		.4byte	.LASF833
 8550 3726 6D230000 		.4byte	.LASF833
 8551 372a 24       		.byte	0x24
ARM GAS  C:\Users\ASUS\AppData\Local\Temp\ccarWmgw.s 			page 192


 8552 372b B6       		.byte	0xb6
 8553 372c 47       		.uleb128 0x47
 8554 372d AB090000 		.4byte	.LASF834
 8555 3731 AB090000 		.4byte	.LASF834
 8556 3735 04       		.byte	0x4
 8557 3736 2E       		.byte	0x2e
 8558 3737 45       		.uleb128 0x45
 8559 3738 41360000 		.4byte	.LASF835
 8560 373c 41360000 		.4byte	.LASF835
 8561 3740 11       		.byte	0x11
 8562 3741 4806     		.2byte	0x648
 8563 3743 00       		.byte	0
 8564              		.section	.debug_abbrev,"",%progbits
 8565              	.Ldebug_abbrev0:
 8566 0000 01       		.uleb128 0x1
 8567 0001 11       		.uleb128 0x11
 8568 0002 01       		.byte	0x1
 8569 0003 25       		.uleb128 0x25
 8570 0004 0E       		.uleb128 0xe
 8571 0005 13       		.uleb128 0x13
 8572 0006 0B       		.uleb128 0xb
 8573 0007 03       		.uleb128 0x3
 8574 0008 0E       		.uleb128 0xe
 8575 0009 1B       		.uleb128 0x1b
 8576 000a 0E       		.uleb128 0xe
 8577 000b 55       		.uleb128 0x55
 8578 000c 17       		.uleb128 0x17
 8579 000d 11       		.uleb128 0x11
 8580 000e 01       		.uleb128 0x1
 8581 000f 10       		.uleb128 0x10
 8582 0010 17       		.uleb128 0x17
 8583 0011 00       		.byte	0
 8584 0012 00       		.byte	0
 8585 0013 02       		.uleb128 0x2
 8586 0014 04       		.uleb128 0x4
 8587 0015 01       		.byte	0x1
 8588 0016 0B       		.uleb128 0xb
 8589 0017 0B       		.uleb128 0xb
 8590 0018 49       		.uleb128 0x49
 8591 0019 13       		.uleb128 0x13
 8592 001a 3A       		.uleb128 0x3a
 8593 001b 0B       		.uleb128 0xb
 8594 001c 3B       		.uleb128 0x3b
 8595 001d 0B       		.uleb128 0xb
 8596 001e 01       		.uleb128 0x1
 8597 001f 13       		.uleb128 0x13
 8598 0020 00       		.byte	0
 8599 0021 00       		.byte	0
 8600 0022 03       		.uleb128 0x3
 8601 0023 28       		.uleb128 0x28
 8602 0024 00       		.byte	0
 8603 0025 03       		.uleb128 0x3
 8604 0026 0E       		.uleb128 0xe
 8605 0027 1C       		.uleb128 0x1c
 8606 0028 0D       		.uleb128 0xd
 8607 0029 00       		.byte	0
 8608 002a 00       		.byte	0
ARM GAS  C:\Users\ASUS\AppData\Local\Temp\ccarWmgw.s 			page 193


 8609 002b 04       		.uleb128 0x4
 8610 002c 28       		.uleb128 0x28
 8611 002d 00       		.byte	0
 8612 002e 03       		.uleb128 0x3
 8613 002f 0E       		.uleb128 0xe
 8614 0030 1C       		.uleb128 0x1c
 8615 0031 0B       		.uleb128 0xb
 8616 0032 00       		.byte	0
 8617 0033 00       		.byte	0
 8618 0034 05       		.uleb128 0x5
 8619 0035 24       		.uleb128 0x24
 8620 0036 00       		.byte	0
 8621 0037 0B       		.uleb128 0xb
 8622 0038 0B       		.uleb128 0xb
 8623 0039 3E       		.uleb128 0x3e
 8624 003a 0B       		.uleb128 0xb
 8625 003b 03       		.uleb128 0x3
 8626 003c 0E       		.uleb128 0xe
 8627 003d 00       		.byte	0
 8628 003e 00       		.byte	0
 8629 003f 06       		.uleb128 0x6
 8630 0040 16       		.uleb128 0x16
 8631 0041 00       		.byte	0
 8632 0042 03       		.uleb128 0x3
 8633 0043 0E       		.uleb128 0xe
 8634 0044 3A       		.uleb128 0x3a
 8635 0045 0B       		.uleb128 0xb
 8636 0046 3B       		.uleb128 0x3b
 8637 0047 0B       		.uleb128 0xb
 8638 0048 49       		.uleb128 0x49
 8639 0049 13       		.uleb128 0x13
 8640 004a 00       		.byte	0
 8641 004b 00       		.byte	0
 8642 004c 07       		.uleb128 0x7
 8643 004d 16       		.uleb128 0x16
 8644 004e 00       		.byte	0
 8645 004f 03       		.uleb128 0x3
 8646 0050 0E       		.uleb128 0xe
 8647 0051 3A       		.uleb128 0x3a
 8648 0052 0B       		.uleb128 0xb
 8649 0053 3B       		.uleb128 0x3b
 8650 0054 05       		.uleb128 0x5
 8651 0055 49       		.uleb128 0x49
 8652 0056 13       		.uleb128 0x13
 8653 0057 00       		.byte	0
 8654 0058 00       		.byte	0
 8655 0059 08       		.uleb128 0x8
 8656 005a 24       		.uleb128 0x24
 8657 005b 00       		.byte	0
 8658 005c 0B       		.uleb128 0xb
 8659 005d 0B       		.uleb128 0xb
 8660 005e 3E       		.uleb128 0x3e
 8661 005f 0B       		.uleb128 0xb
 8662 0060 03       		.uleb128 0x3
 8663 0061 08       		.uleb128 0x8
 8664 0062 00       		.byte	0
 8665 0063 00       		.byte	0
ARM GAS  C:\Users\ASUS\AppData\Local\Temp\ccarWmgw.s 			page 194


 8666 0064 09       		.uleb128 0x9
 8667 0065 13       		.uleb128 0x13
 8668 0066 01       		.byte	0x1
 8669 0067 0B       		.uleb128 0xb
 8670 0068 05       		.uleb128 0x5
 8671 0069 3A       		.uleb128 0x3a
 8672 006a 0B       		.uleb128 0xb
 8673 006b 3B       		.uleb128 0x3b
 8674 006c 05       		.uleb128 0x5
 8675 006d 01       		.uleb128 0x1
 8676 006e 13       		.uleb128 0x13
 8677 006f 00       		.byte	0
 8678 0070 00       		.byte	0
 8679 0071 0A       		.uleb128 0xa
 8680 0072 0D       		.uleb128 0xd
 8681 0073 00       		.byte	0
 8682 0074 03       		.uleb128 0x3
 8683 0075 0E       		.uleb128 0xe
 8684 0076 3A       		.uleb128 0x3a
 8685 0077 0B       		.uleb128 0xb
 8686 0078 3B       		.uleb128 0x3b
 8687 0079 05       		.uleb128 0x5
 8688 007a 49       		.uleb128 0x49
 8689 007b 13       		.uleb128 0x13
 8690 007c 38       		.uleb128 0x38
 8691 007d 0B       		.uleb128 0xb
 8692 007e 00       		.byte	0
 8693 007f 00       		.byte	0
 8694 0080 0B       		.uleb128 0xb
 8695 0081 0D       		.uleb128 0xd
 8696 0082 00       		.byte	0
 8697 0083 03       		.uleb128 0x3
 8698 0084 0E       		.uleb128 0xe
 8699 0085 3A       		.uleb128 0x3a
 8700 0086 0B       		.uleb128 0xb
 8701 0087 3B       		.uleb128 0x3b
 8702 0088 05       		.uleb128 0x5
 8703 0089 49       		.uleb128 0x49
 8704 008a 13       		.uleb128 0x13
 8705 008b 38       		.uleb128 0x38
 8706 008c 05       		.uleb128 0x5
 8707 008d 00       		.byte	0
 8708 008e 00       		.byte	0
 8709 008f 0C       		.uleb128 0xc
 8710 0090 0D       		.uleb128 0xd
 8711 0091 00       		.byte	0
 8712 0092 03       		.uleb128 0x3
 8713 0093 08       		.uleb128 0x8
 8714 0094 3A       		.uleb128 0x3a
 8715 0095 0B       		.uleb128 0xb
 8716 0096 3B       		.uleb128 0x3b
 8717 0097 05       		.uleb128 0x5
 8718 0098 49       		.uleb128 0x49
 8719 0099 13       		.uleb128 0x13
 8720 009a 38       		.uleb128 0x38
 8721 009b 05       		.uleb128 0x5
 8722 009c 00       		.byte	0
ARM GAS  C:\Users\ASUS\AppData\Local\Temp\ccarWmgw.s 			page 195


 8723 009d 00       		.byte	0
 8724 009e 0D       		.uleb128 0xd
 8725 009f 01       		.uleb128 0x1
 8726 00a0 01       		.byte	0x1
 8727 00a1 49       		.uleb128 0x49
 8728 00a2 13       		.uleb128 0x13
 8729 00a3 01       		.uleb128 0x1
 8730 00a4 13       		.uleb128 0x13
 8731 00a5 00       		.byte	0
 8732 00a6 00       		.byte	0
 8733 00a7 0E       		.uleb128 0xe
 8734 00a8 21       		.uleb128 0x21
 8735 00a9 00       		.byte	0
 8736 00aa 49       		.uleb128 0x49
 8737 00ab 13       		.uleb128 0x13
 8738 00ac 2F       		.uleb128 0x2f
 8739 00ad 0B       		.uleb128 0xb
 8740 00ae 00       		.byte	0
 8741 00af 00       		.byte	0
 8742 00b0 0F       		.uleb128 0xf
 8743 00b1 35       		.uleb128 0x35
 8744 00b2 00       		.byte	0
 8745 00b3 49       		.uleb128 0x49
 8746 00b4 13       		.uleb128 0x13
 8747 00b5 00       		.byte	0
 8748 00b6 00       		.byte	0
 8749 00b7 10       		.uleb128 0x10
 8750 00b8 26       		.uleb128 0x26
 8751 00b9 00       		.byte	0
 8752 00ba 49       		.uleb128 0x49
 8753 00bb 13       		.uleb128 0x13
 8754 00bc 00       		.byte	0
 8755 00bd 00       		.byte	0
 8756 00be 11       		.uleb128 0x11
 8757 00bf 21       		.uleb128 0x21
 8758 00c0 00       		.byte	0
 8759 00c1 49       		.uleb128 0x49
 8760 00c2 13       		.uleb128 0x13
 8761 00c3 2F       		.uleb128 0x2f
 8762 00c4 05       		.uleb128 0x5
 8763 00c5 00       		.byte	0
 8764 00c6 00       		.byte	0
 8765 00c7 12       		.uleb128 0x12
 8766 00c8 13       		.uleb128 0x13
 8767 00c9 01       		.byte	0x1
 8768 00ca 0B       		.uleb128 0xb
 8769 00cb 05       		.uleb128 0x5
 8770 00cc 3A       		.uleb128 0x3a
 8771 00cd 0B       		.uleb128 0xb
 8772 00ce 3B       		.uleb128 0x3b
 8773 00cf 0B       		.uleb128 0xb
 8774 00d0 01       		.uleb128 0x1
 8775 00d1 13       		.uleb128 0x13
 8776 00d2 00       		.byte	0
 8777 00d3 00       		.byte	0
 8778 00d4 13       		.uleb128 0x13
 8779 00d5 0D       		.uleb128 0xd
ARM GAS  C:\Users\ASUS\AppData\Local\Temp\ccarWmgw.s 			page 196


 8780 00d6 00       		.byte	0
 8781 00d7 03       		.uleb128 0x3
 8782 00d8 0E       		.uleb128 0xe
 8783 00d9 3A       		.uleb128 0x3a
 8784 00da 0B       		.uleb128 0xb
 8785 00db 3B       		.uleb128 0x3b
 8786 00dc 0B       		.uleb128 0xb
 8787 00dd 49       		.uleb128 0x49
 8788 00de 13       		.uleb128 0x13
 8789 00df 38       		.uleb128 0x38
 8790 00e0 0B       		.uleb128 0xb
 8791 00e1 00       		.byte	0
 8792 00e2 00       		.byte	0
 8793 00e3 14       		.uleb128 0x14
 8794 00e4 0D       		.uleb128 0xd
 8795 00e5 00       		.byte	0
 8796 00e6 03       		.uleb128 0x3
 8797 00e7 0E       		.uleb128 0xe
 8798 00e8 3A       		.uleb128 0x3a
 8799 00e9 0B       		.uleb128 0xb
 8800 00ea 3B       		.uleb128 0x3b
 8801 00eb 0B       		.uleb128 0xb
 8802 00ec 49       		.uleb128 0x49
 8803 00ed 13       		.uleb128 0x13
 8804 00ee 38       		.uleb128 0x38
 8805 00ef 05       		.uleb128 0x5
 8806 00f0 00       		.byte	0
 8807 00f1 00       		.byte	0
 8808 00f2 15       		.uleb128 0x15
 8809 00f3 13       		.uleb128 0x13
 8810 00f4 01       		.byte	0x1
 8811 00f5 0B       		.uleb128 0xb
 8812 00f6 0B       		.uleb128 0xb
 8813 00f7 3A       		.uleb128 0x3a
 8814 00f8 0B       		.uleb128 0xb
 8815 00f9 3B       		.uleb128 0x3b
 8816 00fa 0B       		.uleb128 0xb
 8817 00fb 01       		.uleb128 0x1
 8818 00fc 13       		.uleb128 0x13
 8819 00fd 00       		.byte	0
 8820 00fe 00       		.byte	0
 8821 00ff 16       		.uleb128 0x16
 8822 0100 0F       		.uleb128 0xf
 8823 0101 00       		.byte	0
 8824 0102 0B       		.uleb128 0xb
 8825 0103 0B       		.uleb128 0xb
 8826 0104 49       		.uleb128 0x49
 8827 0105 13       		.uleb128 0x13
 8828 0106 00       		.byte	0
 8829 0107 00       		.byte	0
 8830 0108 17       		.uleb128 0x17
 8831 0109 15       		.uleb128 0x15
 8832 010a 00       		.byte	0
 8833 010b 27       		.uleb128 0x27
 8834 010c 19       		.uleb128 0x19
 8835 010d 00       		.byte	0
 8836 010e 00       		.byte	0
ARM GAS  C:\Users\ASUS\AppData\Local\Temp\ccarWmgw.s 			page 197


 8837 010f 18       		.uleb128 0x18
 8838 0110 13       		.uleb128 0x13
 8839 0111 01       		.byte	0x1
 8840 0112 0B       		.uleb128 0xb
 8841 0113 0B       		.uleb128 0xb
 8842 0114 3A       		.uleb128 0x3a
 8843 0115 0B       		.uleb128 0xb
 8844 0116 3B       		.uleb128 0x3b
 8845 0117 05       		.uleb128 0x5
 8846 0118 01       		.uleb128 0x1
 8847 0119 13       		.uleb128 0x13
 8848 011a 00       		.byte	0
 8849 011b 00       		.byte	0
 8850 011c 19       		.uleb128 0x19
 8851 011d 04       		.uleb128 0x4
 8852 011e 01       		.byte	0x1
 8853 011f 0B       		.uleb128 0xb
 8854 0120 0B       		.uleb128 0xb
 8855 0121 49       		.uleb128 0x49
 8856 0122 13       		.uleb128 0x13
 8857 0123 3A       		.uleb128 0x3a
 8858 0124 0B       		.uleb128 0xb
 8859 0125 3B       		.uleb128 0x3b
 8860 0126 05       		.uleb128 0x5
 8861 0127 01       		.uleb128 0x1
 8862 0128 13       		.uleb128 0x13
 8863 0129 00       		.byte	0
 8864 012a 00       		.byte	0
 8865 012b 1A       		.uleb128 0x1a
 8866 012c 0F       		.uleb128 0xf
 8867 012d 00       		.byte	0
 8868 012e 0B       		.uleb128 0xb
 8869 012f 0B       		.uleb128 0xb
 8870 0130 00       		.byte	0
 8871 0131 00       		.byte	0
 8872 0132 1B       		.uleb128 0x1b
 8873 0133 28       		.uleb128 0x28
 8874 0134 00       		.byte	0
 8875 0135 03       		.uleb128 0x3
 8876 0136 0E       		.uleb128 0xe
 8877 0137 1C       		.uleb128 0x1c
 8878 0138 06       		.uleb128 0x6
 8879 0139 00       		.byte	0
 8880 013a 00       		.byte	0
 8881 013b 1C       		.uleb128 0x1c
 8882 013c 04       		.uleb128 0x4
 8883 013d 01       		.byte	0x1
 8884 013e 03       		.uleb128 0x3
 8885 013f 0E       		.uleb128 0xe
 8886 0140 0B       		.uleb128 0xb
 8887 0141 0B       		.uleb128 0xb
 8888 0142 49       		.uleb128 0x49
 8889 0143 13       		.uleb128 0x13
 8890 0144 3A       		.uleb128 0x3a
 8891 0145 0B       		.uleb128 0xb
 8892 0146 3B       		.uleb128 0x3b
 8893 0147 05       		.uleb128 0x5
ARM GAS  C:\Users\ASUS\AppData\Local\Temp\ccarWmgw.s 			page 198


 8894 0148 01       		.uleb128 0x1
 8895 0149 13       		.uleb128 0x13
 8896 014a 00       		.byte	0
 8897 014b 00       		.byte	0
 8898 014c 1D       		.uleb128 0x1d
 8899 014d 13       		.uleb128 0x13
 8900 014e 01       		.byte	0x1
 8901 014f 03       		.uleb128 0x3
 8902 0150 0E       		.uleb128 0xe
 8903 0151 0B       		.uleb128 0xb
 8904 0152 0B       		.uleb128 0xb
 8905 0153 3A       		.uleb128 0x3a
 8906 0154 0B       		.uleb128 0xb
 8907 0155 3B       		.uleb128 0x3b
 8908 0156 05       		.uleb128 0x5
 8909 0157 01       		.uleb128 0x1
 8910 0158 13       		.uleb128 0x13
 8911 0159 00       		.byte	0
 8912 015a 00       		.byte	0
 8913 015b 1E       		.uleb128 0x1e
 8914 015c 0D       		.uleb128 0xd
 8915 015d 00       		.byte	0
 8916 015e 03       		.uleb128 0x3
 8917 015f 08       		.uleb128 0x8
 8918 0160 3A       		.uleb128 0x3a
 8919 0161 0B       		.uleb128 0xb
 8920 0162 3B       		.uleb128 0x3b
 8921 0163 05       		.uleb128 0x5
 8922 0164 49       		.uleb128 0x49
 8923 0165 13       		.uleb128 0x13
 8924 0166 38       		.uleb128 0x38
 8925 0167 0B       		.uleb128 0xb
 8926 0168 00       		.byte	0
 8927 0169 00       		.byte	0
 8928 016a 1F       		.uleb128 0x1f
 8929 016b 15       		.uleb128 0x15
 8930 016c 01       		.byte	0x1
 8931 016d 27       		.uleb128 0x27
 8932 016e 19       		.uleb128 0x19
 8933 016f 01       		.uleb128 0x1
 8934 0170 13       		.uleb128 0x13
 8935 0171 00       		.byte	0
 8936 0172 00       		.byte	0
 8937 0173 20       		.uleb128 0x20
 8938 0174 05       		.uleb128 0x5
 8939 0175 00       		.byte	0
 8940 0176 49       		.uleb128 0x49
 8941 0177 13       		.uleb128 0x13
 8942 0178 00       		.byte	0
 8943 0179 00       		.byte	0
 8944 017a 21       		.uleb128 0x21
 8945 017b 15       		.uleb128 0x15
 8946 017c 01       		.byte	0x1
 8947 017d 27       		.uleb128 0x27
 8948 017e 19       		.uleb128 0x19
 8949 017f 49       		.uleb128 0x49
 8950 0180 13       		.uleb128 0x13
ARM GAS  C:\Users\ASUS\AppData\Local\Temp\ccarWmgw.s 			page 199


 8951 0181 01       		.uleb128 0x1
 8952 0182 13       		.uleb128 0x13
 8953 0183 00       		.byte	0
 8954 0184 00       		.byte	0
 8955 0185 22       		.uleb128 0x22
 8956 0186 17       		.uleb128 0x17
 8957 0187 01       		.byte	0x1
 8958 0188 0B       		.uleb128 0xb
 8959 0189 0B       		.uleb128 0xb
 8960 018a 3A       		.uleb128 0x3a
 8961 018b 0B       		.uleb128 0xb
 8962 018c 3B       		.uleb128 0x3b
 8963 018d 0B       		.uleb128 0xb
 8964 018e 01       		.uleb128 0x1
 8965 018f 13       		.uleb128 0x13
 8966 0190 00       		.byte	0
 8967 0191 00       		.byte	0
 8968 0192 23       		.uleb128 0x23
 8969 0193 0D       		.uleb128 0xd
 8970 0194 00       		.byte	0
 8971 0195 03       		.uleb128 0x3
 8972 0196 0E       		.uleb128 0xe
 8973 0197 3A       		.uleb128 0x3a
 8974 0198 0B       		.uleb128 0xb
 8975 0199 3B       		.uleb128 0x3b
 8976 019a 0B       		.uleb128 0xb
 8977 019b 49       		.uleb128 0x49
 8978 019c 13       		.uleb128 0x13
 8979 019d 00       		.byte	0
 8980 019e 00       		.byte	0
 8981 019f 24       		.uleb128 0x24
 8982 01a0 13       		.uleb128 0x13
 8983 01a1 01       		.byte	0x1
 8984 01a2 03       		.uleb128 0x3
 8985 01a3 0E       		.uleb128 0xe
 8986 01a4 0B       		.uleb128 0xb
 8987 01a5 0B       		.uleb128 0xb
 8988 01a6 3A       		.uleb128 0x3a
 8989 01a7 0B       		.uleb128 0xb
 8990 01a8 3B       		.uleb128 0x3b
 8991 01a9 0B       		.uleb128 0xb
 8992 01aa 01       		.uleb128 0x1
 8993 01ab 13       		.uleb128 0x13
 8994 01ac 00       		.byte	0
 8995 01ad 00       		.byte	0
 8996 01ae 25       		.uleb128 0x25
 8997 01af 0D       		.uleb128 0xd
 8998 01b0 00       		.byte	0
 8999 01b1 03       		.uleb128 0x3
 9000 01b2 08       		.uleb128 0x8
 9001 01b3 3A       		.uleb128 0x3a
 9002 01b4 0B       		.uleb128 0xb
 9003 01b5 3B       		.uleb128 0x3b
 9004 01b6 0B       		.uleb128 0xb
 9005 01b7 49       		.uleb128 0x49
 9006 01b8 13       		.uleb128 0x13
 9007 01b9 38       		.uleb128 0x38
ARM GAS  C:\Users\ASUS\AppData\Local\Temp\ccarWmgw.s 			page 200


 9008 01ba 0B       		.uleb128 0xb
 9009 01bb 00       		.byte	0
 9010 01bc 00       		.byte	0
 9011 01bd 26       		.uleb128 0x26
 9012 01be 13       		.uleb128 0x13
 9013 01bf 01       		.byte	0x1
 9014 01c0 03       		.uleb128 0x3
 9015 01c1 0E       		.uleb128 0xe
 9016 01c2 0B       		.uleb128 0xb
 9017 01c3 05       		.uleb128 0x5
 9018 01c4 3A       		.uleb128 0x3a
 9019 01c5 0B       		.uleb128 0xb
 9020 01c6 3B       		.uleb128 0x3b
 9021 01c7 0B       		.uleb128 0xb
 9022 01c8 01       		.uleb128 0x1
 9023 01c9 13       		.uleb128 0x13
 9024 01ca 00       		.byte	0
 9025 01cb 00       		.byte	0
 9026 01cc 27       		.uleb128 0x27
 9027 01cd 13       		.uleb128 0x13
 9028 01ce 01       		.byte	0x1
 9029 01cf 03       		.uleb128 0x3
 9030 01d0 0E       		.uleb128 0xe
 9031 01d1 0B       		.uleb128 0xb
 9032 01d2 05       		.uleb128 0x5
 9033 01d3 3A       		.uleb128 0x3a
 9034 01d4 0B       		.uleb128 0xb
 9035 01d5 3B       		.uleb128 0x3b
 9036 01d6 05       		.uleb128 0x5
 9037 01d7 01       		.uleb128 0x1
 9038 01d8 13       		.uleb128 0x13
 9039 01d9 00       		.byte	0
 9040 01da 00       		.byte	0
 9041 01db 28       		.uleb128 0x28
 9042 01dc 17       		.uleb128 0x17
 9043 01dd 01       		.byte	0x1
 9044 01de 0B       		.uleb128 0xb
 9045 01df 0B       		.uleb128 0xb
 9046 01e0 3A       		.uleb128 0x3a
 9047 01e1 0B       		.uleb128 0xb
 9048 01e2 3B       		.uleb128 0x3b
 9049 01e3 05       		.uleb128 0x5
 9050 01e4 01       		.uleb128 0x1
 9051 01e5 13       		.uleb128 0x13
 9052 01e6 00       		.byte	0
 9053 01e7 00       		.byte	0
 9054 01e8 29       		.uleb128 0x29
 9055 01e9 0D       		.uleb128 0xd
 9056 01ea 00       		.byte	0
 9057 01eb 03       		.uleb128 0x3
 9058 01ec 0E       		.uleb128 0xe
 9059 01ed 3A       		.uleb128 0x3a
 9060 01ee 0B       		.uleb128 0xb
 9061 01ef 3B       		.uleb128 0x3b
 9062 01f0 05       		.uleb128 0x5
 9063 01f1 49       		.uleb128 0x49
 9064 01f2 13       		.uleb128 0x13
ARM GAS  C:\Users\ASUS\AppData\Local\Temp\ccarWmgw.s 			page 201


 9065 01f3 00       		.byte	0
 9066 01f4 00       		.byte	0
 9067 01f5 2A       		.uleb128 0x2a
 9068 01f6 28       		.uleb128 0x28
 9069 01f7 00       		.byte	0
 9070 01f8 03       		.uleb128 0x3
 9071 01f9 0E       		.uleb128 0xe
 9072 01fa 1C       		.uleb128 0x1c
 9073 01fb 05       		.uleb128 0x5
 9074 01fc 00       		.byte	0
 9075 01fd 00       		.byte	0
 9076 01fe 2B       		.uleb128 0x2b
 9077 01ff 2E       		.uleb128 0x2e
 9078 0200 01       		.byte	0x1
 9079 0201 03       		.uleb128 0x3
 9080 0202 0E       		.uleb128 0xe
 9081 0203 3A       		.uleb128 0x3a
 9082 0204 0B       		.uleb128 0xb
 9083 0205 3B       		.uleb128 0x3b
 9084 0206 05       		.uleb128 0x5
 9085 0207 27       		.uleb128 0x27
 9086 0208 19       		.uleb128 0x19
 9087 0209 49       		.uleb128 0x49
 9088 020a 13       		.uleb128 0x13
 9089 020b 20       		.uleb128 0x20
 9090 020c 0B       		.uleb128 0xb
 9091 020d 01       		.uleb128 0x1
 9092 020e 13       		.uleb128 0x13
 9093 020f 00       		.byte	0
 9094 0210 00       		.byte	0
 9095 0211 2C       		.uleb128 0x2c
 9096 0212 05       		.uleb128 0x5
 9097 0213 00       		.byte	0
 9098 0214 03       		.uleb128 0x3
 9099 0215 0E       		.uleb128 0xe
 9100 0216 3A       		.uleb128 0x3a
 9101 0217 0B       		.uleb128 0xb
 9102 0218 3B       		.uleb128 0x3b
 9103 0219 05       		.uleb128 0x5
 9104 021a 49       		.uleb128 0x49
 9105 021b 13       		.uleb128 0x13
 9106 021c 00       		.byte	0
 9107 021d 00       		.byte	0
 9108 021e 2D       		.uleb128 0x2d
 9109 021f 2E       		.uleb128 0x2e
 9110 0220 01       		.byte	0x1
 9111 0221 03       		.uleb128 0x3
 9112 0222 0E       		.uleb128 0xe
 9113 0223 3A       		.uleb128 0x3a
 9114 0224 0B       		.uleb128 0xb
 9115 0225 3B       		.uleb128 0x3b
 9116 0226 05       		.uleb128 0x5
 9117 0227 27       		.uleb128 0x27
 9118 0228 19       		.uleb128 0x19
 9119 0229 20       		.uleb128 0x20
 9120 022a 0B       		.uleb128 0xb
 9121 022b 01       		.uleb128 0x1
ARM GAS  C:\Users\ASUS\AppData\Local\Temp\ccarWmgw.s 			page 202


 9122 022c 13       		.uleb128 0x13
 9123 022d 00       		.byte	0
 9124 022e 00       		.byte	0
 9125 022f 2E       		.uleb128 0x2e
 9126 0230 2E       		.uleb128 0x2e
 9127 0231 00       		.byte	0
 9128 0232 03       		.uleb128 0x3
 9129 0233 0E       		.uleb128 0xe
 9130 0234 3A       		.uleb128 0x3a
 9131 0235 0B       		.uleb128 0xb
 9132 0236 3B       		.uleb128 0x3b
 9133 0237 0B       		.uleb128 0xb
 9134 0238 27       		.uleb128 0x27
 9135 0239 19       		.uleb128 0x19
 9136 023a 20       		.uleb128 0x20
 9137 023b 0B       		.uleb128 0xb
 9138 023c 00       		.byte	0
 9139 023d 00       		.byte	0
 9140 023e 2F       		.uleb128 0x2f
 9141 023f 2E       		.uleb128 0x2e
 9142 0240 01       		.byte	0x1
 9143 0241 3F       		.uleb128 0x3f
 9144 0242 19       		.uleb128 0x19
 9145 0243 03       		.uleb128 0x3
 9146 0244 0E       		.uleb128 0xe
 9147 0245 3A       		.uleb128 0x3a
 9148 0246 0B       		.uleb128 0xb
 9149 0247 3B       		.uleb128 0x3b
 9150 0248 0B       		.uleb128 0xb
 9151 0249 27       		.uleb128 0x27
 9152 024a 19       		.uleb128 0x19
 9153 024b 11       		.uleb128 0x11
 9154 024c 01       		.uleb128 0x1
 9155 024d 12       		.uleb128 0x12
 9156 024e 06       		.uleb128 0x6
 9157 024f 40       		.uleb128 0x40
 9158 0250 18       		.uleb128 0x18
 9159 0251 9742     		.uleb128 0x2117
 9160 0253 19       		.uleb128 0x19
 9161 0254 01       		.uleb128 0x1
 9162 0255 13       		.uleb128 0x13
 9163 0256 00       		.byte	0
 9164 0257 00       		.byte	0
 9165 0258 30       		.uleb128 0x30
 9166 0259 05       		.uleb128 0x5
 9167 025a 00       		.byte	0
 9168 025b 03       		.uleb128 0x3
 9169 025c 0E       		.uleb128 0xe
 9170 025d 3A       		.uleb128 0x3a
 9171 025e 0B       		.uleb128 0xb
 9172 025f 3B       		.uleb128 0x3b
 9173 0260 0B       		.uleb128 0xb
 9174 0261 49       		.uleb128 0x49
 9175 0262 13       		.uleb128 0x13
 9176 0263 02       		.uleb128 0x2
 9177 0264 17       		.uleb128 0x17
 9178 0265 00       		.byte	0
ARM GAS  C:\Users\ASUS\AppData\Local\Temp\ccarWmgw.s 			page 203


 9179 0266 00       		.byte	0
 9180 0267 31       		.uleb128 0x31
 9181 0268 0B       		.uleb128 0xb
 9182 0269 01       		.byte	0x1
 9183 026a 11       		.uleb128 0x11
 9184 026b 01       		.uleb128 0x1
 9185 026c 12       		.uleb128 0x12
 9186 026d 06       		.uleb128 0x6
 9187 026e 01       		.uleb128 0x1
 9188 026f 13       		.uleb128 0x13
 9189 0270 00       		.byte	0
 9190 0271 00       		.byte	0
 9191 0272 32       		.uleb128 0x32
 9192 0273 34       		.uleb128 0x34
 9193 0274 00       		.byte	0
 9194 0275 03       		.uleb128 0x3
 9195 0276 0E       		.uleb128 0xe
 9196 0277 3A       		.uleb128 0x3a
 9197 0278 0B       		.uleb128 0xb
 9198 0279 3B       		.uleb128 0x3b
 9199 027a 0B       		.uleb128 0xb
 9200 027b 49       		.uleb128 0x49
 9201 027c 13       		.uleb128 0x13
 9202 027d 02       		.uleb128 0x2
 9203 027e 17       		.uleb128 0x17
 9204 027f 00       		.byte	0
 9205 0280 00       		.byte	0
 9206 0281 33       		.uleb128 0x33
 9207 0282 898201   		.uleb128 0x4109
 9208 0285 00       		.byte	0
 9209 0286 11       		.uleb128 0x11
 9210 0287 01       		.uleb128 0x1
 9211 0288 31       		.uleb128 0x31
 9212 0289 13       		.uleb128 0x13
 9213 028a 00       		.byte	0
 9214 028b 00       		.byte	0
 9215 028c 34       		.uleb128 0x34
 9216 028d 898201   		.uleb128 0x4109
 9217 0290 01       		.byte	0x1
 9218 0291 11       		.uleb128 0x11
 9219 0292 01       		.uleb128 0x1
 9220 0293 31       		.uleb128 0x31
 9221 0294 13       		.uleb128 0x13
 9222 0295 00       		.byte	0
 9223 0296 00       		.byte	0
 9224 0297 35       		.uleb128 0x35
 9225 0298 8A8201   		.uleb128 0x410a
 9226 029b 00       		.byte	0
 9227 029c 02       		.uleb128 0x2
 9228 029d 18       		.uleb128 0x18
 9229 029e 9142     		.uleb128 0x2111
 9230 02a0 18       		.uleb128 0x18
 9231 02a1 00       		.byte	0
 9232 02a2 00       		.byte	0
 9233 02a3 36       		.uleb128 0x36
 9234 02a4 2E       		.uleb128 0x2e
 9235 02a5 01       		.byte	0x1
ARM GAS  C:\Users\ASUS\AppData\Local\Temp\ccarWmgw.s 			page 204


 9236 02a6 3F       		.uleb128 0x3f
 9237 02a7 19       		.uleb128 0x19
 9238 02a8 03       		.uleb128 0x3
 9239 02a9 0E       		.uleb128 0xe
 9240 02aa 3A       		.uleb128 0x3a
 9241 02ab 0B       		.uleb128 0xb
 9242 02ac 3B       		.uleb128 0x3b
 9243 02ad 0B       		.uleb128 0xb
 9244 02ae 11       		.uleb128 0x11
 9245 02af 01       		.uleb128 0x1
 9246 02b0 12       		.uleb128 0x12
 9247 02b1 06       		.uleb128 0x6
 9248 02b2 40       		.uleb128 0x40
 9249 02b3 18       		.uleb128 0x18
 9250 02b4 9742     		.uleb128 0x2117
 9251 02b6 19       		.uleb128 0x19
 9252 02b7 01       		.uleb128 0x1
 9253 02b8 13       		.uleb128 0x13
 9254 02b9 00       		.byte	0
 9255 02ba 00       		.byte	0
 9256 02bb 37       		.uleb128 0x37
 9257 02bc 34       		.uleb128 0x34
 9258 02bd 00       		.byte	0
 9259 02be 03       		.uleb128 0x3
 9260 02bf 08       		.uleb128 0x8
 9261 02c0 3A       		.uleb128 0x3a
 9262 02c1 0B       		.uleb128 0xb
 9263 02c2 3B       		.uleb128 0x3b
 9264 02c3 0B       		.uleb128 0xb
 9265 02c4 49       		.uleb128 0x49
 9266 02c5 13       		.uleb128 0x13
 9267 02c6 02       		.uleb128 0x2
 9268 02c7 17       		.uleb128 0x17
 9269 02c8 00       		.byte	0
 9270 02c9 00       		.byte	0
 9271 02ca 38       		.uleb128 0x38
 9272 02cb 34       		.uleb128 0x34
 9273 02cc 00       		.byte	0
 9274 02cd 03       		.uleb128 0x3
 9275 02ce 0E       		.uleb128 0xe
 9276 02cf 3A       		.uleb128 0x3a
 9277 02d0 0B       		.uleb128 0xb
 9278 02d1 3B       		.uleb128 0x3b
 9279 02d2 0B       		.uleb128 0xb
 9280 02d3 49       		.uleb128 0x49
 9281 02d4 13       		.uleb128 0x13
 9282 02d5 02       		.uleb128 0x2
 9283 02d6 18       		.uleb128 0x18
 9284 02d7 00       		.byte	0
 9285 02d8 00       		.byte	0
 9286 02d9 39       		.uleb128 0x39
 9287 02da 898201   		.uleb128 0x4109
 9288 02dd 01       		.byte	0x1
 9289 02de 11       		.uleb128 0x11
 9290 02df 01       		.uleb128 0x1
 9291 02e0 31       		.uleb128 0x31
 9292 02e1 13       		.uleb128 0x13
ARM GAS  C:\Users\ASUS\AppData\Local\Temp\ccarWmgw.s 			page 205


 9293 02e2 01       		.uleb128 0x1
 9294 02e3 13       		.uleb128 0x13
 9295 02e4 00       		.byte	0
 9296 02e5 00       		.byte	0
 9297 02e6 3A       		.uleb128 0x3a
 9298 02e7 2E       		.uleb128 0x2e
 9299 02e8 01       		.byte	0x1
 9300 02e9 3F       		.uleb128 0x3f
 9301 02ea 19       		.uleb128 0x19
 9302 02eb 03       		.uleb128 0x3
 9303 02ec 0E       		.uleb128 0xe
 9304 02ed 3A       		.uleb128 0x3a
 9305 02ee 0B       		.uleb128 0xb
 9306 02ef 3B       		.uleb128 0x3b
 9307 02f0 0B       		.uleb128 0xb
 9308 02f1 27       		.uleb128 0x27
 9309 02f2 19       		.uleb128 0x19
 9310 02f3 49       		.uleb128 0x49
 9311 02f4 13       		.uleb128 0x13
 9312 02f5 11       		.uleb128 0x11
 9313 02f6 01       		.uleb128 0x1
 9314 02f7 12       		.uleb128 0x12
 9315 02f8 06       		.uleb128 0x6
 9316 02f9 40       		.uleb128 0x40
 9317 02fa 18       		.uleb128 0x18
 9318 02fb 9742     		.uleb128 0x2117
 9319 02fd 19       		.uleb128 0x19
 9320 02fe 01       		.uleb128 0x1
 9321 02ff 13       		.uleb128 0x13
 9322 0300 00       		.byte	0
 9323 0301 00       		.byte	0
 9324 0302 3B       		.uleb128 0x3b
 9325 0303 05       		.uleb128 0x5
 9326 0304 00       		.byte	0
 9327 0305 03       		.uleb128 0x3
 9328 0306 08       		.uleb128 0x8
 9329 0307 3A       		.uleb128 0x3a
 9330 0308 0B       		.uleb128 0xb
 9331 0309 3B       		.uleb128 0x3b
 9332 030a 0B       		.uleb128 0xb
 9333 030b 49       		.uleb128 0x49
 9334 030c 13       		.uleb128 0x13
 9335 030d 02       		.uleb128 0x2
 9336 030e 17       		.uleb128 0x17
 9337 030f 00       		.byte	0
 9338 0310 00       		.byte	0
 9339 0311 3C       		.uleb128 0x3c
 9340 0312 1D       		.uleb128 0x1d
 9341 0313 01       		.byte	0x1
 9342 0314 31       		.uleb128 0x31
 9343 0315 13       		.uleb128 0x13
 9344 0316 11       		.uleb128 0x11
 9345 0317 01       		.uleb128 0x1
 9346 0318 12       		.uleb128 0x12
 9347 0319 06       		.uleb128 0x6
 9348 031a 58       		.uleb128 0x58
 9349 031b 0B       		.uleb128 0xb
ARM GAS  C:\Users\ASUS\AppData\Local\Temp\ccarWmgw.s 			page 206


 9350 031c 59       		.uleb128 0x59
 9351 031d 0B       		.uleb128 0xb
 9352 031e 01       		.uleb128 0x1
 9353 031f 13       		.uleb128 0x13
 9354 0320 00       		.byte	0
 9355 0321 00       		.byte	0
 9356 0322 3D       		.uleb128 0x3d
 9357 0323 05       		.uleb128 0x5
 9358 0324 00       		.byte	0
 9359 0325 31       		.uleb128 0x31
 9360 0326 13       		.uleb128 0x13
 9361 0327 02       		.uleb128 0x2
 9362 0328 17       		.uleb128 0x17
 9363 0329 00       		.byte	0
 9364 032a 00       		.byte	0
 9365 032b 3E       		.uleb128 0x3e
 9366 032c 2E       		.uleb128 0x2e
 9367 032d 01       		.byte	0x1
 9368 032e 3F       		.uleb128 0x3f
 9369 032f 19       		.uleb128 0x19
 9370 0330 03       		.uleb128 0x3
 9371 0331 0E       		.uleb128 0xe
 9372 0332 3A       		.uleb128 0x3a
 9373 0333 0B       		.uleb128 0xb
 9374 0334 3B       		.uleb128 0x3b
 9375 0335 0B       		.uleb128 0xb
 9376 0336 27       		.uleb128 0x27
 9377 0337 19       		.uleb128 0x19
 9378 0338 11       		.uleb128 0x11
 9379 0339 01       		.uleb128 0x1
 9380 033a 12       		.uleb128 0x12
 9381 033b 06       		.uleb128 0x6
 9382 033c 40       		.uleb128 0x40
 9383 033d 18       		.uleb128 0x18
 9384 033e 9642     		.uleb128 0x2116
 9385 0340 19       		.uleb128 0x19
 9386 0341 01       		.uleb128 0x1
 9387 0342 13       		.uleb128 0x13
 9388 0343 00       		.byte	0
 9389 0344 00       		.byte	0
 9390 0345 3F       		.uleb128 0x3f
 9391 0346 2E       		.uleb128 0x2e
 9392 0347 00       		.byte	0
 9393 0348 3F       		.uleb128 0x3f
 9394 0349 19       		.uleb128 0x19
 9395 034a 03       		.uleb128 0x3
 9396 034b 0E       		.uleb128 0xe
 9397 034c 3A       		.uleb128 0x3a
 9398 034d 0B       		.uleb128 0xb
 9399 034e 3B       		.uleb128 0x3b
 9400 034f 0B       		.uleb128 0xb
 9401 0350 27       		.uleb128 0x27
 9402 0351 19       		.uleb128 0x19
 9403 0352 11       		.uleb128 0x11
 9404 0353 01       		.uleb128 0x1
 9405 0354 12       		.uleb128 0x12
 9406 0355 06       		.uleb128 0x6
ARM GAS  C:\Users\ASUS\AppData\Local\Temp\ccarWmgw.s 			page 207


 9407 0356 40       		.uleb128 0x40
 9408 0357 18       		.uleb128 0x18
 9409 0358 9742     		.uleb128 0x2117
 9410 035a 19       		.uleb128 0x19
 9411 035b 00       		.byte	0
 9412 035c 00       		.byte	0
 9413 035d 40       		.uleb128 0x40
 9414 035e 2E       		.uleb128 0x2e
 9415 035f 01       		.byte	0x1
 9416 0360 3F       		.uleb128 0x3f
 9417 0361 19       		.uleb128 0x19
 9418 0362 03       		.uleb128 0x3
 9419 0363 0E       		.uleb128 0xe
 9420 0364 3A       		.uleb128 0x3a
 9421 0365 0B       		.uleb128 0xb
 9422 0366 3B       		.uleb128 0x3b
 9423 0367 0B       		.uleb128 0xb
 9424 0368 27       		.uleb128 0x27
 9425 0369 19       		.uleb128 0x19
 9426 036a 49       		.uleb128 0x49
 9427 036b 13       		.uleb128 0x13
 9428 036c 8701     		.uleb128 0x87
 9429 036e 19       		.uleb128 0x19
 9430 036f 11       		.uleb128 0x11
 9431 0370 01       		.uleb128 0x1
 9432 0371 12       		.uleb128 0x12
 9433 0372 06       		.uleb128 0x6
 9434 0373 40       		.uleb128 0x40
 9435 0374 18       		.uleb128 0x18
 9436 0375 9742     		.uleb128 0x2117
 9437 0377 19       		.uleb128 0x19
 9438 0378 01       		.uleb128 0x1
 9439 0379 13       		.uleb128 0x13
 9440 037a 00       		.byte	0
 9441 037b 00       		.byte	0
 9442 037c 41       		.uleb128 0x41
 9443 037d 1D       		.uleb128 0x1d
 9444 037e 00       		.byte	0
 9445 037f 31       		.uleb128 0x31
 9446 0380 13       		.uleb128 0x13
 9447 0381 11       		.uleb128 0x11
 9448 0382 01       		.uleb128 0x1
 9449 0383 12       		.uleb128 0x12
 9450 0384 06       		.uleb128 0x6
 9451 0385 58       		.uleb128 0x58
 9452 0386 0B       		.uleb128 0xb
 9453 0387 59       		.uleb128 0x59
 9454 0388 0B       		.uleb128 0xb
 9455 0389 00       		.byte	0
 9456 038a 00       		.byte	0
 9457 038b 42       		.uleb128 0x42
 9458 038c 34       		.uleb128 0x34
 9459 038d 00       		.byte	0
 9460 038e 03       		.uleb128 0x3
 9461 038f 0E       		.uleb128 0xe
 9462 0390 3A       		.uleb128 0x3a
 9463 0391 0B       		.uleb128 0xb
ARM GAS  C:\Users\ASUS\AppData\Local\Temp\ccarWmgw.s 			page 208


 9464 0392 3B       		.uleb128 0x3b
 9465 0393 0B       		.uleb128 0xb
 9466 0394 49       		.uleb128 0x49
 9467 0395 13       		.uleb128 0x13
 9468 0396 3F       		.uleb128 0x3f
 9469 0397 19       		.uleb128 0x19
 9470 0398 3C       		.uleb128 0x3c
 9471 0399 19       		.uleb128 0x19
 9472 039a 00       		.byte	0
 9473 039b 00       		.byte	0
 9474 039c 43       		.uleb128 0x43
 9475 039d 34       		.uleb128 0x34
 9476 039e 00       		.byte	0
 9477 039f 03       		.uleb128 0x3
 9478 03a0 0E       		.uleb128 0xe
 9479 03a1 3A       		.uleb128 0x3a
 9480 03a2 0B       		.uleb128 0xb
 9481 03a3 3B       		.uleb128 0x3b
 9482 03a4 05       		.uleb128 0x5
 9483 03a5 49       		.uleb128 0x49
 9484 03a6 13       		.uleb128 0x13
 9485 03a7 3F       		.uleb128 0x3f
 9486 03a8 19       		.uleb128 0x19
 9487 03a9 3C       		.uleb128 0x3c
 9488 03aa 19       		.uleb128 0x19
 9489 03ab 00       		.byte	0
 9490 03ac 00       		.byte	0
 9491 03ad 44       		.uleb128 0x44
 9492 03ae 34       		.uleb128 0x34
 9493 03af 00       		.byte	0
 9494 03b0 03       		.uleb128 0x3
 9495 03b1 0E       		.uleb128 0xe
 9496 03b2 3A       		.uleb128 0x3a
 9497 03b3 0B       		.uleb128 0xb
 9498 03b4 3B       		.uleb128 0x3b
 9499 03b5 0B       		.uleb128 0xb
 9500 03b6 49       		.uleb128 0x49
 9501 03b7 13       		.uleb128 0x13
 9502 03b8 3F       		.uleb128 0x3f
 9503 03b9 19       		.uleb128 0x19
 9504 03ba 02       		.uleb128 0x2
 9505 03bb 18       		.uleb128 0x18
 9506 03bc 00       		.byte	0
 9507 03bd 00       		.byte	0
 9508 03be 45       		.uleb128 0x45
 9509 03bf 2E       		.uleb128 0x2e
 9510 03c0 00       		.byte	0
 9511 03c1 3F       		.uleb128 0x3f
 9512 03c2 19       		.uleb128 0x19
 9513 03c3 3C       		.uleb128 0x3c
 9514 03c4 19       		.uleb128 0x19
 9515 03c5 6E       		.uleb128 0x6e
 9516 03c6 0E       		.uleb128 0xe
 9517 03c7 03       		.uleb128 0x3
 9518 03c8 0E       		.uleb128 0xe
 9519 03c9 3A       		.uleb128 0x3a
 9520 03ca 0B       		.uleb128 0xb
ARM GAS  C:\Users\ASUS\AppData\Local\Temp\ccarWmgw.s 			page 209


 9521 03cb 3B       		.uleb128 0x3b
 9522 03cc 05       		.uleb128 0x5
 9523 03cd 00       		.byte	0
 9524 03ce 00       		.byte	0
 9525 03cf 46       		.uleb128 0x46
 9526 03d0 2E       		.uleb128 0x2e
 9527 03d1 00       		.byte	0
 9528 03d2 3F       		.uleb128 0x3f
 9529 03d3 19       		.uleb128 0x19
 9530 03d4 3C       		.uleb128 0x3c
 9531 03d5 19       		.uleb128 0x19
 9532 03d6 6E       		.uleb128 0x6e
 9533 03d7 0E       		.uleb128 0xe
 9534 03d8 03       		.uleb128 0x3
 9535 03d9 0E       		.uleb128 0xe
 9536 03da 3A       		.uleb128 0x3a
 9537 03db 0B       		.uleb128 0xb
 9538 03dc 3B       		.uleb128 0x3b
 9539 03dd 0B       		.uleb128 0xb
 9540 03de 6E       		.uleb128 0x6e
 9541 03df 0E       		.uleb128 0xe
 9542 03e0 00       		.byte	0
 9543 03e1 00       		.byte	0
 9544 03e2 47       		.uleb128 0x47
 9545 03e3 2E       		.uleb128 0x2e
 9546 03e4 00       		.byte	0
 9547 03e5 3F       		.uleb128 0x3f
 9548 03e6 19       		.uleb128 0x19
 9549 03e7 3C       		.uleb128 0x3c
 9550 03e8 19       		.uleb128 0x19
 9551 03e9 6E       		.uleb128 0x6e
 9552 03ea 0E       		.uleb128 0xe
 9553 03eb 03       		.uleb128 0x3
 9554 03ec 0E       		.uleb128 0xe
 9555 03ed 3A       		.uleb128 0x3a
 9556 03ee 0B       		.uleb128 0xb
 9557 03ef 3B       		.uleb128 0x3b
 9558 03f0 0B       		.uleb128 0xb
 9559 03f1 00       		.byte	0
 9560 03f2 00       		.byte	0
 9561 03f3 00       		.byte	0
 9562              		.section	.debug_loc,"",%progbits
 9563              	.Ldebug_loc0:
 9564              	.LLST0:
 9565 0000 00000000 		.4byte	.LVL0
 9566 0004 1A000000 		.4byte	.LVL2
 9567 0008 0100     		.2byte	0x1
 9568 000a 50       		.byte	0x50
 9569 000b 1A000000 		.4byte	.LVL2
 9570 000f 20000000 		.4byte	.LVL4
 9571 0013 0400     		.2byte	0x4
 9572 0015 F3       		.byte	0xf3
 9573 0016 01       		.uleb128 0x1
 9574 0017 50       		.byte	0x50
 9575 0018 9F       		.byte	0x9f
 9576 0019 20000000 		.4byte	.LVL4
 9577 001d 30000000 		.4byte	.LVL5
ARM GAS  C:\Users\ASUS\AppData\Local\Temp\ccarWmgw.s 			page 210


 9578 0021 0100     		.2byte	0x1
 9579 0023 50       		.byte	0x50
 9580 0024 30000000 		.4byte	.LVL5
 9581 0028 44000000 		.4byte	.LFE462
 9582 002c 0400     		.2byte	0x4
 9583 002e F3       		.byte	0xf3
 9584 002f 01       		.uleb128 0x1
 9585 0030 50       		.byte	0x50
 9586 0031 9F       		.byte	0x9f
 9587 0032 00000000 		.4byte	0
 9588 0036 00000000 		.4byte	0
 9589              	.LLST1:
 9590 003a 00000000 		.4byte	.LVL0
 9591 003e 18000000 		.4byte	.LVL1
 9592 0042 0100     		.2byte	0x1
 9593 0044 51       		.byte	0x51
 9594 0045 18000000 		.4byte	.LVL1
 9595 0049 20000000 		.4byte	.LVL4
 9596 004d 0400     		.2byte	0x4
 9597 004f F3       		.byte	0xf3
 9598 0050 01       		.uleb128 0x1
 9599 0051 51       		.byte	0x51
 9600 0052 9F       		.byte	0x9f
 9601 0053 20000000 		.4byte	.LVL4
 9602 0057 33000000 		.4byte	.LVL6-1
 9603 005b 0100     		.2byte	0x1
 9604 005d 51       		.byte	0x51
 9605 005e 33000000 		.4byte	.LVL6-1
 9606 0062 44000000 		.4byte	.LFE462
 9607 0066 0400     		.2byte	0x4
 9608 0068 F3       		.byte	0xf3
 9609 0069 01       		.uleb128 0x1
 9610 006a 51       		.byte	0x51
 9611 006b 9F       		.byte	0x9f
 9612 006c 00000000 		.4byte	0
 9613 0070 00000000 		.4byte	0
 9614              	.LLST2:
 9615 0074 20000000 		.4byte	.LVL4
 9616 0078 33000000 		.4byte	.LVL6-1
 9617 007c 0100     		.2byte	0x1
 9618 007e 51       		.byte	0x51
 9619 007f 33000000 		.4byte	.LVL6-1
 9620 0083 34000000 		.4byte	.LVL6
 9621 0087 0400     		.2byte	0x4
 9622 0089 F3       		.byte	0xf3
 9623 008a 01       		.uleb128 0x1
 9624 008b 51       		.byte	0x51
 9625 008c 9F       		.byte	0x9f
 9626 008d 00000000 		.4byte	0
 9627 0091 00000000 		.4byte	0
 9628              	.LLST3:
 9629 0095 04000000 		.4byte	.LVL9
 9630 0099 20000000 		.4byte	.LVL13
 9631 009d 0200     		.2byte	0x2
 9632 009f 30       		.byte	0x30
 9633 00a0 9F       		.byte	0x9f
 9634 00a1 20000000 		.4byte	.LVL13
ARM GAS  C:\Users\ASUS\AppData\Local\Temp\ccarWmgw.s 			page 211


 9635 00a5 52000000 		.4byte	.LVL18
 9636 00a9 0100     		.2byte	0x1
 9637 00ab 54       		.byte	0x54
 9638 00ac 00000000 		.4byte	0
 9639 00b0 00000000 		.4byte	0
 9640              	.LLST4:
 9641 00b4 00000000 		.4byte	.LVL19
 9642 00b8 28000000 		.4byte	.LVL21
 9643 00bc 0100     		.2byte	0x1
 9644 00be 50       		.byte	0x50
 9645 00bf 28000000 		.4byte	.LVL21
 9646 00c3 C8000000 		.4byte	.LFE465
 9647 00c7 0400     		.2byte	0x4
 9648 00c9 F3       		.byte	0xf3
 9649 00ca 01       		.uleb128 0x1
 9650 00cb 50       		.byte	0x50
 9651 00cc 9F       		.byte	0x9f
 9652 00cd 00000000 		.4byte	0
 9653 00d1 00000000 		.4byte	0
 9654              	.LLST5:
 9655 00d5 1A000000 		.4byte	.LVL20
 9656 00d9 2C000000 		.4byte	.LVL22
 9657 00dd 0300     		.2byte	0x3
 9658 00df 08       		.byte	0x8
 9659 00e0 64       		.byte	0x64
 9660 00e1 9F       		.byte	0x9f
 9661 00e2 00000000 		.4byte	0
 9662 00e6 00000000 		.4byte	0
 9663              	.LLST6:
 9664 00ea 1A000000 		.4byte	.LVL20
 9665 00ee 2C000000 		.4byte	.LVL22
 9666 00f2 0200     		.2byte	0x2
 9667 00f4 30       		.byte	0x30
 9668 00f5 9F       		.byte	0x9f
 9669 00f6 00000000 		.4byte	0
 9670 00fa 00000000 		.4byte	0
 9671              	.LLST7:
 9672 00fe 1A000000 		.4byte	.LVL20
 9673 0102 2C000000 		.4byte	.LVL22
 9674 0106 0300     		.2byte	0x3
 9675 0108 08       		.byte	0x8
 9676 0109 74       		.byte	0x74
 9677 010a 9F       		.byte	0x9f
 9678 010b 00000000 		.4byte	0
 9679 010f 00000000 		.4byte	0
 9680              	.LLST8:
 9681 0113 34000000 		.4byte	.LVL23
 9682 0117 40000000 		.4byte	.LVL24
 9683 011b 0300     		.2byte	0x3
 9684 011d 08       		.byte	0x8
 9685 011e 64       		.byte	0x64
 9686 011f 9F       		.byte	0x9f
 9687 0120 00000000 		.4byte	0
 9688 0124 00000000 		.4byte	0
 9689              	.LLST9:
 9690 0128 34000000 		.4byte	.LVL23
 9691 012c 40000000 		.4byte	.LVL24
ARM GAS  C:\Users\ASUS\AppData\Local\Temp\ccarWmgw.s 			page 212


 9692 0130 0100     		.2byte	0x1
 9693 0132 56       		.byte	0x56
 9694 0133 00000000 		.4byte	0
 9695 0137 00000000 		.4byte	0
 9696              	.LLST10:
 9697 013b 48000000 		.4byte	.LVL25
 9698 013f 56000000 		.4byte	.LVL26
 9699 0143 0300     		.2byte	0x3
 9700 0145 08       		.byte	0x8
 9701 0146 64       		.byte	0x64
 9702 0147 9F       		.byte	0x9f
 9703 0148 00000000 		.4byte	0
 9704 014c 00000000 		.4byte	0
 9705              	.LLST11:
 9706 0150 48000000 		.4byte	.LVL25
 9707 0154 56000000 		.4byte	.LVL26
 9708 0158 0200     		.2byte	0x2
 9709 015a 31       		.byte	0x31
 9710 015b 9F       		.byte	0x9f
 9711 015c 00000000 		.4byte	0
 9712 0160 00000000 		.4byte	0
 9713              	.LLST12:
 9714 0164 48000000 		.4byte	.LVL25
 9715 0168 56000000 		.4byte	.LVL26
 9716 016c 0300     		.2byte	0x3
 9717 016e 08       		.byte	0x8
 9718 016f 74       		.byte	0x74
 9719 0170 9F       		.byte	0x9f
 9720 0171 00000000 		.4byte	0
 9721 0175 00000000 		.4byte	0
 9722              	.LLST13:
 9723 0179 5E000000 		.4byte	.LVL27
 9724 017d 6C000000 		.4byte	.LVL28
 9725 0181 0300     		.2byte	0x3
 9726 0183 08       		.byte	0x8
 9727 0184 64       		.byte	0x64
 9728 0185 9F       		.byte	0x9f
 9729 0186 00000000 		.4byte	0
 9730 018a 00000000 		.4byte	0
 9731              	.LLST14:
 9732 018e 5E000000 		.4byte	.LVL27
 9733 0192 6C000000 		.4byte	.LVL28
 9734 0196 0100     		.2byte	0x1
 9735 0198 55       		.byte	0x55
 9736 0199 00000000 		.4byte	0
 9737 019d 00000000 		.4byte	0
 9738              	.LLST15:
 9739 01a1 5E000000 		.4byte	.LVL27
 9740 01a5 6C000000 		.4byte	.LVL28
 9741 01a9 0200     		.2byte	0x2
 9742 01ab 30       		.byte	0x30
 9743 01ac 9F       		.byte	0x9f
 9744 01ad 00000000 		.4byte	0
 9745 01b1 00000000 		.4byte	0
 9746              	.LLST16:
 9747 01b5 74000000 		.4byte	.LVL29
 9748 01b9 84000000 		.4byte	.LVL30
ARM GAS  C:\Users\ASUS\AppData\Local\Temp\ccarWmgw.s 			page 213


 9749 01bd 0300     		.2byte	0x3
 9750 01bf 08       		.byte	0x8
 9751 01c0 64       		.byte	0x64
 9752 01c1 9F       		.byte	0x9f
 9753 01c2 00000000 		.4byte	0
 9754 01c6 00000000 		.4byte	0
 9755              	.LLST17:
 9756 01ca 74000000 		.4byte	.LVL29
 9757 01ce 84000000 		.4byte	.LVL30
 9758 01d2 0300     		.2byte	0x3
 9759 01d4 91       		.byte	0x91
 9760 01d5 4D       		.sleb128 -51
 9761 01d6 9F       		.byte	0x9f
 9762 01d7 00000000 		.4byte	0
 9763 01db 00000000 		.4byte	0
 9764              	.LLST18:
 9765 01df 74000000 		.4byte	.LVL29
 9766 01e3 84000000 		.4byte	.LVL30
 9767 01e7 0200     		.2byte	0x2
 9768 01e9 31       		.byte	0x31
 9769 01ea 9F       		.byte	0x9f
 9770 01eb 00000000 		.4byte	0
 9771 01ef 00000000 		.4byte	0
 9772              	.LLST19:
 9773 01f3 8C000000 		.4byte	.LVL31
 9774 01f7 96000000 		.4byte	.LVL32
 9775 01fb 0300     		.2byte	0x3
 9776 01fd 08       		.byte	0x8
 9777 01fe 64       		.byte	0x64
 9778 01ff 9F       		.byte	0x9f
 9779 0200 00000000 		.4byte	0
 9780 0204 00000000 		.4byte	0
 9781              	.LLST20:
 9782 0208 00000000 		.4byte	.LVL34
 9783 020c 20000000 		.4byte	.LVL37
 9784 0210 0100     		.2byte	0x1
 9785 0212 50       		.byte	0x50
 9786 0213 20000000 		.4byte	.LVL37
 9787 0217 7C000000 		.4byte	.LFE466
 9788 021b 0400     		.2byte	0x4
 9789 021d F3       		.byte	0xf3
 9790 021e 01       		.uleb128 0x1
 9791 021f 50       		.byte	0x50
 9792 0220 9F       		.byte	0x9f
 9793 0221 00000000 		.4byte	0
 9794 0225 00000000 		.4byte	0
 9795              	.LLST21:
 9796 0229 00000000 		.4byte	.LVL34
 9797 022d 1E000000 		.4byte	.LVL36
 9798 0231 0100     		.2byte	0x1
 9799 0233 51       		.byte	0x51
 9800 0234 1E000000 		.4byte	.LVL36
 9801 0238 7C000000 		.4byte	.LFE466
 9802 023c 0400     		.2byte	0x4
 9803 023e F3       		.byte	0xf3
 9804 023f 01       		.uleb128 0x1
 9805 0240 51       		.byte	0x51
ARM GAS  C:\Users\ASUS\AppData\Local\Temp\ccarWmgw.s 			page 214


 9806 0241 9F       		.byte	0x9f
 9807 0242 00000000 		.4byte	0
 9808 0246 00000000 		.4byte	0
 9809              	.LLST22:
 9810 024a 12000000 		.4byte	.LVL35
 9811 024e 24000000 		.4byte	.LVL38
 9812 0252 0300     		.2byte	0x3
 9813 0254 08       		.byte	0x8
 9814 0255 64       		.byte	0x64
 9815 0256 9F       		.byte	0x9f
 9816 0257 00000000 		.4byte	0
 9817 025b 00000000 		.4byte	0
 9818              	.LLST23:
 9819 025f 12000000 		.4byte	.LVL35
 9820 0263 24000000 		.4byte	.LVL38
 9821 0267 0200     		.2byte	0x2
 9822 0269 30       		.byte	0x30
 9823 026a 9F       		.byte	0x9f
 9824 026b 00000000 		.4byte	0
 9825 026f 00000000 		.4byte	0
 9826              	.LLST24:
 9827 0273 12000000 		.4byte	.LVL35
 9828 0277 24000000 		.4byte	.LVL38
 9829 027b 0300     		.2byte	0x3
 9830 027d 08       		.byte	0x8
 9831 027e 74       		.byte	0x74
 9832 027f 9F       		.byte	0x9f
 9833 0280 00000000 		.4byte	0
 9834 0284 00000000 		.4byte	0
 9835              	.LLST25:
 9836 0288 2C000000 		.4byte	.LVL39
 9837 028c 38000000 		.4byte	.LVL40
 9838 0290 0300     		.2byte	0x3
 9839 0292 08       		.byte	0x8
 9840 0293 64       		.byte	0x64
 9841 0294 9F       		.byte	0x9f
 9842 0295 00000000 		.4byte	0
 9843 0299 00000000 		.4byte	0
 9844              	.LLST26:
 9845 029d 2C000000 		.4byte	.LVL39
 9846 02a1 38000000 		.4byte	.LVL40
 9847 02a5 0100     		.2byte	0x1
 9848 02a7 57       		.byte	0x57
 9849 02a8 00000000 		.4byte	0
 9850 02ac 00000000 		.4byte	0
 9851              	.LLST27:
 9852 02b0 3A000000 		.4byte	.LVL41
 9853 02b4 46000000 		.4byte	.LVL42
 9854 02b8 0300     		.2byte	0x3
 9855 02ba 08       		.byte	0x8
 9856 02bb 64       		.byte	0x64
 9857 02bc 9F       		.byte	0x9f
 9858 02bd 00000000 		.4byte	0
 9859 02c1 00000000 		.4byte	0
 9860              	.LLST28:
 9861 02c5 3A000000 		.4byte	.LVL41
 9862 02c9 46000000 		.4byte	.LVL42
ARM GAS  C:\Users\ASUS\AppData\Local\Temp\ccarWmgw.s 			page 215


 9863 02cd 0100     		.2byte	0x1
 9864 02cf 56       		.byte	0x56
 9865 02d0 00000000 		.4byte	0
 9866 02d4 00000000 		.4byte	0
 9867              	.LLST29:
 9868 02d8 4E000000 		.4byte	.LVL43
 9869 02dc 58000000 		.4byte	.LVL44
 9870 02e0 0300     		.2byte	0x3
 9871 02e2 08       		.byte	0x8
 9872 02e3 64       		.byte	0x64
 9873 02e4 9F       		.byte	0x9f
 9874 02e5 00000000 		.4byte	0
 9875 02e9 00000000 		.4byte	0
 9876              	.LLST30:
 9877 02ed 00000000 		.4byte	.LVL46
 9878 02f1 0E000000 		.4byte	.LVL48
 9879 02f5 0100     		.2byte	0x1
 9880 02f7 50       		.byte	0x50
 9881 02f8 0E000000 		.4byte	.LVL48
 9882 02fc 40000000 		.4byte	.LVL58
 9883 0300 0100     		.2byte	0x1
 9884 0302 56       		.byte	0x56
 9885 0303 40000000 		.4byte	.LVL58
 9886 0307 42000000 		.4byte	.LFE467
 9887 030b 0400     		.2byte	0x4
 9888 030d F3       		.byte	0xf3
 9889 030e 01       		.uleb128 0x1
 9890 030f 50       		.byte	0x50
 9891 0310 9F       		.byte	0x9f
 9892 0311 00000000 		.4byte	0
 9893 0315 00000000 		.4byte	0
 9894              	.LLST31:
 9895 0319 00000000 		.4byte	.LVL46
 9896 031d 0C000000 		.4byte	.LVL47
 9897 0321 0100     		.2byte	0x1
 9898 0323 51       		.byte	0x51
 9899 0324 0C000000 		.4byte	.LVL47
 9900 0328 40000000 		.4byte	.LVL57
 9901 032c 0100     		.2byte	0x1
 9902 032e 55       		.byte	0x55
 9903 032f 40000000 		.4byte	.LVL57
 9904 0333 42000000 		.4byte	.LFE467
 9905 0337 0400     		.2byte	0x4
 9906 0339 F3       		.byte	0xf3
 9907 033a 01       		.uleb128 0x1
 9908 033b 51       		.byte	0x51
 9909 033c 9F       		.byte	0x9f
 9910 033d 00000000 		.4byte	0
 9911 0341 00000000 		.4byte	0
 9912              	.LLST32:
 9913 0345 00000000 		.4byte	.LVL46
 9914 0349 11000000 		.4byte	.LVL49-1
 9915 034d 0100     		.2byte	0x1
 9916 034f 52       		.byte	0x52
 9917 0350 11000000 		.4byte	.LVL49-1
 9918 0354 40000000 		.4byte	.LVL56
 9919 0358 0100     		.2byte	0x1
ARM GAS  C:\Users\ASUS\AppData\Local\Temp\ccarWmgw.s 			page 216


 9920 035a 54       		.byte	0x54
 9921 035b 40000000 		.4byte	.LVL56
 9922 035f 42000000 		.4byte	.LFE467
 9923 0363 0400     		.2byte	0x4
 9924 0365 F3       		.byte	0xf3
 9925 0366 01       		.uleb128 0x1
 9926 0367 52       		.byte	0x52
 9927 0368 9F       		.byte	0x9f
 9928 0369 00000000 		.4byte	0
 9929 036d 00000000 		.4byte	0
 9930              	.LLST33:
 9931 0371 00000000 		.4byte	.LVL46
 9932 0375 11000000 		.4byte	.LVL49-1
 9933 0379 0100     		.2byte	0x1
 9934 037b 53       		.byte	0x53
 9935 037c 11000000 		.4byte	.LVL49-1
 9936 0380 40000000 		.4byte	.LVL59
 9937 0384 0100     		.2byte	0x1
 9938 0386 57       		.byte	0x57
 9939 0387 40000000 		.4byte	.LVL59
 9940 038b 42000000 		.4byte	.LFE467
 9941 038f 0400     		.2byte	0x4
 9942 0391 F3       		.byte	0xf3
 9943 0392 01       		.uleb128 0x1
 9944 0393 53       		.byte	0x53
 9945 0394 9F       		.byte	0x9f
 9946 0395 00000000 		.4byte	0
 9947 0399 00000000 		.4byte	0
 9948              	.LLST34:
 9949 039d 00000000 		.4byte	.LVL60
 9950 03a1 0E000000 		.4byte	.LVL61
 9951 03a5 0100     		.2byte	0x1
 9952 03a7 50       		.byte	0x50
 9953 03a8 0E000000 		.4byte	.LVL61
 9954 03ac 4C000000 		.4byte	.LFE468
 9955 03b0 0400     		.2byte	0x4
 9956 03b2 F3       		.byte	0xf3
 9957 03b3 01       		.uleb128 0x1
 9958 03b4 50       		.byte	0x50
 9959 03b5 9F       		.byte	0x9f
 9960 03b6 00000000 		.4byte	0
 9961 03ba 00000000 		.4byte	0
 9962              	.LLST35:
 9963 03be 00000000 		.4byte	.LVL60
 9964 03c2 11000000 		.4byte	.LVL62-1
 9965 03c6 0100     		.2byte	0x1
 9966 03c8 51       		.byte	0x51
 9967 03c9 11000000 		.4byte	.LVL62-1
 9968 03cd 4C000000 		.4byte	.LFE468
 9969 03d1 0400     		.2byte	0x4
 9970 03d3 F3       		.byte	0xf3
 9971 03d4 01       		.uleb128 0x1
 9972 03d5 51       		.byte	0x51
 9973 03d6 9F       		.byte	0x9f
 9974 03d7 00000000 		.4byte	0
 9975 03db 00000000 		.4byte	0
 9976              	.LLST36:
ARM GAS  C:\Users\ASUS\AppData\Local\Temp\ccarWmgw.s 			page 217


 9977 03df 00000000 		.4byte	.LVL60
 9978 03e3 11000000 		.4byte	.LVL62-1
 9979 03e7 0100     		.2byte	0x1
 9980 03e9 52       		.byte	0x52
 9981 03ea 11000000 		.4byte	.LVL62-1
 9982 03ee 4C000000 		.4byte	.LFE468
 9983 03f2 0400     		.2byte	0x4
 9984 03f4 F3       		.byte	0xf3
 9985 03f5 01       		.uleb128 0x1
 9986 03f6 52       		.byte	0x52
 9987 03f7 9F       		.byte	0x9f
 9988 03f8 00000000 		.4byte	0
 9989 03fc 00000000 		.4byte	0
 9990              	.LLST37:
 9991 0400 00000000 		.4byte	.LVL66
 9992 0404 28000000 		.4byte	.LVL68
 9993 0408 0100     		.2byte	0x1
 9994 040a 50       		.byte	0x50
 9995 040b 28000000 		.4byte	.LVL68
 9996 040f C8000000 		.4byte	.LFE469
 9997 0413 0400     		.2byte	0x4
 9998 0415 F3       		.byte	0xf3
 9999 0416 01       		.uleb128 0x1
 10000 0417 50       		.byte	0x50
 10001 0418 9F       		.byte	0x9f
 10002 0419 00000000 		.4byte	0
 10003 041d 00000000 		.4byte	0
 10004              	.LLST38:
 10005 0421 1A000000 		.4byte	.LVL67
 10006 0425 2C000000 		.4byte	.LVL69
 10007 0429 0300     		.2byte	0x3
 10008 042b 08       		.byte	0x8
 10009 042c 64       		.byte	0x64
 10010 042d 9F       		.byte	0x9f
 10011 042e 00000000 		.4byte	0
 10012 0432 00000000 		.4byte	0
 10013              	.LLST39:
 10014 0436 1A000000 		.4byte	.LVL67
 10015 043a 2C000000 		.4byte	.LVL69
 10016 043e 0200     		.2byte	0x2
 10017 0440 30       		.byte	0x30
 10018 0441 9F       		.byte	0x9f
 10019 0442 00000000 		.4byte	0
 10020 0446 00000000 		.4byte	0
 10021              	.LLST40:
 10022 044a 1A000000 		.4byte	.LVL67
 10023 044e 2C000000 		.4byte	.LVL69
 10024 0452 0300     		.2byte	0x3
 10025 0454 08       		.byte	0x8
 10026 0455 68       		.byte	0x68
 10027 0456 9F       		.byte	0x9f
 10028 0457 00000000 		.4byte	0
 10029 045b 00000000 		.4byte	0
 10030              	.LLST41:
 10031 045f 34000000 		.4byte	.LVL70
 10032 0463 40000000 		.4byte	.LVL71
 10033 0467 0300     		.2byte	0x3
ARM GAS  C:\Users\ASUS\AppData\Local\Temp\ccarWmgw.s 			page 218


 10034 0469 08       		.byte	0x8
 10035 046a 64       		.byte	0x64
 10036 046b 9F       		.byte	0x9f
 10037 046c 00000000 		.4byte	0
 10038 0470 00000000 		.4byte	0
 10039              	.LLST42:
 10040 0474 34000000 		.4byte	.LVL70
 10041 0478 40000000 		.4byte	.LVL71
 10042 047c 0100     		.2byte	0x1
 10043 047e 56       		.byte	0x56
 10044 047f 00000000 		.4byte	0
 10045 0483 00000000 		.4byte	0
 10046              	.LLST43:
 10047 0487 48000000 		.4byte	.LVL72
 10048 048b 56000000 		.4byte	.LVL73
 10049 048f 0300     		.2byte	0x3
 10050 0491 08       		.byte	0x8
 10051 0492 64       		.byte	0x64
 10052 0493 9F       		.byte	0x9f
 10053 0494 00000000 		.4byte	0
 10054 0498 00000000 		.4byte	0
 10055              	.LLST44:
 10056 049c 48000000 		.4byte	.LVL72
 10057 04a0 56000000 		.4byte	.LVL73
 10058 04a4 0200     		.2byte	0x2
 10059 04a6 31       		.byte	0x31
 10060 04a7 9F       		.byte	0x9f
 10061 04a8 00000000 		.4byte	0
 10062 04ac 00000000 		.4byte	0
 10063              	.LLST45:
 10064 04b0 48000000 		.4byte	.LVL72
 10065 04b4 56000000 		.4byte	.LVL73
 10066 04b8 0300     		.2byte	0x3
 10067 04ba 08       		.byte	0x8
 10068 04bb 68       		.byte	0x68
 10069 04bc 9F       		.byte	0x9f
 10070 04bd 00000000 		.4byte	0
 10071 04c1 00000000 		.4byte	0
 10072              	.LLST46:
 10073 04c5 5E000000 		.4byte	.LVL74
 10074 04c9 6E000000 		.4byte	.LVL75
 10075 04cd 0300     		.2byte	0x3
 10076 04cf 08       		.byte	0x8
 10077 04d0 64       		.byte	0x64
 10078 04d1 9F       		.byte	0x9f
 10079 04d2 00000000 		.4byte	0
 10080 04d6 00000000 		.4byte	0
 10081              	.LLST47:
 10082 04da 5E000000 		.4byte	.LVL74
 10083 04de 6E000000 		.4byte	.LVL75
 10084 04e2 0300     		.2byte	0x3
 10085 04e4 91       		.byte	0x91
 10086 04e5 4D       		.sleb128 -51
 10087 04e6 9F       		.byte	0x9f
 10088 04e7 00000000 		.4byte	0
 10089 04eb 00000000 		.4byte	0
 10090              	.LLST48:
ARM GAS  C:\Users\ASUS\AppData\Local\Temp\ccarWmgw.s 			page 219


 10091 04ef 5E000000 		.4byte	.LVL74
 10092 04f3 6E000000 		.4byte	.LVL75
 10093 04f7 0200     		.2byte	0x2
 10094 04f9 30       		.byte	0x30
 10095 04fa 9F       		.byte	0x9f
 10096 04fb 00000000 		.4byte	0
 10097 04ff 00000000 		.4byte	0
 10098              	.LLST49:
 10099 0503 76000000 		.4byte	.LVL76
 10100 0507 84000000 		.4byte	.LVL77
 10101 050b 0300     		.2byte	0x3
 10102 050d 08       		.byte	0x8
 10103 050e 64       		.byte	0x64
 10104 050f 9F       		.byte	0x9f
 10105 0510 00000000 		.4byte	0
 10106 0514 00000000 		.4byte	0
 10107              	.LLST50:
 10108 0518 76000000 		.4byte	.LVL76
 10109 051c 84000000 		.4byte	.LVL77
 10110 0520 0100     		.2byte	0x1
 10111 0522 55       		.byte	0x55
 10112 0523 00000000 		.4byte	0
 10113 0527 00000000 		.4byte	0
 10114              	.LLST51:
 10115 052b 76000000 		.4byte	.LVL76
 10116 052f 84000000 		.4byte	.LVL77
 10117 0533 0200     		.2byte	0x2
 10118 0535 31       		.byte	0x31
 10119 0536 9F       		.byte	0x9f
 10120 0537 00000000 		.4byte	0
 10121 053b 00000000 		.4byte	0
 10122              	.LLST52:
 10123 053f 8C000000 		.4byte	.LVL78
 10124 0543 96000000 		.4byte	.LVL79
 10125 0547 0300     		.2byte	0x3
 10126 0549 08       		.byte	0x8
 10127 054a 64       		.byte	0x64
 10128 054b 9F       		.byte	0x9f
 10129 054c 00000000 		.4byte	0
 10130 0550 00000000 		.4byte	0
 10131              	.LLST53:
 10132 0554 00000000 		.4byte	.LVL81
 10133 0558 20000000 		.4byte	.LVL84
 10134 055c 0100     		.2byte	0x1
 10135 055e 50       		.byte	0x50
 10136 055f 20000000 		.4byte	.LVL84
 10137 0563 7C000000 		.4byte	.LFE470
 10138 0567 0400     		.2byte	0x4
 10139 0569 F3       		.byte	0xf3
 10140 056a 01       		.uleb128 0x1
 10141 056b 50       		.byte	0x50
 10142 056c 9F       		.byte	0x9f
 10143 056d 00000000 		.4byte	0
 10144 0571 00000000 		.4byte	0
 10145              	.LLST54:
 10146 0575 00000000 		.4byte	.LVL81
 10147 0579 1E000000 		.4byte	.LVL83
ARM GAS  C:\Users\ASUS\AppData\Local\Temp\ccarWmgw.s 			page 220


 10148 057d 0100     		.2byte	0x1
 10149 057f 51       		.byte	0x51
 10150 0580 1E000000 		.4byte	.LVL83
 10151 0584 7C000000 		.4byte	.LFE470
 10152 0588 0400     		.2byte	0x4
 10153 058a F3       		.byte	0xf3
 10154 058b 01       		.uleb128 0x1
 10155 058c 51       		.byte	0x51
 10156 058d 9F       		.byte	0x9f
 10157 058e 00000000 		.4byte	0
 10158 0592 00000000 		.4byte	0
 10159              	.LLST55:
 10160 0596 12000000 		.4byte	.LVL82
 10161 059a 24000000 		.4byte	.LVL85
 10162 059e 0300     		.2byte	0x3
 10163 05a0 08       		.byte	0x8
 10164 05a1 64       		.byte	0x64
 10165 05a2 9F       		.byte	0x9f
 10166 05a3 00000000 		.4byte	0
 10167 05a7 00000000 		.4byte	0
 10168              	.LLST56:
 10169 05ab 12000000 		.4byte	.LVL82
 10170 05af 24000000 		.4byte	.LVL85
 10171 05b3 0200     		.2byte	0x2
 10172 05b5 30       		.byte	0x30
 10173 05b6 9F       		.byte	0x9f
 10174 05b7 00000000 		.4byte	0
 10175 05bb 00000000 		.4byte	0
 10176              	.LLST57:
 10177 05bf 12000000 		.4byte	.LVL82
 10178 05c3 24000000 		.4byte	.LVL85
 10179 05c7 0300     		.2byte	0x3
 10180 05c9 08       		.byte	0x8
 10181 05ca 68       		.byte	0x68
 10182 05cb 9F       		.byte	0x9f
 10183 05cc 00000000 		.4byte	0
 10184 05d0 00000000 		.4byte	0
 10185              	.LLST58:
 10186 05d4 2C000000 		.4byte	.LVL86
 10187 05d8 38000000 		.4byte	.LVL87
 10188 05dc 0300     		.2byte	0x3
 10189 05de 08       		.byte	0x8
 10190 05df 64       		.byte	0x64
 10191 05e0 9F       		.byte	0x9f
 10192 05e1 00000000 		.4byte	0
 10193 05e5 00000000 		.4byte	0
 10194              	.LLST59:
 10195 05e9 2C000000 		.4byte	.LVL86
 10196 05ed 38000000 		.4byte	.LVL87
 10197 05f1 0100     		.2byte	0x1
 10198 05f3 57       		.byte	0x57
 10199 05f4 00000000 		.4byte	0
 10200 05f8 00000000 		.4byte	0
 10201              	.LLST60:
 10202 05fc 3A000000 		.4byte	.LVL88
 10203 0600 46000000 		.4byte	.LVL89
 10204 0604 0300     		.2byte	0x3
ARM GAS  C:\Users\ASUS\AppData\Local\Temp\ccarWmgw.s 			page 221


 10205 0606 08       		.byte	0x8
 10206 0607 64       		.byte	0x64
 10207 0608 9F       		.byte	0x9f
 10208 0609 00000000 		.4byte	0
 10209 060d 00000000 		.4byte	0
 10210              	.LLST61:
 10211 0611 3A000000 		.4byte	.LVL88
 10212 0615 46000000 		.4byte	.LVL89
 10213 0619 0100     		.2byte	0x1
 10214 061b 56       		.byte	0x56
 10215 061c 00000000 		.4byte	0
 10216 0620 00000000 		.4byte	0
 10217              	.LLST62:
 10218 0624 4E000000 		.4byte	.LVL90
 10219 0628 58000000 		.4byte	.LVL91
 10220 062c 0300     		.2byte	0x3
 10221 062e 08       		.byte	0x8
 10222 062f 64       		.byte	0x64
 10223 0630 9F       		.byte	0x9f
 10224 0631 00000000 		.4byte	0
 10225 0635 00000000 		.4byte	0
 10226              	.LLST63:
 10227 0639 00000000 		.4byte	.LVL93
 10228 063d 0A000000 		.4byte	.LVL94
 10229 0641 0100     		.2byte	0x1
 10230 0643 50       		.byte	0x50
 10231 0644 0A000000 		.4byte	.LVL94
 10232 0648 20000000 		.4byte	.LVL100
 10233 064c 0100     		.2byte	0x1
 10234 064e 56       		.byte	0x56
 10235 064f 20000000 		.4byte	.LVL100
 10236 0653 22000000 		.4byte	.LFE471
 10237 0657 0400     		.2byte	0x4
 10238 0659 F3       		.byte	0xf3
 10239 065a 01       		.uleb128 0x1
 10240 065b 50       		.byte	0x50
 10241 065c 9F       		.byte	0x9f
 10242 065d 00000000 		.4byte	0
 10243 0661 00000000 		.4byte	0
 10244              	.LLST64:
 10245 0665 00000000 		.4byte	.LVL93
 10246 0669 0D000000 		.4byte	.LVL95-1
 10247 066d 0100     		.2byte	0x1
 10248 066f 51       		.byte	0x51
 10249 0670 0D000000 		.4byte	.LVL95-1
 10250 0674 20000000 		.4byte	.LVL99
 10251 0678 0100     		.2byte	0x1
 10252 067a 55       		.byte	0x55
 10253 067b 20000000 		.4byte	.LVL99
 10254 067f 22000000 		.4byte	.LFE471
 10255 0683 0400     		.2byte	0x4
 10256 0685 F3       		.byte	0xf3
 10257 0686 01       		.uleb128 0x1
 10258 0687 51       		.byte	0x51
 10259 0688 9F       		.byte	0x9f
 10260 0689 00000000 		.4byte	0
 10261 068d 00000000 		.4byte	0
ARM GAS  C:\Users\ASUS\AppData\Local\Temp\ccarWmgw.s 			page 222


 10262              	.LLST65:
 10263 0691 00000000 		.4byte	.LVL93
 10264 0695 0D000000 		.4byte	.LVL95-1
 10265 0699 0100     		.2byte	0x1
 10266 069b 52       		.byte	0x52
 10267 069c 0D000000 		.4byte	.LVL95-1
 10268 06a0 20000000 		.4byte	.LVL98
 10269 06a4 0100     		.2byte	0x1
 10270 06a6 54       		.byte	0x54
 10271 06a7 20000000 		.4byte	.LVL98
 10272 06ab 22000000 		.4byte	.LFE471
 10273 06af 0400     		.2byte	0x4
 10274 06b1 F3       		.byte	0xf3
 10275 06b2 01       		.uleb128 0x1
 10276 06b3 52       		.byte	0x52
 10277 06b4 9F       		.byte	0x9f
 10278 06b5 00000000 		.4byte	0
 10279 06b9 00000000 		.4byte	0
 10280              	.LLST66:
 10281 06bd 00000000 		.4byte	.LVL101
 10282 06c1 0A000000 		.4byte	.LVL102
 10283 06c5 0100     		.2byte	0x1
 10284 06c7 50       		.byte	0x50
 10285 06c8 0A000000 		.4byte	.LVL102
 10286 06cc 20000000 		.4byte	.LVL108
 10287 06d0 0100     		.2byte	0x1
 10288 06d2 56       		.byte	0x56
 10289 06d3 20000000 		.4byte	.LVL108
 10290 06d7 22000000 		.4byte	.LFE472
 10291 06db 0400     		.2byte	0x4
 10292 06dd F3       		.byte	0xf3
 10293 06de 01       		.uleb128 0x1
 10294 06df 50       		.byte	0x50
 10295 06e0 9F       		.byte	0x9f
 10296 06e1 00000000 		.4byte	0
 10297 06e5 00000000 		.4byte	0
 10298              	.LLST67:
 10299 06e9 00000000 		.4byte	.LVL101
 10300 06ed 0D000000 		.4byte	.LVL103-1
 10301 06f1 0100     		.2byte	0x1
 10302 06f3 51       		.byte	0x51
 10303 06f4 0D000000 		.4byte	.LVL103-1
 10304 06f8 20000000 		.4byte	.LVL107
 10305 06fc 0100     		.2byte	0x1
 10306 06fe 55       		.byte	0x55
 10307 06ff 20000000 		.4byte	.LVL107
 10308 0703 22000000 		.4byte	.LFE472
 10309 0707 0400     		.2byte	0x4
 10310 0709 F3       		.byte	0xf3
 10311 070a 01       		.uleb128 0x1
 10312 070b 51       		.byte	0x51
 10313 070c 9F       		.byte	0x9f
 10314 070d 00000000 		.4byte	0
 10315 0711 00000000 		.4byte	0
 10316              	.LLST68:
 10317 0715 00000000 		.4byte	.LVL101
 10318 0719 0D000000 		.4byte	.LVL103-1
ARM GAS  C:\Users\ASUS\AppData\Local\Temp\ccarWmgw.s 			page 223


 10319 071d 0100     		.2byte	0x1
 10320 071f 52       		.byte	0x52
 10321 0720 0D000000 		.4byte	.LVL103-1
 10322 0724 20000000 		.4byte	.LVL106
 10323 0728 0100     		.2byte	0x1
 10324 072a 54       		.byte	0x54
 10325 072b 20000000 		.4byte	.LVL106
 10326 072f 22000000 		.4byte	.LFE472
 10327 0733 0400     		.2byte	0x4
 10328 0735 F3       		.byte	0xf3
 10329 0736 01       		.uleb128 0x1
 10330 0737 52       		.byte	0x52
 10331 0738 9F       		.byte	0x9f
 10332 0739 00000000 		.4byte	0
 10333 073d 00000000 		.4byte	0
 10334              	.LLST69:
 10335 0741 00000000 		.4byte	.LVL109
 10336 0745 0A000000 		.4byte	.LVL112
 10337 0749 0100     		.2byte	0x1
 10338 074b 50       		.byte	0x50
 10339 074c 0A000000 		.4byte	.LVL112
 10340 0750 14000000 		.4byte	.LFE473
 10341 0754 0400     		.2byte	0x4
 10342 0756 F3       		.byte	0xf3
 10343 0757 01       		.uleb128 0x1
 10344 0758 50       		.byte	0x50
 10345 0759 9F       		.byte	0x9f
 10346 075a 00000000 		.4byte	0
 10347 075e 00000000 		.4byte	0
 10348              	.LLST70:
 10349 0762 00000000 		.4byte	.LVL109
 10350 0766 08000000 		.4byte	.LVL111
 10351 076a 0100     		.2byte	0x1
 10352 076c 51       		.byte	0x51
 10353 076d 08000000 		.4byte	.LVL111
 10354 0771 14000000 		.4byte	.LFE473
 10355 0775 0400     		.2byte	0x4
 10356 0777 F3       		.byte	0xf3
 10357 0778 01       		.uleb128 0x1
 10358 0779 51       		.byte	0x51
 10359 077a 9F       		.byte	0x9f
 10360 077b 00000000 		.4byte	0
 10361 077f 00000000 		.4byte	0
 10362              	.LLST71:
 10363 0783 00000000 		.4byte	.LVL109
 10364 0787 06000000 		.4byte	.LVL110
 10365 078b 0100     		.2byte	0x1
 10366 078d 52       		.byte	0x52
 10367 078e 06000000 		.4byte	.LVL110
 10368 0792 14000000 		.4byte	.LFE473
 10369 0796 0400     		.2byte	0x4
 10370 0798 F3       		.byte	0xf3
 10371 0799 01       		.uleb128 0x1
 10372 079a 52       		.byte	0x52
 10373 079b 9F       		.byte	0x9f
 10374 079c 00000000 		.4byte	0
 10375 07a0 00000000 		.4byte	0
ARM GAS  C:\Users\ASUS\AppData\Local\Temp\ccarWmgw.s 			page 224


 10376              	.LLST72:
 10377 07a4 00000000 		.4byte	.LVL114
 10378 07a8 0A000000 		.4byte	.LVL117
 10379 07ac 0100     		.2byte	0x1
 10380 07ae 50       		.byte	0x50
 10381 07af 0A000000 		.4byte	.LVL117
 10382 07b3 14000000 		.4byte	.LFE474
 10383 07b7 0400     		.2byte	0x4
 10384 07b9 F3       		.byte	0xf3
 10385 07ba 01       		.uleb128 0x1
 10386 07bb 50       		.byte	0x50
 10387 07bc 9F       		.byte	0x9f
 10388 07bd 00000000 		.4byte	0
 10389 07c1 00000000 		.4byte	0
 10390              	.LLST73:
 10391 07c5 00000000 		.4byte	.LVL114
 10392 07c9 08000000 		.4byte	.LVL116
 10393 07cd 0100     		.2byte	0x1
 10394 07cf 51       		.byte	0x51
 10395 07d0 08000000 		.4byte	.LVL116
 10396 07d4 14000000 		.4byte	.LFE474
 10397 07d8 0400     		.2byte	0x4
 10398 07da F3       		.byte	0xf3
 10399 07db 01       		.uleb128 0x1
 10400 07dc 51       		.byte	0x51
 10401 07dd 9F       		.byte	0x9f
 10402 07de 00000000 		.4byte	0
 10403 07e2 00000000 		.4byte	0
 10404              	.LLST74:
 10405 07e6 00000000 		.4byte	.LVL114
 10406 07ea 06000000 		.4byte	.LVL115
 10407 07ee 0100     		.2byte	0x1
 10408 07f0 52       		.byte	0x52
 10409 07f1 06000000 		.4byte	.LVL115
 10410 07f5 14000000 		.4byte	.LFE474
 10411 07f9 0400     		.2byte	0x4
 10412 07fb F3       		.byte	0xf3
 10413 07fc 01       		.uleb128 0x1
 10414 07fd 52       		.byte	0x52
 10415 07fe 9F       		.byte	0x9f
 10416 07ff 00000000 		.4byte	0
 10417 0803 00000000 		.4byte	0
 10418              	.LLST75:
 10419 0807 02000000 		.4byte	.LVL119
 10420 080b 06000000 		.4byte	.LVL120
 10421 080f 0400     		.2byte	0x4
 10422 0811 0A       		.byte	0xa
 10423 0812 F401     		.2byte	0x1f4
 10424 0814 9F       		.byte	0x9f
 10425 0815 06000000 		.4byte	.LVL120
 10426 0819 20000000 		.4byte	.LVL126
 10427 081d 0100     		.2byte	0x1
 10428 081f 54       		.byte	0x54
 10429 0820 00000000 		.4byte	0
 10430 0824 00000000 		.4byte	0
 10431              	.LLST76:
 10432 0828 0E000000 		.4byte	.LVL122
ARM GAS  C:\Users\ASUS\AppData\Local\Temp\ccarWmgw.s 			page 225


 10433 082c 12000000 		.4byte	.LVL124
 10434 0830 0100     		.2byte	0x1
 10435 0832 50       		.byte	0x50
 10436 0833 12000000 		.4byte	.LVL124
 10437 0837 20000000 		.4byte	.LVL127
 10438 083b 0100     		.2byte	0x1
 10439 083d 55       		.byte	0x55
 10440 083e 20000000 		.4byte	.LVL127
 10441 0842 28000000 		.4byte	.LFE476
 10442 0846 0100     		.2byte	0x1
 10443 0848 50       		.byte	0x50
 10444 0849 00000000 		.4byte	0
 10445 084d 00000000 		.4byte	0
 10446              	.LLST77:
 10447 0851 02000000 		.4byte	.LVL128
 10448 0855 06000000 		.4byte	.LVL129
 10449 0859 0400     		.2byte	0x4
 10450 085b 0A       		.byte	0xa
 10451 085c F401     		.2byte	0x1f4
 10452 085e 9F       		.byte	0x9f
 10453 085f 06000000 		.4byte	.LVL129
 10454 0863 22000000 		.4byte	.LVL135
 10455 0867 0100     		.2byte	0x1
 10456 0869 54       		.byte	0x54
 10457 086a 00000000 		.4byte	0
 10458 086e 00000000 		.4byte	0
 10459              	.LLST78:
 10460 0872 10000000 		.4byte	.LVL131
 10461 0876 14000000 		.4byte	.LVL133
 10462 087a 0100     		.2byte	0x1
 10463 087c 50       		.byte	0x50
 10464 087d 14000000 		.4byte	.LVL133
 10465 0881 22000000 		.4byte	.LVL136
 10466 0885 0100     		.2byte	0x1
 10467 0887 55       		.byte	0x55
 10468 0888 22000000 		.4byte	.LVL136
 10469 088c 28000000 		.4byte	.LFE477
 10470 0890 0100     		.2byte	0x1
 10471 0892 50       		.byte	0x50
 10472 0893 00000000 		.4byte	0
 10473 0897 00000000 		.4byte	0
 10474              	.LLST79:
 10475 089b 3A000000 		.4byte	.LVL143
 10476 089f 42000000 		.4byte	.LVL144
 10477 08a3 0100     		.2byte	0x1
 10478 08a5 52       		.byte	0x52
 10479 08a6 42000000 		.4byte	.LVL144
 10480 08aa 4A000000 		.4byte	.LVL145
 10481 08ae 0200     		.2byte	0x2
 10482 08b0 74       		.byte	0x74
 10483 08b1 00       		.sleb128 0
 10484 08b2 00000000 		.4byte	0
 10485 08b6 00000000 		.4byte	0
 10486              		.section	.debug_aranges,"",%progbits
 10487 0000 B4000000 		.4byte	0xb4
 10488 0004 0200     		.2byte	0x2
 10489 0006 00000000 		.4byte	.Ldebug_info0
ARM GAS  C:\Users\ASUS\AppData\Local\Temp\ccarWmgw.s 			page 226


 10490 000a 04       		.byte	0x4
 10491 000b 00       		.byte	0
 10492 000c 0000     		.2byte	0
 10493 000e 0000     		.2byte	0
 10494 0010 00000000 		.4byte	.LFB462
 10495 0014 44000000 		.4byte	.LFE462-.LFB462
 10496 0018 00000000 		.4byte	.LFB463
 10497 001c 08000000 		.4byte	.LFE463-.LFB463
 10498 0020 00000000 		.4byte	.LFB478
 10499 0024 0C000000 		.4byte	.LFE478-.LFB478
 10500 0028 00000000 		.4byte	.LFB464
 10501 002c 68000000 		.4byte	.LFE464-.LFB464
 10502 0030 00000000 		.4byte	.LFB465
 10503 0034 C8000000 		.4byte	.LFE465-.LFB465
 10504 0038 00000000 		.4byte	.LFB466
 10505 003c 7C000000 		.4byte	.LFE466-.LFB466
 10506 0040 00000000 		.4byte	.LFB467
 10507 0044 42000000 		.4byte	.LFE467-.LFB467
 10508 0048 00000000 		.4byte	.LFB468
 10509 004c 4C000000 		.4byte	.LFE468-.LFB468
 10510 0050 00000000 		.4byte	.LFB469
 10511 0054 C8000000 		.4byte	.LFE469-.LFB469
 10512 0058 00000000 		.4byte	.LFB470
 10513 005c 7C000000 		.4byte	.LFE470-.LFB470
 10514 0060 00000000 		.4byte	.LFB471
 10515 0064 22000000 		.4byte	.LFE471-.LFB471
 10516 0068 00000000 		.4byte	.LFB472
 10517 006c 22000000 		.4byte	.LFE472-.LFB472
 10518 0070 00000000 		.4byte	.LFB473
 10519 0074 14000000 		.4byte	.LFE473-.LFB473
 10520 0078 00000000 		.4byte	.LFB474
 10521 007c 14000000 		.4byte	.LFE474-.LFB474
 10522 0080 00000000 		.4byte	.LFB476
 10523 0084 28000000 		.4byte	.LFE476-.LFB476
 10524 0088 00000000 		.4byte	.LFB477
 10525 008c 28000000 		.4byte	.LFE477-.LFB477
 10526 0090 00000000 		.4byte	.LFB475
 10527 0094 5C000000 		.4byte	.LFE475-.LFB475
 10528 0098 00000000 		.4byte	.LFB479
 10529 009c 0C000000 		.4byte	.LFE479-.LFB479
 10530 00a0 00000000 		.4byte	.LFB480
 10531 00a4 30000000 		.4byte	.LFE480-.LFB480
 10532 00a8 00000000 		.4byte	.LFB481
 10533 00ac 8C000000 		.4byte	.LFE481-.LFB481
 10534 00b0 00000000 		.4byte	0
 10535 00b4 00000000 		.4byte	0
 10536              		.section	.debug_ranges,"",%progbits
 10537              	.Ldebug_ranges0:
 10538 0000 00000000 		.4byte	.LFB462
 10539 0004 44000000 		.4byte	.LFE462
 10540 0008 00000000 		.4byte	.LFB463
 10541 000c 08000000 		.4byte	.LFE463
 10542 0010 00000000 		.4byte	.LFB478
 10543 0014 0C000000 		.4byte	.LFE478
 10544 0018 00000000 		.4byte	.LFB464
 10545 001c 68000000 		.4byte	.LFE464
 10546 0020 00000000 		.4byte	.LFB465
ARM GAS  C:\Users\ASUS\AppData\Local\Temp\ccarWmgw.s 			page 227


 10547 0024 C8000000 		.4byte	.LFE465
 10548 0028 00000000 		.4byte	.LFB466
 10549 002c 7C000000 		.4byte	.LFE466
 10550 0030 00000000 		.4byte	.LFB467
 10551 0034 42000000 		.4byte	.LFE467
 10552 0038 00000000 		.4byte	.LFB468
 10553 003c 4C000000 		.4byte	.LFE468
 10554 0040 00000000 		.4byte	.LFB469
 10555 0044 C8000000 		.4byte	.LFE469
 10556 0048 00000000 		.4byte	.LFB470
 10557 004c 7C000000 		.4byte	.LFE470
 10558 0050 00000000 		.4byte	.LFB471
 10559 0054 22000000 		.4byte	.LFE471
 10560 0058 00000000 		.4byte	.LFB472
 10561 005c 22000000 		.4byte	.LFE472
 10562 0060 00000000 		.4byte	.LFB473
 10563 0064 14000000 		.4byte	.LFE473
 10564 0068 00000000 		.4byte	.LFB474
 10565 006c 14000000 		.4byte	.LFE474
 10566 0070 00000000 		.4byte	.LFB476
 10567 0074 28000000 		.4byte	.LFE476
 10568 0078 00000000 		.4byte	.LFB477
 10569 007c 28000000 		.4byte	.LFE477
 10570 0080 00000000 		.4byte	.LFB475
 10571 0084 5C000000 		.4byte	.LFE475
 10572 0088 00000000 		.4byte	.LFB479
 10573 008c 0C000000 		.4byte	.LFE479
 10574 0090 00000000 		.4byte	.LFB480
 10575 0094 30000000 		.4byte	.LFE480
 10576 0098 00000000 		.4byte	.LFB481
 10577 009c 8C000000 		.4byte	.LFE481
 10578 00a0 00000000 		.4byte	0
 10579 00a4 00000000 		.4byte	0
 10580              		.section	.debug_line,"",%progbits
 10581              	.Ldebug_line0:
 10582 0000 5D090000 		.section	.debug_str,"MS",%progbits,1
 10582      02002206 
 10582      00000201 
 10582      FB0E0D00 
 10582      01010101 
 10583              	.LASF141:
 10584 0000 74637077 		.ascii	"tcpwm_1_interrupts_4_IRQn\000"
 10584      6D5F315F 
 10584      696E7465 
 10584      72727570 
 10584      74735F34 
 10585              	.LASF601:
 10586 001a 43595F42 		.ascii	"CY_BLE_EVT_PENDING_FLASH_WRITE\000"
 10586      4C455F45 
 10586      56545F50 
 10586      454E4449 
 10586      4E475F46 
 10587              	.LASF585:
 10588 0039 5F736967 		.ascii	"_signal_buf\000"
 10588      6E616C5F 
 10588      62756600 
 10589              	.LASF442:
ARM GAS  C:\Users\ASUS\AppData\Local\Temp\ccarWmgw.s 			page 228


 10590 0045 63795F65 		.ascii	"cy_en_scb_i2c_status_t\000"
 10590      6E5F7363 
 10590      625F6932 
 10590      635F7374 
 10590      61747573 
 10591              	.LASF298:
 10592 005c 63727970 		.ascii	"cryptoBase\000"
 10592      746F4261 
 10592      736500
 10593              	.LASF161:
 10594 0067 7564625F 		.ascii	"udb_interrupts_0_IRQn\000"
 10594      696E7465 
 10594      72727570 
 10594      74735F30 
 10594      5F495251 
 10595              	.LASF211:
 10596 007d 52534552 		.ascii	"RSERVED1\000"
 10596      56454431 
 10596      00
 10597              	.LASF362:
 10598 0086 63707573 		.ascii	"cpussCm0StatusOffset\000"
 10598      73436D30 
 10598      53746174 
 10598      75734F66 
 10598      66736574 
 10599              	.LASF217:
 10600 009b 73697A65 		.ascii	"sizetype\000"
 10600      74797065 
 10600      00
 10601              	.LASF776:
 10602 00a4 6C696768 		.ascii	"lightI2CRead\000"
 10602      74493243 
 10602      52656164 
 10602      00
 10603              	.LASF696:
 10604 00b1 43595F42 		.ascii	"CY_BLE_EVT_GATTS_DATA_SIGNED_CMD_REQ\000"
 10604      4C455F45 
 10604      56545F47 
 10604      41545453 
 10604      5F444154 
 10605              	.LASF497:
 10606 00d6 5F5F7661 		.ascii	"__value\000"
 10606      6C756500 
 10607              	.LASF629:
 10608 00de 43595F42 		.ascii	"CY_BLE_EVT_SET_DEVICE_ADDR_COMPLETE\000"
 10608      4C455F45 
 10608      56545F53 
 10608      45545F44 
 10608      45564943 
 10609              	.LASF565:
 10610 0102 5F5F7366 		.ascii	"__sf\000"
 10610      00
 10611              	.LASF248:
 10612 0107 52585F4D 		.ascii	"RX_MATCH\000"
 10612      41544348 
 10612      00
 10613              	.LASF7:
ARM GAS  C:\Users\ASUS\AppData\Local\Temp\ccarWmgw.s 			page 229


 10614 0110 4E766963 		.ascii	"NvicMux1_IRQn\000"
 10614      4D757831 
 10614      5F495251 
 10614      6E00
 10615              	.LASF388:
 10616 011e 43595F52 		.ascii	"CY_RTC_SUCCESS\000"
 10616      54435F53 
 10616      55434345 
 10616      535300
 10617              	.LASF532:
 10618 012d 5F726561 		.ascii	"_read\000"
 10618      6400
 10619              	.LASF475:
 10620 0133 63795F73 		.ascii	"cy_stc_scb_uart_context\000"
 10620      74635F73 
 10620      63625F75 
 10620      6172745F 
 10620      636F6E74 
 10621              	.LASF812:
 10622 014b 43795F42 		.ascii	"Cy_BLE_GATTS_WriteRsp\000"
 10622      4C455F47 
 10622      41545453 
 10622      5F577269 
 10622      74655273 
 10623              	.LASF52:
 10624 0161 696F7373 		.ascii	"ioss_interrupts_gpio_13_IRQn\000"
 10624      5F696E74 
 10624      65727275 
 10624      7074735F 
 10624      6770696F 
 10625              	.LASF554:
 10626 017e 5F5F636C 		.ascii	"__cleanup\000"
 10626      65616E75 
 10626      7000
 10627              	.LASF255:
 10628 0188 494E5452 		.ascii	"INTR_CAUSE\000"
 10628      5F434155 
 10628      534500
 10629              	.LASF227:
 10630 0193 55415254 		.ascii	"UART_CTRL\000"
 10630      5F435452 
 10630      4C00
 10631              	.LASF482:
 10632 019d 72784275 		.ascii	"rxBuf\000"
 10632      6600
 10633              	.LASF628:
 10634 01a3 43595F42 		.ascii	"CY_BLE_EVT_SOFT_RESET_COMPLETE\000"
 10634      4C455F45 
 10634      56545F53 
 10634      4F46545F 
 10634      52455345 
 10635              	.LASF325:
 10636 01c2 63727970 		.ascii	"cryptoMemSize\000"
 10636      746F4D65 
 10636      6D53697A 
 10636      6500
 10637              	.LASF591:
ARM GAS  C:\Users\ASUS\AppData\Local\Temp\ccarWmgw.s 			page 230


 10638 01d0 5F776373 		.ascii	"_wcsrtombs_state\000"
 10638      72746F6D 
 10638      62735F73 
 10638      74617465 
 10638      00
 10639              	.LASF576:
 10640 01e1 5F617363 		.ascii	"_asctime_buf\000"
 10640      74696D65 
 10640      5F627566 
 10640      00
 10641              	.LASF559:
 10642 01ee 5F637674 		.ascii	"_cvtlen\000"
 10642      6C656E00 
 10643              	.LASF429:
 10644 01f6 63795F73 		.ascii	"cy_stc_rtc_dst_format_t\000"
 10644      74635F72 
 10644      74635F64 
 10644      73745F66 
 10644      6F726D61 
 10645              	.LASF16:
 10646 020e 4E766963 		.ascii	"NvicMux10_IRQn\000"
 10646      4D757831 
 10646      305F4952 
 10646      516E00
 10647              	.LASF294:
 10648 021d 6873696F 		.ascii	"hsiomBase\000"
 10648      6D426173 
 10648      6500
 10649              	.LASF130:
 10650 0227 74637077 		.ascii	"tcpwm_0_interrupts_1_IRQn\000"
 10650      6D5F305F 
 10650      696E7465 
 10650      72727570 
 10650      74735F31 
 10651              	.LASF13:
 10652 0241 4E766963 		.ascii	"NvicMux7_IRQn\000"
 10652      4D757837 
 10652      5F495251 
 10652      6E00
 10653              	.LASF315:
 10654 024f 73727373 		.ascii	"srssNumClkpath\000"
 10654      4E756D43 
 10654      6C6B7061 
 10654      746800
 10655              	.LASF36:
 10656 025e 4E766963 		.ascii	"NvicMux30_IRQn\000"
 10656      4D757833 
 10656      305F4952 
 10656      516E00
 10657              	.LASF634:
 10658 026d 43595F42 		.ascii	"CY_BLE_EVT_GET_CLK_CONFIG_COMPLETE\000"
 10658      4C455F45 
 10658      56545F47 
 10658      45545F43 
 10658      4C4B5F43 
 10659              	.LASF739:
 10660 0290 43595F42 		.ascii	"CY_BLE_CONN_STATE_CLIENT_DESCR_DISCOVERING\000"
ARM GAS  C:\Users\ASUS\AppData\Local\Temp\ccarWmgw.s 			page 231


 10660      4C455F43 
 10660      4F4E4E5F 
 10660      53544154 
 10660      455F434C 
 10661              	.LASF730:
 10662 02bb 43595F42 		.ascii	"CY_BLE_ADV_STATE_ADVERTISING\000"
 10662      4C455F41 
 10662      44565F53 
 10662      54415445 
 10662      5F414456 
 10663              	.LASF68:
 10664 02d8 63707573 		.ascii	"cpuss_interrupts_ipc_4_IRQn\000"
 10664      735F696E 
 10664      74657272 
 10664      75707473 
 10664      5F697063 
 10665              	.LASF136:
 10666 02f4 74637077 		.ascii	"tcpwm_0_interrupts_7_IRQn\000"
 10666      6D5F305F 
 10666      696E7465 
 10666      72727570 
 10666      74735F37 
 10667              	.LASF578:
 10668 030e 5F67616D 		.ascii	"_gamma_signgam\000"
 10668      6D615F73 
 10668      69676E67 
 10668      616D00
 10669              	.LASF44:
 10670 031d 696F7373 		.ascii	"ioss_interrupts_gpio_5_IRQn\000"
 10670      5F696E74 
 10670      65727275 
 10670      7074735F 
 10670      6770696F 
 10671              	.LASF595:
 10672 0339 5F756E75 		.ascii	"_unused\000"
 10672      73656400 
 10673              	.LASF506:
 10674 0341 5F5F746D 		.ascii	"__tm\000"
 10674      00
 10675              	.LASF603:
 10676 0346 43595F42 		.ascii	"CY_BLE_EVT_HARDWARE_ERROR\000"
 10676      4C455F45 
 10676      56545F48 
 10676      41524457 
 10676      4152455F 
 10677              	.LASF537:
 10678 0360 5F6E6275 		.ascii	"_nbuf\000"
 10678      6600
 10679              	.LASF507:
 10680 0366 5F5F746D 		.ascii	"__tm_sec\000"
 10680      5F736563 
 10680      00
 10681              	.LASF563:
 10682 036f 5F736967 		.ascii	"_sig_func\000"
 10682      5F66756E 
 10682      6300
 10683              	.LASF584:
ARM GAS  C:\Users\ASUS\AppData\Local\Temp\ccarWmgw.s 			page 232


 10684 0379 5F6C3634 		.ascii	"_l64a_buf\000"
 10684      615F6275 
 10684      6600
 10685              	.LASF604:
 10686 0383 43595F42 		.ascii	"CY_BLE_EVT_WRITE_AUTH_PAYLOAD_TO_COMPLETE\000"
 10686      4C455F45 
 10686      56545F57 
 10686      52495445 
 10686      5F415554 
 10687              	.LASF110:
 10688 03ad 63707573 		.ascii	"cpuss_interrupts_dw1_5_IRQn\000"
 10688      735F696E 
 10688      74657272 
 10688      75707473 
 10688      5F647731 
 10689              	.LASF476:
 10690 03c9 74785374 		.ascii	"txStatus\000"
 10690      61747573 
 10690      00
 10691              	.LASF711:
 10692 03d2 43595F42 		.ascii	"CY_BLE_EVT_MAX\000"
 10692      4C455F45 
 10692      56545F4D 
 10692      415800
 10693              	.LASF809:
 10694 03e1 5254435F 		.ascii	"RTC_dstConfig\000"
 10694      64737443 
 10694      6F6E6669 
 10694      6700
 10695              	.LASF396:
 10696 03ef 43595F52 		.ascii	"CY_RTC_24_HOURS\000"
 10696      54435F32 
 10696      345F484F 
 10696      55525300 
 10697              	.LASF143:
 10698 03ff 74637077 		.ascii	"tcpwm_1_interrupts_6_IRQn\000"
 10698      6D5F315F 
 10698      696E7465 
 10698      72727570 
 10698      74735F36 
 10699              	.LASF124:
 10700 0419 63707573 		.ascii	"cpuss_interrupt_fm_IRQn\000"
 10700      735F696E 
 10700      74657272 
 10700      7570745F 
 10700      666D5F49 
 10701              	.LASF431:
 10702 0431 73746F70 		.ascii	"stopDst\000"
 10702      44737400 
 10703              	.LASF680:
 10704 0439 43595F42 		.ascii	"CY_BLE_EVT_GATTC_READ_BY_GROUP_TYPE_RSP\000"
 10704      4C455F45 
 10704      56545F47 
 10704      41545443 
 10704      5F524541 
 10705              	.LASF454:
 10706 0461 73746174 		.ascii	"state\000"
ARM GAS  C:\Users\ASUS\AppData\Local\Temp\ccarWmgw.s 			page 233


 10706      6500
 10707              	.LASF2:
 10708 0467 48617264 		.ascii	"HardFault_IRQn\000"
 10708      4661756C 
 10708      745F4952 
 10708      516E00
 10709              	.LASF541:
 10710 0476 5F6C6F63 		.ascii	"_lock\000"
 10710      6B00
 10711              	.LASF720:
 10712 047c 63795F73 		.ascii	"cy_stc_ble_gatt_handle_value_pair_t\000"
 10712      74635F62 
 10712      6C655F67 
 10712      6174745F 
 10712      68616E64 
 10713              	.LASF355:
 10714 04a0 6770696F 		.ascii	"gpioPrtCfgOffset\000"
 10714      50727443 
 10714      66674F66 
 10714      66736574 
 10714      00
 10715              	.LASF533:
 10716 04b1 5F777269 		.ascii	"_write\000"
 10716      746500
 10717              	.LASF845:
 10718 04b8 70757473 		.ascii	"puts\000"
 10718      00
 10719              	.LASF267:
 10720 04bd 494E5452 		.ascii	"INTR_M\000"
 10720      5F4D00
 10721              	.LASF843:
 10722 04c4 43795F52 		.ascii	"Cy_RTC_Alarm2Interrupt\000"
 10722      54435F41 
 10722      6C61726D 
 10722      32496E74 
 10722      65727275 
 10723              	.LASF6:
 10724 04db 4E766963 		.ascii	"NvicMux0_IRQn\000"
 10724      4D757830 
 10724      5F495251 
 10724      6E00
 10725              	.LASF272:
 10726 04e9 494E5452 		.ascii	"INTR_S\000"
 10726      5F5300
 10727              	.LASF317:
 10728 04f0 73727373 		.ascii	"srssNumHfroot\000"
 10728      4E756D48 
 10728      66726F6F 
 10728      7400
 10729              	.LASF180:
 10730 04fe 70726F66 		.ascii	"profile_interrupt_IRQn\000"
 10730      696C655F 
 10730      696E7465 
 10730      72727570 
 10730      745F4952 
 10731              	.LASF51:
 10732 0515 696F7373 		.ascii	"ioss_interrupts_gpio_12_IRQn\000"
ARM GAS  C:\Users\ASUS\AppData\Local\Temp\ccarWmgw.s 			page 234


 10732      5F696E74 
 10732      65727275 
 10732      7074735F 
 10732      6770696F 
 10733              	.LASF100:
 10734 0532 63707573 		.ascii	"cpuss_interrupts_dw0_11_IRQn\000"
 10734      735F696E 
 10734      74657272 
 10734      75707473 
 10734      5F647730 
 10735              	.LASF586:
 10736 054f 5F676574 		.ascii	"_getdate_err\000"
 10736      64617465 
 10736      5F657272 
 10736      00
 10737              	.LASF572:
 10738 055c 5F6D756C 		.ascii	"_mult\000"
 10738      7400
 10739              	.LASF186:
 10740 0562 64697363 		.ascii	"disconnected_IRQn\000"
 10740      6F6E6E65 
 10740      63746564 
 10740      5F495251 
 10740      6E00
 10741              	.LASF544:
 10742 0574 5F726565 		.ascii	"_reent\000"
 10742      6E7400
 10743              	.LASF181:
 10744 057b 736D6966 		.ascii	"smif_interrupt_IRQn\000"
 10744      5F696E74 
 10744      65727275 
 10744      70745F49 
 10744      52516E00 
 10745              	.LASF151:
 10746 058f 74637077 		.ascii	"tcpwm_1_interrupts_14_IRQn\000"
 10746      6D5F315F 
 10746      696E7465 
 10746      72727570 
 10746      74735F31 
 10747              	.LASF627:
 10748 05aa 43595F42 		.ascii	"CY_BLE_EVT_LL_CNTRL_PROC_PENDING_COMPLETE\000"
 10748      4C455F45 
 10748      56545F4C 
 10748      4C5F434E 
 10748      54524C5F 
 10749              	.LASF120:
 10750 05d4 63707573 		.ascii	"cpuss_interrupts_dw1_15_IRQn\000"
 10750      735F696E 
 10750      74657272 
 10750      75707473 
 10750      5F647731 
 10751              	.LASF282:
 10752 05f1 494E5452 		.ascii	"INTR_RX\000"
 10752      5F525800 
 10753              	.LASF214:
 10754 05f9 49435052 		.ascii	"ICPR\000"
 10754      00
ARM GAS  C:\Users\ASUS\AppData\Local\Temp\ccarWmgw.s 			page 235


 10755              	.LASF340:
 10756 05fe 64775374 		.ascii	"dwStatusChIdxPos\000"
 10756      61747573 
 10756      43684964 
 10756      78506F73 
 10756      00
 10757              	.LASF236:
 10758 060f 4932435F 		.ascii	"I2C_CFG\000"
 10758      43464700 
 10759              	.LASF692:
 10760 0617 43595F42 		.ascii	"CY_BLE_EVT_GATTC_EXEC_WRITE_RSP\000"
 10760      4C455F45 
 10760      56545F47 
 10760      41545443 
 10760      5F455845 
 10761              	.LASF93:
 10762 0637 63707573 		.ascii	"cpuss_interrupts_dw0_4_IRQn\000"
 10762      735F696E 
 10762      74657272 
 10762      75707473 
 10762      5F647730 
 10763              	.LASF726:
 10764 0653 43595F42 		.ascii	"CY_BLE_STATE_ON\000"
 10764      4C455F53 
 10764      54415445 
 10764      5F4F4E00 
 10765              	.LASF670:
 10766 0663 43595F42 		.ascii	"CY_BLE_EVT_GAP_GEN_SET_LOCAL_P256_KEYS_COMPLETE\000"
 10766      4C455F45 
 10766      56545F47 
 10766      41505F47 
 10766      454E5F53 
 10767              	.LASF67:
 10768 0693 63707573 		.ascii	"cpuss_interrupts_ipc_3_IRQn\000"
 10768      735F696E 
 10768      74657272 
 10768      75707473 
 10768      5F697063 
 10769              	.LASF135:
 10770 06af 74637077 		.ascii	"tcpwm_0_interrupts_6_IRQn\000"
 10770      6D5F305F 
 10770      696E7465 
 10770      72727570 
 10770      74735F36 
 10771              	.LASF168:
 10772 06c9 7564625F 		.ascii	"udb_interrupts_7_IRQn\000"
 10772      696E7465 
 10772      72727570 
 10772      74735F37 
 10772      5F495251 
 10773              	.LASF43:
 10774 06df 696F7373 		.ascii	"ioss_interrupts_gpio_4_IRQn\000"
 10774      5F696E74 
 10774      65727275 
 10774      7074735F 
 10774      6770696F 
 10775              	.LASF794:
ARM GAS  C:\Users\ASUS\AppData\Local\Temp\ccarWmgw.s 			page 236


 10776 06fb 52746353 		.ascii	"RtcStepAlarm\000"
 10776      74657041 
 10776      6C61726D 
 10776      00
 10777              	.LASF699:
 10778 0708 43595F42 		.ascii	"CY_BLE_EVT_GATTC_LONG_PROCEDURE_END\000"
 10778      4C455F45 
 10778      56545F47 
 10778      41545443 
 10778      5F4C4F4E 
 10779              	.LASF19:
 10780 072c 4E766963 		.ascii	"NvicMux13_IRQn\000"
 10780      4D757831 
 10780      335F4952 
 10780      516E00
 10781              	.LASF246:
 10782 073b 52585F46 		.ascii	"RX_FIFO_STATUS\000"
 10782      49464F5F 
 10782      53544154 
 10782      555300
 10783              	.LASF704:
 10784 074a 43595F42 		.ascii	"CY_BLE_EVT_L2CAP_CBFC_CONN_CNF\000"
 10784      4C455F45 
 10784      56545F4C 
 10784      32434150 
 10784      5F434246 
 10785              	.LASF712:
 10786 0769 62644861 		.ascii	"bdHandle\000"
 10786      6E646C65 
 10786      00
 10787              	.LASF745:
 10788 0772 74696D65 		.ascii	"timeoutMs\000"
 10788      6F75744D 
 10788      7300
 10789              	.LASF494:
 10790 077c 5F5F7763 		.ascii	"__wch\000"
 10790      6800
 10791              	.LASF760:
 10792 0782 73657276 		.ascii	"serviceHandle\000"
 10792      69636548 
 10792      616E646C 
 10792      6500
 10793              	.LASF192:
 10794 0790 5F5F7569 		.ascii	"__uint8_t\000"
 10794      6E74385F 
 10794      7400
 10795              	.LASF653:
 10796 079a 43595F42 		.ascii	"CY_BLE_EVT_GAP_AUTH_FAILED\000"
 10796      4C455F45 
 10796      56545F47 
 10796      41505F41 
 10796      5554485F 
 10797              	.LASF555:
 10798 07b5 5F726573 		.ascii	"_result\000"
 10798      756C7400 
 10799              	.LASF381:
 10800 07bd 696E7472 		.ascii	"intrSrc\000"
ARM GAS  C:\Users\ASUS\AppData\Local\Temp\ccarWmgw.s 			page 237


 10800      53726300 
 10801              	.LASF284:
 10802 07c5 494E5452 		.ascii	"INTR_RX_MASK\000"
 10802      5F52585F 
 10802      4D41534B 
 10802      00
 10803              	.LASF529:
 10804 07d2 5F66696C 		.ascii	"_file\000"
 10804      6500
 10805              	.LASF791:
 10806 07d8 72657375 		.ascii	"result\000"
 10806      6C7400
 10807              	.LASF516:
 10808 07df 5F6F6E5F 		.ascii	"_on_exit_args\000"
 10808      65786974 
 10808      5F617267 
 10808      7300
 10809              	.LASF452:
 10810 07ed 75736552 		.ascii	"useRxFifo\000"
 10810      78466966 
 10810      6F00
 10811              	.LASF694:
 10812 07f7 43595F42 		.ascii	"CY_BLE_EVT_GATTC_HANDLE_VALUE_IND\000"
 10812      4C455F45 
 10812      56545F47 
 10812      41545443 
 10812      5F48414E 
 10813              	.LASF399:
 10814 0819 43595F52 		.ascii	"CY_RTC_DST_RELATIVE\000"
 10814      54435F44 
 10814      53545F52 
 10814      454C4154 
 10814      49564500 
 10815              	.LASF486:
 10816 082d 74784275 		.ascii	"txBufSize\000"
 10816      6653697A 
 10816      6500
 10817              	.LASF599:
 10818 0837 43595F42 		.ascii	"CY_BLE_EVT_STACK_BUSY_STATUS\000"
 10818      4C455F45 
 10818      56545F53 
 10818      5441434B 
 10818      5F425553 
 10819              	.LASF244:
 10820 0854 52585F43 		.ascii	"RX_CTRL\000"
 10820      54524C00 
 10821              	.LASF570:
 10822 085c 5F72616E 		.ascii	"_rand48\000"
 10822      64343800 
 10823              	.LASF587:
 10824 0864 5F6D6272 		.ascii	"_mbrlen_state\000"
 10824      6C656E5F 
 10824      73746174 
 10824      6500
 10825              	.LASF197:
 10826 0872 6C6F6E67 		.ascii	"long int\000"
 10826      20696E74 
ARM GAS  C:\Users\ASUS\AppData\Local\Temp\ccarWmgw.s 			page 238


 10826      00
 10827              	.LASF164:
 10828 087b 7564625F 		.ascii	"udb_interrupts_3_IRQn\000"
 10828      696E7465 
 10828      72727570 
 10828      74735F33 
 10828      5F495251 
 10829              	.LASF678:
 10830 0891 43595F42 		.ascii	"CY_BLE_EVT_GATTS_XCNHG_MTU_REQ\000"
 10830      4C455F45 
 10830      56545F47 
 10830      41545453 
 10830      5F58434E 
 10831              	.LASF799:
 10832 08b0 5F696D70 		.ascii	"_impure_ptr\000"
 10832      7572655F 
 10832      70747200 
 10833              	.LASF645:
 10834 08bc 43595F42 		.ascii	"CY_BLE_EVT_SET_EVENT_MASK_COMPLETE\000"
 10834      4C455F45 
 10834      56545F53 
 10834      45545F45 
 10834      56454E54 
 10835              	.LASF740:
 10836 08df 43595F42 		.ascii	"CY_BLE_CONN_STATE_CLIENT_DISCOVERED\000"
 10836      4C455F43 
 10836      4F4E4E5F 
 10836      53544154 
 10836      455F434C 
 10837              	.LASF762:
 10838 0903 72657430 		.ascii	"ret0\000"
 10838      00
 10839              	.LASF763:
 10840 0908 72657431 		.ascii	"ret1\000"
 10840      00
 10841              	.LASF764:
 10842 090d 72657432 		.ascii	"ret2\000"
 10842      00
 10843              	.LASF765:
 10844 0912 72657433 		.ascii	"ret3\000"
 10844      00
 10845              	.LASF766:
 10846 0917 72657434 		.ascii	"ret4\000"
 10846      00
 10847              	.LASF767:
 10848 091c 72657435 		.ascii	"ret5\000"
 10848      00
 10849              	.LASF526:
 10850 0921 5F73697A 		.ascii	"_size\000"
 10850      6500
 10851              	.LASF150:
 10852 0927 74637077 		.ascii	"tcpwm_1_interrupts_13_IRQn\000"
 10852      6D5F315F 
 10852      696E7465 
 10852      72727570 
 10852      74735F31 
 10853              	.LASF687:
ARM GAS  C:\Users\ASUS\AppData\Local\Temp\ccarWmgw.s 			page 239


 10854 0942 43595F42 		.ascii	"CY_BLE_EVT_GATTS_WRITE_REQ\000"
 10854      4C455F45 
 10854      56545F47 
 10854      41545453 
 10854      5F575249 
 10855              	.LASF718:
 10856 095d 76616C75 		.ascii	"value\000"
 10856      6500
 10857              	.LASF224:
 10858 0963 5350495F 		.ascii	"SPI_CTRL\000"
 10858      4354524C 
 10858      00
 10859              	.LASF322:
 10860 096c 75646250 		.ascii	"udbPresent\000"
 10860      72657365 
 10860      6E7400
 10861              	.LASF441:
 10862 0977 43595F53 		.ascii	"CY_SCB_I2C_MASTER_MANUAL_ABORT_START\000"
 10862      43425F49 
 10862      32435F4D 
 10862      41535445 
 10862      525F4D41 
 10863              	.LASF577:
 10864 099c 5F6C6F63 		.ascii	"_localtime_buf\000"
 10864      616C7469 
 10864      6D655F62 
 10864      756600
 10865              	.LASF834:
 10866 09ab 4932435F 		.ascii	"I2C_Start\000"
 10866      53746172 
 10866      7400
 10867              	.LASF700:
 10868 09b5 43595F42 		.ascii	"CY_BLE_EVT_L2CAP_CONN_PARAM_UPDATE_REQ\000"
 10868      4C455F45 
 10868      56545F4C 
 10868      32434150 
 10868      5F434F4E 
 10869              	.LASF343:
 10870 09dc 70657269 		.ascii	"periTrCmdGrSelMsk\000"
 10870      5472436D 
 10870      64477253 
 10870      656C4D73 
 10870      6B00
 10871              	.LASF29:
 10872 09ee 4E766963 		.ascii	"NvicMux23_IRQn\000"
 10872      4D757832 
 10872      335F4952 
 10872      516E00
 10873              	.LASF327:
 10874 09fd 666C6173 		.ascii	"flashPipeRequired\000"
 10874      68506970 
 10874      65526571 
 10874      75697265 
 10874      6400
 10875              	.LASF394:
 10876 0a0f 43595F52 		.ascii	"CY_RTC_ALARM_1\000"
 10876      54435F41 
ARM GAS  C:\Users\ASUS\AppData\Local\Temp\ccarWmgw.s 			page 240


 10876      4C41524D 
 10876      5F3100
 10877              	.LASF395:
 10878 0a1e 43595F52 		.ascii	"CY_RTC_ALARM_2\000"
 10878      54435F41 
 10878      4C41524D 
 10878      5F3200
 10879              	.LASF717:
 10880 0a2d 63795F73 		.ascii	"cy_stc_ble_gatt_value_t\000"
 10880      74635F62 
 10880      6C655F67 
 10880      6174745F 
 10880      76616C75 
 10881              	.LASF407:
 10882 0a45 63795F65 		.ascii	"cy_en_rtc_alarm_enable_t\000"
 10882      6E5F7274 
 10882      635F616C 
 10882      61726D5F 
 10882      656E6162 
 10883              	.LASF844:
 10884 0a5e 6D61696E 		.ascii	"main\000"
 10884      00
 10885              	.LASF280:
 10886 0a63 494E5452 		.ascii	"INTR_TX_MASKED\000"
 10886      5F54585F 
 10886      4D41534B 
 10886      454400
 10887              	.LASF777:
 10888 0a72 61636349 		.ascii	"accI2CRead\000"
 10888      32435265 
 10888      616400
 10889              	.LASF519:
 10890 0a7d 5F666E74 		.ascii	"_fntypes\000"
 10890      79706573 
 10890      00
 10891              	.LASF753:
 10892 0a86 4952516E 		.ascii	"IRQn\000"
 10892      00
 10893              	.LASF345:
 10894 0a8b 70657269 		.ascii	"periTrGrSize\000"
 10894      54724772 
 10894      53697A65 
 10894      00
 10895              	.LASF167:
 10896 0a98 7564625F 		.ascii	"udb_interrupts_6_IRQn\000"
 10896      696E7465 
 10896      72727570 
 10896      74735F36 
 10896      5F495251 
 10897              	.LASF443:
 10898 0aae 43595F53 		.ascii	"CY_SCB_I2C_WRITE_XFER\000"
 10898      43425F49 
 10898      32435F57 
 10898      52495445 
 10898      5F584645 
 10899              	.LASF626:
 10900 0ac4 43595F42 		.ascii	"CY_BLE_EVT_SET_PRIVACY_MODE_COMPLETE\000"
ARM GAS  C:\Users\ASUS\AppData\Local\Temp\ccarWmgw.s 			page 241


 10900      4C455F45 
 10900      56545F53 
 10900      45545F50 
 10900      52495641 
 10901              	.LASF194:
 10902 0ae9 5F5F7569 		.ascii	"__uint16_t\000"
 10902      6E743136 
 10902      5F7400
 10903              	.LASF75:
 10904 0af4 63707573 		.ascii	"cpuss_interrupts_ipc_11_IRQn\000"
 10904      735F696E 
 10904      74657272 
 10904      75707473 
 10904      5F697063 
 10905              	.LASF657:
 10906 0b11 43595F42 		.ascii	"CY_BLE_EVT_GAP_ENCRYPT_CHANGE\000"
 10906      4C455F45 
 10906      56545F47 
 10906      41505F45 
 10906      4E435259 
 10907              	.LASF511:
 10908 0b2f 5F5F746D 		.ascii	"__tm_mon\000"
 10908      5F6D6F6E 
 10908      00
 10909              	.LASF617:
 10910 0b38 43595F42 		.ascii	"CY_BLE_EVT_SET_HOST_CHANNEL_COMPLETE\000"
 10910      4C455F45 
 10910      56545F53 
 10910      45545F48 
 10910      4F53545F 
 10911              	.LASF229:
 10912 0b5d 55415254 		.ascii	"UART_RX_CTRL\000"
 10912      5F52585F 
 10912      4354524C 
 10912      00
 10913              	.LASF804:
 10914 0b6a 63795F62 		.ascii	"cy_ble_pendingFlashWrite\000"
 10914      6C655F70 
 10914      656E6469 
 10914      6E67466C 
 10914      61736857 
 10915              	.LASF283:
 10916 0b83 494E5452 		.ascii	"INTR_RX_SET\000"
 10916      5F52585F 
 10916      53455400 
 10917              	.LASF795:
 10918 0b8f 64617461 		.ascii	"data\000"
 10918      00
 10919              	.LASF729:
 10920 0b94 43595F42 		.ascii	"CY_BLE_ADV_STATE_ADV_INITIATED\000"
 10920      4C455F41 
 10920      44565F53 
 10920      54415445 
 10920      5F414456 
 10921              	.LASF598:
 10922 0bb3 43595F42 		.ascii	"CY_BLE_EVT_TIMEOUT\000"
 10922      4C455F45 
ARM GAS  C:\Users\ASUS\AppData\Local\Temp\ccarWmgw.s 			page 242


 10922      56545F54 
 10922      494D454F 
 10922      555400
 10923              	.LASF107:
 10924 0bc6 63707573 		.ascii	"cpuss_interrupts_dw1_2_IRQn\000"
 10924      735F696E 
 10924      74657272 
 10924      75707473 
 10924      5F647731 
 10925              	.LASF412:
 10926 0be2 64617465 		.ascii	"date\000"
 10926      00
 10927              	.LASF427:
 10928 0be7 6461794F 		.ascii	"dayOfMonth\000"
 10928      664D6F6E 
 10928      746800
 10929              	.LASF5:
 10930 0bf2 53797354 		.ascii	"SysTick_IRQn\000"
 10930      69636B5F 
 10930      4952516E 
 10930      00
 10931              	.LASF551:
 10932 0bff 5F637572 		.ascii	"_current_category\000"
 10932      72656E74 
 10932      5F636174 
 10932      65676F72 
 10932      7900
 10933              	.LASF619:
 10934 0c11 43595F42 		.ascii	"CY_BLE_EVT_REMOVE_DEVICE_FROM_RPA_LIST_COMPLETE\000"
 10934      4C455F45 
 10934      56545F52 
 10934      454D4F56 
 10934      455F4445 
 10935              	.LASF234:
 10936 0c41 4932435F 		.ascii	"I2C_M_CMD\000"
 10936      4D5F434D 
 10936      4400
 10937              	.LASF88:
 10938 0c4b 6373645F 		.ascii	"csd_interrupt_IRQn\000"
 10938      696E7465 
 10938      72727570 
 10938      745F4952 
 10938      516E00
 10939              	.LASF489:
 10940 0c5e 63795F73 		.ascii	"cy_stc_scb_uart_context_t\000"
 10940      74635F73 
 10940      63625F75 
 10940      6172745F 
 10940      636F6E74 
 10941              	.LASF389:
 10942 0c78 43595F52 		.ascii	"CY_RTC_BAD_PARAM\000"
 10942      54435F42 
 10942      41445F50 
 10942      4152414D 
 10942      00
 10943              	.LASF574:
 10944 0c89 5F756E75 		.ascii	"_unused_rand\000"
ARM GAS  C:\Users\ASUS\AppData\Local\Temp\ccarWmgw.s 			page 243


 10944      7365645F 
 10944      72616E64 
 10944      00
 10945              	.LASF746:
 10946 0c96 61636B4E 		.ascii	"ackNack\000"
 10946      61636B00 
 10947              	.LASF837:
 10948 0c9e 6D61696E 		.ascii	"main_cm0p.c\000"
 10948      5F636D30 
 10948      702E6300 
 10949              	.LASF191:
 10950 0caa 7369676E 		.ascii	"signed char\000"
 10950      65642063 
 10950      68617200 
 10951              	.LASF665:
 10952 0cb6 43595F42 		.ascii	"CY_BLE_EVT_GAPC_DIRECT_ADV_REPORT\000"
 10952      4C455F45 
 10952      56545F47 
 10952      4150435F 
 10952      44495245 
 10953              	.LASF203:
 10954 0cd8 75696E74 		.ascii	"uint8_t\000"
 10954      385F7400 
 10955              	.LASF744:
 10956 0ce0 4932435F 		.ascii	"I2C_MasterReadByte\000"
 10956      4D617374 
 10956      65725265 
 10956      61644279 
 10956      746500
 10957              	.LASF600:
 10958 0cf3 43595F42 		.ascii	"CY_BLE_EVT_MEMORY_REQUEST\000"
 10958      4C455F45 
 10958      56545F4D 
 10958      454D4F52 
 10958      595F5245 
 10959              	.LASF836:
 10960 0d0d 474E5520 		.ascii	"GNU C11 5.4.1 20160609 (release) [ARM/embedded-5-br"
 10960      43313120 
 10960      352E342E 
 10960      31203230 
 10960      31363036 
 10961 0d40 616E6368 		.ascii	"anch revision 237715] -mcpu=cortex-m0plus -mthumb -"
 10961      20726576 
 10961      6973696F 
 10961      6E203233 
 10961      37373135 
 10962 0d73 67202D4F 		.ascii	"g -Og -ffunction-sections -ffat-lto-objects\000"
 10962      67202D66 
 10962      66756E63 
 10962      74696F6E 
 10962      2D736563 
 10963              	.LASF715:
 10964 0d9f 63795F62 		.ascii	"cy_ble_gatt_db_attr_handle_t\000"
 10964      6C655F67 
 10964      6174745F 
 10964      64625F61 
 10964      7474725F 
ARM GAS  C:\Users\ASUS\AppData\Local\Temp\ccarWmgw.s 			page 244


 10965              	.LASF348:
 10966 0dbc 70657269 		.ascii	"periDivCmdPaDivSelPos\000"
 10966      44697643 
 10966      6D645061 
 10966      44697653 
 10966      656C506F 
 10967              	.LASF547:
 10968 0dd2 5F737464 		.ascii	"_stdout\000"
 10968      6F757400 
 10969              	.LASF369:
 10970 0dda 63707573 		.ascii	"cpussRomCtl\000"
 10970      73526F6D 
 10970      43746C00 
 10971              	.LASF71:
 10972 0de6 63707573 		.ascii	"cpuss_interrupts_ipc_7_IRQn\000"
 10972      735F696E 
 10972      74657272 
 10972      75707473 
 10972      5F697063 
 10973              	.LASF466:
 10974 0e02 736C6176 		.ascii	"slaveTxBufferIdx\000"
 10974      65547842 
 10974      75666665 
 10974      72496478 
 10974      00
 10975              	.LASF708:
 10976 0e13 43595F42 		.ascii	"CY_BLE_EVT_L2CAP_CBFC_RX_CREDIT_IND\000"
 10976      4C455F45 
 10976      56545F4C 
 10976      32434150 
 10976      5F434246 
 10977              	.LASF695:
 10978 0e37 43595F42 		.ascii	"CY_BLE_EVT_GATTS_HANDLE_VALUE_CNF\000"
 10978      4C455F45 
 10978      56545F47 
 10978      41545453 
 10978      5F48414E 
 10979              	.LASF47:
 10980 0e59 696F7373 		.ascii	"ioss_interrupts_gpio_8_IRQn\000"
 10980      5F696E74 
 10980      65727275 
 10980      7074735F 
 10980      6770696F 
 10981              	.LASF87:
 10982 0e75 7363625F 		.ascii	"scb_7_interrupt_IRQn\000"
 10982      375F696E 
 10982      74657272 
 10982      7570745F 
 10982      4952516E 
 10983              	.LASF480:
 10984 0e8a 72785269 		.ascii	"rxRingBufHead\000"
 10984      6E674275 
 10984      66486561 
 10984      6400
 10985              	.LASF468:
 10986 0e98 736C6176 		.ascii	"slaveRxBuffer\000"
 10986      65527842 
ARM GAS  C:\Users\ASUS\AppData\Local\Temp\ccarWmgw.s 			page 245


 10986      75666665 
 10986      7200
 10987              	.LASF221:
 10988 0ea6 434D445F 		.ascii	"CMD_RESP_CTRL\000"
 10988      52455350 
 10988      5F435452 
 10988      4C00
 10989              	.LASF209:
 10990 0eb4 52455345 		.ascii	"RESERVED0\000"
 10990      52564544 
 10990      3000
 10991              	.LASF226:
 10992 0ebe 52455345 		.ascii	"RESERVED1\000"
 10992      52564544 
 10992      3100
 10993              	.LASF188:
 10994 0ec8 756E7369 		.ascii	"unsigned char\000"
 10994      676E6564 
 10994      20636861 
 10994      7200
 10995              	.LASF279:
 10996 0ed6 494E5452 		.ascii	"INTR_TX_MASK\000"
 10996      5F54585F 
 10996      4D41534B 
 10996      00
 10997              	.LASF216:
 10998 0ee3 52455345 		.ascii	"RESERVED4\000"
 10998      52564544 
 10998      3400
 10999              	.LASF241:
 11000 0eed 52455345 		.ascii	"RESERVED5\000"
 11000      52564544 
 11000      3500
 11001              	.LASF243:
 11002 0ef7 52455345 		.ascii	"RESERVED6\000"
 11002      52564544 
 11002      3600
 11003              	.LASF406:
 11004 0f01 43595F52 		.ascii	"CY_RTC_ALARM_ENABLE\000"
 11004      54435F41 
 11004      4C41524D 
 11004      5F454E41 
 11004      424C4500 
 11005              	.LASF790:
 11006 0f15 61747465 		.ascii	"attempts\000"
 11006      6D707473 
 11006      00
 11007              	.LASF252:
 11008 0f1e 52455345 		.ascii	"RESERVED9\000"
 11008      52564544 
 11008      3900
 11009              	.LASF473:
 11010 0f28 63795F73 		.ascii	"cy_stc_scb_i2c_context_t\000"
 11010      74635F73 
 11010      63625F69 
 11010      32635F63 
 11010      6F6E7465 
ARM GAS  C:\Users\ASUS\AppData\Local\Temp\ccarWmgw.s 			page 246


 11011              	.LASF773:
 11012 0f41 7A436861 		.ascii	"zChannel\000"
 11012      6E6E656C 
 11012      00
 11013              	.LASF832:
 11014 0f4a 55415254 		.ascii	"UART_Start\000"
 11014      5F537461 
 11014      727400
 11015              	.LASF667:
 11016 0f55 43595F42 		.ascii	"CY_BLE_EVT_GAP_DEVICE_ADDR_GEN_COMPLETE\000"
 11016      4C455F45 
 11016      56545F47 
 11016      41505F44 
 11016      45564943 
 11017              	.LASF738:
 11018 0f7d 43595F42 		.ascii	"CY_BLE_CONN_STATE_CLIENT_CHAR_DISCOVERING\000"
 11018      4C455F43 
 11018      4F4E4E5F 
 11018      53544154 
 11018      455F434C 
 11019              	.LASF184:
 11020 0fa7 7573625F 		.ascii	"usb_interrupt_lo_IRQn\000"
 11020      696E7465 
 11020      72727570 
 11020      745F6C6F 
 11020      5F495251 
 11021              	.LASF682:
 11022 0fbd 43595F42 		.ascii	"CY_BLE_EVT_GATTC_FIND_INFO_RSP\000"
 11022      4C455F45 
 11022      56545F47 
 11022      41545443 
 11022      5F46494E 
 11023              	.LASF63:
 11024 0fdc 626C6573 		.ascii	"bless_interrupt_IRQn\000"
 11024      735F696E 
 11024      74657272 
 11024      7570745F 
 11024      4952516E 
 11025              	.LASF607:
 11026 0ff1 43595F42 		.ascii	"CY_BLE_EVT_LE_SET_EVENT_MASK_COMPLETE\000"
 11026      4C455F45 
 11026      56545F4C 
 11026      455F5345 
 11026      545F4556 
 11027              	.LASF514:
 11028 1017 5F5F746D 		.ascii	"__tm_yday\000"
 11028      5F796461 
 11028      7900
 11029              	.LASF364:
 11030 1021 63707573 		.ascii	"cpussTrimRamCtlOffset\000"
 11030      73547269 
 11030      6D52616D 
 11030      43746C4F 
 11030      66667365 
 11031              	.LASF802:
 11032 1037 63795F62 		.ascii	"cy_ble_connHandle\000"
 11032      6C655F63 
ARM GAS  C:\Users\ASUS\AppData\Local\Temp\ccarWmgw.s 			page 247


 11032      6F6E6E48 
 11032      616E646C 
 11032      6500
 11033              	.LASF713:
 11034 1049 61747449 		.ascii	"attId\000"
 11034      6400
 11035              	.LASF9:
 11036 104f 4E766963 		.ascii	"NvicMux3_IRQn\000"
 11036      4D757833 
 11036      5F495251 
 11036      6E00
 11037              	.LASF387:
 11038 105d 5F426F6F 		.ascii	"_Bool\000"
 11038      6C00
 11039              	.LASF296:
 11040 1063 70617373 		.ascii	"passBase\000"
 11040      42617365 
 11040      00
 11041              	.LASF365:
 11042 106c 63707573 		.ascii	"cpussTrimRomCtlOffset\000"
 11042      73547269 
 11042      6D526F6D 
 11042      43746C4F 
 11042      66667365 
 11043              	.LASF237:
 11044 1082 44444654 		.ascii	"DDFT_CTRL\000"
 11044      5F435452 
 11044      4C00
 11045              	.LASF103:
 11046 108c 63707573 		.ascii	"cpuss_interrupts_dw0_14_IRQn\000"
 11046      735F696E 
 11046      74657272 
 11046      75707473 
 11046      5F647730 
 11047              	.LASF215:
 11048 10a9 52455345 		.ascii	"RESERVED3\000"
 11048      52564544 
 11048      3300
 11049              	.LASF247:
 11050 10b3 52455345 		.ascii	"RESERVED7\000"
 11050      52564544 
 11050      3700
 11051              	.LASF249:
 11052 10bd 52455345 		.ascii	"RESERVED8\000"
 11052      52564544 
 11052      3800
 11053              	.LASF579:
 11054 10c7 5F72616E 		.ascii	"_rand_next\000"
 11054      645F6E65 
 11054      787400
 11055              	.LASF377:
 11056 10d2 63686172 		.ascii	"char\000"
 11056      00
 11057              	.LASF697:
 11058 10d7 43595F42 		.ascii	"CY_BLE_EVT_GATTC_STOP_CMD_COMPLETE\000"
 11058      4C455F45 
 11058      56545F47 
ARM GAS  C:\Users\ASUS\AppData\Local\Temp\ccarWmgw.s 			page 248


 11058      41545443 
 11058      5F53544F 
 11059              	.LASF235:
 11060 10fa 4932435F 		.ascii	"I2C_S_CMD\000"
 11060      535F434D 
 11060      4400
 11061              	.LASF523:
 11062 1104 5F666E73 		.ascii	"_fns\000"
 11062      00
 11063              	.LASF183:
 11064 1109 7573625F 		.ascii	"usb_interrupt_med_IRQn\000"
 11064      696E7465 
 11064      72727570 
 11064      745F6D65 
 11064      645F4952 
 11065              	.LASF39:
 11066 1120 696F7373 		.ascii	"ioss_interrupts_gpio_0_IRQn\000"
 11066      5F696E74 
 11066      65727275 
 11066      7074735F 
 11066      6770696F 
 11067              	.LASF357:
 11068 113c 6770696F 		.ascii	"gpioPrtCfgOutOffset\000"
 11068      50727443 
 11068      66674F75 
 11068      744F6666 
 11068      73657400 
 11069              	.LASF535:
 11070 1150 5F636C6F 		.ascii	"_close\000"
 11070      736500
 11071              	.LASF96:
 11072 1157 63707573 		.ascii	"cpuss_interrupts_dw0_7_IRQn\000"
 11072      735F696E 
 11072      74657272 
 11072      75707473 
 11072      5F647730 
 11073              	.LASF622:
 11074 1173 43595F42 		.ascii	"CY_BLE_EVT_GET_PHY_COMPLETE\000"
 11074      4C455F45 
 11074      56545F47 
 11074      45545F50 
 11074      48595F43 
 11075              	.LASF624:
 11076 118f 43595F42 		.ascii	"CY_BLE_EVT_SET_PHY_COMPLETE\000"
 11076      4C455F45 
 11076      56545F53 
 11076      45545F50 
 11076      48595F43 
 11077              	.LASF639:
 11078 11ab 43595F42 		.ascii	"CY_BLE_EVT_AES_CCM_DECRYPT_COMPLETE\000"
 11078      4C455F45 
 11078      56545F41 
 11078      45535F43 
 11078      434D5F44 
 11079              	.LASF139:
 11080 11cf 74637077 		.ascii	"tcpwm_1_interrupts_2_IRQn\000"
 11080      6D5F315F 
ARM GAS  C:\Users\ASUS\AppData\Local\Temp\ccarWmgw.s 			page 249


 11080      696E7465 
 11080      72727570 
 11080      74735F32 
 11081              	.LASF70:
 11082 11e9 63707573 		.ascii	"cpuss_interrupts_ipc_6_IRQn\000"
 11082      735F696E 
 11082      74657272 
 11082      75707473 
 11082      5F697063 
 11083              	.LASF483:
 11084 1205 72784275 		.ascii	"rxBufSize\000"
 11084      6653697A 
 11084      6500
 11085              	.LASF228:
 11086 120f 55415254 		.ascii	"UART_TX_CTRL\000"
 11086      5F54585F 
 11086      4354524C 
 11086      00
 11087              	.LASF46:
 11088 121c 696F7373 		.ascii	"ioss_interrupts_gpio_7_IRQn\000"
 11088      5F696E74 
 11088      65727275 
 11088      7074735F 
 11088      6770696F 
 11089              	.LASF22:
 11090 1238 4E766963 		.ascii	"NvicMux16_IRQn\000"
 11090      4D757831 
 11090      365F4952 
 11090      516E00
 11091              	.LASF242:
 11092 1247 54585F46 		.ascii	"TX_FIFO_WR\000"
 11092      49464F5F 
 11092      575200
 11093              	.LASF783:
 11094 1252 6779726F 		.ascii	"gyroMeasure\000"
 11094      4D656173 
 11094      75726500 
 11095              	.LASF83:
 11096 125e 7363625F 		.ascii	"scb_3_interrupt_IRQn\000"
 11096      335F696E 
 11096      74657272 
 11096      7570745F 
 11096      4952516E 
 11097              	.LASF648:
 11098 1273 43595F42 		.ascii	"CY_BLE_EVT_GAPC_SCAN_PROGRESS_RESULT\000"
 11098      4C455F45 
 11098      56545F47 
 11098      4150435F 
 11098      5343414E 
 11099              	.LASF213:
 11100 1298 52455345 		.ascii	"RESERVED2\000"
 11100      52564544 
 11100      3200
 11101              	.LASF546:
 11102 12a2 5F737464 		.ascii	"_stdin\000"
 11102      696E00
 11103              	.LASF111:
ARM GAS  C:\Users\ASUS\AppData\Local\Temp\ccarWmgw.s 			page 250


 11104 12a9 63707573 		.ascii	"cpuss_interrupts_dw1_6_IRQn\000"
 11104      735F696E 
 11104      74657272 
 11104      75707473 
 11104      5F647731 
 11105              	.LASF664:
 11106 12c5 43595F42 		.ascii	"CY_BLE_EVT_GAP_ENHANCE_CONN_COMPLETE\000"
 11106      4C455F45 
 11106      56545F47 
 11106      41505F45 
 11106      4E48414E 
 11107              	.LASF80:
 11108 12ea 7363625F 		.ascii	"scb_0_interrupt_IRQn\000"
 11108      305F696E 
 11108      74657272 
 11108      7570745F 
 11108      4952516E 
 11109              	.LASF780:
 11110 12ff 61636358 		.ascii	"accX\000"
 11110      00
 11111              	.LASF781:
 11112 1304 61636359 		.ascii	"accY\000"
 11112      00
 11113              	.LASF782:
 11114 1309 6163635A 		.ascii	"accZ\000"
 11114      00
 11115              	.LASF312:
 11116 130e 63707573 		.ascii	"cpussIpc0Irq\000"
 11116      73497063 
 11116      30497271 
 11116      00
 11117              	.LASF147:
 11118 131b 74637077 		.ascii	"tcpwm_1_interrupts_10_IRQn\000"
 11118      6D5F315F 
 11118      696E7465 
 11118      72727570 
 11118      74735F31 
 11119              	.LASF400:
 11120 1336 43595F52 		.ascii	"CY_RTC_DST_FIXED\000"
 11120      54435F44 
 11120      53545F46 
 11120      49584544 
 11120      00
 11121              	.LASF524:
 11122 1347 5F5F7362 		.ascii	"__sbuf\000"
 11122      756600
 11123              	.LASF430:
 11124 134e 73746172 		.ascii	"startDst\000"
 11124      74447374 
 11124      00
 11125              	.LASF116:
 11126 1357 63707573 		.ascii	"cpuss_interrupts_dw1_11_IRQn\000"
 11126      735F696E 
 11126      74657272 
 11126      75707473 
 11126      5F647731 
 11127              	.LASF361:
ARM GAS  C:\Users\ASUS\AppData\Local\Temp\ccarWmgw.s 			page 251


 11128 1374 63707573 		.ascii	"cpussCm4StatusOffset\000"
 11128      73436D34 
 11128      53746174 
 11128      75734F66 
 11128      66736574 
 11129              	.LASF463:
 11130 1389 736C6176 		.ascii	"slaveRdBufEmpty\000"
 11130      65526442 
 11130      7566456D 
 11130      70747900 
 11131              	.LASF520:
 11132 1399 5F69735F 		.ascii	"_is_cxa\000"
 11132      63786100 
 11133              	.LASF292:
 11134 13a1 75646242 		.ascii	"udbBase\000"
 11134      61736500 
 11135              	.LASF89:
 11136 13a9 63707573 		.ascii	"cpuss_interrupts_dw0_0_IRQn\000"
 11136      735F696E 
 11136      74657272 
 11136      75707473 
 11136      5F647730 
 11137              	.LASF688:
 11138 13c5 43595F42 		.ascii	"CY_BLE_EVT_GATTC_WRITE_RSP\000"
 11138      4C455F45 
 11138      56545F47 
 11138      41545443 
 11138      5F575249 
 11139              	.LASF212:
 11140 13e0 49535052 		.ascii	"ISPR\000"
 11140      00
 11141              	.LASF414:
 11142 13e5 79656172 		.ascii	"year\000"
 11142      00
 11143              	.LASF152:
 11144 13ea 74637077 		.ascii	"tcpwm_1_interrupts_15_IRQn\000"
 11144      6D5F315F 
 11144      696E7465 
 11144      72727570 
 11144      74735F31 
 11145              	.LASF153:
 11146 1405 74637077 		.ascii	"tcpwm_1_interrupts_16_IRQn\000"
 11146      6D5F315F 
 11146      696E7465 
 11146      72727570 
 11146      74735F31 
 11147              	.LASF752:
 11148 1420 4932435F 		.ascii	"I2C_MasterSendStart\000"
 11148      4D617374 
 11148      65725365 
 11148      6E645374 
 11148      61727400 
 11149              	.LASF359:
 11150 1434 63707573 		.ascii	"cpussCm0ClockCtlOffset\000"
 11150      73436D30 
 11150      436C6F63 
 11150      6B43746C 
ARM GAS  C:\Users\ASUS\AppData\Local\Temp\ccarWmgw.s 			page 252


 11150      4F666673 
 11151              	.LASF397:
 11152 144b 43595F52 		.ascii	"CY_RTC_12_HOURS\000"
 11152      54435F31 
 11152      325F484F 
 11152      55525300 
 11153              	.LASF344:
 11154 145b 70657269 		.ascii	"periTrGrOffset\000"
 11154      54724772 
 11154      4F666673 
 11154      657400
 11155              	.LASF32:
 11156 146a 4E766963 		.ascii	"NvicMux26_IRQn\000"
 11156      4D757832 
 11156      365F4952 
 11156      516E00
 11157              	.LASF467:
 11158 1479 736C6176 		.ascii	"slaveTxBufferCnt\000"
 11158      65547842 
 11158      75666665 
 11158      72436E74 
 11158      00
 11159              	.LASF374:
 11160 148a 6970634C 		.ascii	"ipcLockStatusOffset\000"
 11160      6F636B53 
 11160      74617475 
 11160      734F6666 
 11160      73657400 
 11161              	.LASF693:
 11162 149e 43595F42 		.ascii	"CY_BLE_EVT_GATTC_HANDLE_VALUE_NTF\000"
 11162      4C455F45 
 11162      56545F47 
 11162      41545443 
 11162      5F48414E 
 11163              	.LASF663:
 11164 14c0 43595F42 		.ascii	"CY_BLE_EVT_GAP_OOB_GENERATED_NOTIFICATION\000"
 11164      4C455F45 
 11164      56545F47 
 11164      41505F4F 
 11164      4F425F47 
 11165              	.LASF647:
 11166 14ea 43595F42 		.ascii	"CY_BLE_EVT_SET_CONN_PRIORITY_COMPLETE\000"
 11166      4C455F45 
 11166      56545F53 
 11166      45545F43 
 11166      4F4E4E5F 
 11167              	.LASF170:
 11168 1510 7564625F 		.ascii	"udb_interrupts_9_IRQn\000"
 11168      696E7465 
 11168      72727570 
 11168      74735F39 
 11168      5F495251 
 11169              	.LASF78:
 11170 1526 63707573 		.ascii	"cpuss_interrupts_ipc_14_IRQn\000"
 11170      735F696E 
 11170      74657272 
 11170      75707473 
ARM GAS  C:\Users\ASUS\AppData\Local\Temp\ccarWmgw.s 			page 253


 11170      5F697063 
 11171              	.LASF623:
 11172 1543 43595F42 		.ascii	"CY_BLE_EVT_SET_DEFAULT_PHY_COMPLETE\000"
 11172      4C455F45 
 11172      56545F53 
 11172      45545F44 
 11172      45464155 
 11173              	.LASF384:
 11174 1567 63795F73 		.ascii	"cy_stc_sysint_t\000"
 11174      74635F73 
 11174      7973696E 
 11174      745F7400 
 11175              	.LASF360:
 11176 1577 63707573 		.ascii	"cpussCm4ClockCtlOffset\000"
 11176      73436D34 
 11176      436C6F63 
 11176      6B43746C 
 11176      4F666673 
 11177              	.LASF825:
 11178 158e 7072696E 		.ascii	"printf\000"
 11178      746600
 11179              	.LASF157:
 11180 1595 74637077 		.ascii	"tcpwm_1_interrupts_20_IRQn\000"
 11180      6D5F315F 
 11180      696E7465 
 11180      72727570 
 11180      74735F32 
 11181              	.LASF185:
 11182 15b0 70617373 		.ascii	"pass_interrupt_dacs_IRQn\000"
 11182      5F696E74 
 11182      65727275 
 11182      70745F64 
 11182      6163735F 
 11183              	.LASF223:
 11184 15c9 52455345 		.ascii	"RESERVED\000"
 11184      52564544 
 11184      00
 11185              	.LASF418:
 11186 15d2 73656345 		.ascii	"secEn\000"
 11186      6E00
 11187              	.LASF363:
 11188 15d8 63707573 		.ascii	"cpussCm4PwrCtlOffset\000"
 11188      73436D34 
 11188      50777243 
 11188      746C4F66 
 11188      66736574 
 11189              	.LASF402:
 11190 15ed 43595F52 		.ascii	"CY_RTC_AM\000"
 11190      54435F41 
 11190      4D00
 11191              	.LASF230:
 11192 15f7 55415254 		.ascii	"UART_RX_STATUS\000"
 11192      5F52585F 
 11192      53544154 
 11192      555300
 11193              	.LASF122:
 11194 1606 63707573 		.ascii	"cpuss_interrupts_fault_1_IRQn\000"
ARM GAS  C:\Users\ASUS\AppData\Local\Temp\ccarWmgw.s 			page 254


 11194      735F696E 
 11194      74657272 
 11194      75707473 
 11194      5F666175 
 11195              	.LASF531:
 11196 1624 5F636F6F 		.ascii	"_cookie\000"
 11196      6B696500 
 11197              	.LASF787:
 11198 162c 61636350 		.ascii	"accPrint\000"
 11198      72696E74 
 11198      00
 11199              	.LASF446:
 11200 1635 43595F53 		.ascii	"CY_SCB_I2C_ACK\000"
 11200      43425F49 
 11200      32435F41 
 11200      434B00
 11201              	.LASF505:
 11202 1644 5F776473 		.ascii	"_wds\000"
 11202      00
 11203              	.LASF755:
 11204 1649 6576656E 		.ascii	"eventParameter\000"
 11204      74506172 
 11204      616D6574 
 11204      657200
 11205              	.LASF335:
 11206 1658 666C6173 		.ascii	"flashCtlMainWs4Freq\000"
 11206      6843746C 
 11206      4D61696E 
 11206      57733446 
 11206      72657100 
 11207              	.LASF38:
 11208 166c 756E636F 		.ascii	"unconnected_IRQn\000"
 11208      6E6E6563 
 11208      7465645F 
 11208      4952516E 
 11208      00
 11209              	.LASF675:
 11210 167d 43595F42 		.ascii	"CY_BLE_EVT_GATTC_ERROR_RSP\000"
 11210      4C455F45 
 11210      56545F47 
 11210      41545443 
 11210      5F455252 
 11211              	.LASF690:
 11212 1698 43595F42 		.ascii	"CY_BLE_EVT_GATTS_PREP_WRITE_REQ\000"
 11212      4C455F45 
 11212      56545F47 
 11212      41545453 
 11212      5F505245 
 11213              	.LASF174:
 11214 16b8 7564625F 		.ascii	"udb_interrupts_13_IRQn\000"
 11214      696E7465 
 11214      72727570 
 11214      74735F31 
 11214      335F4952 
 11215              	.LASF424:
 11216 16cf 616C6D45 		.ascii	"almEn\000"
 11216      6E00
ARM GAS  C:\Users\ASUS\AppData\Local\Temp\ccarWmgw.s 			page 255


 11217              	.LASF709:
 11218 16d5 43595F42 		.ascii	"CY_BLE_EVT_L2CAP_CBFC_TX_CREDIT_IND\000"
 11218      4C455F45 
 11218      56545F4C 
 11218      32434150 
 11218      5F434246 
 11219              	.LASF314:
 11220 16f9 63707573 		.ascii	"cpussNotConnectedIrq\000"
 11220      734E6F74 
 11220      436F6E6E 
 11220      65637465 
 11220      64497271 
 11221              	.LASF539:
 11222 170e 5F6F6666 		.ascii	"_offset\000"
 11222      73657400 
 11223              	.LASF560:
 11224 1716 5F637674 		.ascii	"_cvtbuf\000"
 11224      62756600 
 11225              	.LASF163:
 11226 171e 7564625F 		.ascii	"udb_interrupts_2_IRQn\000"
 11226      696E7465 
 11226      72727570 
 11226      74735F32 
 11226      5F495251 
 11227              	.LASF356:
 11228 1734 6770696F 		.ascii	"gpioPrtCfgInOffset\000"
 11228      50727443 
 11228      6667496E 
 11228      4F666673 
 11228      657400
 11229              	.LASF291:
 11230 1747 70657269 		.ascii	"periBase\000"
 11230      42617365 
 11230      00
 11231              	.LASF703:
 11232 1750 43595F42 		.ascii	"CY_BLE_EVT_L2CAP_CBFC_CONN_IND\000"
 11232      4C455F45 
 11232      56545F4C 
 11232      32434150 
 11232      5F434246 
 11233              	.LASF784:
 11234 176f 6779726F 		.ascii	"gyroX\000"
 11234      5800
 11235              	.LASF785:
 11236 1775 6779726F 		.ascii	"gyroY\000"
 11236      5900
 11237              	.LASF786:
 11238 177b 6779726F 		.ascii	"gyroZ\000"
 11238      5A00
 11239              	.LASF759:
 11240 1781 77726974 		.ascii	"writeReqParameter\000"
 11240      65526571 
 11240      50617261 
 11240      6D657465 
 11240      7200
 11241              	.LASF815:
 11242 1793 43795F52 		.ascii	"Cy_RTC_Interrupt\000"
ARM GAS  C:\Users\ASUS\AppData\Local\Temp\ccarWmgw.s 			page 256


 11242      54435F49 
 11242      6E746572 
 11242      72757074 
 11242      00
 11243              	.LASF756:
 11244 17a4 67656E65 		.ascii	"genericEventHandler\000"
 11244      72696345 
 11244      76656E74 
 11244      48616E64 
 11244      6C657200 
 11245              	.LASF131:
 11246 17b8 74637077 		.ascii	"tcpwm_0_interrupts_2_IRQn\000"
 11246      6D5F305F 
 11246      696E7465 
 11246      72727570 
 11246      74735F32 
 11247              	.LASF631:
 11248 17d2 43595F42 		.ascii	"CY_BLE_EVT_GET_RSSI_COMPLETE\000"
 11248      4C455F45 
 11248      56545F47 
 11248      45545F52 
 11248      5353495F 
 11249              	.LASF439:
 11250 17ef 43595F53 		.ascii	"CY_SCB_I2C_MASTER_MANUAL_ARB_LOST\000"
 11250      43425F49 
 11250      32435F4D 
 11250      41535445 
 11250      525F4D41 
 11251              	.LASF459:
 11252 1811 6D617374 		.ascii	"masterBufferSize\000"
 11252      65724275 
 11252      66666572 
 11252      53697A65 
 11252      00
 11253              	.LASF425:
 11254 1822 63795F73 		.ascii	"cy_stc_rtc_alarm_t\000"
 11254      74635F72 
 11254      74635F61 
 11254      6C61726D 
 11254      5F7400
 11255              	.LASF1:
 11256 1835 4E6F6E4D 		.ascii	"NonMaskableInt_IRQn\000"
 11256      61736B61 
 11256      626C6549 
 11256      6E745F49 
 11256      52516E00 
 11257              	.LASF148:
 11258 1849 74637077 		.ascii	"tcpwm_1_interrupts_11_IRQn\000"
 11258      6D5F315F 
 11258      696E7465 
 11258      72727570 
 11258      74735F31 
 11259              	.LASF311:
 11260 1864 63707573 		.ascii	"cpussFlashPaSize\000"
 11260      73466C61 
 11260      73685061 
 11260      53697A65 
ARM GAS  C:\Users\ASUS\AppData\Local\Temp\ccarWmgw.s 			page 257


 11260      00
 11261              	.LASF826:
 11262 1875 43795F52 		.ascii	"Cy_RTC_Init\000"
 11262      54435F49 
 11262      6E697400 
 11263              	.LASF471:
 11264 1881 63624576 		.ascii	"cbEvents\000"
 11264      656E7473 
 11264      00
 11265              	.LASF829:
 11266 188a 43795F52 		.ascii	"Cy_RTC_SetInterruptMask\000"
 11266      54435F53 
 11266      6574496E 
 11266      74657272 
 11266      7570744D 
 11267              	.LASF557:
 11268 18a2 5F703573 		.ascii	"_p5s\000"
 11268      00
 11269              	.LASF199:
 11270 18a7 6C6F6E67 		.ascii	"long unsigned int\000"
 11270      20756E73 
 11270      69676E65 
 11270      6420696E 
 11270      7400
 11271              	.LASF681:
 11272 18b9 43595F42 		.ascii	"CY_BLE_EVT_GATTC_READ_BY_TYPE_RSP\000"
 11272      4C455F45 
 11272      56545F47 
 11272      41545443 
 11272      5F524541 
 11273              	.LASF382:
 11274 18db 636D3070 		.ascii	"cm0pSrc\000"
 11274      53726300 
 11275              	.LASF426:
 11276 18e3 666F726D 		.ascii	"format\000"
 11276      617400
 11277              	.LASF659:
 11278 18ea 43595F42 		.ascii	"CY_BLE_EVT_GAPC_SCAN_START_STOP\000"
 11278      4C455F45 
 11278      56545F47 
 11278      4150435F 
 11278      5343414E 
 11279              	.LASF527:
 11280 190a 5F5F7346 		.ascii	"__sFILE\000"
 11280      494C4500 
 11281              	.LASF553:
 11282 1912 5F5F7364 		.ascii	"__sdidinit\000"
 11282      6964696E 
 11282      697400
 11283              	.LASF543:
 11284 191d 5F666C61 		.ascii	"_flags2\000"
 11284      67733200 
 11285              	.LASF12:
 11286 1925 4E766963 		.ascii	"NvicMux6_IRQn\000"
 11286      4D757836 
 11286      5F495251 
 11286      6E00
ARM GAS  C:\Users\ASUS\AppData\Local\Temp\ccarWmgw.s 			page 258


 11287              	.LASF749:
 11288 1933 61646472 		.ascii	"address\000"
 11288      65737300 
 11289              	.LASF321:
 11290 193b 65704D6F 		.ascii	"epMonitorNr\000"
 11290      6E69746F 
 11290      724E7200 
 11291              	.LASF671:
 11292 1947 43595F42 		.ascii	"CY_BLE_EVT_GAP_CREATE_CONN_CANCEL_COMPLETE\000"
 11292      4C455F45 
 11292      56545F47 
 11292      41505F43 
 11292      52454154 
 11293              	.LASF448:
 11294 1972 63795F65 		.ascii	"cy_en_scb_i2c_command_t\000"
 11294      6E5F7363 
 11294      625F6932 
 11294      635F636F 
 11294      6D6D616E 
 11295              	.LASF615:
 11296 198a 43595F42 		.ascii	"CY_BLE_EVT_SET_RPA_TO_COMPLETE\000"
 11296      4C455F45 
 11296      56545F53 
 11296      45545F52 
 11296      50415F54 
 11297              	.LASF372:
 11298 19a9 63707573 		.ascii	"cpussRam2Ctl0\000"
 11298      7352616D 
 11298      3243746C 
 11298      3000
 11299              	.LASF269:
 11300 19b7 494E5452 		.ascii	"INTR_M_MASK\000"
 11300      5F4D5F4D 
 11300      41534B00 
 11301              	.LASF189:
 11302 19c3 4952516E 		.ascii	"IRQn_Type\000"
 11302      5F547970 
 11302      6500
 11303              	.LASF193:
 11304 19cd 5F5F696E 		.ascii	"__int16_t\000"
 11304      7431365F 
 11304      7400
 11305              	.LASF299:
 11306 19d7 63707573 		.ascii	"cpussVersion\000"
 11306      73566572 
 11306      73696F6E 
 11306      00
 11307              	.LASF490:
 11308 19e4 5F4C4F43 		.ascii	"_LOCK_RECURSIVE_T\000"
 11308      4B5F5245 
 11308      43555253 
 11308      4956455F 
 11308      5400
 11309              	.LASF126:
 11310 19f6 63707573 		.ascii	"cpuss_interrupts_cm0_cti_1_IRQn\000"
 11310      735F696E 
 11310      74657272 
ARM GAS  C:\Users\ASUS\AppData\Local\Temp\ccarWmgw.s 			page 259


 11310      75707473 
 11310      5F636D30 
 11311              	.LASF702:
 11312 1a16 43595F42 		.ascii	"CY_BLE_EVT_L2CAP_COMMAND_REJ\000"
 11312      4C455F45 
 11312      56545F4C 
 11312      32434150 
 11312      5F434F4D 
 11313              	.LASF313:
 11314 1a33 63707573 		.ascii	"cpussFmIrq\000"
 11314      73466D49 
 11314      727100
 11315              	.LASF462:
 11316 1a3e 736C6176 		.ascii	"slaveStatus\000"
 11316      65537461 
 11316      74757300 
 11317              	.LASF677:
 11318 1a4a 43595F42 		.ascii	"CY_BLE_EVT_GATT_DISCONNECT_IND\000"
 11318      4C455F45 
 11318      56545F47 
 11318      4154545F 
 11318      44495343 
 11319              	.LASF545:
 11320 1a69 5F657272 		.ascii	"_errno\000"
 11320      6E6F00
 11321              	.LASF324:
 11322 1a70 70726F74 		.ascii	"protBusMasterMask\000"
 11322      4275734D 
 11322      61737465 
 11322      724D6173 
 11322      6B00
 11323              	.LASF751:
 11324 1a82 4932435F 		.ascii	"I2C_MasterWriteByte\000"
 11324      4D617374 
 11324      65725772 
 11324      69746542 
 11324      79746500 
 11325              	.LASF337:
 11326 1a96 64774368 		.ascii	"dwChSize\000"
 11326      53697A65 
 11326      00
 11327              	.LASF385:
 11328 1a9f 43595F53 		.ascii	"CY_SYSPM_WAIT_FOR_INTERRUPT\000"
 11328      5953504D 
 11328      5F574149 
 11328      545F464F 
 11328      525F494E 
 11329              	.LASF173:
 11330 1abb 7564625F 		.ascii	"udb_interrupts_12_IRQn\000"
 11330      696E7465 
 11330      72727570 
 11330      74735F31 
 11330      325F4952 
 11331              	.LASF683:
 11332 1ad2 43595F42 		.ascii	"CY_BLE_EVT_GATTC_FIND_BY_TYPE_VALUE_RSP\000"
 11332      4C455F45 
 11332      56545F47 
ARM GAS  C:\Users\ASUS\AppData\Local\Temp\ccarWmgw.s 			page 260


 11332      41545443 
 11332      5F46494E 
 11333              	.LASF142:
 11334 1afa 74637077 		.ascii	"tcpwm_1_interrupts_5_IRQn\000"
 11334      6D5F315F 
 11334      696E7465 
 11334      72727570 
 11334      74735F35 
 11335              	.LASF73:
 11336 1b14 63707573 		.ascii	"cpuss_interrupts_ipc_9_IRQn\000"
 11336      735F696E 
 11336      74657272 
 11336      75707473 
 11336      5F697063 
 11337              	.LASF25:
 11338 1b30 4E766963 		.ascii	"NvicMux19_IRQn\000"
 11338      4D757831 
 11338      395F4952 
 11338      516E00
 11339              	.LASF808:
 11340 1b3f 5254435F 		.ascii	"RTC_rtcDstStatus\000"
 11340      72746344 
 11340      73745374 
 11340      61747573 
 11340      00
 11341              	.LASF684:
 11342 1b50 43595F42 		.ascii	"CY_BLE_EVT_GATTC_READ_RSP\000"
 11342      4C455F45 
 11342      56545F47 
 11342      41545443 
 11342      5F524541 
 11343              	.LASF319:
 11344 1b6a 736D6966 		.ascii	"smifDeviceNr\000"
 11344      44657669 
 11344      63654E72 
 11344      00
 11345              	.LASF501:
 11346 1b77 5F426967 		.ascii	"_Bigint\000"
 11346      696E7400 
 11347              	.LASF640:
 11348 1b7f 43595F42 		.ascii	"CY_BLE_EVT_SET_SLAVE_LATENCY_MODE_COMPLETE\000"
 11348      4C455F45 
 11348      56545F53 
 11348      45545F53 
 11348      4C415645 
 11349              	.LASF82:
 11350 1baa 7363625F 		.ascii	"scb_2_interrupt_IRQn\000"
 11350      325F696E 
 11350      74657272 
 11350      7570745F 
 11350      4952516E 
 11351              	.LASF415:
 11352 1bbf 63795F73 		.ascii	"cy_stc_rtc_config_t\000"
 11352      74635F72 
 11352      74635F63 
 11352      6F6E6669 
 11352      675F7400 
ARM GAS  C:\Users\ASUS\AppData\Local\Temp\ccarWmgw.s 			page 261


 11353              	.LASF736:
 11354 1bd3 43595F42 		.ascii	"CY_BLE_CONN_STATE_CLIENT_SRVC_DISCOVERING\000"
 11354      4C455F43 
 11354      4F4E4E5F 
 11354      53544154 
 11354      455F434C 
 11355              	.LASF503:
 11356 1bfd 5F6D6178 		.ascii	"_maxwds\000"
 11356      77647300 
 11357              	.LASF636:
 11358 1c05 43595F42 		.ascii	"CY_BLE_EVT_RANDOM_NUM_GEN_COMPLETE\000"
 11358      4C455F45 
 11358      56545F52 
 11358      414E444F 
 11358      4D5F4E55 
 11359              	.LASF50:
 11360 1c28 696F7373 		.ascii	"ioss_interrupts_gpio_11_IRQn\000"
 11360      5F696E74 
 11360      65727275 
 11360      7074735F 
 11360      6770696F 
 11361              	.LASF351:
 11362 1c45 70657269 		.ascii	"periDiv16CtlOffset\000"
 11362      44697631 
 11362      3643746C 
 11362      4F666673 
 11362      657400
 11363              	.LASF99:
 11364 1c58 63707573 		.ascii	"cpuss_interrupts_dw0_10_IRQn\000"
 11364      735F696E 
 11364      74657272 
 11364      75707473 
 11364      5F647730 
 11365              	.LASF366:
 11366 1c75 63707573 		.ascii	"cpussSysTickCtlOffset\000"
 11366      73537973 
 11366      5469636B 
 11366      43746C4F 
 11366      66667365 
 11367              	.LASF814:
 11368 1c8b 43795F42 		.ascii	"Cy_BLE_ProcessEvents\000"
 11368      4C455F50 
 11368      726F6365 
 11368      73734576 
 11368      656E7473 
 11369              	.LASF589:
 11370 1ca0 5F6D6273 		.ascii	"_mbsrtowcs_state\000"
 11370      72746F77 
 11370      63735F73 
 11370      74617465 
 11370      00
 11371              	.LASF562:
 11372 1cb1 5F617465 		.ascii	"_atexit0\000"
 11372      78697430 
 11372      00
 11373              	.LASF410:
 11374 1cba 6872466F 		.ascii	"hrFormat\000"
ARM GAS  C:\Users\ASUS\AppData\Local\Temp\ccarWmgw.s 			page 262


 11374      726D6174 
 11374      00
 11375              	.LASF465:
 11376 1cc3 736C6176 		.ascii	"slaveTxBufferSize\000"
 11376      65547842 
 11376      75666665 
 11376      7253697A 
 11376      6500
 11377              	.LASF41:
 11378 1cd5 696F7373 		.ascii	"ioss_interrupts_gpio_2_IRQn\000"
 11378      5F696E74 
 11378      65727275 
 11378      7074735F 
 11378      6770696F 
 11379              	.LASF347:
 11380 1cf1 70657269 		.ascii	"periDivCmdTypeSelPos\000"
 11380      44697643 
 11380      6D645479 
 11380      70655365 
 11380      6C506F73 
 11381              	.LASF119:
 11382 1d06 63707573 		.ascii	"cpuss_interrupts_dw1_14_IRQn\000"
 11382      735F696E 
 11382      74657272 
 11382      75707473 
 11382      5F647731 
 11383              	.LASF289:
 11384 1d23 63707573 		.ascii	"cpussBase\000"
 11384      73426173 
 11384      6500
 11385              	.LASF293:
 11386 1d2d 70726F74 		.ascii	"protBase\000"
 11386      42617365 
 11386      00
 11387              	.LASF305:
 11388 1d36 69706356 		.ascii	"ipcVersion\000"
 11388      65727369 
 11388      6F6E00
 11389              	.LASF92:
 11390 1d41 63707573 		.ascii	"cpuss_interrupts_dw0_3_IRQn\000"
 11390      735F696E 
 11390      74657272 
 11390      75707473 
 11390      5F647730 
 11391              	.LASF198:
 11392 1d5d 5F5F7569 		.ascii	"__uint32_t\000"
 11392      6E743332 
 11392      5F7400
 11393              	.LASF550:
 11394 1d68 5F656D65 		.ascii	"_emergency\000"
 11394      7267656E 
 11394      637900
 11395              	.LASF253:
 11396 1d73 455A5F44 		.ascii	"EZ_DATA\000"
 11396      41544100 
 11397              	.LASF582:
 11398 1d7b 5F6D6274 		.ascii	"_mbtowc_state\000"
ARM GAS  C:\Users\ASUS\AppData\Local\Temp\ccarWmgw.s 			page 263


 11398      6F77635F 
 11398      73746174 
 11398      6500
 11399              	.LASF66:
 11400 1d89 63707573 		.ascii	"cpuss_interrupts_ipc_2_IRQn\000"
 11400      735F696E 
 11400      74657272 
 11400      75707473 
 11400      5F697063 
 11401              	.LASF320:
 11402 1da5 70617373 		.ascii	"passSarChannels\000"
 11402      53617243 
 11402      68616E6E 
 11402      656C7300 
 11403              	.LASF134:
 11404 1db5 74637077 		.ascii	"tcpwm_0_interrupts_5_IRQn\000"
 11404      6D5F305F 
 11404      696E7465 
 11404      72727570 
 11404      74735F35 
 11405              	.LASF823:
 11406 1dcf 43795F53 		.ascii	"Cy_SCB_I2C_MasterReadByte\000"
 11406      43425F49 
 11406      32435F4D 
 11406      61737465 
 11406      72526561 
 11407              	.LASF42:
 11408 1de9 696F7373 		.ascii	"ioss_interrupts_gpio_3_IRQn\000"
 11408      5F696E74 
 11408      65727275 
 11408      7074735F 
 11408      6770696F 
 11409              	.LASF156:
 11410 1e05 74637077 		.ascii	"tcpwm_1_interrupts_19_IRQn\000"
 11410      6D5F315F 
 11410      696E7465 
 11410      72727570 
 11410      74735F31 
 11411              	.LASF621:
 11412 1e20 43595F42 		.ascii	"CY_BLE_EVT_REMOVE_DEVICE_FROM_WHITE_LIST_COMPLETE\000"
 11412      4C455F45 
 11412      56545F52 
 11412      454D4F56 
 11412      455F4445 
 11413              	.LASF686:
 11414 1e52 43595F42 		.ascii	"CY_BLE_EVT_GATTC_READ_MULTI_RSP\000"
 11414      4C455F45 
 11414      56545F47 
 11414      41545443 
 11414      5F524541 
 11415              	.LASF724:
 11416 1e72 43595F42 		.ascii	"CY_BLE_STATE_STOPPED\000"
 11416      4C455F53 
 11416      54415445 
 11416      5F53544F 
 11416      50504544 
 11417              	.LASF706:
ARM GAS  C:\Users\ASUS\AppData\Local\Temp\ccarWmgw.s 			page 264


 11418 1e87 43595F42 		.ascii	"CY_BLE_EVT_L2CAP_CBFC_DISCONN_CNF\000"
 11418      4C455F45 
 11418      56545F4C 
 11418      32434150 
 11418      5F434246 
 11419              	.LASF306:
 11420 1ea9 70657269 		.ascii	"periVersion\000"
 11420      56657273 
 11420      696F6E00 
 11421              	.LASF461:
 11422 1eb5 6D617374 		.ascii	"masterNumBytes\000"
 11422      65724E75 
 11422      6D427974 
 11422      657300
 11423              	.LASF813:
 11424 1ec4 43795F42 		.ascii	"Cy_BLE_GAPP_StartAdvertisement\000"
 11424      4C455F47 
 11424      4150505F 
 11424      53746172 
 11424      74416476 
 11425              	.LASF838:
 11426 1ee3 443A5C44 		.ascii	"D:\\Documents\\Lab2Part3.cydsn\\EasyMoo.cydsn\000"
 11426      6F63756D 
 11426      656E7473 
 11426      5C4C6162 
 11426      32506172 
 11427              	.LASF568:
 11428 1f0e 5F6E696F 		.ascii	"_niobs\000"
 11428      627300
 11429              	.LASF433:
 11430 1f15 43595F53 		.ascii	"CY_SCB_I2C_SUCCESS\000"
 11430      43425F49 
 11430      32435F53 
 11430      55434345 
 11430      535300
 11431              	.LASF35:
 11432 1f28 4E766963 		.ascii	"NvicMux29_IRQn\000"
 11432      4D757832 
 11432      395F4952 
 11432      516E00
 11433              	.LASF375:
 11434 1f37 63795F73 		.ascii	"cy_stc_device_t\000"
 11434      74635F64 
 11434      65766963 
 11434      655F7400 
 11435              	.LASF422:
 11436 1f47 64617465 		.ascii	"dateEn\000"
 11436      456E00
 11437              	.LASF4:
 11438 1f4e 50656E64 		.ascii	"PendSV_IRQn\000"
 11438      53565F49 
 11438      52516E00 
 11439              	.LASF98:
 11440 1f5a 63707573 		.ascii	"cpuss_interrupts_dw0_9_IRQn\000"
 11440      735F696E 
 11440      74657272 
 11440      75707473 
ARM GAS  C:\Users\ASUS\AppData\Local\Temp\ccarWmgw.s 			page 265


 11440      5F647730 
 11441              	.LASF564:
 11442 1f76 5F5F7367 		.ascii	"__sglue\000"
 11442      6C756500 
 11443              	.LASF270:
 11444 1f7e 494E5452 		.ascii	"INTR_M_MASKED\000"
 11444      5F4D5F4D 
 11444      41534B45 
 11444      4400
 11445              	.LASF172:
 11446 1f8c 7564625F 		.ascii	"udb_interrupts_11_IRQn\000"
 11446      696E7465 
 11446      72727570 
 11446      74735F31 
 11446      315F4952 
 11447              	.LASF594:
 11448 1fa3 5F6E6D61 		.ascii	"_nmalloc\000"
 11448      6C6C6F63 
 11448      00
 11449              	.LASF625:
 11450 1fac 43595F42 		.ascii	"CY_BLE_EVT_PHY_UPDATE_COMPLETE\000"
 11450      4C455F45 
 11450      56545F50 
 11450      48595F55 
 11450      50444154 
 11451              	.LASF379:
 11452 1fcb 646F7562 		.ascii	"double\000"
 11452      6C6500
 11453              	.LASF3:
 11454 1fd2 53564361 		.ascii	"SVCall_IRQn\000"
 11454      6C6C5F49 
 11454      52516E00 
 11455              	.LASF300:
 11456 1fde 63727970 		.ascii	"cryptoVersion\000"
 11456      746F5665 
 11456      7273696F 
 11456      6E00
 11457              	.LASF117:
 11458 1fec 63707573 		.ascii	"cpuss_interrupts_dw1_12_IRQn\000"
 11458      735F696E 
 11458      74657272 
 11458      75707473 
 11458      5F647731 
 11459              	.LASF707:
 11460 2009 43595F42 		.ascii	"CY_BLE_EVT_L2CAP_CBFC_DATA_READ\000"
 11460      4C455F45 
 11460      56545F4C 
 11460      32434150 
 11460      5F434246 
 11461              	.LASF723:
 11462 2029 63795F73 		.ascii	"cy_stc_ble_gatt_write_param_t\000"
 11462      74635F62 
 11462      6C655F67 
 11462      6174745F 
 11462      77726974 
 11463              	.LASF328:
 11464 2047 666C6173 		.ascii	"flashWriteDelay\000"
ARM GAS  C:\Users\ASUS\AppData\Local\Temp\ccarWmgw.s 			page 266


 11464      68577269 
 11464      74654465 
 11464      6C617900 
 11465              	.LASF326:
 11466 2057 666C6173 		.ascii	"flashRwwRequired\000"
 11466      68527777 
 11466      52657175 
 11466      69726564 
 11466      00
 11467              	.LASF334:
 11468 2068 666C6173 		.ascii	"flashCtlMainWs3Freq\000"
 11468      6843746C 
 11468      4D61696E 
 11468      57733346 
 11468      72657100 
 11469              	.LASF552:
 11470 207c 5F637572 		.ascii	"_current_locale\000"
 11470      72656E74 
 11470      5F6C6F63 
 11470      616C6500 
 11471              	.LASF160:
 11472 208c 74637077 		.ascii	"tcpwm_1_interrupts_23_IRQn\000"
 11472      6D5F315F 
 11472      696E7465 
 11472      72727570 
 11472      74735F32 
 11473              	.LASF558:
 11474 20a7 5F667265 		.ascii	"_freelist\000"
 11474      656C6973 
 11474      7400
 11475              	.LASF113:
 11476 20b1 63707573 		.ascii	"cpuss_interrupts_dw1_8_IRQn\000"
 11476      735F696E 
 11476      74657272 
 11476      75707473 
 11476      5F647731 
 11477              	.LASF484:
 11478 20cd 72784275 		.ascii	"rxBufIdx\000"
 11478      66496478 
 11478      00
 11479              	.LASF352:
 11480 20d6 70657269 		.ascii	"periDiv16_5CtlOffset\000"
 11480      44697631 
 11480      365F3543 
 11480      746C4F66 
 11480      66736574 
 11481              	.LASF569:
 11482 20eb 5F696F62 		.ascii	"_iobs\000"
 11482      7300
 11483              	.LASF567:
 11484 20f1 5F676C75 		.ascii	"_glue\000"
 11484      6500
 11485              	.LASF661:
 11486 20f7 43595F42 		.ascii	"CY_BLE_EVT_GAP_NUMERIC_COMPARISON_REQUEST\000"
 11486      4C455F45 
 11486      56545F47 
 11486      41505F4E 
ARM GAS  C:\Users\ASUS\AppData\Local\Temp\ccarWmgw.s 			page 267


 11486      554D4552 
 11487              	.LASF8:
 11488 2121 4E766963 		.ascii	"NvicMux2_IRQn\000"
 11488      4D757832 
 11488      5F495251 
 11488      6E00
 11489              	.LASF504:
 11490 212f 5F736967 		.ascii	"_sign\000"
 11490      6E00
 11491              	.LASF611:
 11492 2135 43595F42 		.ascii	"CY_BLE_EVT_GET_DATA_LENGTH_COMPLETE\000"
 11492      4C455F45 
 11492      56545F47 
 11492      45545F44 
 11492      4154415F 
 11493              	.LASF149:
 11494 2159 74637077 		.ascii	"tcpwm_1_interrupts_12_IRQn\000"
 11494      6D5F315F 
 11494      696E7465 
 11494      72727570 
 11494      74735F31 
 11495              	.LASF750:
 11496 2174 62697452 		.ascii	"bitRnW\000"
 11496      6E5700
 11497              	.LASF840:
 11498 217b 5F5F4E56 		.ascii	"__NVIC_EnableIRQ\000"
 11498      49435F45 
 11498      6E61626C 
 11498      65495251 
 11498      00
 11499              	.LASF672:
 11500 218c 43595F42 		.ascii	"CY_BLE_EVT_GAP_CONN_ESTB\000"
 11500      4C455F45 
 11500      56545F47 
 11500      41505F43 
 11500      4F4E4E5F 
 11501              	.LASF20:
 11502 21a5 4E766963 		.ascii	"NvicMux14_IRQn\000"
 11502      4D757831 
 11502      345F4952 
 11502      516E00
 11503              	.LASF649:
 11504 21b4 43595F42 		.ascii	"CY_BLE_EVT_GAP_AUTH_REQ\000"
 11504      4C455F45 
 11504      56545F47 
 11504      41505F41 
 11504      5554485F 
 11505              	.LASF225:
 11506 21cc 5350495F 		.ascii	"SPI_STATUS\000"
 11506      53544154 
 11506      555300
 11507              	.LASF754:
 11508 21d7 6576656E 		.ascii	"event\000"
 11508      7400
 11509              	.LASF308:
 11510 21dd 63707573 		.ascii	"cpussIpcNr\000"
 11510      73497063 
ARM GAS  C:\Users\ASUS\AppData\Local\Temp\ccarWmgw.s 			page 268


 11510      4E7200
 11511              	.LASF719:
 11512 21e8 61747472 		.ascii	"attrHandle\000"
 11512      48616E64 
 11512      6C6500
 11513              	.LASF166:
 11514 21f3 7564625F 		.ascii	"udb_interrupts_5_IRQn\000"
 11514      696E7465 
 11514      72727570 
 11514      74735F35 
 11514      5F495251 
 11515              	.LASF202:
 11516 2209 756E7369 		.ascii	"unsigned int\000"
 11516      676E6564 
 11516      20696E74 
 11516      00
 11517              	.LASF219:
 11518 2216 4354524C 		.ascii	"CTRL\000"
 11518      00
 11519              	.LASF17:
 11520 221b 4E766963 		.ascii	"NvicMux11_IRQn\000"
 11520      4D757831 
 11520      315F4952 
 11520      516E00
 11521              	.LASF74:
 11522 222a 63707573 		.ascii	"cpuss_interrupts_ipc_10_IRQn\000"
 11522      735F696E 
 11522      74657272 
 11522      75707473 
 11522      5F697063 
 11523              	.LASF734:
 11524 2247 43595F42 		.ascii	"CY_BLE_CONN_STATE_CLIENT_DISCONNECTED_DISCOVERED\000"
 11524      4C455F43 
 11524      4F4E4E5F 
 11524      53544154 
 11524      455F434C 
 11525              	.LASF824:
 11526 2278 43795F53 		.ascii	"Cy_SCB_I2C_MasterSendStop\000"
 11526      43425F49 
 11526      32435F4D 
 11526      61737465 
 11526      7253656E 
 11527              	.LASF403:
 11528 2292 43595F52 		.ascii	"CY_RTC_PM\000"
 11528      54435F50 
 11528      4D00
 11529              	.LASF743:
 11530 229c 4932435F 		.ascii	"I2C_MasterSendStop\000"
 11530      4D617374 
 11530      65725365 
 11530      6E645374 
 11530      6F7000
 11531              	.LASF592:
 11532 22af 5F685F65 		.ascii	"_h_errno\000"
 11532      72726E6F 
 11532      00
 11533              	.LASF733:
ARM GAS  C:\Users\ASUS\AppData\Local\Temp\ccarWmgw.s 			page 269


 11534 22b8 43595F42 		.ascii	"CY_BLE_CONN_STATE_DISCONNECTED\000"
 11534      4C455F43 
 11534      4F4E4E5F 
 11534      53544154 
 11534      455F4449 
 11535              	.LASF106:
 11536 22d7 63707573 		.ascii	"cpuss_interrupts_dw1_1_IRQn\000"
 11536      735F696E 
 11536      74657272 
 11536      75707473 
 11536      5F647731 
 11537              	.LASF420:
 11538 22f3 686F7572 		.ascii	"hourEn\000"
 11538      456E00
 11539              	.LASF417:
 11540 22fa 63795F73 		.ascii	"cy_stc_rtc_alarm\000"
 11540      74635F72 
 11540      74635F61 
 11540      6C61726D 
 11540      00
 11541              	.LASF393:
 11542 230b 63795F65 		.ascii	"cy_en_rtc_status_t\000"
 11542      6E5F7274 
 11542      635F7374 
 11542      61747573 
 11542      5F7400
 11543              	.LASF662:
 11544 231e 43595F42 		.ascii	"CY_BLE_EVT_GAP_KEYPRESS_NOTIFICATION\000"
 11544      4C455F45 
 11544      56545F47 
 11544      41505F4B 
 11544      45595052 
 11545              	.LASF419:
 11546 2343 6D696E45 		.ascii	"minEn\000"
 11546      6E00
 11547              	.LASF606:
 11548 2349 43595F42 		.ascii	"CY_BLE_EVT_GET_CHANNEL_MAP_COMPLETE\000"
 11548      4C455F45 
 11548      56545F47 
 11548      45545F43 
 11548      48414E4E 
 11549              	.LASF833:
 11550 236d 73657476 		.ascii	"setvbuf\000"
 11550      62756600 
 11551              	.LASF590:
 11552 2375 5F776372 		.ascii	"_wcrtomb_state\000"
 11552      746F6D62 
 11552      5F737461 
 11552      746500
 11553              	.LASF354:
 11554 2384 6770696F 		.ascii	"gpioPrtIntrCfgOffset\000"
 11554      50727449 
 11554      6E747243 
 11554      66674F66 
 11554      66736574 
 11555              	.LASF371:
 11556 2399 63707573 		.ascii	"cpussRam1Ctl0\000"
ARM GAS  C:\Users\ASUS\AppData\Local\Temp\ccarWmgw.s 			page 270


 11556      7352616D 
 11556      3143746C 
 11556      3000
 11557              	.LASF510:
 11558 23a7 5F5F746D 		.ascii	"__tm_mday\000"
 11558      5F6D6461 
 11558      7900
 11559              	.LASF737:
 11560 23b1 43595F42 		.ascii	"CY_BLE_CONN_STATE_CLIENT_INCL_DISCOVERING\000"
 11560      4C455F43 
 11560      4F4E4E5F 
 11560      53544154 
 11560      455F434C 
 11561              	.LASF561:
 11562 23db 5F6E6577 		.ascii	"_new\000"
 11562      00
 11563              	.LASF159:
 11564 23e0 74637077 		.ascii	"tcpwm_1_interrupts_22_IRQn\000"
 11564      6D5F315F 
 11564      696E7465 
 11564      72727570 
 11564      74735F32 
 11565              	.LASF536:
 11566 23fb 5F756275 		.ascii	"_ubuf\000"
 11566      6600
 11567              	.LASF423:
 11568 2401 6D6F6E74 		.ascii	"monthEn\000"
 11568      68456E00 
 11569              	.LASF596:
 11570 2409 43595F42 		.ascii	"CY_BLE_EVT_INVALID\000"
 11570      4C455F45 
 11570      56545F49 
 11570      4E56414C 
 11570      494400
 11571              	.LASF676:
 11572 241c 43595F42 		.ascii	"CY_BLE_EVT_GATT_CONNECT_IND\000"
 11572      4C455F45 
 11572      56545F47 
 11572      4154545F 
 11572      434F4E4E 
 11573              	.LASF238:
 11574 2438 54585F43 		.ascii	"TX_CTRL\000"
 11574      54524C00 
 11575              	.LASF15:
 11576 2440 4E766963 		.ascii	"NvicMux9_IRQn\000"
 11576      4D757839 
 11576      5F495251 
 11576      6E00
 11577              	.LASF775:
 11578 244e 6C696768 		.ascii	"lightPrint\000"
 11578      74507269 
 11578      6E7400
 11579              	.LASF259:
 11580 2459 494E5452 		.ascii	"INTR_I2C_EC_MASK\000"
 11580      5F493243 
 11580      5F45435F 
 11580      4D41534B 
ARM GAS  C:\Users\ASUS\AppData\Local\Temp\ccarWmgw.s 			page 271


 11580      00
 11581              	.LASF542:
 11582 246a 5F6D6273 		.ascii	"_mbstate\000"
 11582      74617465 
 11582      00
 11583              	.LASF770:
 11584 2473 6C696768 		.ascii	"lightMeasure\000"
 11584      744D6561 
 11584      73757265 
 11584      00
 11585              	.LASF772:
 11586 2480 79436861 		.ascii	"yChannel\000"
 11586      6E6E656C 
 11586      00
 11587              	.LASF728:
 11588 2489 43595F42 		.ascii	"CY_BLE_ADV_STATE_STOPPED\000"
 11588      4C455F41 
 11588      44565F53 
 11588      54415445 
 11588      5F53544F 
 11589              	.LASF528:
 11590 24a2 5F666C61 		.ascii	"_flags\000"
 11590      677300
 11591              	.LASF177:
 11592 24a9 70617373 		.ascii	"pass_interrupt_sar_IRQn\000"
 11592      5F696E74 
 11592      65727275 
 11592      70745F73 
 11592      61725F49 
 11593              	.LASF800:
 11594 24c1 63795F62 		.ascii	"cy_ble_state\000"
 11594      6C655F73 
 11594      74617465 
 11594      00
 11595              	.LASF821:
 11596 24ce 43795F53 		.ascii	"Cy_SCB_I2C_MasterWriteByte\000"
 11596      43425F49 
 11596      32435F4D 
 11596      61737465 
 11596      72577269 
 11597              	.LASF788:
 11598 24e9 6779726F 		.ascii	"gyroPrint\000"
 11598      5072696E 
 11598      7400
 11599              	.LASF757:
 11600 24f3 52746349 		.ascii	"RtcInterruptHandler\000"
 11600      6E746572 
 11600      72757074 
 11600      48616E64 
 11600      6C657200 
 11601              	.LASF732:
 11602 2507 63795F65 		.ascii	"cy_en_ble_adv_state_t\000"
 11602      6E5F626C 
 11602      655F6164 
 11602      765F7374 
 11602      6174655F 
 11603              	.LASF54:
ARM GAS  C:\Users\ASUS\AppData\Local\Temp\ccarWmgw.s 			page 272


 11604 251d 696F7373 		.ascii	"ioss_interrupt_gpio_IRQn\000"
 11604      5F696E74 
 11604      65727275 
 11604      70745F67 
 11604      70696F5F 
 11605              	.LASF521:
 11606 2536 5F617465 		.ascii	"_atexit\000"
 11606      78697400 
 11607              	.LASF27:
 11608 253e 4E766963 		.ascii	"NvicMux21_IRQn\000"
 11608      4D757832 
 11608      315F4952 
 11608      516E00
 11609              	.LASF231:
 11610 254d 55415254 		.ascii	"UART_FLOW_CTRL\000"
 11610      5F464C4F 
 11610      575F4354 
 11610      524C00
 11611              	.LASF469:
 11612 255c 736C6176 		.ascii	"slaveRxBufferSize\000"
 11612      65527842 
 11612      75666665 
 11612      7253697A 
 11612      6500
 11613              	.LASF642:
 11614 256e 43595F42 		.ascii	"CY_BLE_EVT_RADIO_TEMPERATURE\000"
 11614      4C455F45 
 11614      56545F52 
 11614      4144494F 
 11614      5F54454D 
 11615              	.LASF176:
 11616 258b 7564625F 		.ascii	"udb_interrupts_15_IRQn\000"
 11616      696E7465 
 11616      72727570 
 11616      74735F31 
 11616      355F4952 
 11617              	.LASF449:
 11618 25a2 63795F63 		.ascii	"cy_cb_scb_i2c_handle_events_t\000"
 11618      625F7363 
 11618      625F6932 
 11618      635F6861 
 11618      6E646C65 
 11619              	.LASF435:
 11620 25c0 43595F53 		.ascii	"CY_SCB_I2C_MASTER_NOT_READY\000"
 11620      43425F49 
 11620      32435F4D 
 11620      41535445 
 11620      525F4E4F 
 11621              	.LASF145:
 11622 25dc 74637077 		.ascii	"tcpwm_1_interrupts_8_IRQn\000"
 11622      6D5F315F 
 11622      696E7465 
 11622      72727570 
 11622      74735F38 
 11623              	.LASF496:
 11624 25f6 5F5F636F 		.ascii	"__count\000"
 11624      756E7400 
ARM GAS  C:\Users\ASUS\AppData\Local\Temp\ccarWmgw.s 			page 273


 11625              	.LASF398:
 11626 25fe 63795F65 		.ascii	"cy_en_rtc_hours_format_t\000"
 11626      6E5F7274 
 11626      635F686F 
 11626      7572735F 
 11626      666F726D 
 11627              	.LASF445:
 11628 2617 63795F65 		.ascii	"cy_en_scb_i2c_direction_t\000"
 11628      6E5F7363 
 11628      625F6932 
 11628      635F6469 
 11628      72656374 
 11629              	.LASF341:
 11630 2631 64775374 		.ascii	"dwStatusChIdxMsk\000"
 11630      61747573 
 11630      43684964 
 11630      784D736B 
 11630      00
 11631              	.LASF392:
 11632 2642 43595F52 		.ascii	"CY_RTC_UNKNOWN\000"
 11632      54435F55 
 11632      4E4B4E4F 
 11632      574E00
 11633              	.LASF769:
 11634 2651 6C696768 		.ascii	"lightI2CWrite\000"
 11634      74493243 
 11634      57726974 
 11634      6500
 11635              	.LASF646:
 11636 265f 43595F42 		.ascii	"CY_BLE_EVT_SET_CE_LENGTH_COMPLETE\000"
 11636      4C455F45 
 11636      56545F53 
 11636      45545F43 
 11636      455F4C45 
 11637              	.LASF479:
 11638 2681 72785269 		.ascii	"rxRingBufSize\000"
 11638      6E674275 
 11638      6653697A 
 11638      6500
 11639              	.LASF287:
 11640 268f 43795343 		.ascii	"CySCB_Type\000"
 11640      425F5479 
 11640      706500
 11641              	.LASF330:
 11642 269a 666C6173 		.ascii	"flashEraseDelay\000"
 11642      68457261 
 11642      73654465 
 11642      6C617900 
 11643              	.LASF84:
 11644 26aa 7363625F 		.ascii	"scb_4_interrupt_IRQn\000"
 11644      345F696E 
 11644      74657272 
 11644      7570745F 
 11644      4952516E 
 11645              	.LASF28:
 11646 26bf 4E766963 		.ascii	"NvicMux22_IRQn\000"
 11646      4D757832 
ARM GAS  C:\Users\ASUS\AppData\Local\Temp\ccarWmgw.s 			page 274


 11646      325F4952 
 11646      516E00
 11647              	.LASF264:
 11648 26ce 494E5452 		.ascii	"INTR_SPI_EC_MASK\000"
 11648      5F535049 
 11648      5F45435F 
 11648      4D41534B 
 11648      00
 11649              	.LASF513:
 11650 26df 5F5F746D 		.ascii	"__tm_wday\000"
 11650      5F776461 
 11650      7900
 11651              	.LASF652:
 11652 26e9 43595F42 		.ascii	"CY_BLE_EVT_GAP_AUTH_COMPLETE\000"
 11652      4C455F45 
 11652      56545F47 
 11652      41505F41 
 11652      5554485F 
 11653              	.LASF811:
 11654 2706 616C6172 		.ascii	"alarmConfig\000"
 11654      6D436F6E 
 11654      66696700 
 11655              	.LASF53:
 11656 2712 696F7373 		.ascii	"ioss_interrupts_gpio_14_IRQn\000"
 11656      5F696E74 
 11656      65727275 
 11656      7074735F 
 11656      6770696F 
 11657              	.LASF102:
 11658 272f 63707573 		.ascii	"cpuss_interrupts_dw0_13_IRQn\000"
 11658      735F696E 
 11658      74657272 
 11658      75707473 
 11658      5F647730 
 11659              	.LASF140:
 11660 274c 74637077 		.ascii	"tcpwm_1_interrupts_3_IRQn\000"
 11660      6D5F315F 
 11660      696E7465 
 11660      72727570 
 11660      74735F33 
 11661              	.LASF288:
 11662 2766 6C6F6E67 		.ascii	"long double\000"
 11662      20646F75 
 11662      626C6500 
 11663              	.LASF59:
 11664 2772 73727373 		.ascii	"srss_interrupt_mcwdt_1_IRQn\000"
 11664      5F696E74 
 11664      65727275 
 11664      70745F6D 
 11664      63776474 
 11665              	.LASF434:
 11666 278e 43595F53 		.ascii	"CY_SCB_I2C_BAD_PARAM\000"
 11666      43425F49 
 11666      32435F42 
 11666      41445F50 
 11666      4152414D 
 11667              	.LASF275:
ARM GAS  C:\Users\ASUS\AppData\Local\Temp\ccarWmgw.s 			page 275


 11668 27a3 494E5452 		.ascii	"INTR_S_MASKED\000"
 11668      5F535F4D 
 11668      41534B45 
 11668      4400
 11669              	.LASF689:
 11670 27b1 43595F42 		.ascii	"CY_BLE_EVT_GATTS_WRITE_CMD_REQ\000"
 11670      4C455F45 
 11670      56545F47 
 11670      41545453 
 11670      5F575249 
 11671              	.LASF474:
 11672 27d0 63795F63 		.ascii	"cy_cb_scb_uart_handle_events_t\000"
 11672      625F7363 
 11672      625F7561 
 11672      72745F68 
 11672      616E646C 
 11673              	.LASF609:
 11674 27ef 43595F42 		.ascii	"CY_BLE_EVT_SET_DATA_LENGTH_COMPLETE\000"
 11674      4C455F45 
 11674      56545F53 
 11674      45545F44 
 11674      4154415F 
 11675              	.LASF691:
 11676 2813 43595F42 		.ascii	"CY_BLE_EVT_GATTS_EXEC_WRITE_REQ\000"
 11676      4C455F45 
 11676      56545F47 
 11676      41545453 
 11676      5F455845 
 11677              	.LASF240:
 11678 2833 54585F46 		.ascii	"TX_FIFO_STATUS\000"
 11678      49464F5F 
 11678      53544154 
 11678      555300
 11679              	.LASF571:
 11680 2842 5F736565 		.ascii	"_seed\000"
 11680      6400
 11681              	.LASF262:
 11682 2848 494E5452 		.ascii	"INTR_SPI_EC\000"
 11682      5F535049 
 11682      5F454300 
 11683              	.LASF95:
 11684 2854 63707573 		.ascii	"cpuss_interrupts_dw0_6_IRQn\000"
 11684      735F696E 
 11684      74657272 
 11684      75707473 
 11684      5F647730 
 11685              	.LASF534:
 11686 2870 5F736565 		.ascii	"_seek\000"
 11686      6B00
 11687              	.LASF487:
 11688 2876 74784C65 		.ascii	"txLeftToTransmit\000"
 11688      6674546F 
 11688      5472616E 
 11688      736D6974 
 11688      00
 11689              	.LASF316:
 11690 2887 73727373 		.ascii	"srssNumPll\000"
ARM GAS  C:\Users\ASUS\AppData\Local\Temp\ccarWmgw.s 			page 276


 11690      4E756D50 
 11690      6C6C00
 11691              	.LASF138:
 11692 2892 74637077 		.ascii	"tcpwm_1_interrupts_1_IRQn\000"
 11692      6D5F315F 
 11692      696E7465 
 11692      72727570 
 11692      74735F31 
 11693              	.LASF69:
 11694 28ac 63707573 		.ascii	"cpuss_interrupts_ipc_5_IRQn\000"
 11694      735F696E 
 11694      74657272 
 11694      75707473 
 11694      5F697063 
 11695              	.LASF846:
 11696 28c8 5F5F6275 		.ascii	"__builtin_puts\000"
 11696      696C7469 
 11696      6E5F7075 
 11696      747300
 11697              	.LASF45:
 11698 28d7 696F7373 		.ascii	"ioss_interrupts_gpio_6_IRQn\000"
 11698      5F696E74 
 11698      65727275 
 11698      7074735F 
 11698      6770696F 
 11699              	.LASF21:
 11700 28f3 4E766963 		.ascii	"NvicMux15_IRQn\000"
 11700      4D757831 
 11700      355F4952 
 11700      516E00
 11701              	.LASF492:
 11702 2902 5F66706F 		.ascii	"_fpos_t\000"
 11702      735F7400 
 11703              	.LASF179:
 11704 290a 61756469 		.ascii	"audioss_interrupt_pdm_IRQn\000"
 11704      6F73735F 
 11704      696E7465 
 11704      72727570 
 11704      745F7064 
 11705              	.LASF349:
 11706 2925 70657269 		.ascii	"periDivCmdPaTypeSelPos\000"
 11706      44697643 
 11706      6D645061 
 11706      54797065 
 11706      53656C50 
 11707              	.LASF495:
 11708 293c 5F5F7763 		.ascii	"__wchb\000"
 11708      686200
 11709              	.LASF302:
 11710 2943 666C6173 		.ascii	"flashcVersion\000"
 11710      68635665 
 11710      7273696F 
 11710      6E00
 11711              	.LASF616:
 11712 2951 43595F42 		.ascii	"CY_BLE_EVT_SET_RPA_ENABLE_COMPLETE\000"
 11712      4C455F45 
 11712      56545F53 
ARM GAS  C:\Users\ASUS\AppData\Local\Temp\ccarWmgw.s 			page 277


 11712      45545F52 
 11712      50415F45 
 11713              	.LASF368:
 11714 2974 63707573 		.ascii	"cpussCm4NmiCtlOffset\000"
 11714      73436D34 
 11714      4E6D6943 
 11714      746C4F66 
 11714      66736574 
 11715              	.LASF822:
 11716 2989 43795F53 		.ascii	"Cy_SCB_I2C_MasterSendReStart\000"
 11716      43425F49 
 11716      32435F4D 
 11716      61737465 
 11716      7253656E 
 11717              	.LASF391:
 11718 29a6 43595F52 		.ascii	"CY_RTC_INVALID_STATE\000"
 11718      54435F49 
 11718      4E56414C 
 11718      49445F53 
 11718      54415445 
 11719              	.LASF367:
 11720 29bb 63707573 		.ascii	"cpussCm0NmiCtlOffset\000"
 11720      73436D30 
 11720      4E6D6943 
 11720      746C4F66 
 11720      66736574 
 11721              	.LASF660:
 11722 29d0 43595F42 		.ascii	"CY_BLE_EVT_GAP_KEYINFO_EXCHNGE_CMPLT\000"
 11722      4C455F45 
 11722      56545F47 
 11722      41505F4B 
 11722      4559494E 
 11723              	.LASF218:
 11724 29f5 4E564943 		.ascii	"NVIC_Type\000"
 11724      5F547970 
 11724      6500
 11725              	.LASF333:
 11726 29ff 666C6173 		.ascii	"flashCtlMainWs2Freq\000"
 11726      6843746C 
 11726      4D61696E 
 11726      57733246 
 11726      72657100 
 11727              	.LASF175:
 11728 2a13 7564625F 		.ascii	"udb_interrupts_14_IRQn\000"
 11728      696E7465 
 11728      72727570 
 11728      74735F31 
 11728      345F4952 
 11729              	.LASF144:
 11730 2a2a 74637077 		.ascii	"tcpwm_1_interrupts_7_IRQn\000"
 11730      6D5F315F 
 11730      696E7465 
 11730      72727570 
 11730      74735F37 
 11731              	.LASF827:
 11732 2a44 43795F52 		.ascii	"Cy_RTC_SetAlarmDateAndTime\000"
 11732      54435F53 
ARM GAS  C:\Users\ASUS\AppData\Local\Temp\ccarWmgw.s 			page 278


 11732      6574416C 
 11732      61726D44 
 11732      61746541 
 11733              	.LASF658:
 11734 2a5f 43595F42 		.ascii	"CY_BLE_EVT_GAP_CONNECTION_UPDATE_COMPLETE\000"
 11734      4C455F45 
 11734      56545F47 
 11734      41505F43 
 11734      4F4E4E45 
 11735              	.LASF453:
 11736 2a89 75736554 		.ascii	"useTxFifo\000"
 11736      78466966 
 11736      6F00
 11737              	.LASF842:
 11738 2a93 626C6549 		.ascii	"bleInterruptNotify\000"
 11738      6E746572 
 11738      72757074 
 11738      4E6F7469 
 11738      667900
 11739              	.LASF376:
 11740 2aa6 63686172 		.ascii	"char_t\000"
 11740      5F7400
 11741              	.LASF705:
 11742 2aad 43595F42 		.ascii	"CY_BLE_EVT_L2CAP_CBFC_DISCONN_IND\000"
 11742      4C455F45 
 11742      56545F4C 
 11742      32434150 
 11742      5F434246 
 11743              	.LASF651:
 11744 2acf 43595F42 		.ascii	"CY_BLE_EVT_GAP_PASSKEY_DISPLAY_REQUEST\000"
 11744      4C455F45 
 11744      56545F47 
 11744      41505F50 
 11744      4153534B 
 11745              	.LASF201:
 11746 2af6 6C6F6E67 		.ascii	"long long unsigned int\000"
 11746      206C6F6E 
 11746      6720756E 
 11746      7369676E 
 11746      65642069 
 11747              	.LASF421:
 11748 2b0d 6461794F 		.ascii	"dayOfWeekEn\000"
 11748      66576565 
 11748      6B456E00 
 11749              	.LASF620:
 11750 2b19 43595F42 		.ascii	"CY_BLE_EVT_ADD_DEVICE_TO_WHITE_LIST_COMPLETE\000"
 11750      4C455F45 
 11750      56545F41 
 11750      44445F44 
 11750      45564943 
 11751              	.LASF115:
 11752 2b46 63707573 		.ascii	"cpuss_interrupts_dw1_10_IRQn\000"
 11752      735F696E 
 11752      74657272 
 11752      75707473 
 11752      5F647731 
 11753              	.LASF608:
ARM GAS  C:\Users\ASUS\AppData\Local\Temp\ccarWmgw.s 			page 279


 11754 2b63 43595F42 		.ascii	"CY_BLE_EVT_LE_PING_AUTH_TIMEOUT\000"
 11754      4C455F45 
 11754      56545F4C 
 11754      455F5049 
 11754      4E475F41 
 11755              	.LASF205:
 11756 2b83 75696E74 		.ascii	"uint16_t\000"
 11756      31365F74 
 11756      00
 11757              	.LASF583:
 11758 2b8c 5F776374 		.ascii	"_wctomb_state\000"
 11758      6F6D625F 
 11758      73746174 
 11758      6500
 11759              	.LASF638:
 11760 2b9a 43595F42 		.ascii	"CY_BLE_EVT_AES_CCM_ENCRYPT_COMPLETE\000"
 11760      4C455F45 
 11760      56545F41 
 11760      45535F43 
 11760      434D5F45 
 11761              	.LASF518:
 11762 2bbe 5F64736F 		.ascii	"_dso_handle\000"
 11762      5F68616E 
 11762      646C6500 
 11763              	.LASF409:
 11764 2bca 616D506D 		.ascii	"amPm\000"
 11764      00
 11765              	.LASF239:
 11766 2bcf 54585F46 		.ascii	"TX_FIFO_CTRL\000"
 11766      49464F5F 
 11766      4354524C 
 11766      00
 11767              	.LASF669:
 11768 2bdc 43595F42 		.ascii	"CY_BLE_EVT_GAP_RESOLVE_DEVICE_COMPLETE\000"
 11768      4C455F45 
 11768      56545F47 
 11768      41505F52 
 11768      45534F4C 
 11769              	.LASF101:
 11770 2c03 63707573 		.ascii	"cpuss_interrupts_dw0_12_IRQn\000"
 11770      735F696E 
 11770      74657272 
 11770      75707473 
 11770      5F647730 
 11771              	.LASF679:
 11772 2c20 43595F42 		.ascii	"CY_BLE_EVT_GATTC_XCHNG_MTU_RSP\000"
 11772      4C455F45 
 11772      56545F47 
 11772      41545443 
 11772      5F584348 
 11773              	.LASF254:
 11774 2c3f 52455345 		.ascii	"RESERVED10\000"
 11774      52564544 
 11774      313000
 11775              	.LASF0:
 11776 2c4a 52657365 		.ascii	"Reset_IRQn\000"
 11776      745F4952 
ARM GAS  C:\Users\ASUS\AppData\Local\Temp\ccarWmgw.s 			page 280


 11776      516E00
 11777              	.LASF258:
 11778 2c55 52455345 		.ascii	"RESERVED12\000"
 11778      52564544 
 11778      313200
 11779              	.LASF261:
 11780 2c60 52455345 		.ascii	"RESERVED13\000"
 11780      52564544 
 11780      313300
 11781              	.LASF263:
 11782 2c6b 52455345 		.ascii	"RESERVED14\000"
 11782      52564544 
 11782      313400
 11783              	.LASF266:
 11784 2c76 52455345 		.ascii	"RESERVED15\000"
 11784      52564544 
 11784      313500
 11785              	.LASF613:
 11786 2c81 43595F42 		.ascii	"CY_BLE_EVT_GET_PEER_RPA_COMPLETE\000"
 11786      4C455F45 
 11786      56545F47 
 11786      45545F50 
 11786      4545525F 
 11787              	.LASF276:
 11788 2ca2 52455345 		.ascii	"RESERVED17\000"
 11788      52564544 
 11788      313700
 11789              	.LASF286:
 11790 2cad 43795343 		.ascii	"CySCB_V1_Type\000"
 11790      425F5631 
 11790      5F547970 
 11790      6500
 11791              	.LASF650:
 11792 2cbb 43595F42 		.ascii	"CY_BLE_EVT_GAP_PASSKEY_ENTRY_REQUEST\000"
 11792      4C455F45 
 11792      56545F47 
 11792      41505F50 
 11792      4153534B 
 11793              	.LASF31:
 11794 2ce0 4E766963 		.ascii	"NvicMux25_IRQn\000"
 11794      4D757832 
 11794      355F4952 
 11794      516E00
 11795              	.LASF538:
 11796 2cef 5F626C6B 		.ascii	"_blksize\000"
 11796      73697A65 
 11796      00
 11797              	.LASF278:
 11798 2cf8 494E5452 		.ascii	"INTR_TX_SET\000"
 11798      5F54585F 
 11798      53455400 
 11799              	.LASF81:
 11800 2d04 7363625F 		.ascii	"scb_1_interrupt_IRQn\000"
 11800      315F696E 
 11800      74657272 
 11800      7570745F 
 11800      4952516E 
ARM GAS  C:\Users\ASUS\AppData\Local\Temp\ccarWmgw.s 			page 281


 11801              	.LASF741:
 11802 2d19 63795F65 		.ascii	"cy_en_ble_conn_state_t\000"
 11802      6E5F626C 
 11802      655F636F 
 11802      6E6E5F73 
 11802      74617465 
 11803              	.LASF94:
 11804 2d30 63707573 		.ascii	"cpuss_interrupts_dw0_5_IRQn\000"
 11804      735F696E 
 11804      74657272 
 11804      75707473 
 11804      5F647730 
 11805              	.LASF485:
 11806 2d4c 74784275 		.ascii	"txBuf\000"
 11806      6600
 11807              	.LASF674:
 11808 2d52 43595F42 		.ascii	"CY_BLE_EVT_GAP_ADV_TX\000"
 11808      4C455F45 
 11808      56545F47 
 11808      41505F41 
 11808      44565F54 
 11809              	.LASF438:
 11810 2d68 43595F53 		.ascii	"CY_SCB_I2C_MASTER_MANUAL_NAK\000"
 11810      43425F49 
 11810      32435F4D 
 11810      41535445 
 11810      525F4D41 
 11811              	.LASF668:
 11812 2d85 43595F42 		.ascii	"CY_BLE_EVT_GAP_KEYS_GEN_COMPLETE\000"
 11812      4C455F45 
 11812      56545F47 
 11812      41505F4B 
 11812      4559535F 
 11813              	.LASF525:
 11814 2da6 5F626173 		.ascii	"_base\000"
 11814      6500
 11815              	.LASF222:
 11816 2dac 434D445F 		.ascii	"CMD_RESP_STATUS\000"
 11816      52455350 
 11816      5F535441 
 11816      54555300 
 11817              	.LASF731:
 11818 2dbc 43595F42 		.ascii	"CY_BLE_ADV_STATE_STOP_INITIATED\000"
 11818      4C455F41 
 11818      44565F53 
 11818      54415445 
 11818      5F53544F 
 11819              	.LASF169:
 11820 2ddc 7564625F 		.ascii	"udb_interrupts_8_IRQn\000"
 11820      696E7465 
 11820      72727570 
 11820      74735F38 
 11820      5F495251 
 11821              	.LASF839:
 11822 2df2 63795F65 		.ascii	"cy_en_rtc_alarm\000"
 11822      6E5F7274 
 11822      635F616C 
ARM GAS  C:\Users\ASUS\AppData\Local\Temp\ccarWmgw.s 			page 282


 11822      61726D00 
 11823              	.LASF597:
 11824 2e02 43595F42 		.ascii	"CY_BLE_EVT_STACK_ON\000"
 11824      4C455F45 
 11824      56545F53 
 11824      5441434B 
 11824      5F4F4E00 
 11825              	.LASF575:
 11826 2e16 5F737472 		.ascii	"_strtok_last\000"
 11826      746F6B5F 
 11826      6C617374 
 11826      00
 11827              	.LASF710:
 11828 2e23 43595F42 		.ascii	"CY_BLE_EVT_L2CAP_CBFC_DATA_WRITE_IND\000"
 11828      4C455F45 
 11828      56545F4C 
 11828      32434150 
 11828      5F434246 
 11829              	.LASF77:
 11830 2e48 63707573 		.ascii	"cpuss_interrupts_ipc_13_IRQn\000"
 11830      735F696E 
 11830      74657272 
 11830      75707473 
 11830      5F697063 
 11831              	.LASF588:
 11832 2e65 5F6D6272 		.ascii	"_mbrtowc_state\000"
 11832      746F7763 
 11832      5F737461 
 11832      746500
 11833              	.LASF206:
 11834 2e74 696E7433 		.ascii	"int32_t\000"
 11834      325F7400 
 11835              	.LASF310:
 11836 2e7c 63707573 		.ascii	"cpussDwChNr\000"
 11836      73447743 
 11836      684E7200 
 11837              	.LASF353:
 11838 2e88 70657269 		.ascii	"periDiv24_5CtlOffset\000"
 11838      44697632 
 11838      345F3543 
 11838      746C4F66 
 11838      66736574 
 11839              	.LASF210:
 11840 2e9d 49434552 		.ascii	"ICER\000"
 11840      00
 11841              	.LASF370:
 11842 2ea2 63707573 		.ascii	"cpussRam0Ctl0\000"
 11842      7352616D 
 11842      3043746C 
 11842      3000
 11843              	.LASF499:
 11844 2eb0 5F666C6F 		.ascii	"_flock_t\000"
 11844      636B5F74 
 11844      00
 11845              	.LASF125:
 11846 2eb9 63707573 		.ascii	"cpuss_interrupts_cm0_cti_0_IRQn\000"
 11846      735F696E 
ARM GAS  C:\Users\ASUS\AppData\Local\Temp\ccarWmgw.s 			page 283


 11846      74657272 
 11846      75707473 
 11846      5F636D30 
 11847              	.LASF109:
 11848 2ed9 63707573 		.ascii	"cpuss_interrupts_dw1_4_IRQn\000"
 11848      735F696E 
 11848      74657272 
 11848      75707473 
 11848      5F647731 
 11849              	.LASF566:
 11850 2ef5 5F5F4649 		.ascii	"__FILE\000"
 11850      4C4500
 11851              	.LASF121:
 11852 2efc 63707573 		.ascii	"cpuss_interrupts_fault_0_IRQn\000"
 11852      735F696E 
 11852      74657272 
 11852      75707473 
 11852      5F666175 
 11853              	.LASF722:
 11854 2f1a 636F6E6E 		.ascii	"connHandle\000"
 11854      48616E64 
 11854      6C6500
 11855              	.LASF437:
 11856 2f25 43595F53 		.ascii	"CY_SCB_I2C_MASTER_MANUAL_ADDR_NAK\000"
 11856      43425F49 
 11856      32435F4D 
 11856      41535445 
 11856      525F4D41 
 11857              	.LASF498:
 11858 2f47 5F6D6273 		.ascii	"_mbstate_t\000"
 11858      74617465 
 11858      5F7400
 11859              	.LASF774:
 11860 2f52 74656D70 		.ascii	"temperature\000"
 11860      65726174 
 11860      75726500 
 11861              	.LASF666:
 11862 2f5e 43595F42 		.ascii	"CY_BLE_EVT_GAP_SMP_NEGOTIATED_AUTH_INFO\000"
 11862      4C455F45 
 11862      56545F47 
 11862      41505F53 
 11862      4D505F4E 
 11863              	.LASF132:
 11864 2f86 74637077 		.ascii	"tcpwm_0_interrupts_3_IRQn\000"
 11864      6D5F305F 
 11864      696E7465 
 11864      72727570 
 11864      74735F33 
 11865              	.LASF789:
 11866 2fa0 52746349 		.ascii	"RtcInit\000"
 11866      6E697400 
 11867              	.LASF779:
 11868 2fa8 6163634D 		.ascii	"accMeasure\000"
 11868      65617375 
 11868      726500
 11869              	.LASF580:
 11870 2fb3 5F723438 		.ascii	"_r48\000"
ARM GAS  C:\Users\ASUS\AppData\Local\Temp\ccarWmgw.s 			page 284


 11870      00
 11871              	.LASF123:
 11872 2fb8 63707573 		.ascii	"cpuss_interrupt_crypto_IRQn\000"
 11872      735F696E 
 11872      74657272 
 11872      7570745F 
 11872      63727970 
 11873              	.LASF820:
 11874 2fd4 43795F53 		.ascii	"Cy_SCB_I2C_MasterSendStart\000"
 11874      43425F49 
 11874      32435F4D 
 11874      61737465 
 11874      7253656E 
 11875              	.LASF793:
 11876 2fef 696E6974 		.ascii	"init_RTC\000"
 11876      5F525443 
 11876      00
 11877              	.LASF493:
 11878 2ff8 77696E74 		.ascii	"wint_t\000"
 11878      5F7400
 11879              	.LASF220:
 11880 2fff 53544154 		.ascii	"STATUS\000"
 11880      555300
 11881              	.LASF346:
 11882 3006 70657269 		.ascii	"periDivCmdDivSelMsk\000"
 11882      44697643 
 11882      6D644469 
 11882      7653656C 
 11882      4D736B00 
 11883              	.LASF701:
 11884 301a 43595F42 		.ascii	"CY_BLE_EVT_L2CAP_CONN_PARAM_UPDATE_RSP\000"
 11884      4C455F45 
 11884      56545F4C 
 11884      32434150 
 11884      5F434F4E 
 11885              	.LASF260:
 11886 3041 494E5452 		.ascii	"INTR_I2C_EC_MASKED\000"
 11886      5F493243 
 11886      5F45435F 
 11886      4D41534B 
 11886      454400
 11887              	.LASF301:
 11888 3054 64775665 		.ascii	"dwVersion\000"
 11888      7273696F 
 11888      6E00
 11889              	.LASF502:
 11890 305e 5F6E6578 		.ascii	"_next\000"
 11890      7400
 11891              	.LASF444:
 11892 3064 43595F53 		.ascii	"CY_SCB_I2C_READ_XFER\000"
 11892      43425F49 
 11892      32435F52 
 11892      4541445F 
 11892      58464552 
 11893              	.LASF540:
 11894 3079 5F646174 		.ascii	"_data\000"
 11894      6100
ARM GAS  C:\Users\ASUS\AppData\Local\Temp\ccarWmgw.s 			page 285


 11895              	.LASF378:
 11896 307f 666C6F61 		.ascii	"float\000"
 11896      7400
 11897              	.LASF685:
 11898 3085 43595F42 		.ascii	"CY_BLE_EVT_GATTC_READ_BLOB_RSP\000"
 11898      4C455F45 
 11898      56545F47 
 11898      41545443 
 11898      5F524541 
 11899              	.LASF178:
 11900 30a4 61756469 		.ascii	"audioss_interrupt_i2s_IRQn\000"
 11900      6F73735F 
 11900      696E7465 
 11900      72727570 
 11900      745F6932 
 11901              	.LASF295:
 11902 30bf 6770696F 		.ascii	"gpioBase\000"
 11902      42617365 
 11902      00
 11903              	.LASF129:
 11904 30c8 74637077 		.ascii	"tcpwm_0_interrupts_0_IRQn\000"
 11904      6D5F305F 
 11904      696E7465 
 11904      72727570 
 11904      74735F30 
 11905              	.LASF162:
 11906 30e2 7564625F 		.ascii	"udb_interrupts_1_IRQn\000"
 11906      696E7465 
 11906      72727570 
 11906      74735F31 
 11906      5F495251 
 11907              	.LASF146:
 11908 30f8 74637077 		.ascii	"tcpwm_1_interrupts_9_IRQn\000"
 11908      6D5F315F 
 11908      696E7465 
 11908      72727570 
 11908      74735F39 
 11909              	.LASF274:
 11910 3112 494E5452 		.ascii	"INTR_S_MASK\000"
 11910      5F535F4D 
 11910      41534B00 
 11911              	.LASF383:
 11912 311e 696E7472 		.ascii	"intrPriority\000"
 11912      5072696F 
 11912      72697479 
 11912      00
 11913              	.LASF323:
 11914 312b 73797350 		.ascii	"sysPmSimoPresent\000"
 11914      6D53696D 
 11914      6F507265 
 11914      73656E74 
 11914      00
 11915              	.LASF698:
 11916 313c 43595F42 		.ascii	"CY_BLE_EVT_GATTS_READ_CHAR_VAL_ACCESS_REQ\000"
 11916      4C455F45 
 11916      56545F47 
 11916      41545453 
ARM GAS  C:\Users\ASUS\AppData\Local\Temp\ccarWmgw.s 			page 286


 11916      5F524541 
 11917              	.LASF413:
 11918 3166 6D6F6E74 		.ascii	"month\000"
 11918      6800
 11919              	.LASF268:
 11920 316c 494E5452 		.ascii	"INTR_M_SET\000"
 11920      5F4D5F53 
 11920      455400
 11921              	.LASF265:
 11922 3177 494E5452 		.ascii	"INTR_SPI_EC_MASKED\000"
 11922      5F535049 
 11922      5F45435F 
 11922      4D41534B 
 11922      454400
 11923              	.LASF30:
 11924 318a 4E766963 		.ascii	"NvicMux24_IRQn\000"
 11924      4D757832 
 11924      345F4952 
 11924      516E00
 11925              	.LASF285:
 11926 3199 494E5452 		.ascii	"INTR_RX_MASKED\000"
 11926      5F52585F 
 11926      4D41534B 
 11926      454400
 11927              	.LASF797:
 11928 31a8 63795F64 		.ascii	"cy_device\000"
 11928      65766963 
 11928      6500
 11929              	.LASF758:
 11930 31b2 62726F61 		.ascii	"broadcastBLE\000"
 11930      64636173 
 11930      74424C45 
 11930      00
 11931              	.LASF714:
 11932 31bf 63795F73 		.ascii	"cy_stc_ble_conn_handle_t\000"
 11932      74635F62 
 11932      6C655F63 
 11932      6F6E6E5F 
 11932      68616E64 
 11933              	.LASF748:
 11934 31d8 4932435F 		.ascii	"I2C_MasterSendReStart\000"
 11934      4D617374 
 11934      65725365 
 11934      6E645265 
 11934      53746172 
 11935              	.LASF654:
 11936 31ee 43595F42 		.ascii	"CY_BLE_EVT_GAPP_ADVERTISEMENT_START_STOP\000"
 11936      4C455F45 
 11936      56545F47 
 11936      4150505F 
 11936      41445645 
 11937              	.LASF477:
 11938 3217 72785374 		.ascii	"rxStatus\000"
 11938      61747573 
 11938      00
 11939              	.LASF137:
 11940 3220 74637077 		.ascii	"tcpwm_1_interrupts_0_IRQn\000"
ARM GAS  C:\Users\ASUS\AppData\Local\Temp\ccarWmgw.s 			page 287


 11940      6D5F315F 
 11940      696E7465 
 11940      72727570 
 11940      74735F30 
 11941              	.LASF458:
 11942 323a 6D617374 		.ascii	"masterBuffer\000"
 11942      65724275 
 11942      66666572 
 11942      00
 11943              	.LASF472:
 11944 3247 63624164 		.ascii	"cbAddr\000"
 11944      647200
 11945              	.LASF76:
 11946 324e 63707573 		.ascii	"cpuss_interrupts_ipc_12_IRQn\000"
 11946      735F696E 
 11946      74657272 
 11946      75707473 
 11946      5F697063 
 11947              	.LASF91:
 11948 326b 63707573 		.ascii	"cpuss_interrupts_dw0_2_IRQn\000"
 11948      735F696E 
 11948      74657272 
 11948      75707473 
 11948      5F647730 
 11949              	.LASF735:
 11950 3287 43595F42 		.ascii	"CY_BLE_CONN_STATE_CONNECTED\000"
 11950      4C455F43 
 11950      4F4E4E5F 
 11950      53544154 
 11950      455F434F 
 11951              	.LASF250:
 11952 32a3 52585F46 		.ascii	"RX_FIFO_RD\000"
 11952      49464F5F 
 11952      524400
 11953              	.LASF778:
 11954 32ae 61636349 		.ascii	"accI2CWrite\000"
 11954      32435772 
 11954      69746500 
 11955              	.LASF86:
 11956 32ba 7363625F 		.ascii	"scb_6_interrupt_IRQn\000"
 11956      365F696E 
 11956      74657272 
 11956      7570745F 
 11956      4952516E 
 11957              	.LASF154:
 11958 32cf 74637077 		.ascii	"tcpwm_1_interrupts_17_IRQn\000"
 11958      6D5F315F 
 11958      696E7465 
 11958      72727570 
 11958      74735F31 
 11959              	.LASF605:
 11960 32ea 43595F42 		.ascii	"CY_BLE_EVT_READ_AUTH_PAYLOAD_TO_COMPLETE\000"
 11960      4C455F45 
 11960      56545F52 
 11960      4541445F 
 11960      41555448 
 11961              	.LASF380:
ARM GAS  C:\Users\ASUS\AppData\Local\Temp\ccarWmgw.s 			page 288


 11962 3313 75696E74 		.ascii	"uint8\000"
 11962      3800
 11963              	.LASF307:
 11964 3319 70726F74 		.ascii	"protVersion\000"
 11964      56657273 
 11964      696F6E00 
 11965              	.LASF747:
 11966 3325 62797465 		.ascii	"byte\000"
 11966      00
 11967              	.LASF11:
 11968 332a 4E766963 		.ascii	"NvicMux5_IRQn\000"
 11968      4D757835 
 11968      5F495251 
 11968      6E00
 11969              	.LASF85:
 11970 3338 7363625F 		.ascii	"scb_5_interrupt_IRQn\000"
 11970      355F696E 
 11970      74657272 
 11970      7570745F 
 11970      4952516E 
 11971              	.LASF796:
 11972 334d 616C6172 		.ascii	"alarmFlag\000"
 11972      6D466C61 
 11972      6700
 11973              	.LASF488:
 11974 3357 696E6974 		.ascii	"initKey\000"
 11974      4B657900 
 11975              	.LASF581:
 11976 335f 5F6D626C 		.ascii	"_mblen_state\000"
 11976      656E5F73 
 11976      74617465 
 11976      00
 11977              	.LASF187:
 11978 336c 73686F72 		.ascii	"short int\000"
 11978      7420696E 
 11978      7400
 11979              	.LASF641:
 11980 3376 43595F42 		.ascii	"CY_BLE_EVT_STACK_SHUTDOWN_COMPLETE\000"
 11980      4C455F45 
 11980      56545F53 
 11980      5441434B 
 11980      5F534855 
 11981              	.LASF721:
 11982 3399 68616E64 		.ascii	"handleValPair\000"
 11982      6C655661 
 11982      6C506169 
 11982      7200
 11983              	.LASF632:
 11984 33a7 43595F42 		.ascii	"CY_BLE_EVT_GET_TX_PWR_COMPLETE\000"
 11984      4C455F45 
 11984      56545F47 
 11984      45545F54 
 11984      585F5057 
 11985              	.LASF761:
 11986 33c6 73657276 		.ascii	"serviceData\000"
 11986      69636544 
 11986      61746100 
ARM GAS  C:\Users\ASUS\AppData\Local\Temp\ccarWmgw.s 			page 289


 11987              	.LASF108:
 11988 33d2 63707573 		.ascii	"cpuss_interrupts_dw1_3_IRQn\000"
 11988      735F696E 
 11988      74657272 
 11988      75707473 
 11988      5F647731 
 11989              	.LASF56:
 11990 33ee 6C70636F 		.ascii	"lpcomp_interrupt_IRQn\000"
 11990      6D705F69 
 11990      6E746572 
 11990      72757074 
 11990      5F495251 
 11991              	.LASF62:
 11992 3404 70617373 		.ascii	"pass_interrupt_ctbs_IRQn\000"
 11992      5F696E74 
 11992      65727275 
 11992      70745F63 
 11992      7462735F 
 11993              	.LASF257:
 11994 341d 494E5452 		.ascii	"INTR_I2C_EC\000"
 11994      5F493243 
 11994      5F454300 
 11995              	.LASF204:
 11996 3429 696E7431 		.ascii	"int16_t\000"
 11996      365F7400 
 11997              	.LASF57:
 11998 3431 7363625F 		.ascii	"scb_8_interrupt_IRQn\000"
 11998      385F696E 
 11998      74657272 
 11998      7570745F 
 11998      4952516E 
 11999              	.LASF18:
 12000 3446 4E766963 		.ascii	"NvicMux12_IRQn\000"
 12000      4D757831 
 12000      325F4952 
 12000      516E00
 12001              	.LASF72:
 12002 3455 63707573 		.ascii	"cpuss_interrupts_ipc_8_IRQn\000"
 12002      735F696E 
 12002      74657272 
 12002      75707473 
 12002      5F697063 
 12003              	.LASF332:
 12004 3471 666C6173 		.ascii	"flashCtlMainWs1Freq\000"
 12004      6843746C 
 12004      4D61696E 
 12004      57733146 
 12004      72657100 
 12005              	.LASF48:
 12006 3485 696F7373 		.ascii	"ioss_interrupts_gpio_9_IRQn\000"
 12006      5F696E74 
 12006      65727275 
 12006      7074735F 
 12006      6770696F 
 12007              	.LASF24:
 12008 34a1 4E766963 		.ascii	"NvicMux18_IRQn\000"
 12008      4D757831 
ARM GAS  C:\Users\ASUS\AppData\Local\Temp\ccarWmgw.s 			page 290


 12008      385F4952 
 12008      516E00
 12009              	.LASF245:
 12010 34b0 52585F46 		.ascii	"RX_FIFO_CTRL\000"
 12010      49464F5F 
 12010      4354524C 
 12010      00
 12011              	.LASF128:
 12012 34bd 63707573 		.ascii	"cpuss_interrupts_cm4_cti_1_IRQn\000"
 12012      735F696E 
 12012      74657272 
 12012      75707473 
 12012      5F636D34 
 12013              	.LASF512:
 12014 34dd 5F5F746D 		.ascii	"__tm_year\000"
 12014      5F796561 
 12014      7200
 12015              	.LASF807:
 12016 34e7 4932435F 		.ascii	"I2C_context\000"
 12016      636F6E74 
 12016      65787400 
 12017              	.LASF273:
 12018 34f3 494E5452 		.ascii	"INTR_S_SET\000"
 12018      5F535F53 
 12018      455400
 12019              	.LASF655:
 12020 34fe 43595F42 		.ascii	"CY_BLE_EVT_GAP_DEVICE_CONNECTED\000"
 12020      4C455F45 
 12020      56545F47 
 12020      41505F44 
 12020      45564943 
 12021              	.LASF436:
 12022 351e 43595F53 		.ascii	"CY_SCB_I2C_MASTER_MANUAL_TIMEOUT\000"
 12022      43425F49 
 12022      32435F4D 
 12022      41535445 
 12022      525F4D41 
 12023              	.LASF643:
 12024 353f 43595F42 		.ascii	"CY_BLE_EVT_RADIO_VOLTAGE_LEVEL\000"
 12024      4C455F45 
 12024      56545F52 
 12024      4144494F 
 12024      5F564F4C 
 12025              	.LASF460:
 12026 355e 6D617374 		.ascii	"masterBufferIdx\000"
 12026      65724275 
 12026      66666572 
 12026      49647800 
 12027              	.LASF556:
 12028 356e 5F726573 		.ascii	"_result_k\000"
 12028      756C745F 
 12028      6B00
 12029              	.LASF803:
 12030 3578 63795F62 		.ascii	"cy_ble_connState\000"
 12030      6C655F63 
 12030      6F6E6E53 
 12030      74617465 
ARM GAS  C:\Users\ASUS\AppData\Local\Temp\ccarWmgw.s 			page 291


 12030      00
 12031              	.LASF49:
 12032 3589 696F7373 		.ascii	"ioss_interrupts_gpio_10_IRQn\000"
 12032      5F696E74 
 12032      65727275 
 12032      7074735F 
 12032      6770696F 
 12033              	.LASF432:
 12034 35a6 63795F73 		.ascii	"cy_stc_rtc_dst_t\000"
 12034      74635F72 
 12034      74635F64 
 12034      73745F74 
 12034      00
 12035              	.LASF455:
 12036 35b7 6D617374 		.ascii	"masterStatus\000"
 12036      65725374 
 12036      61747573 
 12036      00
 12037              	.LASF329:
 12038 35c4 666C6173 		.ascii	"flashProgramDelay\000"
 12038      6850726F 
 12038      6772616D 
 12038      44656C61 
 12038      7900
 12039              	.LASF61:
 12040 35d6 73727373 		.ascii	"srss_interrupt_IRQn\000"
 12040      5F696E74 
 12040      65727275 
 12040      70745F49 
 12040      52516E00 
 12041              	.LASF404:
 12042 35ea 63795F65 		.ascii	"cy_en_rtc_am_pm_t\000"
 12042      6E5F7274 
 12042      635F616D 
 12042      5F706D5F 
 12042      7400
 12043              	.LASF408:
 12044 35fc 686F7572 		.ascii	"hour\000"
 12044      00
 12045              	.LASF401:
 12046 3601 63795F65 		.ascii	"cy_en_rtc_dst_format_t\000"
 12046      6E5F7274 
 12046      635F6473 
 12046      745F666F 
 12046      726D6174 
 12047              	.LASF118:
 12048 3618 63707573 		.ascii	"cpuss_interrupts_dw1_13_IRQn\000"
 12048      735F696E 
 12048      74657272 
 12048      75707473 
 12048      5F647731 
 12049              	.LASF428:
 12050 3635 7765656B 		.ascii	"weekOfMonth\000"
 12050      4F664D6F 
 12050      6E746800 
 12051              	.LASF835:
 12052 3641 43795F53 		.ascii	"Cy_SysPm_CpuEnterDeepSleep\000"
ARM GAS  C:\Users\ASUS\AppData\Local\Temp\ccarWmgw.s 			page 292


 12052      7973506D 
 12052      5F437075 
 12052      456E7465 
 12052      72446565 
 12053              	.LASF530:
 12054 365c 5F6C6266 		.ascii	"_lbfsize\000"
 12054      73697A65 
 12054      00
 12055              	.LASF549:
 12056 3665 5F696E63 		.ascii	"_inc\000"
 12056      00
 12057              	.LASF522:
 12058 366a 5F696E64 		.ascii	"_ind\000"
 12058      00
 12059              	.LASF303:
 12060 366f 6770696F 		.ascii	"gpioVersion\000"
 12060      56657273 
 12060      696F6E00 
 12061              	.LASF358:
 12062 367b 6770696F 		.ascii	"gpioPrtCfgSioOffset\000"
 12062      50727443 
 12062      66675369 
 12062      6F4F6666 
 12062      73657400 
 12063              	.LASF10:
 12064 368f 4E766963 		.ascii	"NvicMux4_IRQn\000"
 12064      4D757834 
 12064      5F495251 
 12064      6E00
 12065              	.LASF104:
 12066 369d 63707573 		.ascii	"cpuss_interrupts_dw0_15_IRQn\000"
 12066      735F696E 
 12066      74657272 
 12066      75707473 
 12066      5F647730 
 12067              	.LASF65:
 12068 36ba 63707573 		.ascii	"cpuss_interrupts_ipc_1_IRQn\000"
 12068      735F696E 
 12068      74657272 
 12068      75707473 
 12068      5F697063 
 12069              	.LASF133:
 12070 36d6 74637077 		.ascii	"tcpwm_0_interrupts_4_IRQn\000"
 12070      6D5F305F 
 12070      696E7465 
 12070      72727570 
 12070      74735F34 
 12071              	.LASF801:
 12072 36f0 63795F62 		.ascii	"cy_ble_advState\000"
 12072      6C655F61 
 12072      64765374 
 12072      61746500 
 12073              	.LASF155:
 12074 3700 74637077 		.ascii	"tcpwm_1_interrupts_18_IRQn\000"
 12074      6D5F315F 
 12074      696E7465 
 12074      72727570 
ARM GAS  C:\Users\ASUS\AppData\Local\Temp\ccarWmgw.s 			page 293


 12074      74735F31 
 12075              	.LASF593:
 12076 371b 5F6E6578 		.ascii	"_nextf\000"
 12076      746600
 12077              	.LASF841:
 12078 3722 5F5F656E 		.ascii	"__enable_irq\000"
 12078      61626C65 
 12078      5F697271 
 12078      00
 12079              	.LASF416:
 12080 372f 63795F73 		.ascii	"cy_stc_rtc_config\000"
 12080      74635F72 
 12080      74635F63 
 12080      6F6E6669 
 12080      6700
 12081              	.LASF810:
 12082 3741 5254435F 		.ascii	"RTC_config\000"
 12082      636F6E66 
 12082      696700
 12083              	.LASF190:
 12084 374c 63795F65 		.ascii	"cy_en_intr_t\000"
 12084      6E5F696E 
 12084      74725F74 
 12084      00
 12085              	.LASF644:
 12086 3759 43595F42 		.ascii	"CY_BLE_EVT_AES_CMAC_GEN_COMPLETE\000"
 12086      4C455F45 
 12086      56545F41 
 12086      45535F43 
 12086      4D41435F 
 12087              	.LASF792:
 12088 377a 52746341 		.ascii	"RtcAlarmConfig\000"
 12088      6C61726D 
 12088      436F6E66 
 12088      696700
 12089              	.LASF34:
 12090 3789 4E766963 		.ascii	"NvicMux28_IRQn\000"
 12090      4D757832 
 12090      385F4952 
 12090      516E00
 12091              	.LASF612:
 12092 3798 43595F42 		.ascii	"CY_BLE_EVT_DATA_LENGTH_CHANGE\000"
 12092      4C455F45 
 12092      56545F44 
 12092      4154415F 
 12092      4C454E47 
 12093              	.LASF97:
 12094 37b6 63707573 		.ascii	"cpuss_interrupts_dw0_8_IRQn\000"
 12094      735F696E 
 12094      74657272 
 12094      75707473 
 12094      5F647730 
 12095              	.LASF277:
 12096 37d2 494E5452 		.ascii	"INTR_TX\000"
 12096      5F545800 
 12097              	.LASF171:
 12098 37da 7564625F 		.ascii	"udb_interrupts_10_IRQn\000"
ARM GAS  C:\Users\ASUS\AppData\Local\Temp\ccarWmgw.s 			page 294


 12098      696E7465 
 12098      72727570 
 12098      74735F31 
 12098      305F4952 
 12099              	.LASF55:
 12100 37f1 696F7373 		.ascii	"ioss_interrupt_vdd_IRQn\000"
 12100      5F696E74 
 12100      65727275 
 12100      70745F76 
 12100      64645F49 
 12101              	.LASF500:
 12102 3809 5F5F554C 		.ascii	"__ULong\000"
 12102      6F6E6700 
 12103              	.LASF233:
 12104 3811 4932435F 		.ascii	"I2C_STATUS\000"
 12104      53544154 
 12104      555300
 12105              	.LASF630:
 12106 381c 43595F42 		.ascii	"CY_BLE_EVT_GET_DEVICE_ADDR_COMPLETE\000"
 12106      4C455F45 
 12106      56545F47 
 12106      45545F44 
 12106      45564943 
 12107              	.LASF464:
 12108 3840 736C6176 		.ascii	"slaveTxBuffer\000"
 12108      65547842 
 12108      75666665 
 12108      7200
 12109              	.LASF200:
 12110 384e 6C6F6E67 		.ascii	"long long int\000"
 12110      206C6F6E 
 12110      6720696E 
 12110      7400
 12111              	.LASF637:
 12112 385c 43595F42 		.ascii	"CY_BLE_EVT_AES_ENCRYPT_COMPLETE\000"
 12112      4C455F45 
 12112      56545F41 
 12112      45535F45 
 12112      4E435259 
 12113              	.LASF23:
 12114 387c 4E766963 		.ascii	"NvicMux17_IRQn\000"
 12114      4D757831 
 12114      375F4952 
 12114      516E00
 12115              	.LASF207:
 12116 388b 75696E74 		.ascii	"uint32_t\000"
 12116      33325F74 
 12116      00
 12117              	.LASF64:
 12118 3894 63707573 		.ascii	"cpuss_interrupts_ipc_0_IRQn\000"
 12118      735F696E 
 12118      74657272 
 12118      75707473 
 12118      5F697063 
 12119              	.LASF806:
 12120 38b0 55415254 		.ascii	"UART_context\000"
 12120      5F636F6E 
ARM GAS  C:\Users\ASUS\AppData\Local\Temp\ccarWmgw.s 			page 295


 12120      74657874 
 12120      00
 12121              	.LASF798:
 12122 38bd 63795F52 		.ascii	"cy_RTC_daysInMonthTbl\000"
 12122      54435F64 
 12122      61797349 
 12122      6E4D6F6E 
 12122      74685462 
 12123              	.LASF742:
 12124 38d3 63795F73 		.ascii	"cy_stc_ble_gatts_write_cmd_req_param_t\000"
 12124      74635F62 
 12124      6C655F67 
 12124      61747473 
 12124      5F777269 
 12125              	.LASF456:
 12126 38fa 6D617374 		.ascii	"masterPause\000"
 12126      65725061 
 12126      75736500 
 12127              	.LASF112:
 12128 3906 63707573 		.ascii	"cpuss_interrupts_dw1_7_IRQn\000"
 12128      735F696E 
 12128      74657272 
 12128      75707473 
 12128      5F647731 
 12129              	.LASF182:
 12130 3922 7573625F 		.ascii	"usb_interrupt_hi_IRQn\000"
 12130      696E7465 
 12130      72727570 
 12130      745F6869 
 12130      5F495251 
 12131              	.LASF457:
 12132 3938 6D617374 		.ascii	"masterRdDir\000"
 12132      65725264 
 12132      44697200 
 12133              	.LASF831:
 12134 3944 43795F53 		.ascii	"Cy_SysEnableCM4\000"
 12134      7973456E 
 12134      61626C65 
 12134      434D3400 
 12135              	.LASF491:
 12136 3954 5F6F6666 		.ascii	"_off_t\000"
 12136      5F7400
 12137              	.LASF447:
 12138 395b 43595F53 		.ascii	"CY_SCB_I2C_NAK\000"
 12138      43425F49 
 12138      32435F4E 
 12138      414B00
 12139              	.LASF338:
 12140 396a 64774368 		.ascii	"dwChCtlPrioPos\000"
 12140      43746C50 
 12140      72696F50 
 12140      6F7300
 12141              	.LASF297:
 12142 3979 69706342 		.ascii	"ipcBase\000"
 12142      61736500 
 12143              	.LASF350:
 12144 3981 70657269 		.ascii	"periDiv8CtlOffset\000"
ARM GAS  C:\Users\ASUS\AppData\Local\Temp\ccarWmgw.s 			page 296


 12144      44697638 
 12144      43746C4F 
 12144      66667365 
 12144      7400
 12145              	.LASF251:
 12146 3993 52585F46 		.ascii	"RX_FIFO_RD_SILENT\000"
 12146      49464F5F 
 12146      52445F53 
 12146      494C454E 
 12146      5400
 12147              	.LASF573:
 12148 39a5 5F616464 		.ascii	"_add\000"
 12148      00
 12149              	.LASF816:
 12150 39aa 43795F42 		.ascii	"Cy_BLE_GATTS_WriteAttributeValueLocal\000"
 12150      4C455F47 
 12150      41545453 
 12150      5F577269 
 12150      74654174 
 12151              	.LASF819:
 12152 39d0 43795F42 		.ascii	"Cy_BLE_RegisterAppHostCallback\000"
 12152      4C455F52 
 12152      65676973 
 12152      74657241 
 12152      7070486F 
 12153              	.LASF339:
 12154 39ef 64774368 		.ascii	"dwChCtlPreemptablePos\000"
 12154      43746C50 
 12154      7265656D 
 12154      70746162 
 12154      6C65506F 
 12155              	.LASF195:
 12156 3a05 73686F72 		.ascii	"short unsigned int\000"
 12156      7420756E 
 12156      7369676E 
 12156      65642069 
 12156      6E7400
 12157              	.LASF509:
 12158 3a18 5F5F746D 		.ascii	"__tm_hour\000"
 12158      5F686F75 
 12158      7200
 12159              	.LASF390:
 12160 3a22 43595F52 		.ascii	"CY_RTC_TIMEOUT\000"
 12160      54435F54 
 12160      494D454F 
 12160      555400
 12161              	.LASF768:
 12162 3a31 72656164 		.ascii	"readBuf\000"
 12162      42756600 
 12163              	.LASF727:
 12164 3a39 63795F65 		.ascii	"cy_en_ble_state_t\000"
 12164      6E5F626C 
 12164      655F7374 
 12164      6174655F 
 12164      7400
 12165              	.LASF90:
 12166 3a4b 63707573 		.ascii	"cpuss_interrupts_dw0_1_IRQn\000"
ARM GAS  C:\Users\ASUS\AppData\Local\Temp\ccarWmgw.s 			page 297


 12166      735F696E 
 12166      74657272 
 12166      75707473 
 12166      5F647730 
 12167              	.LASF440:
 12168 3a67 43595F53 		.ascii	"CY_SCB_I2C_MASTER_MANUAL_BUS_ERR\000"
 12168      43425F49 
 12168      32435F4D 
 12168      41535445 
 12168      525F4D41 
 12169              	.LASF656:
 12170 3a88 43595F42 		.ascii	"CY_BLE_EVT_GAP_DEVICE_DISCONNECTED\000"
 12170      4C455F45 
 12170      56545F47 
 12170      41505F44 
 12170      45564943 
 12171              	.LASF470:
 12172 3aab 736C6176 		.ascii	"slaveRxBufferIdx\000"
 12172      65527842 
 12172      75666665 
 12172      72496478 
 12172      00
 12173              	.LASF256:
 12174 3abc 52455345 		.ascii	"RESERVED11\000"
 12174      52564544 
 12174      313100
 12175              	.LASF828:
 12176 3ac7 43795F53 		.ascii	"Cy_SysLib_AssertFailed\000"
 12176      79734C69 
 12176      625F4173 
 12176      73657274 
 12176      4661696C 
 12177              	.LASF309:
 12178 3ade 63707573 		.ascii	"cpussIpcIrqNr\000"
 12178      73497063 
 12178      4972714E 
 12178      7200
 12179              	.LASF165:
 12180 3aec 7564625F 		.ascii	"udb_interrupts_4_IRQn\000"
 12180      696E7465 
 12180      72727570 
 12180      74735F34 
 12180      5F495251 
 12181              	.LASF40:
 12182 3b02 696F7373 		.ascii	"ioss_interrupts_gpio_1_IRQn\000"
 12182      5F696E74 
 12182      65727275 
 12182      7074735F 
 12182      6770696F 
 12183              	.LASF373:
 12184 3b1e 69706353 		.ascii	"ipcStructSize\000"
 12184      74727563 
 12184      7453697A 
 12184      6500
 12185              	.LASF716:
 12186 3b2c 61637475 		.ascii	"actualLen\000"
 12186      616C4C65 
ARM GAS  C:\Users\ASUS\AppData\Local\Temp\ccarWmgw.s 			page 298


 12186      6E00
 12187              	.LASF271:
 12188 3b36 52455345 		.ascii	"RESERVED16\000"
 12188      52564544 
 12188      313600
 12189              	.LASF290:
 12190 3b41 666C6173 		.ascii	"flashcBase\000"
 12190      68634261 
 12190      736500
 12191              	.LASF281:
 12192 3b4c 52455345 		.ascii	"RESERVED18\000"
 12192      52564544 
 12192      313800
 12193              	.LASF602:
 12194 3b57 43595F42 		.ascii	"CY_BLE_EVT_FLASH_CORRUPT\000"
 12194      4C455F45 
 12194      56545F46 
 12194      4C415348 
 12194      5F434F52 
 12195              	.LASF114:
 12196 3b70 63707573 		.ascii	"cpuss_interrupts_dw1_9_IRQn\000"
 12196      735F696E 
 12196      74657272 
 12196      75707473 
 12196      5F647731 
 12197              	.LASF342:
 12198 3b8c 70657269 		.ascii	"periTrCmdOffset\000"
 12198      5472436D 
 12198      644F6666 
 12198      73657400 
 12199              	.LASF33:
 12200 3b9c 4E766963 		.ascii	"NvicMux27_IRQn\000"
 12200      4D757832 
 12200      375F4952 
 12200      516E00
 12201              	.LASF196:
 12202 3bab 5F5F696E 		.ascii	"__int32_t\000"
 12202      7433325F 
 12202      7400
 12203              	.LASF127:
 12204 3bb5 63707573 		.ascii	"cpuss_interrupts_cm4_cti_0_IRQn\000"
 12204      735F696E 
 12204      74657272 
 12204      75707473 
 12204      5F636D34 
 12205              	.LASF105:
 12206 3bd5 63707573 		.ascii	"cpuss_interrupts_dw1_0_IRQn\000"
 12206      735F696E 
 12206      74657272 
 12206      75707473 
 12206      5F647731 
 12207              	.LASF830:
 12208 3bf1 43795F53 		.ascii	"Cy_SysInt_Init\000"
 12208      7973496E 
 12208      745F496E 
 12208      697400
 12209              	.LASF411:
ARM GAS  C:\Users\ASUS\AppData\Local\Temp\ccarWmgw.s 			page 299


 12210 3c00 6461794F 		.ascii	"dayOfWeek\000"
 12210      66576565 
 12210      6B00
 12211              	.LASF614:
 12212 3c0a 43595F42 		.ascii	"CY_BLE_EVT_GET_LOCAL_RPA_COMPLETE\000"
 12212      4C455F45 
 12212      56545F47 
 12212      45545F4C 
 12212      4F43414C 
 12213              	.LASF771:
 12214 3c2c 78436861 		.ascii	"xChannel\000"
 12214      6E6E656C 
 12214      00
 12215              	.LASF673:
 12216 3c35 43595F42 		.ascii	"CY_BLE_EVT_GAPP_UPDATE_ADV_SCAN_DATA_COMPLETE\000"
 12216      4C455F45 
 12216      56545F47 
 12216      4150505F 
 12216      55504441 
 12217              	.LASF548:
 12218 3c63 5F737464 		.ascii	"_stderr\000"
 12218      65727200 
 12219              	.LASF208:
 12220 3c6b 49534552 		.ascii	"ISER\000"
 12220      00
 12221              	.LASF79:
 12222 3c70 63707573 		.ascii	"cpuss_interrupts_ipc_15_IRQn\000"
 12222      735F696E 
 12222      74657272 
 12222      75707473 
 12222      5F697063 
 12223              	.LASF818:
 12224 3c8d 43795F42 		.ascii	"Cy_BLE_Start\000"
 12224      4C455F53 
 12224      74617274 
 12224      00
 12225              	.LASF481:
 12226 3c9a 72785269 		.ascii	"rxRingBufTail\000"
 12226      6E674275 
 12226      66546169 
 12226      6C00
 12227              	.LASF60:
 12228 3ca8 73727373 		.ascii	"srss_interrupt_backup_IRQn\000"
 12228      5F696E74 
 12228      65727275 
 12228      70745F62 
 12228      61636B75 
 12229              	.LASF517:
 12230 3cc3 5F666E61 		.ascii	"_fnargs\000"
 12230      72677300 
 12231              	.LASF633:
 12232 3ccb 43595F42 		.ascii	"CY_BLE_EVT_SET_TX_PWR_COMPLETE\000"
 12232      4C455F45 
 12232      56545F53 
 12232      45545F54 
 12232      585F5057 
 12233              	.LASF58:
ARM GAS  C:\Users\ASUS\AppData\Local\Temp\ccarWmgw.s 			page 300


 12234 3cea 73727373 		.ascii	"srss_interrupt_mcwdt_0_IRQn\000"
 12234      5F696E74 
 12234      65727275 
 12234      70745F6D 
 12234      63776474 
 12235              	.LASF515:
 12236 3d06 5F5F746D 		.ascii	"__tm_isdst\000"
 12236      5F697364 
 12236      737400
 12237              	.LASF158:
 12238 3d11 74637077 		.ascii	"tcpwm_1_interrupts_21_IRQn\000"
 12238      6D5F315F 
 12238      696E7465 
 12238      72727570 
 12238      74735F32 
 12239              	.LASF478:
 12240 3d2c 72785269 		.ascii	"rxRingBuf\000"
 12240      6E674275 
 12240      6600
 12241              	.LASF451:
 12242 3d36 63795F73 		.ascii	"cy_stc_scb_i2c_context\000"
 12242      74635F73 
 12242      63625F69 
 12242      32635F63 
 12242      6F6E7465 
 12243              	.LASF805:
 12244 3d4d 5254435F 		.ascii	"RTC_RTC_IRQ_cfg\000"
 12244      5254435F 
 12244      4952515F 
 12244      63666700 
 12245              	.LASF14:
 12246 3d5d 4E766963 		.ascii	"NvicMux8_IRQn\000"
 12246      4D757838 
 12246      5F495251 
 12246      6E00
 12247              	.LASF37:
 12248 3d6b 4E766963 		.ascii	"NvicMux31_IRQn\000"
 12248      4D757833 
 12248      315F4952 
 12248      516E00
 12249              	.LASF618:
 12250 3d7a 43595F42 		.ascii	"CY_BLE_EVT_ADD_DEVICE_TO_RPA_LIST_COMPLETE\000"
 12250      4C455F45 
 12250      56545F41 
 12250      44445F44 
 12250      45564943 
 12251              	.LASF508:
 12252 3da5 5F5F746D 		.ascii	"__tm_min\000"
 12252      5F6D696E 
 12252      00
 12253              	.LASF610:
 12254 3dae 43595F42 		.ascii	"CY_BLE_EVT_SET_SUGGESTED_DATA_LENGTH_COMPLETE\000"
 12254      4C455F45 
 12254      56545F53 
 12254      45545F53 
 12254      55474745 
 12255              	.LASF725:
ARM GAS  C:\Users\ASUS\AppData\Local\Temp\ccarWmgw.s 			page 301


 12256 3ddc 43595F42 		.ascii	"CY_BLE_STATE_INITIALIZING\000"
 12256      4C455F53 
 12256      54415445 
 12256      5F494E49 
 12256      5449414C 
 12257              	.LASF232:
 12258 3df6 4932435F 		.ascii	"I2C_CTRL\000"
 12258      4354524C 
 12258      00
 12259              	.LASF318:
 12260 3dff 70657269 		.ascii	"periClockNr\000"
 12260      436C6F63 
 12260      6B4E7200 
 12261              	.LASF331:
 12262 3e0b 666C6173 		.ascii	"flashCtlMainWs0Freq\000"
 12262      6843746C 
 12262      4D61696E 
 12262      57733046 
 12262      72657100 
 12263              	.LASF635:
 12264 3e1f 43595F42 		.ascii	"CY_BLE_EVT_SET_CLK_CONFIG_COMPLETE\000"
 12264      4C455F45 
 12264      56545F53 
 12264      45545F43 
 12264      4C4B5F43 
 12265              	.LASF405:
 12266 3e42 43595F52 		.ascii	"CY_RTC_ALARM_DISABLE\000"
 12266      54435F41 
 12266      4C41524D 
 12266      5F444953 
 12266      41424C45 
 12267              	.LASF26:
 12268 3e57 4E766963 		.ascii	"NvicMux20_IRQn\000"
 12268      4D757832 
 12268      305F4952 
 12268      516E00
 12269              	.LASF304:
 12270 3e66 6873696F 		.ascii	"hsiomVersion\000"
 12270      6D566572 
 12270      73696F6E 
 12270      00
 12271              	.LASF386:
 12272 3e73 43595F53 		.ascii	"CY_SYSPM_WAIT_FOR_EVENT\000"
 12272      5953504D 
 12272      5F574149 
 12272      545F464F 
 12272      525F4556 
 12273              	.LASF450:
 12274 3e8b 63795F63 		.ascii	"cy_cb_scb_i2c_handle_addr_t\000"
 12274      625F7363 
 12274      625F6932 
 12274      635F6861 
 12274      6E646C65 
 12275              	.LASF336:
 12276 3ea7 64774368 		.ascii	"dwChOffset\000"
 12276      4F666673 
 12276      657400
ARM GAS  C:\Users\ASUS\AppData\Local\Temp\ccarWmgw.s 			page 302


 12277              	.LASF817:
 12278 3eb2 43795F53 		.ascii	"Cy_SysLib_Delay\000"
 12278      79734C69 
 12278      625F4465 
 12278      6C617900 
 12279              		.ident	"GCC: (GNU Tools for ARM Embedded Processors) 5.4.1 20160609 (release) [ARM/embedded-5-bran
