ARM GAS  C:\Users\ASUS\AppData\Local\Temp\ccFk8SYL.s 			page 1


   1              		.syntax unified
   2              		.cpu cortex-m0plus
   3              		.fpu softvfp
   4              		.eabi_attribute 20, 1
   5              		.eabi_attribute 21, 1
   6              		.eabi_attribute 23, 3
   7              		.eabi_attribute 24, 1
   8              		.eabi_attribute 25, 1
   9              		.eabi_attribute 26, 1
  10              		.eabi_attribute 30, 1
  11              		.eabi_attribute 34, 0
  12              		.eabi_attribute 18, 4
  13              		.thumb
  14              		.syntax unified
  15              		.file	"Queue.c"
  16              		.text
  17              	.Ltext0:
  18              		.cfi_sections	.debug_frame
  19              		.section	.text.queue_create,"ax",%progbits
  20              		.align	2
  21              		.global	queue_create
  22              		.code	16
  23              		.thumb_func
  24              		.type	queue_create, %function
  25              	queue_create:
  26              	.LFB0:
  27              		.file 1 "Queue.c"
   1:Queue.c       **** #include <stdint.h>
   2:Queue.c       **** #include <stdlib.h>
   3:Queue.c       **** #include <string.h>
   4:Queue.c       **** 
   5:Queue.c       **** #include "Queue.h"
   6:Queue.c       **** 
   7:Queue.c       **** typedef struct Node
   8:Queue.c       **** {
   9:Queue.c       ****     void *data;
  10:Queue.c       ****     struct Node *next;
  11:Queue.c       **** }*node_t;
  12:Queue.c       **** 
  13:Queue.c       **** struct queue
  14:Queue.c       **** {
  15:Queue.c       ****     node_t first;
  16:Queue.c       ****     node_t last;
  17:Queue.c       ****     int size;
  18:Queue.c       **** };
  19:Queue.c       **** 
  20:Queue.c       **** queue_t queue_create(void)
  21:Queue.c       **** {
  28              		.loc 1 21 0
  29              		.cfi_startproc
  30              		@ args = 0, pretend = 0, frame = 0
  31              		@ frame_needed = 0, uses_anonymous_args = 0
  32 0000 10B5     		push	{r4, lr}
  33              		.cfi_def_cfa_offset 8
  34              		.cfi_offset 4, -8
  35              		.cfi_offset 14, -4
  22:Queue.c       ****     queue_t queue;
ARM GAS  C:\Users\ASUS\AppData\Local\Temp\ccFk8SYL.s 			page 2


  23:Queue.c       **** 
  24:Queue.c       ****     queue = malloc(sizeof(*queue));
  36              		.loc 1 24 0
  37 0002 0C20     		movs	r0, #12
  38 0004 FFF7FEFF 		bl	malloc
  39              	.LVL0:
  25:Queue.c       ****     queue->first = queue->last = NULL;
  40              		.loc 1 25 0
  41 0008 0023     		movs	r3, #0
  42 000a 4360     		str	r3, [r0, #4]
  43 000c 0360     		str	r3, [r0]
  26:Queue.c       ****     queue->size = 0;
  44              		.loc 1 26 0
  45 000e 8360     		str	r3, [r0, #8]
  27:Queue.c       ****     return queue;
  28:Queue.c       **** }
  46              		.loc 1 28 0
  47              		@ sp needed
  48 0010 10BD     		pop	{r4, pc}
  49              		.cfi_endproc
  50              	.LFE0:
  51              		.size	queue_create, .-queue_create
  52 0012 C046     		.section	.text.queue_destroy,"ax",%progbits
  53              		.align	2
  54              		.global	queue_destroy
  55              		.code	16
  56              		.thumb_func
  57              		.type	queue_destroy, %function
  58              	queue_destroy:
  59              	.LFB1:
  29:Queue.c       **** 
  30:Queue.c       **** int queue_destroy(queue_t queue)
  31:Queue.c       **** {
  60              		.loc 1 31 0
  61              		.cfi_startproc
  62              		@ args = 0, pretend = 0, frame = 0
  63              		@ frame_needed = 0, uses_anonymous_args = 0
  64              	.LVL1:
  65 0000 10B5     		push	{r4, lr}
  66              		.cfi_def_cfa_offset 8
  67              		.cfi_offset 4, -8
  68              		.cfi_offset 14, -4
  32:Queue.c       ****     if (!queue  || queue->size != 0)
  69              		.loc 1 32 0
  70 0002 0028     		cmp	r0, #0
  71 0004 05D0     		beq	.L4
  72              		.loc 1 32 0 is_stmt 0 discriminator 1
  73 0006 8468     		ldr	r4, [r0, #8]
  74 0008 002C     		cmp	r4, #0
  75 000a 05D1     		bne	.L5
  33:Queue.c       ****     {
  34:Queue.c       ****         return -1;
  35:Queue.c       ****     }
  36:Queue.c       ****     free(queue);
  76              		.loc 1 36 0 is_stmt 1
  77 000c FFF7FEFF 		bl	free
  78              	.LVL2:
ARM GAS  C:\Users\ASUS\AppData\Local\Temp\ccFk8SYL.s 			page 3


  37:Queue.c       ****     return 0;
  79              		.loc 1 37 0
  80 0010 04E0     		b	.L3
  81              	.LVL3:
  82              	.L4:
  34:Queue.c       ****     }
  83              		.loc 1 34 0
  84 0012 0124     		movs	r4, #1
  85 0014 6442     		rsbs	r4, r4, #0
  86 0016 01E0     		b	.L3
  87              	.L5:
  88 0018 0124     		movs	r4, #1
  89 001a 6442     		rsbs	r4, r4, #0
  90              	.LVL4:
  91              	.L3:
  38:Queue.c       **** }
  92              		.loc 1 38 0
  93 001c 2000     		movs	r0, r4
  94              		@ sp needed
  95 001e 10BD     		pop	{r4, pc}
  96              		.cfi_endproc
  97              	.LFE1:
  98              		.size	queue_destroy, .-queue_destroy
  99              		.section	.text.queue_enqueue,"ax",%progbits
 100              		.align	2
 101              		.global	queue_enqueue
 102              		.code	16
 103              		.thumb_func
 104              		.type	queue_enqueue, %function
 105              	queue_enqueue:
 106              	.LFB2:
  39:Queue.c       **** 
  40:Queue.c       **** int queue_enqueue(queue_t queue, void *data)
  41:Queue.c       **** {
 107              		.loc 1 41 0
 108              		.cfi_startproc
 109              		@ args = 0, pretend = 0, frame = 0
 110              		@ frame_needed = 0, uses_anonymous_args = 0
 111              	.LVL5:
 112 0000 70B5     		push	{r4, r5, r6, lr}
 113              		.cfi_def_cfa_offset 16
 114              		.cfi_offset 4, -16
 115              		.cfi_offset 5, -12
 116              		.cfi_offset 6, -8
 117              		.cfi_offset 14, -4
 118 0002 0400     		movs	r4, r0
 119 0004 0D00     		movs	r5, r1
  42:Queue.c       ****     node_t pushed;
  43:Queue.c       **** 
  44:Queue.c       ****     if (!queue  || !data )
 120              		.loc 1 44 0
 121 0006 0028     		cmp	r0, #0
 122 0008 15D0     		beq	.L10
 123              		.loc 1 44 0 is_stmt 0 discriminator 1
 124 000a 0029     		cmp	r1, #0
 125 000c 16D0     		beq	.L11
  45:Queue.c       ****     {
ARM GAS  C:\Users\ASUS\AppData\Local\Temp\ccFk8SYL.s 			page 4


  46:Queue.c       ****         return -1;
  47:Queue.c       ****     }
  48:Queue.c       **** 
  49:Queue.c       ****     pushed = malloc(sizeof(*pushed));
 126              		.loc 1 49 0 is_stmt 1
 127 000e 0820     		movs	r0, #8
 128              	.LVL6:
 129 0010 FFF7FEFF 		bl	malloc
 130              	.LVL7:
  50:Queue.c       ****     if (!pushed )
 131              		.loc 1 50 0
 132 0014 0028     		cmp	r0, #0
 133 0016 14D0     		beq	.L12
  51:Queue.c       ****     {
  52:Queue.c       ****         return -1;
  53:Queue.c       ****     }
  54:Queue.c       ****     pushed->data = data;
 134              		.loc 1 54 0
 135 0018 0560     		str	r5, [r0]
  55:Queue.c       ****     pushed->next = NULL;
 136              		.loc 1 55 0
 137 001a 0023     		movs	r3, #0
 138 001c 4360     		str	r3, [r0, #4]
  56:Queue.c       **** 
  57:Queue.c       ****     if (queue->last != NULL)
 139              		.loc 1 57 0
 140 001e 6368     		ldr	r3, [r4, #4]
 141 0020 002B     		cmp	r3, #0
 142 0022 01D0     		beq	.L8
  58:Queue.c       ****     {
  59:Queue.c       ****         queue->last->next = pushed;
 143              		.loc 1 59 0
 144 0024 5860     		str	r0, [r3, #4]
 145 0026 00E0     		b	.L9
 146              	.L8:
  60:Queue.c       ****     }
  61:Queue.c       ****     else
  62:Queue.c       ****     {
  63:Queue.c       ****         queue->first = pushed;
 147              		.loc 1 63 0
 148 0028 2060     		str	r0, [r4]
 149              	.L9:
  64:Queue.c       ****     }
  65:Queue.c       **** 
  66:Queue.c       ****     queue->last = pushed;
 150              		.loc 1 66 0
 151 002a 6060     		str	r0, [r4, #4]
  67:Queue.c       ****     queue->size++;
 152              		.loc 1 67 0
 153 002c A368     		ldr	r3, [r4, #8]
 154 002e 0133     		adds	r3, r3, #1
 155 0030 A360     		str	r3, [r4, #8]
  68:Queue.c       ****     return 0;
 156              		.loc 1 68 0
 157 0032 0020     		movs	r0, #0
 158              	.LVL8:
 159 0034 07E0     		b	.L7
ARM GAS  C:\Users\ASUS\AppData\Local\Temp\ccFk8SYL.s 			page 5


 160              	.LVL9:
 161              	.L10:
  46:Queue.c       ****     }
 162              		.loc 1 46 0
 163 0036 0120     		movs	r0, #1
 164              	.LVL10:
 165 0038 4042     		rsbs	r0, r0, #0
 166 003a 04E0     		b	.L7
 167              	.LVL11:
 168              	.L11:
 169 003c 0120     		movs	r0, #1
 170              	.LVL12:
 171 003e 4042     		rsbs	r0, r0, #0
 172 0040 01E0     		b	.L7
 173              	.LVL13:
 174              	.L12:
  52:Queue.c       ****     }
 175              		.loc 1 52 0
 176 0042 0120     		movs	r0, #1
 177              	.LVL14:
 178 0044 4042     		rsbs	r0, r0, #0
 179              	.L7:
  69:Queue.c       **** }
 180              		.loc 1 69 0
 181              		@ sp needed
 182              	.LVL15:
 183              	.LVL16:
 184 0046 70BD     		pop	{r4, r5, r6, pc}
 185              		.cfi_endproc
 186              	.LFE2:
 187              		.size	queue_enqueue, .-queue_enqueue
 188              		.section	.text.queue_dequeue,"ax",%progbits
 189              		.align	2
 190              		.global	queue_dequeue
 191              		.code	16
 192              		.thumb_func
 193              		.type	queue_dequeue, %function
 194              	queue_dequeue:
 195              	.LFB3:
  70:Queue.c       **** 
  71:Queue.c       **** int queue_dequeue(queue_t queue, void **data)
  72:Queue.c       **** {
 196              		.loc 1 72 0
 197              		.cfi_startproc
 198              		@ args = 0, pretend = 0, frame = 0
 199              		@ frame_needed = 0, uses_anonymous_args = 0
 200              	.LVL17:
 201 0000 70B5     		push	{r4, r5, r6, lr}
 202              		.cfi_def_cfa_offset 16
 203              		.cfi_offset 4, -16
 204              		.cfi_offset 5, -12
 205              		.cfi_offset 6, -8
 206              		.cfi_offset 14, -4
 207 0002 041E     		subs	r4, r0, #0
  73:Queue.c       ****     node_t popped, next;
  74:Queue.c       **** 
  75:Queue.c       ****     if (!queue || !data || queue->size == 0)
ARM GAS  C:\Users\ASUS\AppData\Local\Temp\ccFk8SYL.s 			page 6


 208              		.loc 1 75 0
 209 0004 13D0     		beq	.L15
 210              		.loc 1 75 0 is_stmt 0 discriminator 1
 211 0006 0029     		cmp	r1, #0
 212 0008 14D0     		beq	.L16
 213              		.loc 1 75 0 discriminator 2
 214 000a 8368     		ldr	r3, [r0, #8]
 215 000c 002B     		cmp	r3, #0
 216 000e 14D0     		beq	.L17
  76:Queue.c       ****     {
  77:Queue.c       ****         return -1;
  78:Queue.c       ****     }
  79:Queue.c       **** 
  80:Queue.c       ****     popped = queue->first;
 217              		.loc 1 80 0 is_stmt 1
 218 0010 0068     		ldr	r0, [r0]
 219              	.LVL18:
  81:Queue.c       ****     *data = popped->data;
 220              		.loc 1 81 0
 221 0012 0368     		ldr	r3, [r0]
 222 0014 0B60     		str	r3, [r1]
  82:Queue.c       ****     next = popped->next;
 223              		.loc 1 82 0
 224 0016 4568     		ldr	r5, [r0, #4]
 225              	.LVL19:
  83:Queue.c       ****     free(popped);
 226              		.loc 1 83 0
 227 0018 FFF7FEFF 		bl	free
 228              	.LVL20:
  84:Queue.c       **** 
  85:Queue.c       ****     queue->first = next;
 229              		.loc 1 85 0
 230 001c 2560     		str	r5, [r4]
  86:Queue.c       ****     queue->size--;
 231              		.loc 1 86 0
 232 001e A368     		ldr	r3, [r4, #8]
 233 0020 581E     		subs	r0, r3, #1
 234 0022 A060     		str	r0, [r4, #8]
  87:Queue.c       ****     if (queue->size == 0)
 235              		.loc 1 87 0
 236 0024 0028     		cmp	r0, #0
 237 0026 0BD1     		bne	.L18
  88:Queue.c       ****     {
  89:Queue.c       ****         queue->last = NULL;
 238              		.loc 1 89 0
 239 0028 0023     		movs	r3, #0
 240 002a 6360     		str	r3, [r4, #4]
 241 002c 09E0     		b	.L14
 242              	.LVL21:
 243              	.L15:
  77:Queue.c       ****     }
 244              		.loc 1 77 0
 245 002e 0120     		movs	r0, #1
 246              	.LVL22:
 247 0030 4042     		rsbs	r0, r0, #0
 248 0032 06E0     		b	.L14
 249              	.LVL23:
ARM GAS  C:\Users\ASUS\AppData\Local\Temp\ccFk8SYL.s 			page 7


 250              	.L16:
 251 0034 0120     		movs	r0, #1
 252              	.LVL24:
 253 0036 4042     		rsbs	r0, r0, #0
 254 0038 03E0     		b	.L14
 255              	.LVL25:
 256              	.L17:
 257 003a 0120     		movs	r0, #1
 258              	.LVL26:
 259 003c 4042     		rsbs	r0, r0, #0
 260 003e 00E0     		b	.L14
 261              	.LVL27:
 262              	.L18:
  90:Queue.c       ****     }
  91:Queue.c       ****     return 0;
 263              		.loc 1 91 0
 264 0040 0020     		movs	r0, #0
 265              	.LVL28:
 266              	.L14:
  92:Queue.c       **** }
 267              		.loc 1 92 0
 268              		@ sp needed
 269              	.LVL29:
 270 0042 70BD     		pop	{r4, r5, r6, pc}
 271              		.cfi_endproc
 272              	.LFE3:
 273              		.size	queue_dequeue, .-queue_dequeue
 274              		.section	.text.queue_delete,"ax",%progbits
 275              		.align	2
 276              		.global	queue_delete
 277              		.code	16
 278              		.thumb_func
 279              		.type	queue_delete, %function
 280              	queue_delete:
 281              	.LFB4:
  93:Queue.c       **** 
  94:Queue.c       **** int queue_delete(queue_t queue, void *data)
  95:Queue.c       **** {
 282              		.loc 1 95 0
 283              		.cfi_startproc
 284              		@ args = 0, pretend = 0, frame = 0
 285              		@ frame_needed = 0, uses_anonymous_args = 0
 286              	.LVL30:
 287 0000 70B5     		push	{r4, r5, r6, lr}
 288              		.cfi_def_cfa_offset 16
 289              		.cfi_offset 4, -16
 290              		.cfi_offset 5, -12
 291              		.cfi_offset 6, -8
 292              		.cfi_offset 14, -4
 293 0002 051E     		subs	r5, r0, #0
  96:Queue.c       ****     node_t current, previous, next;
  97:Queue.c       **** 
  98:Queue.c       ****     if (!queue  || !data  || queue->size == 0)
 294              		.loc 1 98 0
 295 0004 20D0     		beq	.L26
 296              		.loc 1 98 0 is_stmt 0 discriminator 1
 297 0006 0029     		cmp	r1, #0
ARM GAS  C:\Users\ASUS\AppData\Local\Temp\ccFk8SYL.s 			page 8


 298 0008 21D0     		beq	.L27
 299              		.loc 1 98 0 discriminator 2
 300 000a 8368     		ldr	r3, [r0, #8]
 301 000c 002B     		cmp	r3, #0
 302 000e 21D0     		beq	.L28
  99:Queue.c       ****     {
 100:Queue.c       ****         return -1;
 101:Queue.c       ****     }
 102:Queue.c       **** 
 103:Queue.c       ****     for (current = queue->first, previous = NULL;
 303              		.loc 1 103 0 is_stmt 1
 304 0010 0068     		ldr	r0, [r0]
 305              	.LVL31:
 306 0012 0024     		movs	r4, #0
 307 0014 01E0     		b	.L21
 308              	.LVL32:
 309              	.L23:
 104:Queue.c       ****          current != NULL && current->data != data;
 105:Queue.c       ****          previous = current, current = current->next)
 310              		.loc 1 105 0
 311 0016 0400     		movs	r4, r0
 312 0018 4068     		ldr	r0, [r0, #4]
 313              	.LVL33:
 314              	.L21:
 103:Queue.c       ****          current != NULL && current->data != data;
 315              		.loc 1 103 0 discriminator 1
 316 001a 0028     		cmp	r0, #0
 317 001c 02D0     		beq	.L22
 104:Queue.c       ****          current != NULL && current->data != data;
 318              		.loc 1 104 0
 319 001e 0368     		ldr	r3, [r0]
 320 0020 9942     		cmp	r1, r3
 321 0022 F8D1     		bne	.L23
 322              	.L22:
 106:Queue.c       ****         ;
 107:Queue.c       ****     if (!current )
 323              		.loc 1 107 0
 324 0024 0028     		cmp	r0, #0
 325 0026 18D0     		beq	.L29
 108:Queue.c       ****     {
 109:Queue.c       ****         return -1;
 110:Queue.c       ****     }
 111:Queue.c       ****     next = current->next;
 326              		.loc 1 111 0
 327 0028 4668     		ldr	r6, [r0, #4]
 328              	.LVL34:
 112:Queue.c       ****     free(current);
 329              		.loc 1 112 0
 330 002a FFF7FEFF 		bl	free
 331              	.LVL35:
 113:Queue.c       **** 
 114:Queue.c       ****     if (!previous )
 332              		.loc 1 114 0
 333 002e 002C     		cmp	r4, #0
 334 0030 01D1     		bne	.L24
 115:Queue.c       ****     {
 116:Queue.c       ****         queue->first = next;
ARM GAS  C:\Users\ASUS\AppData\Local\Temp\ccFk8SYL.s 			page 9


 335              		.loc 1 116 0
 336 0032 2E60     		str	r6, [r5]
 337 0034 00E0     		b	.L25
 338              	.L24:
 117:Queue.c       ****     }
 118:Queue.c       ****     else
 119:Queue.c       ****     {
 120:Queue.c       ****         previous->next = next;
 339              		.loc 1 120 0
 340 0036 6660     		str	r6, [r4, #4]
 341              	.L25:
 121:Queue.c       ****     }
 122:Queue.c       ****     queue->size--;
 342              		.loc 1 122 0
 343 0038 AB68     		ldr	r3, [r5, #8]
 344 003a 581E     		subs	r0, r3, #1
 345 003c A860     		str	r0, [r5, #8]
 123:Queue.c       ****     if (queue->size == 0)
 346              		.loc 1 123 0
 347 003e 0028     		cmp	r0, #0
 348 0040 0ED1     		bne	.L30
 124:Queue.c       ****     {
 125:Queue.c       ****         queue->last = NULL;
 349              		.loc 1 125 0
 350 0042 0023     		movs	r3, #0
 351 0044 6B60     		str	r3, [r5, #4]
 352 0046 0CE0     		b	.L20
 353              	.LVL36:
 354              	.L26:
 100:Queue.c       ****     }
 355              		.loc 1 100 0
 356 0048 0120     		movs	r0, #1
 357              	.LVL37:
 358 004a 4042     		rsbs	r0, r0, #0
 359 004c 09E0     		b	.L20
 360              	.LVL38:
 361              	.L27:
 362 004e 0120     		movs	r0, #1
 363              	.LVL39:
 364 0050 4042     		rsbs	r0, r0, #0
 365 0052 06E0     		b	.L20
 366              	.LVL40:
 367              	.L28:
 368 0054 0120     		movs	r0, #1
 369              	.LVL41:
 370 0056 4042     		rsbs	r0, r0, #0
 371 0058 03E0     		b	.L20
 372              	.LVL42:
 373              	.L29:
 109:Queue.c       ****     }
 374              		.loc 1 109 0
 375 005a 0120     		movs	r0, #1
 376              	.LVL43:
 377 005c 4042     		rsbs	r0, r0, #0
 378 005e 00E0     		b	.L20
 379              	.LVL44:
 380              	.L30:
ARM GAS  C:\Users\ASUS\AppData\Local\Temp\ccFk8SYL.s 			page 10


 126:Queue.c       ****     }
 127:Queue.c       ****     return 0;
 381              		.loc 1 127 0
 382 0060 0020     		movs	r0, #0
 383              	.LVL45:
 384              	.L20:
 128:Queue.c       **** }
 385              		.loc 1 128 0
 386              		@ sp needed
 387              	.LVL46:
 388 0062 70BD     		pop	{r4, r5, r6, pc}
 389              		.cfi_endproc
 390              	.LFE4:
 391              		.size	queue_delete, .-queue_delete
 392              		.section	.text.queue_iterate,"ax",%progbits
 393              		.align	2
 394              		.global	queue_iterate
 395              		.code	16
 396              		.thumb_func
 397              		.type	queue_iterate, %function
 398              	queue_iterate:
 399              	.LFB5:
 129:Queue.c       **** 
 130:Queue.c       **** int queue_iterate(queue_t queue, queue_func_t func, void *arg, void **data)
 131:Queue.c       **** {
 400              		.loc 1 131 0
 401              		.cfi_startproc
 402              		@ args = 0, pretend = 0, frame = 0
 403              		@ frame_needed = 0, uses_anonymous_args = 0
 404              	.LVL47:
 405 0000 F8B5     		push	{r3, r4, r5, r6, r7, lr}
 406              		.cfi_def_cfa_offset 24
 407              		.cfi_offset 3, -24
 408              		.cfi_offset 4, -20
 409              		.cfi_offset 5, -16
 410              		.cfi_offset 6, -12
 411              		.cfi_offset 7, -8
 412              		.cfi_offset 14, -4
 413 0002 0D00     		movs	r5, r1
 414 0004 1600     		movs	r6, r2
 415 0006 1F1E     		subs	r7, r3, #0
 132:Queue.c       ****     node_t current;
 133:Queue.c       ****     if (data != NULL)
 416              		.loc 1 133 0
 417 0008 01D0     		beq	.L32
 134:Queue.c       ****     {
 135:Queue.c       ****         *data = NULL;
 418              		.loc 1 135 0
 419 000a 0023     		movs	r3, #0
 420              	.LVL48:
 421 000c 3B60     		str	r3, [r7]
 422              	.L32:
 136:Queue.c       ****     }
 137:Queue.c       **** 
 138:Queue.c       ****     if (!queue  || !func )
 423              		.loc 1 138 0
 424 000e 0028     		cmp	r0, #0
ARM GAS  C:\Users\ASUS\AppData\Local\Temp\ccFk8SYL.s 			page 11


 425 0010 13D0     		beq	.L37
 426              		.loc 1 138 0 is_stmt 0 discriminator 1
 427 0012 002D     		cmp	r5, #0
 428 0014 14D0     		beq	.L38
 139:Queue.c       ****     {
 140:Queue.c       ****         return -1;
 141:Queue.c       ****     }
 142:Queue.c       **** 
 143:Queue.c       ****     for (current = queue->first;
 429              		.loc 1 143 0 is_stmt 1
 430 0016 0468     		ldr	r4, [r0]
 431              	.LVL49:
 432 0018 00E0     		b	.L34
 433              	.LVL50:
 434              	.L36:
 144:Queue.c       ****          current != NULL && func(current->data, arg) != 1;
 145:Queue.c       ****          current = current->next);    
 435              		.loc 1 145 0
 436 001a 6468     		ldr	r4, [r4, #4]
 437              	.LVL51:
 438              	.L34:
 143:Queue.c       ****          current != NULL && func(current->data, arg) != 1;
 439              		.loc 1 143 0 discriminator 1
 440 001c 002C     		cmp	r4, #0
 441 001e 04D0     		beq	.L35
 144:Queue.c       ****          current != NULL && func(current->data, arg) != 1;
 442              		.loc 1 144 0
 443 0020 3100     		movs	r1, r6
 444 0022 2068     		ldr	r0, [r4]
 445 0024 A847     		blx	r5
 446              	.LVL52:
 447 0026 0128     		cmp	r0, #1
 448 0028 F7D1     		bne	.L36
 449              	.L35:
 146:Queue.c       ****     if (current != NULL && data != NULL)
 450              		.loc 1 146 0
 451 002a 002C     		cmp	r4, #0
 452 002c 0BD0     		beq	.L39
 453              		.loc 1 146 0 is_stmt 0 discriminator 1
 454 002e 002F     		cmp	r7, #0
 455 0030 0BD0     		beq	.L40
 147:Queue.c       ****     {
 148:Queue.c       ****         *data = current->data;
 456              		.loc 1 148 0 is_stmt 1
 457 0032 2368     		ldr	r3, [r4]
 458 0034 3B60     		str	r3, [r7]
 149:Queue.c       ****     }
 150:Queue.c       **** 
 151:Queue.c       ****     return 0;
 459              		.loc 1 151 0
 460 0036 0020     		movs	r0, #0
 461 0038 08E0     		b	.L33
 462              	.LVL53:
 463              	.L37:
 140:Queue.c       ****     }
 464              		.loc 1 140 0
 465 003a 0120     		movs	r0, #1
ARM GAS  C:\Users\ASUS\AppData\Local\Temp\ccFk8SYL.s 			page 12


 466              	.LVL54:
 467 003c 4042     		rsbs	r0, r0, #0
 468 003e 05E0     		b	.L33
 469              	.LVL55:
 470              	.L38:
 471 0040 0120     		movs	r0, #1
 472              	.LVL56:
 473 0042 4042     		rsbs	r0, r0, #0
 474 0044 02E0     		b	.L33
 475              	.LVL57:
 476              	.L39:
 477              		.loc 1 151 0
 478 0046 0020     		movs	r0, #0
 479 0048 00E0     		b	.L33
 480              	.L40:
 481 004a 0020     		movs	r0, #0
 482              	.LVL58:
 483              	.L33:
 152:Queue.c       **** }
 484              		.loc 1 152 0
 485              		@ sp needed
 486              	.LVL59:
 487              	.LVL60:
 488              	.LVL61:
 489 004c F8BD     		pop	{r3, r4, r5, r6, r7, pc}
 490              		.cfi_endproc
 491              	.LFE5:
 492              		.size	queue_iterate, .-queue_iterate
 493 004e C046     		.section	.text.queue_length,"ax",%progbits
 494              		.align	2
 495              		.global	queue_length
 496              		.code	16
 497              		.thumb_func
 498              		.type	queue_length, %function
 499              	queue_length:
 500              	.LFB6:
 153:Queue.c       **** 
 154:Queue.c       **** int queue_length(queue_t queue)
 155:Queue.c       **** {
 501              		.loc 1 155 0
 502              		.cfi_startproc
 503              		@ args = 0, pretend = 0, frame = 0
 504              		@ frame_needed = 0, uses_anonymous_args = 0
 505              		@ link register save eliminated.
 506              	.LVL62:
 156:Queue.c       ****     return queue ? queue->size : -1;
 507              		.loc 1 156 0
 508 0000 0028     		cmp	r0, #0
 509 0002 01D0     		beq	.L43
 510              		.loc 1 156 0 is_stmt 0 discriminator 1
 511 0004 8068     		ldr	r0, [r0, #8]
 512              	.LVL63:
 513 0006 01E0     		b	.L42
 514              	.LVL64:
 515              	.L43:
 516              		.loc 1 156 0
 517 0008 0120     		movs	r0, #1
ARM GAS  C:\Users\ASUS\AppData\Local\Temp\ccFk8SYL.s 			page 13


 518              	.LVL65:
 519 000a 4042     		rsbs	r0, r0, #0
 520              	.L42:
 157:Queue.c       **** }
 521              		.loc 1 157 0 is_stmt 1 discriminator 4
 522              		@ sp needed
 523 000c 7047     		bx	lr
 524              		.cfi_endproc
 525              	.LFE6:
 526              		.size	queue_length, .-queue_length
 527 000e C046     		.text
 528              	.Letext0:
 529              		.file 2 "Queue.h"
 530              		.file 3 "d:\\program files (x86)\\cypress\\psoc creator\\4.2\\psoc creator\\import\\gnu\\arm\\5.4.